; generated by Component: ARM Compiler 5.06 update 6 (build 750) Tool: ArmCC [4d3637]
; commandline ArmCC [--list --split_sections --debug -c --asm --interleave -o..\output\c_dc.o --asm_dir=..\Listing\ --list_dir=..\Listing\ --depend=..\output\c_dc.d --cpu=Cortex-M4.fp.sp --apcs=interwork -O1 --diag_suppress=9931,870 -I..\APP -I..\drive -I..\Include -I..\Libraries\CMSIS\inc -I..\Libraries\CMSIS\src -I..\Libraries\FWlib\inc -I..\Libraries\FWlib\src -I..\Listing -I..\Output -I..\Project -I..\STemWinLibrary522\Config -I..\STemWinLibrary522\emWinTask -I..\STemWinLibrary522\GUILib -I..\STemWinLibrary522\inc -I..\User -I..\USB\STM32_USB_HOST_Library\Class\HID\inc -I..\USB\STM32_USB_HOST_Library\Class\MSC\src -I..\USB\STM32_USB_HOST_Library\Core\src -I..\USB\USB_APP -I..\USB\STM32_USB_HOST_Library\Class\HID\src -I..\USB\STM32_USB_HOST_Library\Class\MSC\inc -I..\USB\STM32_USB_HOST_Library\Core\inc -I..\USB\STM32_USB_OTG_Driver\inc -I..\FATFS\exfuns -I..\FATFS\src\option -I..\FATFS\src -I..\MALLOC -I..\FATFS -I..\IAP -IE:\Keil_v5\ARM\RV31\INC -IE:\Keil_v5\ARM\CMSIS\Include -IE:\Keil_v5\ARM\INC\ST\STM32F4xx -D__UVISION_VERSION=537 -DUSE_STDPERIPH_DRIVER -DSTM32F40XX -DUSE_USB_OTG_FS -DUSE_EMBEDDED_PHY -DUSE_USB_OTG_HS -DSTM32F40XX --omf_browse=..\output\c_dc.crf --no_multibyte_chars ..\APP\c_dc.c]
                          THUMB

                          AREA ||i.CDC_OP_DOWN||, CODE, READONLY, ALIGN=2

                  CDC_OP_DOWN PROC
;;;1456   
;;;1457   void CDC_OP_DOWN(void)
000000  e92d5ff0          PUSH     {r4-r12,lr}
;;;1458   {
;;;1459       switch(set_sw)
000004  4d88              LDR      r5,|L1.552|
000006  7829              LDRB     r1,[r5,#0]  ; set_sw
;;;1460       {
;;;1461           case set_26:
;;;1462           {
;;;1463               WM_HWIN hItem;
;;;1464   //            WM_InvalidateWindow(hWincdc);
;;;1465               hItem = WM_GetDialogItem(hWincdc, ID_TEXT_50);
000008  4c88              LDR      r4,|L1.556|
;;;1466               TEXT_SetBkColor(hItem,GUI_INVALID_COLOR);//选项背景色设为透明
;;;1467               TEXT_SetTextColor(hItem, GUI_WHITE);
;;;1468                  
;;;1469               hItem = WM_GetDialogItem(hWincdc, ID_TEXT_51);
;;;1470               TEXT_SetBkColor(hItem,0x00BFFFFF);//选项背景色设为米色
00000a  f8dfb224          LDR      r11,|L1.560|
00000e  f640066f          MOV      r6,#0x86f             ;1465
000012  69a0              LDR      r0,[r4,#0x18]         ;1459
000014  f06f4770          MVN      r7,#0xf0000000        ;1466
000018  f06f487f          MVN      r8,#0xff000000        ;1467
;;;1471               TEXT_SetTextColor(hItem, GUI_BLACK);
;;;1472               
;;;1473               
;;;1474               set_sw = set_27;
;;;1475               break;
;;;1476           }
;;;1477           case set_27:
;;;1478           {
;;;1479               WM_HWIN hItem;
;;;1480   //            WM_InvalidateWindow(hWincdc);
;;;1481               hItem = WM_GetDialogItem(hWincdc, ID_TEXT_51);
;;;1482               TEXT_SetBkColor(hItem,GUI_INVALID_COLOR);//选项背景色设为透明
;;;1483               TEXT_SetTextColor(hItem, GUI_WHITE);
;;;1484                  
;;;1485               hItem = WM_GetDialogItem(hWincdc, ID_TEXT_58);
;;;1486               TEXT_SetBkColor(hItem,0x00BFFFFF);//选项背景色设为米色
;;;1487               TEXT_SetTextColor(hItem, GUI_BLACK);
;;;1488   
;;;1489               set_sw = set_28;
;;;1490               break;
;;;1491           }
;;;1492           case set_28:
;;;1493           {
;;;1494               WM_HWIN hItem;
;;;1495   //            WM_InvalidateWindow(hWincdc);
;;;1496               hItem = WM_GetDialogItem(hWincdc, ID_TEXT_58);
;;;1497               TEXT_SetBkColor(hItem,GUI_INVALID_COLOR);//选项背景色设为透明
;;;1498               TEXT_SetTextColor(hItem, GUI_WHITE);
;;;1499                  
;;;1500               hItem = WM_GetDialogItem(hWincdc, ID_TEXT_59);
;;;1501               TEXT_SetBkColor(hItem,0x00BFFFFF);//选项背景色设为米色
;;;1502               TEXT_SetTextColor(hItem, GUI_BLACK);
;;;1503   
;;;1504               set_sw = set_29;
;;;1505               break;
;;;1506           }
;;;1507           case set_29:
;;;1508           {
;;;1509               WM_HWIN hItem;
;;;1510   //            WM_InvalidateWindow(hWincdc);
;;;1511               hItem = WM_GetDialogItem(hWincdc, ID_TEXT_59);
;;;1512               TEXT_SetBkColor(hItem,GUI_INVALID_COLOR);//选项背景色设为透明
;;;1513               TEXT_SetTextColor(hItem, GUI_WHITE);
;;;1514                  
;;;1515               hItem = WM_GetDialogItem(hWincdc, ID_TEXT_52);
00001c  f6400971          MOV      r9,#0x871
;;;1516               TEXT_SetBkColor(hItem,0x00BFFFFF);//选项背景色设为米色
;;;1517               TEXT_SetTextColor(hItem, GUI_BLACK);
;;;1518   
;;;1519               set_sw = set_34;
;;;1520               break;
;;;1521           }
;;;1522           case set_34:
;;;1523           {
;;;1524               WM_HWIN hItem;
;;;1525   //            WM_InvalidateWindow(hWincdc);
;;;1526               hItem = WM_GetDialogItem(hWincdc, ID_TEXT_52);
;;;1527               TEXT_SetBkColor(hItem,GUI_INVALID_COLOR);//选项背景色设为透明
;;;1528               TEXT_SetTextColor(hItem, GUI_WHITE);
;;;1529                  
;;;1530               hItem = WM_GetDialogItem(hWincdc, ID_TEXT_60);
000020  f6400a79          MOV      r10,#0x879
000024  2921              CMP      r1,#0x21              ;1459
000026  d07c              BEQ      |L1.290|
000028  dc2a              BGT      |L1.128|
00002a  f44f6a07          MOV      r10,#0x870            ;1469
00002e  2919              CMP      r1,#0x19              ;1459
000030  d04c              BEQ      |L1.204|
000032  f6400677          MOV      r6,#0x877             ;1485
000036  291a              CMP      r1,#0x1a              ;1459
000038  d064              BEQ      |L1.260|
00003a  f6400a78          MOV      r10,#0x878            ;1500
00003e  291b              CMP      r1,#0x1b              ;1459
000040  d07f              BEQ      |L1.322|
000042  291c              CMP      r1,#0x1c              ;1459
000044  d11a              BNE      |L1.124|
000046  4651              MOV      r1,r10                ;1511
000048  f7fffffe          BL       WM_GetDialogItem
00004c  4606              MOV      r6,r0                 ;1511
00004e  4639              MOV      r1,r7                 ;1512
000050  4630              MOV      r0,r6                 ;1512
000052  f7fffffe          BL       TEXT_SetBkColor
000056  4641              MOV      r1,r8                 ;1513
000058  4630              MOV      r0,r6                 ;1513
00005a  f7fffffe          BL       TEXT_SetTextColor
00005e  4649              MOV      r1,r9                 ;1515
000060  69a0              LDR      r0,[r4,#0x18]         ;1515  ; hWincdc
000062  f7fffffe          BL       WM_GetDialogItem
000066  4604              MOV      r4,r0                 ;1515
000068  4659              MOV      r1,r11                ;1516
00006a  4620              MOV      r0,r4                 ;1516
00006c  f7fffffe          BL       TEXT_SetBkColor
000070  2100              MOVS     r1,#0                 ;1517
000072  4620              MOV      r0,r4                 ;1517
000074  f7fffffe          BL       TEXT_SetTextColor
000078  2021              MOVS     r0,#0x21              ;1519
00007a  7028              STRB     r0,[r5,#0]            ;1519
                  |L1.124|
;;;1531               TEXT_SetBkColor(hItem,0x00BFFFFF);//选项背景色设为米色
;;;1532               TEXT_SetTextColor(hItem, GUI_BLACK);
;;;1533   
;;;1534               set_sw = set_35;
;;;1535               break;
;;;1536           }
;;;1537           case set_35:
;;;1538           {
;;;1539               WM_HWIN hItem;
;;;1540   //            WM_InvalidateWindow(hWincdc);
;;;1541               hItem = WM_GetDialogItem(hWincdc, ID_TEXT_60);
;;;1542               TEXT_SetBkColor(hItem,GUI_INVALID_COLOR);//选项背景色设为透明
;;;1543               TEXT_SetTextColor(hItem, GUI_WHITE);
;;;1544                  
;;;1545               hItem = WM_GetDialogItem(hWincdc, ID_TEXT_53);
;;;1546               TEXT_SetBkColor(hItem,0x00BFFFFF);//选项背景色设为米色
;;;1547               TEXT_SetTextColor(hItem, GUI_BLACK);
;;;1548   
;;;1549               set_sw = set_37;
;;;1550               break;
;;;1551           }
;;;1552   //         case set_36:
;;;1553   //         {
;;;1554   //             WM_HWIN hItem;
;;;1555   //             WM_InvalidateWindow(hWincdc);
;;;1556   //             hItem = WM_GetDialogItem(hWincdc, ID_TEXT_61);
;;;1557   //             TEXT_SetBkColor(hItem,GUI_INVALID_COLOR);//选项背景色设为透明
;;;1558   //                
;;;1559   //             hItem = WM_GetDialogItem(hWincdc, ID_TEXT_53);
;;;1560   //             TEXT_SetBkColor(hItem,0x00BFFFFF);//选项背景色设为米色
;;;1561   
;;;1562   //             set_sw = set_37;
;;;1563   //             break;
;;;1564   //         }
;;;1565           case set_37:
;;;1566           {
;;;1567               WM_HWIN hItem;
;;;1568   //            WM_InvalidateWindow(hWincdc);
;;;1569               hItem = WM_GetDialogItem(hWincdc, ID_TEXT_53);
;;;1570               TEXT_SetBkColor(hItem,GUI_INVALID_COLOR);//选项背景色设为透明
;;;1571               TEXT_SetTextColor(hItem, GUI_WHITE);
;;;1572                  
;;;1573               hItem = WM_GetDialogItem(hWincdc, ID_TEXT_168);
;;;1574               TEXT_SetBkColor(hItem,0x00BFFFFF);//选项背景色设为米色
;;;1575               TEXT_SetTextColor(hItem, GUI_BLACK);
;;;1576   
;;;1577               set_sw = set_92;
;;;1578               break;
;;;1579           }
;;;1580   		case set_92:
;;;1581           {
;;;1582               WM_HWIN hItem;
;;;1583   //            WM_InvalidateWindow(hWincdc);
;;;1584               hItem = WM_GetDialogItem(hWincdc, ID_TEXT_168);
;;;1585               TEXT_SetBkColor(hItem,GUI_INVALID_COLOR);//选项背景色设为透明
;;;1586               TEXT_SetTextColor(hItem, GUI_WHITE);
;;;1587                  
;;;1588               hItem = WM_GetDialogItem(hWincdc, ID_TEXT_50);
;;;1589               TEXT_SetBkColor(hItem,0x00BFFFFF);//选项背景色设为米色
;;;1590               TEXT_SetTextColor(hItem, GUI_BLACK);
;;;1591   
;;;1592               set_sw = set_26;
;;;1593               break;
;;;1594           }
;;;1595           default: break;
;;;1596       }
;;;1597   }
00007c  e8bd9ff0          POP      {r4-r12,pc}
                  |L1.128|
000080  f6400972          MOV      r9,#0x872             ;1545
000084  2922              CMP      r1,#0x22              ;1459
000086  d078              BEQ      |L1.378|
000088  f6401a43          MOV      r10,#0x943            ;1573
00008c  2924              CMP      r1,#0x24              ;1459
00008e  d075              BEQ      |L1.380|
000090  295b              CMP      r1,#0x5b              ;1459
000092  d1f3              BNE      |L1.124|
000094  4651              MOV      r1,r10                ;1584
000096  f7fffffe          BL       WM_GetDialogItem
00009a  4681              MOV      r9,r0                 ;1584
00009c  4639              MOV      r1,r7                 ;1585
00009e  4648              MOV      r0,r9                 ;1585
0000a0  f7fffffe          BL       TEXT_SetBkColor
0000a4  4641              MOV      r1,r8                 ;1586
0000a6  4648              MOV      r0,r9                 ;1586
0000a8  f7fffffe          BL       TEXT_SetTextColor
0000ac  4631              MOV      r1,r6                 ;1588
0000ae  69a0              LDR      r0,[r4,#0x18]         ;1588  ; hWincdc
0000b0  f7fffffe          BL       WM_GetDialogItem
0000b4  4604              MOV      r4,r0                 ;1588
0000b6  4659              MOV      r1,r11                ;1589
0000b8  4620              MOV      r0,r4                 ;1589
0000ba  f7fffffe          BL       TEXT_SetBkColor
0000be  2100              MOVS     r1,#0                 ;1590
0000c0  4620              MOV      r0,r4                 ;1590
0000c2  f7fffffe          BL       TEXT_SetTextColor
0000c6  2019              MOVS     r0,#0x19              ;1592
0000c8  7028              STRB     r0,[r5,#0]            ;1592
0000ca  e7d7              B        |L1.124|
                  |L1.204|
0000cc  4631              MOV      r1,r6                 ;1465
0000ce  f7fffffe          BL       WM_GetDialogItem
0000d2  4606              MOV      r6,r0                 ;1465
0000d4  4639              MOV      r1,r7                 ;1466
0000d6  4630              MOV      r0,r6                 ;1466
0000d8  f7fffffe          BL       TEXT_SetBkColor
0000dc  4641              MOV      r1,r8                 ;1467
0000de  4630              MOV      r0,r6                 ;1467
0000e0  f7fffffe          BL       TEXT_SetTextColor
0000e4  4651              MOV      r1,r10                ;1469
0000e6  69a0              LDR      r0,[r4,#0x18]         ;1469  ; hWincdc
0000e8  f7fffffe          BL       WM_GetDialogItem
0000ec  4604              MOV      r4,r0                 ;1469
0000ee  4659              MOV      r1,r11                ;1470
0000f0  4620              MOV      r0,r4                 ;1470
0000f2  f7fffffe          BL       TEXT_SetBkColor
0000f6  2100              MOVS     r1,#0                 ;1471
0000f8  4620              MOV      r0,r4                 ;1471
0000fa  f7fffffe          BL       TEXT_SetTextColor
0000fe  201a              MOVS     r0,#0x1a              ;1474
000100  7028              STRB     r0,[r5,#0]            ;1474
000102  e7bb              B        |L1.124|
                  |L1.260|
000104  4651              MOV      r1,r10                ;1481
000106  f7fffffe          BL       WM_GetDialogItem
00010a  4681              MOV      r9,r0                 ;1481
00010c  4639              MOV      r1,r7                 ;1482
00010e  4648              MOV      r0,r9                 ;1482
000110  f7fffffe          BL       TEXT_SetBkColor
000114  4641              MOV      r1,r8                 ;1483
000116  4648              MOV      r0,r9                 ;1483
000118  f7fffffe          BL       TEXT_SetTextColor
00011c  4631              MOV      r1,r6                 ;1485
00011e  69a0              LDR      r0,[r4,#0x18]         ;1485  ; hWincdc
000120  e001              B        |L1.294|
                  |L1.290|
000122  e02c              B        |L1.382|
000124  e00d              B        |L1.322|
                  |L1.294|
000126  f7fffffe          BL       WM_GetDialogItem
00012a  4604              MOV      r4,r0                 ;1485
00012c  4659              MOV      r1,r11                ;1486
00012e  4620              MOV      r0,r4                 ;1486
000130  f7fffffe          BL       TEXT_SetBkColor
000134  2100              MOVS     r1,#0                 ;1487
000136  4620              MOV      r0,r4                 ;1487
000138  f7fffffe          BL       TEXT_SetTextColor
00013c  201b              MOVS     r0,#0x1b              ;1489
00013e  7028              STRB     r0,[r5,#0]            ;1489
000140  e79c              B        |L1.124|
                  |L1.322|
000142  4631              MOV      r1,r6                 ;1496
000144  f7fffffe          BL       WM_GetDialogItem
000148  4606              MOV      r6,r0                 ;1496
00014a  4639              MOV      r1,r7                 ;1497
00014c  4630              MOV      r0,r6                 ;1497
00014e  f7fffffe          BL       TEXT_SetBkColor
000152  4641              MOV      r1,r8                 ;1498
000154  4630              MOV      r0,r6                 ;1498
000156  f7fffffe          BL       TEXT_SetTextColor
00015a  4651              MOV      r1,r10                ;1500
00015c  69a0              LDR      r0,[r4,#0x18]         ;1500  ; hWincdc
00015e  f7fffffe          BL       WM_GetDialogItem
000162  4604              MOV      r4,r0                 ;1500
000164  4659              MOV      r1,r11                ;1501
000166  4620              MOV      r0,r4                 ;1501
000168  f7fffffe          BL       TEXT_SetBkColor
00016c  2100              MOVS     r1,#0                 ;1502
00016e  4620              MOV      r0,r4                 ;1502
000170  f7fffffe          BL       TEXT_SetTextColor
000174  201c              MOVS     r0,#0x1c              ;1504
000176  7028              STRB     r0,[r5,#0]            ;1504
000178  e780              B        |L1.124|
                  |L1.378|
00017a  e01c              B        |L1.438|
                  |L1.380|
00017c  e037              B        |L1.494|
                  |L1.382|
00017e  4649              MOV      r1,r9                 ;1526
000180  f7fffffe          BL       WM_GetDialogItem
000184  4606              MOV      r6,r0                 ;1526
000186  4639              MOV      r1,r7                 ;1527
000188  4630              MOV      r0,r6                 ;1527
00018a  f7fffffe          BL       TEXT_SetBkColor
00018e  4641              MOV      r1,r8                 ;1528
000190  4630              MOV      r0,r6                 ;1528
000192  f7fffffe          BL       TEXT_SetTextColor
000196  4651              MOV      r1,r10                ;1530
000198  69a0              LDR      r0,[r4,#0x18]         ;1530  ; hWincdc
00019a  f7fffffe          BL       WM_GetDialogItem
00019e  4604              MOV      r4,r0                 ;1530
0001a0  4659              MOV      r1,r11                ;1531
0001a2  4620              MOV      r0,r4                 ;1531
0001a4  f7fffffe          BL       TEXT_SetBkColor
0001a8  2100              MOVS     r1,#0                 ;1532
0001aa  4620              MOV      r0,r4                 ;1532
0001ac  f7fffffe          BL       TEXT_SetTextColor
0001b0  2022              MOVS     r0,#0x22              ;1534
0001b2  7028              STRB     r0,[r5,#0]            ;1534
0001b4  e762              B        |L1.124|
                  |L1.438|
0001b6  4651              MOV      r1,r10                ;1541
0001b8  f7fffffe          BL       WM_GetDialogItem
0001bc  4606              MOV      r6,r0                 ;1541
0001be  4639              MOV      r1,r7                 ;1542
0001c0  4630              MOV      r0,r6                 ;1542
0001c2  f7fffffe          BL       TEXT_SetBkColor
0001c6  4641              MOV      r1,r8                 ;1543
0001c8  4630              MOV      r0,r6                 ;1543
0001ca  f7fffffe          BL       TEXT_SetTextColor
0001ce  4649              MOV      r1,r9                 ;1545
0001d0  69a0              LDR      r0,[r4,#0x18]         ;1545  ; hWincdc
0001d2  f7fffffe          BL       WM_GetDialogItem
0001d6  4604              MOV      r4,r0                 ;1545
0001d8  4659              MOV      r1,r11                ;1546
0001da  4620              MOV      r0,r4                 ;1546
0001dc  f7fffffe          BL       TEXT_SetBkColor
0001e0  2100              MOVS     r1,#0                 ;1547
0001e2  4620              MOV      r0,r4                 ;1547
0001e4  f7fffffe          BL       TEXT_SetTextColor
0001e8  2024              MOVS     r0,#0x24              ;1549
0001ea  7028              STRB     r0,[r5,#0]            ;1549
0001ec  e746              B        |L1.124|
                  |L1.494|
0001ee  4649              MOV      r1,r9                 ;1569
0001f0  f7fffffe          BL       WM_GetDialogItem
0001f4  4606              MOV      r6,r0                 ;1569
0001f6  4639              MOV      r1,r7                 ;1570
0001f8  4630              MOV      r0,r6                 ;1570
0001fa  f7fffffe          BL       TEXT_SetBkColor
0001fe  4641              MOV      r1,r8                 ;1571
000200  4630              MOV      r0,r6                 ;1571
000202  f7fffffe          BL       TEXT_SetTextColor
000206  4651              MOV      r1,r10                ;1573
000208  69a0              LDR      r0,[r4,#0x18]         ;1573  ; hWincdc
00020a  f7fffffe          BL       WM_GetDialogItem
00020e  4604              MOV      r4,r0                 ;1573
000210  4659              MOV      r1,r11                ;1574
000212  4620              MOV      r0,r4                 ;1574
000214  f7fffffe          BL       TEXT_SetBkColor
000218  2100              MOVS     r1,#0                 ;1575
00021a  4620              MOV      r0,r4                 ;1575
00021c  f7fffffe          BL       TEXT_SetTextColor
000220  205b              MOVS     r0,#0x5b              ;1577
000222  7028              STRB     r0,[r5,#0]            ;1577
000224  e72a              B        |L1.124|
;;;1598   
                          ENDP

000226  0000              DCW      0x0000
                  |L1.552|
                          DCD      set_sw
                  |L1.556|
                          DCD      ||area_number.18||
                  |L1.560|
                          DCD      0x00bfffff

                          AREA ||i.CDC_OP_LEFT||, CODE, READONLY, ALIGN=2

                  CDC_OP_LEFT PROC
;;;1741   
;;;1742   void CDC_OP_LEFT(void)
000000  4808              LDR      r0,|L2.36|
;;;1743   {
;;;1744       float buffer;
;;;1745       char buf[5];
;;;1746       WM_HWIN hItem;
;;;1747       switch(set_sw)
000002  7800              LDRB     r0,[r0,#0]  ; set_sw
000004  285b              CMP      r0,#0x5b
000006  d108              BNE      |L2.26|
;;;1748       {
;;;1749           case set_92:
;;;1750           {
;;;1751               
;;;1752               if(gapmode==1)
000008  4807              LDR      r0,|L2.40|
00000a  7ac1              LDRB     r1,[r0,#0xb]  ; gapmode
00000c  2901              CMP      r1,#1
00000e  d005              BEQ      |L2.28|
;;;1753               {
;;;1754   				gapmode = 0;
;;;1755               }else if(gapmode==0){
000010  7ac1              LDRB     r1,[r0,#0xb]  ; gapmode
000012  2900              CMP      r1,#0
000014  d101              BNE      |L2.26|
;;;1756   				gapmode = 1;
000016  2101              MOVS     r1,#1
000018  72c1              STRB     r1,[r0,#0xb]
                  |L2.26|
;;;1757               }
;;;1758           }break;
;;;1759   		default:break;
;;;1760       }
;;;1761   }
00001a  4770              BX       lr
                  |L2.28|
00001c  2100              MOVS     r1,#0                 ;1754
00001e  72c1              STRB     r1,[r0,#0xb]          ;1754
000020  4770              BX       lr
;;;1762   
                          ENDP

000022  0000              DCW      0x0000
                  |L2.36|
                          DCD      set_sw
                  |L2.40|
                          DCD      ||area_number.18||

                          AREA ||i.CDC_OP_RIGHT||, CODE, READONLY, ALIGN=2

                  CDC_OP_RIGHT PROC
;;;1763   
;;;1764   void CDC_OP_RIGHT(void)
000000  4808              LDR      r0,|L3.36|
;;;1765   {
;;;1766       float buffer;
;;;1767       char buf[5];
;;;1768       WM_HWIN hItem;
;;;1769   	switch(set_sw)
000002  7800              LDRB     r0,[r0,#0]  ; set_sw
000004  285b              CMP      r0,#0x5b
000006  d108              BNE      |L3.26|
;;;1770       {
;;;1771           case set_92:
;;;1772           {
;;;1773               
;;;1774               if(gapmode==1)
000008  4807              LDR      r0,|L3.40|
00000a  7ac1              LDRB     r1,[r0,#0xb]  ; gapmode
00000c  2901              CMP      r1,#1
00000e  d005              BEQ      |L3.28|
;;;1775               {
;;;1776   				gapmode = 0;
;;;1777               }else if(gapmode==0){
000010  7ac1              LDRB     r1,[r0,#0xb]  ; gapmode
000012  2900              CMP      r1,#0
000014  d101              BNE      |L3.26|
;;;1778   				gapmode = 1;
000016  2101              MOVS     r1,#1
000018  72c1              STRB     r1,[r0,#0xb]
                  |L3.26|
;;;1779               }
;;;1780           }break;
;;;1781   		default:break;
;;;1782       }
;;;1783   }
00001a  4770              BX       lr
                  |L3.28|
00001c  2100              MOVS     r1,#0                 ;1776
00001e  72c1              STRB     r1,[r0,#0xb]          ;1776
000020  4770              BX       lr
;;;1784   
                          ENDP

000022  0000              DCW      0x0000
                  |L3.36|
                          DCD      set_sw
                  |L3.40|
                          DCD      ||area_number.18||

                          AREA ||i.CDC_OP_UP||, CODE, READONLY, ALIGN=2

                  CDC_OP_UP PROC
;;;1599   
;;;1600   void CDC_OP_UP(void)
000000  e92d5ff0          PUSH     {r4-r12,lr}
;;;1601   {
;;;1602       switch(set_sw)
000004  4d87              LDR      r5,|L4.548|
000006  7829              LDRB     r1,[r5,#0]  ; set_sw
;;;1603       {
;;;1604           case set_26:
;;;1605           {
;;;1606               WM_HWIN hItem;
;;;1607   //            WM_InvalidateWindow(hWincdc);
;;;1608               hItem = WM_GetDialogItem(hWincdc, ID_TEXT_50);
000008  4c87              LDR      r4,|L4.552|
;;;1609               TEXT_SetBkColor(hItem,GUI_INVALID_COLOR);//选项背景色设为透明
;;;1610               TEXT_SetTextColor(hItem, GUI_WHITE);
;;;1611                  
;;;1612               hItem = WM_GetDialogItem(hWincdc, ID_TEXT_168);
;;;1613               TEXT_SetBkColor(hItem,0x00BFFFFF);//选项背景色设为米色
;;;1614               TEXT_SetTextColor(hItem, GUI_BLACK);
;;;1615   
;;;1616               set_sw = set_92;
;;;1617               break;
;;;1618           }
;;;1619           case set_27:
;;;1620           {
;;;1621               WM_HWIN hItem;
;;;1622   //            WM_InvalidateWindow(hWincdc);
;;;1623               hItem = WM_GetDialogItem(hWincdc, ID_TEXT_51);
;;;1624               TEXT_SetBkColor(hItem,GUI_INVALID_COLOR);//选项背景色设为透明
;;;1625               TEXT_SetTextColor(hItem, GUI_WHITE);
;;;1626                  
;;;1627               hItem = WM_GetDialogItem(hWincdc, ID_TEXT_50);
;;;1628               TEXT_SetBkColor(hItem,0x00BFFFFF);//选项背景色设为米色
;;;1629               TEXT_SetTextColor(hItem, GUI_BLACK);
;;;1630   
;;;1631               set_sw = set_26;
;;;1632               break;
;;;1633           }
;;;1634           case set_28:
;;;1635           {
;;;1636               WM_HWIN hItem;
;;;1637   //            WM_InvalidateWindow(hWincdc);
;;;1638               hItem = WM_GetDialogItem(hWincdc, ID_TEXT_58);
;;;1639               TEXT_SetBkColor(hItem,GUI_INVALID_COLOR);//选项背景色设为透明
;;;1640               TEXT_SetTextColor(hItem, GUI_WHITE);
;;;1641                  
;;;1642               hItem = WM_GetDialogItem(hWincdc, ID_TEXT_51);
;;;1643               TEXT_SetBkColor(hItem,0x00BFFFFF);//选项背景色设为米色
;;;1644               TEXT_SetTextColor(hItem, GUI_BLACK);
;;;1645   
;;;1646               set_sw = set_27;
;;;1647               break;
;;;1648           }
;;;1649           case set_29:
;;;1650           {
;;;1651               WM_HWIN hItem;
;;;1652   //            WM_InvalidateWindow(hWincdc);
;;;1653               hItem = WM_GetDialogItem(hWincdc, ID_TEXT_59);
00000a  f6400678          MOV      r6,#0x878
00000e  f8dfb21c          LDR      r11,|L4.556|
;;;1654               TEXT_SetBkColor(hItem,GUI_INVALID_COLOR);//选项背景色设为透明
;;;1655               TEXT_SetTextColor(hItem, GUI_WHITE);
;;;1656                  
;;;1657               hItem = WM_GetDialogItem(hWincdc, ID_TEXT_58);
;;;1658               TEXT_SetBkColor(hItem,0x00BFFFFF);//选项背景色设为米色
;;;1659               TEXT_SetTextColor(hItem, GUI_BLACK);
;;;1660   
;;;1661               set_sw = set_28;
;;;1662               break;
;;;1663           }
;;;1664           case set_34:
;;;1665           {
;;;1666               WM_HWIN hItem;
;;;1667   //            WM_InvalidateWindow(hWincdc);
;;;1668               hItem = WM_GetDialogItem(hWincdc, ID_TEXT_52);
000012  1ff7              SUBS     r7,r6,#7
000014  69a0              LDR      r0,[r4,#0x18]         ;1602
000016  f06f4870          MVN      r8,#0xf0000000        ;1609
00001a  f06f497f          MVN      r9,#0xff000000        ;1610
00001e  f6401a43          MOV      r10,#0x943            ;1612
000022  2921              CMP      r1,#0x21              ;1602
000024  d07e              BEQ      |L4.292|
000026  dc2a              BGT      |L4.126|
000028  f640076f          MOV      r7,#0x86f             ;1608
00002c  2919              CMP      r1,#0x19              ;1602
00002e  d04b              BEQ      |L4.200|
000030  f44f6a07          MOV      r10,#0x870            ;1623
000034  291a              CMP      r1,#0x1a              ;1602
000036  d063              BEQ      |L4.256|
000038  f6400777          MOV      r7,#0x877             ;1638
00003c  291b              CMP      r1,#0x1b              ;1602
00003e  d07e              BEQ      |L4.318|
000040  291c              CMP      r1,#0x1c              ;1602
000042  d11a              BNE      |L4.122|
000044  4631              MOV      r1,r6                 ;1653
000046  f7fffffe          BL       WM_GetDialogItem
00004a  4606              MOV      r6,r0                 ;1653
00004c  4641              MOV      r1,r8                 ;1654
00004e  4630              MOV      r0,r6                 ;1654
000050  f7fffffe          BL       TEXT_SetBkColor
000054  4649              MOV      r1,r9                 ;1655
000056  4630              MOV      r0,r6                 ;1655
000058  f7fffffe          BL       TEXT_SetTextColor
00005c  4639              MOV      r1,r7                 ;1657
00005e  69a0              LDR      r0,[r4,#0x18]         ;1657  ; hWincdc
000060  f7fffffe          BL       WM_GetDialogItem
000064  4604              MOV      r4,r0                 ;1657
000066  4659              MOV      r1,r11                ;1658
000068  4620              MOV      r0,r4                 ;1658
00006a  f7fffffe          BL       TEXT_SetBkColor
00006e  2100              MOVS     r1,#0                 ;1659
000070  4620              MOV      r0,r4                 ;1659
000072  f7fffffe          BL       TEXT_SetTextColor
000076  201b              MOVS     r0,#0x1b              ;1661
000078  7028              STRB     r0,[r5,#0]            ;1661
                  |L4.122|
;;;1669               TEXT_SetBkColor(hItem,GUI_INVALID_COLOR);//选项背景色设为透明
;;;1670               TEXT_SetTextColor(hItem, GUI_WHITE);
;;;1671                  
;;;1672               hItem = WM_GetDialogItem(hWincdc, ID_TEXT_59);
;;;1673               TEXT_SetBkColor(hItem,0x00BFFFFF);//选项背景色设为米色
;;;1674               TEXT_SetTextColor(hItem, GUI_BLACK);
;;;1675   
;;;1676               set_sw = set_29;
;;;1677               break;
;;;1678           }
;;;1679           case set_35:
;;;1680           {
;;;1681               WM_HWIN hItem;
;;;1682   //            WM_InvalidateWindow(hWincdc);
;;;1683               hItem = WM_GetDialogItem(hWincdc, ID_TEXT_60);
;;;1684               TEXT_SetBkColor(hItem,GUI_INVALID_COLOR);//选项背景色设为透明
;;;1685               TEXT_SetTextColor(hItem, GUI_WHITE);
;;;1686                  
;;;1687               hItem = WM_GetDialogItem(hWincdc, ID_TEXT_52);
;;;1688               TEXT_SetBkColor(hItem,0x00BFFFFF);//选项背景色设为米色
;;;1689               TEXT_SetTextColor(hItem, GUI_BLACK);
;;;1690   
;;;1691               set_sw = set_34;
;;;1692               break;
;;;1693           }
;;;1694   //         case set_36:
;;;1695   //         {
;;;1696   //             WM_HWIN hItem;
;;;1697   //             WM_InvalidateWindow(hWincdc);
;;;1698   //             hItem = WM_GetDialogItem(hWincdc, ID_TEXT_61);
;;;1699   //             TEXT_SetBkColor(hItem,GUI_INVALID_COLOR);//选项背景色设为透明
;;;1700   //                
;;;1701   //             hItem = WM_GetDialogItem(hWincdc, ID_TEXT_60);
;;;1702   //             TEXT_SetBkColor(hItem,0x00BFFFFF);//选项背景色设为米色
;;;1703   
;;;1704   //             set_sw = set_35;
;;;1705   //             break;
;;;1706   //         }
;;;1707           case set_37:
;;;1708           {
;;;1709               WM_HWIN hItem;
;;;1710   //            WM_InvalidateWindow(hWincdc);
;;;1711               hItem = WM_GetDialogItem(hWincdc, ID_TEXT_53);
;;;1712               TEXT_SetBkColor(hItem,GUI_INVALID_COLOR);//选项背景色设为透明
;;;1713               TEXT_SetTextColor(hItem, GUI_WHITE);
;;;1714                  
;;;1715               hItem = WM_GetDialogItem(hWincdc, ID_TEXT_60);
;;;1716               TEXT_SetBkColor(hItem,0x00BFFFFF);//选项背景色设为米色
;;;1717               TEXT_SetTextColor(hItem, GUI_BLACK);
;;;1718   
;;;1719               set_sw = set_35;
;;;1720               break;
;;;1721           }
;;;1722   		case set_92:
;;;1723           {
;;;1724               WM_HWIN hItem;
;;;1725   //            WM_InvalidateWindow(hWincdc);
;;;1726               hItem = WM_GetDialogItem(hWincdc, ID_TEXT_168);
;;;1727               TEXT_SetBkColor(hItem,GUI_INVALID_COLOR);//选项背景色设为透明
;;;1728               TEXT_SetTextColor(hItem, GUI_WHITE);
;;;1729                  
;;;1730               hItem = WM_GetDialogItem(hWincdc, ID_TEXT_53);
;;;1731               TEXT_SetBkColor(hItem,0x00BFFFFF);//选项背景色设为米色
;;;1732               TEXT_SetTextColor(hItem, GUI_BLACK);
;;;1733   
;;;1734               set_sw = set_37;
;;;1735               break;
;;;1736           }
;;;1737           default: break;
;;;1738       }
;;;1739   }
00007a  e8bd9ff0          POP      {r4-r12,pc}
                  |L4.126|
00007e  f6400679          MOV      r6,#0x879             ;1683
000082  2922              CMP      r1,#0x22              ;1602
000084  d077              BEQ      |L4.374|
000086  1ff7              SUBS     r7,r6,#7              ;1711
000088  2924              CMP      r1,#0x24              ;1602
00008a  d075              BEQ      |L4.376|
00008c  295b              CMP      r1,#0x5b              ;1602
00008e  d1f4              BNE      |L4.122|
000090  4651              MOV      r1,r10                ;1726
000092  f7fffffe          BL       WM_GetDialogItem
000096  4606              MOV      r6,r0                 ;1726
000098  4641              MOV      r1,r8                 ;1727
00009a  4630              MOV      r0,r6                 ;1727
00009c  f7fffffe          BL       TEXT_SetBkColor
0000a0  4649              MOV      r1,r9                 ;1728
0000a2  4630              MOV      r0,r6                 ;1728
0000a4  f7fffffe          BL       TEXT_SetTextColor
0000a8  4639              MOV      r1,r7                 ;1730
0000aa  69a0              LDR      r0,[r4,#0x18]         ;1730  ; hWincdc
0000ac  f7fffffe          BL       WM_GetDialogItem
0000b0  4604              MOV      r4,r0                 ;1730
0000b2  4659              MOV      r1,r11                ;1731
0000b4  4620              MOV      r0,r4                 ;1731
0000b6  f7fffffe          BL       TEXT_SetBkColor
0000ba  2100              MOVS     r1,#0                 ;1732
0000bc  4620              MOV      r0,r4                 ;1732
0000be  f7fffffe          BL       TEXT_SetTextColor
0000c2  2024              MOVS     r0,#0x24              ;1734
0000c4  7028              STRB     r0,[r5,#0]            ;1734
0000c6  e7d8              B        |L4.122|
                  |L4.200|
0000c8  4639              MOV      r1,r7                 ;1608
0000ca  f7fffffe          BL       WM_GetDialogItem
0000ce  4606              MOV      r6,r0                 ;1608
0000d0  4641              MOV      r1,r8                 ;1609
0000d2  4630              MOV      r0,r6                 ;1609
0000d4  f7fffffe          BL       TEXT_SetBkColor
0000d8  4649              MOV      r1,r9                 ;1610
0000da  4630              MOV      r0,r6                 ;1610
0000dc  f7fffffe          BL       TEXT_SetTextColor
0000e0  4651              MOV      r1,r10                ;1612
0000e2  69a0              LDR      r0,[r4,#0x18]         ;1612  ; hWincdc
0000e4  f7fffffe          BL       WM_GetDialogItem
0000e8  4604              MOV      r4,r0                 ;1612
0000ea  4659              MOV      r1,r11                ;1613
0000ec  4620              MOV      r0,r4                 ;1613
0000ee  f7fffffe          BL       TEXT_SetBkColor
0000f2  2100              MOVS     r1,#0                 ;1614
0000f4  4620              MOV      r0,r4                 ;1614
0000f6  f7fffffe          BL       TEXT_SetTextColor
0000fa  205b              MOVS     r0,#0x5b              ;1616
0000fc  7028              STRB     r0,[r5,#0]            ;1616
0000fe  e7bc              B        |L4.122|
                  |L4.256|
000100  4651              MOV      r1,r10                ;1623
000102  f7fffffe          BL       WM_GetDialogItem
000106  4606              MOV      r6,r0                 ;1623
000108  4641              MOV      r1,r8                 ;1624
00010a  4630              MOV      r0,r6                 ;1624
00010c  f7fffffe          BL       TEXT_SetBkColor
000110  4649              MOV      r1,r9                 ;1625
000112  4630              MOV      r0,r6                 ;1625
000114  f7fffffe          BL       TEXT_SetTextColor
000118  4639              MOV      r1,r7                 ;1627
00011a  69a0              LDR      r0,[r4,#0x18]         ;1627  ; hWincdc
00011c  f7fffffe          BL       WM_GetDialogItem
000120  4604              MOV      r4,r0                 ;1627
000122  e001              B        |L4.296|
                  |L4.292|
000124  e029              B        |L4.378|
000126  e00a              B        |L4.318|
                  |L4.296|
000128  4659              MOV      r1,r11                ;1628
00012a  4620              MOV      r0,r4                 ;1628
00012c  f7fffffe          BL       TEXT_SetBkColor
000130  2100              MOVS     r1,#0                 ;1629
000132  4620              MOV      r0,r4                 ;1629
000134  f7fffffe          BL       TEXT_SetTextColor
000138  2019              MOVS     r0,#0x19              ;1631
00013a  7028              STRB     r0,[r5,#0]            ;1631
00013c  e79d              B        |L4.122|
                  |L4.318|
00013e  4639              MOV      r1,r7                 ;1638
000140  f7fffffe          BL       WM_GetDialogItem
000144  4606              MOV      r6,r0                 ;1638
000146  4641              MOV      r1,r8                 ;1639
000148  4630              MOV      r0,r6                 ;1639
00014a  f7fffffe          BL       TEXT_SetBkColor
00014e  4649              MOV      r1,r9                 ;1640
000150  4630              MOV      r0,r6                 ;1640
000152  f7fffffe          BL       TEXT_SetTextColor
000156  4651              MOV      r1,r10                ;1642
000158  69a0              LDR      r0,[r4,#0x18]         ;1642  ; hWincdc
00015a  f7fffffe          BL       WM_GetDialogItem
00015e  4604              MOV      r4,r0                 ;1642
000160  4659              MOV      r1,r11                ;1643
000162  4620              MOV      r0,r4                 ;1643
000164  f7fffffe          BL       TEXT_SetBkColor
000168  2100              MOVS     r1,#0                 ;1644
00016a  4620              MOV      r0,r4                 ;1644
00016c  f7fffffe          BL       TEXT_SetTextColor
000170  201a              MOVS     r0,#0x1a              ;1646
000172  7028              STRB     r0,[r5,#0]            ;1646
000174  e781              B        |L4.122|
                  |L4.374|
000176  e01c              B        |L4.434|
                  |L4.376|
000178  e037              B        |L4.490|
                  |L4.378|
00017a  4639              MOV      r1,r7                 ;1668
00017c  f7fffffe          BL       WM_GetDialogItem
000180  4607              MOV      r7,r0                 ;1668
000182  4641              MOV      r1,r8                 ;1669
000184  4638              MOV      r0,r7                 ;1669
000186  f7fffffe          BL       TEXT_SetBkColor
00018a  4649              MOV      r1,r9                 ;1670
00018c  4638              MOV      r0,r7                 ;1670
00018e  f7fffffe          BL       TEXT_SetTextColor
000192  4631              MOV      r1,r6                 ;1672
000194  69a0              LDR      r0,[r4,#0x18]         ;1672  ; hWincdc
000196  f7fffffe          BL       WM_GetDialogItem
00019a  4604              MOV      r4,r0                 ;1672
00019c  4659              MOV      r1,r11                ;1673
00019e  4620              MOV      r0,r4                 ;1673
0001a0  f7fffffe          BL       TEXT_SetBkColor
0001a4  2100              MOVS     r1,#0                 ;1674
0001a6  4620              MOV      r0,r4                 ;1674
0001a8  f7fffffe          BL       TEXT_SetTextColor
0001ac  201c              MOVS     r0,#0x1c              ;1676
0001ae  7028              STRB     r0,[r5,#0]            ;1676
0001b0  e763              B        |L4.122|
                  |L4.434|
0001b2  4631              MOV      r1,r6                 ;1683
0001b4  f7fffffe          BL       WM_GetDialogItem
0001b8  4606              MOV      r6,r0                 ;1683
0001ba  4641              MOV      r1,r8                 ;1684
0001bc  4630              MOV      r0,r6                 ;1684
0001be  f7fffffe          BL       TEXT_SetBkColor
0001c2  4649              MOV      r1,r9                 ;1685
0001c4  4630              MOV      r0,r6                 ;1685
0001c6  f7fffffe          BL       TEXT_SetTextColor
0001ca  4639              MOV      r1,r7                 ;1687
0001cc  69a0              LDR      r0,[r4,#0x18]         ;1687  ; hWincdc
0001ce  f7fffffe          BL       WM_GetDialogItem
0001d2  4604              MOV      r4,r0                 ;1687
0001d4  4659              MOV      r1,r11                ;1688
0001d6  4620              MOV      r0,r4                 ;1688
0001d8  f7fffffe          BL       TEXT_SetBkColor
0001dc  2100              MOVS     r1,#0                 ;1689
0001de  4620              MOV      r0,r4                 ;1689
0001e0  f7fffffe          BL       TEXT_SetTextColor
0001e4  2021              MOVS     r0,#0x21              ;1691
0001e6  7028              STRB     r0,[r5,#0]            ;1691
0001e8  e747              B        |L4.122|
                  |L4.490|
0001ea  4639              MOV      r1,r7                 ;1711
0001ec  f7fffffe          BL       WM_GetDialogItem
0001f0  4607              MOV      r7,r0                 ;1711
0001f2  4641              MOV      r1,r8                 ;1712
0001f4  4638              MOV      r0,r7                 ;1712
0001f6  f7fffffe          BL       TEXT_SetBkColor
0001fa  4649              MOV      r1,r9                 ;1713
0001fc  4638              MOV      r0,r7                 ;1713
0001fe  f7fffffe          BL       TEXT_SetTextColor
000202  4631              MOV      r1,r6                 ;1715
000204  69a0              LDR      r0,[r4,#0x18]         ;1715  ; hWincdc
000206  f7fffffe          BL       WM_GetDialogItem
00020a  4604              MOV      r4,r0                 ;1715
00020c  4659              MOV      r1,r11                ;1716
00020e  4620              MOV      r0,r4                 ;1716
000210  f7fffffe          BL       TEXT_SetBkColor
000214  2100              MOVS     r1,#0                 ;1717
000216  4620              MOV      r0,r4                 ;1717
000218  f7fffffe          BL       TEXT_SetTextColor
00021c  2022              MOVS     r0,#0x22              ;1719
00021e  7028              STRB     r0,[r5,#0]            ;1719
000220  e72b              B        |L4.122|
;;;1740   
                          ENDP

000222  0000              DCW      0x0000
                  |L4.548|
                          DCD      set_sw
                  |L4.552|
                          DCD      ||area_number.18||
                  |L4.556|
                          DCD      0x00bfffff

                          AREA ||i.CDC_SET||, CODE, READONLY, ALIGN=2

                          REQUIRE _printf_percent
                          REQUIRE _printf_widthprec
                          REQUIRE _printf_f
                          REQUIRE _printf_fp_dec
                          REQUIRE _printf_pre_padding
                          REQUIRE _printf_d
                          REQUIRE _printf_int_dec
                  CDC_SET PROC
;;;1786   
;;;1787   void CDC_SET(void)
000000  e92d4ff0          PUSH     {r4-r11,lr}
;;;1788   {
000004  ed2d8b06          VPUSH    {d8-d10}
000008  b083              SUB      sp,sp,#0xc
;;;1789       vu8 i;
;;;1790       char buf[5];
;;;1791       
;;;1792       float dis_load_c;
;;;1793       float dis_output_v;
;;;1794       float dis_output_c;
;;;1795       float dis_c_cutoff_v = (float)set_c_cutoff_v/100;
00000a  48fe              LDR      r0,|L5.1028|
00000c  6e41              LDR      r1,[r0,#0x64]  ; Run_Control
00000e  ee001a10          VMOV     s0,r1
000012  eeb80a40          VCVT.F32.U32 s0,s0
000016  ed9faafc          VLDR     s20,|L5.1032|
00001a  eec09a0a          VDIV.F32 s19,s0,s20
;;;1796       float dis_c_cutoff_c = (float)set_c_cutoff_c/1000;
00001e  6e81              LDR      r1,[r0,#0x68]  ; Run_Control
000020  ee001a10          VMOV     s0,r1
000024  eeb80a40          VCVT.F32.U32 s0,s0
000028  eddf0af8          VLDR     s1,|L5.1036|
00002c  ee809a20          VDIV.F32 s18,s0,s1
;;;1797       float dis_dc_cutoff_v = (float)set_dc_cutoff_v/1000;
000030  6ec1              LDR      r1,[r0,#0x6c]  ; Run_Control
;;;1798       float dis_dc_cutoff_c = (float)set_dc_cutoff_c/100;
000032  6f00              LDR      r0,[r0,#0x70]  ; Run_Control
000034  ee000a10          VMOV     s0,r0
000038  eeb80a40          VCVT.F32.U32 s0,s0
00003c  eddf0af2          VLDR     s1,|L5.1032|
000040  eec0aa20          VDIV.F32 s21,s0,s1
;;;1799       switch(set_sw)
000044  48f2              LDR      r0,|L5.1040|
000046  7802              LDRB     r2,[r0,#0]  ; set_sw
;;;1800       {
;;;1801           case set_26:
;;;1802           {
;;;1803               
;;;1804               WM_HWIN hItem;
;;;1805   //            WM_InvalidateWindow(hWincdc);
;;;1806               hItem = WM_GetDialogItem(hWincdc, ID_TEXT_50);
;;;1807               TEXT_SetBkColor(hItem,GUI_INVALID_COLOR);//选项背景色设为透明
;;;1808               TEXT_SetTextColor(hItem, GUI_WHITE);
;;;1809                  
;;;1810               hItem = WM_GetDialogItem(hWincdc, ID_TEXT_54);
;;;1811               TEXT_SetBkColor(hItem,0x00BFFFFF);//选项背景色设为米色
;;;1812               TEXT_SetTextColor(hItem, GUI_BLACK);
;;;1813               for(i=0;i<6;i++)
;;;1814               {
;;;1815                   set_limit[i] = '\0';
;;;1816               }
;;;1817               
;;;1818               set_sw = set_30;
;;;1819               bit = 0;
000048  4df2              LDR      r5,|L5.1044|
;;;1820               break;
;;;1821           }
;;;1822           case set_30:
;;;1823           {
;;;1824               WM_HWIN hItem;
;;;1825   //            WM_InvalidateWindow(hWincdc);
;;;1826               hItem = WM_GetDialogItem(hWincdc, ID_TEXT_54);
;;;1827               TEXT_SetBkColor(hItem,GUI_INVALID_COLOR);//选项背景色设为透明
;;;1828               TEXT_SetTextColor(hItem, GUI_WHITE);
;;;1829   //            if(pow_step == step1)
;;;1830   //            {
;;;1831   //                SET_Voltage = opv1;
;;;1832   //            }else if(pow_step == step2){
;;;1833   //                SET_Voltage = opv2;
;;;1834   //            }else if(pow_step == step3){
;;;1835   //                SET_Voltage = opv3;
;;;1836   //            }
;;;1837               if(dot_flag == 0){
;;;1838   				opv1 = atoi(set_limit)*100;					
;;;1839   			}else if(dot_flag != 0){
;;;1840   				memset(buf, '\0', sizeof(buf));
;;;1841   				strncpy(buf,set_limit,dot_flag + 3);
;;;1842   				opv1 = atof(buf)*100;
;;;1843   			}
;;;1844   			if(opv1 > 6200)
;;;1845   			{
;;;1846   				opv1 = 6200;
;;;1847   			}
;;;1848               SET_Voltage = opv1;
;;;1849               if(SET_Voltage/100 * SET_Current/1000 > 250)
;;;1850               {
;;;1851                   SET_Voltage = 0;
;;;1852               }
;;;1853               dis_output_v = (float)SET_Voltage/100;
;;;1854               sprintf(buf,"%.2f",dis_output_v);
;;;1855               TEXT_SetText(hItem,buf);
;;;1856   //             if(pow_step == step1)
;;;1857   //             {
;;;1858   //                 opv1 = SET_Voltage;
;;;1859   //             }else if(pow_step == step2){
;;;1860   //                 opv2 = SET_Voltage;
;;;1861   //             }else if(pow_step == step3){
;;;1862   //                 opv3 = SET_Voltage;
;;;1863   //             }
;;;1864               
;;;1865               hItem = WM_GetDialogItem(hWincdc, ID_TEXT_50);
;;;1866               TEXT_SetBkColor(hItem,0x00BFFFFF);//选项背景色设为米色
;;;1867               TEXT_SetTextColor(hItem, GUI_BLACK);
;;;1868   
;;;1869               set_sw = set_26;
;;;1870               bit = 0;
;;;1871               dot_flag = 0;
;;;1872               Write_Limits();
;;;1873               break;
;;;1874           }
;;;1875           case set_27:
;;;1876           {
;;;1877               WM_HWIN hItem;
;;;1878   //            WM_InvalidateWindow(hWincdc);
;;;1879               hItem = WM_GetDialogItem(hWincdc, ID_TEXT_51);
;;;1880               TEXT_SetBkColor(hItem,GUI_INVALID_COLOR);//选项背景色设为透明
;;;1881               TEXT_SetTextColor(hItem, GUI_WHITE);
;;;1882               for(i=0;i<6;i++)
;;;1883               {
;;;1884                   set_limit[i] = '\0';
;;;1885               }
;;;1886               
;;;1887               hItem = WM_GetDialogItem(hWincdc, ID_TEXT_55);
;;;1888               TEXT_SetBkColor(hItem,0x00BFFFFF);//选项背景色设为米色
;;;1889               TEXT_SetTextColor(hItem, GUI_BLACK);
;;;1890   
;;;1891               set_sw = set_31;
;;;1892               break;
;;;1893           }
;;;1894           case set_31:
;;;1895           {
;;;1896               WM_HWIN hItem;
;;;1897   //            WM_InvalidateWindow(hWincdc);
;;;1898               hItem = WM_GetDialogItem(hWincdc, ID_TEXT_55);
;;;1899               TEXT_SetBkColor(hItem,GUI_INVALID_COLOR);//选项背景色设为透明
;;;1900               TEXT_SetTextColor(hItem, GUI_WHITE);
;;;1901   //            if(cur_step == step1)
;;;1902   //            {
;;;1903   //                SET_Current = opc1;
;;;1904   //            }else if(cur_step == step2){
;;;1905   //                SET_Current = opc2;
;;;1906   //            }else if(cur_step == step3){
;;;1907   //                SET_Current = opc3;
;;;1908   //            }
;;;1909   //            SET_Current = cdc_cc;
;;;1910   			if(dot_flag == 0){
;;;1911   				opc1 = atoi(set_limit)*1000;					
;;;1912   			}else if(dot_flag != 0){
;;;1913   				memset(buf, '\0', sizeof(buf));
;;;1914   				strncpy(buf,set_limit,dot_flag + 4);
;;;1915   				opc1 = atof(buf)*1000;
00004a  ed9f8bf3          VLDR     d8,|L5.1048|
00004e  48f4              LDR      r0,|L5.1056|
;;;1916   			}
;;;1917                 
;;;1918               if(opc1 > 10000)
;;;1919               {
;;;1920                   opc1 = 10000;               
;;;1921               }
;;;1922   			SET_Current = opc1;
;;;1923               if(SET_Voltage/100 * SET_Current/1000 > 250)
;;;1924               {
;;;1925                   SET_Current = 0;
;;;1926               }
;;;1927   //            if(SET_Current > 5000)
;;;1928   //            {
;;;1929   //                SET_Current = 5000;               
;;;1930   //            }
;;;1931               dis_output_c = (float)SET_Current/1000;
;;;1932               sprintf(buf,"%.3f",dis_output_c);
;;;1933               TEXT_SetText(hItem,buf);
;;;1934               
;;;1935   //             if(cur_step == step1)
;;;1936   //             {
;;;1937   //                 opc1 = SET_Current;
;;;1938   //             }else if(cur_step == step2){
;;;1939   //                 opc2 = SET_Current;
;;;1940   //             }else if(cur_step == step3){
;;;1941   //                 opc3 = SET_Current;
;;;1942   //             }
;;;1943               
;;;1944               hItem = WM_GetDialogItem(hWincdc, ID_TEXT_51);
;;;1945               TEXT_SetBkColor(hItem,0x00BFFFFF);//选项背景色设为米色
;;;1946               TEXT_SetTextColor(hItem, GUI_BLACK);
;;;1947   
;;;1948               set_sw = set_27;
;;;1949               bit = 0;
;;;1950               dot_flag = 0;
;;;1951               Write_Limits();
;;;1952               break;
;;;1953           }
;;;1954           case set_28:
;;;1955           {
;;;1956               WM_HWIN hItem;
;;;1957   //            WM_InvalidateWindow(hWincdc);
;;;1958               hItem = WM_GetDialogItem(hWincdc, ID_TEXT_58);
;;;1959               TEXT_SetBkColor(hItem,GUI_INVALID_COLOR);//选项背景色设为透明
;;;1960               TEXT_SetTextColor(hItem, GUI_WHITE);
;;;1961               for(i=0;i<6;i++)
;;;1962               {
;;;1963                   set_limit[i] = '\0';
;;;1964               }
;;;1965                  
;;;1966               hItem = WM_GetDialogItem(hWincdc, ID_TEXT_62);
;;;1967               TEXT_SetBkColor(hItem,0x00BFFFFF);//选项背景色设为米色
;;;1968               TEXT_SetTextColor(hItem, GUI_BLACK);
;;;1969   
;;;1970               set_sw = set_38;
;;;1971               break;
;;;1972           }
;;;1973           case set_38:
;;;1974           {
;;;1975               WM_HWIN hItem;
;;;1976   //            WM_InvalidateWindow(hWincdc);
;;;1977               hItem = WM_GetDialogItem(hWincdc, ID_TEXT_62);
;;;1978               TEXT_SetBkColor(hItem,GUI_INVALID_COLOR);//选项背景色设为透明
;;;1979               TEXT_SetTextColor(hItem, GUI_WHITE);
;;;1980               if(dot_flag == 0){
;;;1981   				cov1 = atoi(set_limit)*100;					
;;;1982   			}else if(dot_flag != 0){
;;;1983   				memset(buf, '\0', sizeof(buf));
;;;1984   				strncpy(buf,set_limit,dot_flag + 3);
;;;1985   				cov1 = atof(buf)*100;
;;;1986   			}
;;;1987   			if(cov1 > 6200)
;;;1988   			{
;;;1989   				cov1 = 6200;
;;;1990   			}
;;;1991               if(coffv_step == step1)
;;;1992               {
;;;1993                   dis_c_cutoff_v = (float)cov1/100;
;;;1994               }else if(coffv_step == step2){
;;;1995                   dis_c_cutoff_v = (float)cov2/100;;
;;;1996               }else if(coffv_step == step3){
;;;1997                   dis_c_cutoff_v = (float)cov3/100;;
;;;1998               }
;;;1999               
;;;2000               
;;;2001               sprintf(buf,"%.2f",dis_c_cutoff_v);
;;;2002               TEXT_SetText(hItem,buf);
;;;2003   //             if(coffv_step == step1)
;;;2004   //             {
;;;2005   //                 cov1 = dis_c_cutoff_v;
;;;2006   //             }else if(coffv_step == step2){
;;;2007   //                 cov2 = dis_c_cutoff_v;
;;;2008   //             }else if(coffv_step == step3){
;;;2009   //                 cov3 = dis_c_cutoff_v;
;;;2010   //             }
;;;2011               
;;;2012               hItem = WM_GetDialogItem(hWincdc, ID_TEXT_58);
;;;2013               TEXT_SetBkColor(hItem,0x00BFFFFF);//选项背景色设为米色
;;;2014               TEXT_SetTextColor(hItem, GUI_BLACK);
;;;2015   
;;;2016               set_sw = set_28;
;;;2017               bit = 0;
;;;2018               dot_flag = 0;
;;;2019               Write_Limits();
;;;2020               break;
;;;2021           }
;;;2022           case set_29:
;;;2023           {
;;;2024               WM_HWIN hItem;
;;;2025   //            WM_InvalidateWindow(hWincdc);
;;;2026               hItem = WM_GetDialogItem(hWincdc, ID_TEXT_59);
;;;2027               TEXT_SetBkColor(hItem,GUI_INVALID_COLOR);//选项背景色设为透明
;;;2028               TEXT_SetTextColor(hItem, GUI_WHITE);
;;;2029               for(i=0;i<6;i++)
;;;2030               {
;;;2031                   set_limit[i] = '\0';
;;;2032               }
;;;2033                  
;;;2034               hItem = WM_GetDialogItem(hWincdc, ID_TEXT_63);
;;;2035               TEXT_SetBkColor(hItem,0x00BFFFFF);//选项背景色设为米色
;;;2036               TEXT_SetTextColor(hItem, GUI_BLACK);
;;;2037   
;;;2038               set_sw = set_39;
;;;2039               break;
;;;2040           }
;;;2041           case set_39:
;;;2042           {
;;;2043               WM_HWIN hItem;
;;;2044   //            WM_InvalidateWindow(hWincdc);
;;;2045               hItem = WM_GetDialogItem(hWincdc, ID_TEXT_63);
;;;2046               TEXT_SetBkColor(hItem,GUI_INVALID_COLOR);//选项背景色设为透明
;;;2047               TEXT_SetTextColor(hItem, GUI_WHITE);
;;;2048               if(dot_flag == 0){
;;;2049   				coc1 = atoi(set_limit)*1000;					
;;;2050   			}else if(dot_flag != 0){
;;;2051   				memset(buf, '\0', sizeof(buf));
;;;2052   				strncpy(buf,set_limit,dot_flag + 4);
;;;2053   				coc1 = atof(buf)*1000;
;;;2054   			}
;;;2055                 
;;;2056               if(coc1 > 10000)
;;;2057               {
;;;2058                   coc1 = 10000;               
;;;2059               }
;;;2060               if(coffc_step == step1)
;;;2061               {
;;;2062                   dis_c_cutoff_c = (float)coc1/1000;
;;;2063               }else if(coffc_step == step2){
;;;2064                   dis_c_cutoff_c = (float)coc2/1000;
;;;2065               }else if(coffc_step == step3){
;;;2066                   dis_c_cutoff_c = (float)coc3/1000;
;;;2067               } 
;;;2068               
;;;2069               sprintf(buf,"%.3f",dis_c_cutoff_c);
;;;2070               TEXT_SetText(hItem,buf);
;;;2071   //             if(coffc_step == step1)
;;;2072   //             {
;;;2073   //                 coc1 = dis_c_cutoff_c;
;;;2074   //             }else if(coffc_step == step2){
;;;2075   //                 coc2 = dis_c_cutoff_c;
;;;2076   //             }else if(coffc_step == step3){
;;;2077   //                 coc3 = dis_c_cutoff_c;
;;;2078   //             }   
;;;2079               hItem = WM_GetDialogItem(hWincdc, ID_TEXT_59);
;;;2080               TEXT_SetBkColor(hItem,0x00BFFFFF);//选项背景色设为米色
;;;2081               TEXT_SetTextColor(hItem, GUI_BLACK);
;;;2082   
;;;2083               set_sw = set_29;
;;;2084               bit = 0;
;;;2085               dot_flag = 0;
;;;2086               Write_Limits();
;;;2087               break;
;;;2088           }
;;;2089           case set_35:
;;;2090           {
;;;2091               WM_HWIN hItem;
;;;2092   //            WM_InvalidateWindow(hWincdc);
;;;2093               hItem = WM_GetDialogItem(hWincdc, ID_TEXT_60);
;;;2094               TEXT_SetBkColor(hItem,GUI_INVALID_COLOR);//选项背景色设为透明
;;;2095               TEXT_SetTextColor(hItem, GUI_WHITE);
;;;2096               for(i=0;i<6;i++)
;;;2097               {
;;;2098                   set_limit[i] = '\0';
;;;2099               }
;;;2100                  
;;;2101               hItem = WM_GetDialogItem(hWincdc, ID_TEXT_64);
;;;2102               TEXT_SetBkColor(hItem,0x00BFFFFF);//选项背景色设为米色
;;;2103               TEXT_SetTextColor(hItem, GUI_BLACK);
;;;2104   
;;;2105               set_sw = set_40;
;;;2106               break;
;;;2107           }
;;;2108           case set_40:
;;;2109           {
;;;2110               WM_HWIN hItem;
;;;2111   //            WM_InvalidateWindow(hWincdc);
;;;2112               hItem = WM_GetDialogItem(hWincdc, ID_TEXT_64);
;;;2113               TEXT_SetBkColor(hItem,GUI_INVALID_COLOR);//选项背景色设为透明
;;;2114               TEXT_SetTextColor(hItem, GUI_WHITE);
;;;2115               if(dot_flag == 0){
;;;2116   				set_dc_cutoff_v = atoi(set_limit)*1000;					
;;;2117   			}else if(dot_flag != 0){
;;;2118   				memset(buf, '\0', sizeof(buf));
;;;2119   				strncpy(buf,set_limit,dot_flag + 4);
;;;2120   				set_dc_cutoff_v = atof(buf)*1000;
;;;2121   			}
;;;2122   			dis_dc_cutoff_v = (float)set_dc_cutoff_v/1000;
;;;2123               sprintf(buf,"%.3f",dis_dc_cutoff_v);
;;;2124               TEXT_SetText(hItem,buf);
;;;2125                  
;;;2126               hItem = WM_GetDialogItem(hWincdc, ID_TEXT_60);
;;;2127               TEXT_SetBkColor(hItem,0x00BFFFFF);//选项背景色设为米色
;;;2128               TEXT_SetTextColor(hItem, GUI_BLACK);
;;;2129   
;;;2130               set_sw = set_35;
;;;2131               bit = 0;
;;;2132               dot_flag = 0;
;;;2133               Write_Limits();
;;;2134               break;
;;;2135           }
;;;2136           case set_36:
;;;2137           {
;;;2138               WM_HWIN hItem;
;;;2139   //            WM_InvalidateWindow(hWincdc);
;;;2140               hItem = WM_GetDialogItem(hWincdc, ID_TEXT_61);
;;;2141               TEXT_SetBkColor(hItem,GUI_INVALID_COLOR);//选项背景色设为透明
;;;2142               TEXT_SetTextColor(hItem, GUI_WHITE);
;;;2143               for(i=0;i<6;i++)
;;;2144               {
;;;2145                   set_limit[i] = '\0';
;;;2146               }
;;;2147                  
;;;2148               hItem = WM_GetDialogItem(hWincdc, ID_TEXT_65);
;;;2149               TEXT_SetBkColor(hItem,0x00BFFFFF);//选项背景色设为米色
;;;2150               TEXT_SetTextColor(hItem, GUI_BLACK);
;;;2151   
;;;2152               set_sw = set_41;
;;;2153               break;
;;;2154           }
;;;2155           case set_41:
;;;2156           {
;;;2157               WM_HWIN hItem;
;;;2158   //            WM_InvalidateWindow(hWincdc);
;;;2159               hItem = WM_GetDialogItem(hWincdc, ID_TEXT_65);
;;;2160               TEXT_SetBkColor(hItem,GUI_INVALID_COLOR);//选项背景色设为透明
;;;2161               TEXT_SetTextColor(hItem, GUI_WHITE);
;;;2162               
;;;2163               sprintf(buf,"%.2f",dis_dc_cutoff_c);
;;;2164               TEXT_SetText(hItem,buf);
;;;2165                  
;;;2166               hItem = WM_GetDialogItem(hWincdc, ID_TEXT_61);
;;;2167               TEXT_SetBkColor(hItem,0x00BFFFFF);//选项背景色设为米色
;;;2168               TEXT_SetTextColor(hItem, GUI_BLACK);
;;;2169   
;;;2170               set_sw = set_36;
;;;2171               bit = 0;
;;;2172               dot_flag = 0;
;;;2173               break;
;;;2174           }
;;;2175           case set_34:
;;;2176           {
;;;2177               WM_HWIN hItem;
;;;2178   //            WM_InvalidateWindow(hWincdc);
;;;2179               hItem = WM_GetDialogItem(hWincdc, ID_TEXT_52);
;;;2180               TEXT_SetBkColor(hItem,GUI_INVALID_COLOR);//选项背景色设为透明
;;;2181               TEXT_SetTextColor(hItem, GUI_WHITE);
;;;2182               for(i=0;i<6;i++)
;;;2183               {
;;;2184                   set_limit[i] = '\0';
;;;2185               }
;;;2186                  
;;;2187               hItem = WM_GetDialogItem(hWincdc, ID_TEXT_56);
;;;2188               TEXT_SetBkColor(hItem,0x00BFFFFF);//选项背景色设为米色
;;;2189               TEXT_SetTextColor(hItem, GUI_BLACK);
;;;2190   
;;;2191               set_sw = set_32;
;;;2192               break;
;;;2193           }
;;;2194           case set_32:
;;;2195           {
;;;2196               WM_HWIN hItem;
;;;2197   //            WM_InvalidateWindow(hWincdc);
;;;2198               hItem = WM_GetDialogItem(hWincdc, ID_TEXT_56);
;;;2199               TEXT_SetBkColor(hItem,GUI_INVALID_COLOR);//选项背景色设为透明
;;;2200               TEXT_SetTextColor(hItem, GUI_WHITE);
;;;2201   			if(dot_flag == 0){
;;;2202   				cdc_dc = atoi(set_limit)*1000;					
;;;2203   			}else if(dot_flag != 0){
;;;2204   				memset(buf, '\0', sizeof(buf));
;;;2205   				strncpy(buf,set_limit,dot_flag + 4);
;;;2206   				cdc_dc = atof(buf)*1000;
;;;2207   			}
;;;2208   			if(cdc_dc > 30000 || (float)cdc_dc/1000 * DISS_Voltage > 200){
;;;2209                   cdc_dc = 0;
;;;2210               }
;;;2211               SET_Current_Laod = cdc_dc;
;;;2212   //            if(SET_Current_Laod > 60000){
;;;2213   //                SET_Current_Laod = 0;
;;;2214   //            }
;;;2215               dis_load_c = (float)SET_Current_Laod/1000;
;;;2216               sprintf(buf,"%.3f",dis_load_c);
;;;2217               TEXT_SetText(hItem,buf);
;;;2218                  
;;;2219               hItem = WM_GetDialogItem(hWincdc, ID_TEXT_52);
;;;2220               TEXT_SetBkColor(hItem,0x00BFFFFF);//选项背景色设为米色
;;;2221               TEXT_SetTextColor(hItem, GUI_BLACK);
;;;2222               
;;;2223               set_sw = set_34;
;;;2224               bit = 0;
;;;2225               dot_flag = 0;
;;;2226               Write_Limits();
;;;2227               break;
;;;2228           }
;;;2229           case set_37:
;;;2230           {
;;;2231               WM_HWIN hItem;
;;;2232   //            WM_InvalidateWindow(hWincdc);
;;;2233               hItem = WM_GetDialogItem(hWincdc, ID_TEXT_53);
000050  2400              MOVS     r4,#0
000052  4ef4              LDR      r6,|L5.1060|
000054  6980              LDR      r0,[r0,#0x18]         ;1806
;;;2234               TEXT_SetBkColor(hItem,GUI_INVALID_COLOR);//选项背景色设为透明
;;;2235               TEXT_SetTextColor(hItem, GUI_WHITE);
;;;2236               for(i=0;i<6;i++)
;;;2237               {
;;;2238                   set_limit[i] = '\0';
;;;2239               }   
;;;2240               hItem = WM_GetDialogItem(hWincdc, ID_TEXT_57);
;;;2241               TEXT_SetBkColor(hItem,0x00BFFFFF);//选项背景色设为米色
;;;2242               TEXT_SetTextColor(hItem, GUI_BLACK);
;;;2243   
;;;2244               set_sw = set_33;
;;;2245               break;
;;;2246           }
;;;2247           case set_33:
;;;2248           {
;;;2249               WM_HWIN hItem;
;;;2250   //            WM_InvalidateWindow(hWincdc);
;;;2251               hItem = WM_GetDialogItem(hWincdc, ID_TEXT_57);
;;;2252               TEXT_SetBkColor(hItem,GUI_INVALID_COLOR);//选项背景色设为透明
;;;2253               TEXT_SetTextColor(hItem, GUI_WHITE);
;;;2254               if(dot_flag == 0){
;;;2255   				CDCLOOP = atoi(set_limit);					
000056  f8df93d0          LDR      r9,|L5.1064|
00005a  f6400879          MOV      r8,#0x879             ;2093
00005e  f6400b7d          MOV      r11,#0x87d            ;2101
000062  f6400a72          MOV      r10,#0x872            ;2233
000066  2a22              CMP      r2,#0x22              ;1799
000068  d07e              BEQ      |L5.360|
00006a  dc10              BGT      |L5.142|
00006c  f1a20219          SUB      r2,r2,#0x19           ;1799
000070  f8df83b8          LDR      r8,|L5.1068|
000074  f6400b73          MOV      r11,#0x873            ;1810
000078  f04f0764          MOV      r7,#0x64              ;1849
00007c  2a09              CMP      r2,#9                 ;1799
00007e  d274              BCS      |L5.362|
000080  e8dff002          TBB      [pc,r2]               ;1799
000084  7af5f4f3          DCB      0x7a,0xf5,0xf4,0xf3
000088  b1f2f1f0          DCB      0xb1,0xf2,0xf1,0xf0
00008c  ef00              DCB      0xef,0x00
                  |L5.142|
00008e  f640077a          MOV      r7,#0x87a             ;2140
000092  2a27              CMP      r2,#0x27              ;1799
000094  d06a              BEQ      |L5.364|
000096  dc47              BGT      |L5.296|
000098  2a23              CMP      r2,#0x23              ;1799
00009a  d068              BEQ      |L5.366|
00009c  2a24              CMP      r2,#0x24              ;1799
00009e  d067              BEQ      |L5.368|
0000a0  4fe3              LDR      r7,|L5.1072|
0000a2  f64f79ff          MOV      r9,#0xffff            ;1981
0000a6  2a25              CMP      r2,#0x25              ;1799
0000a8  d07e              BEQ      |L5.424|
0000aa  2a26              CMP      r2,#0x26              ;1799
0000ac  d15d              BNE      |L5.362|
0000ae  f640017c          MOV      r1,#0x87c             ;2045
0000b2  f8df836c          LDR      r8,|L5.1056|
0000b6  f7fffffe          BL       WM_GetDialogItem
0000ba  4682              MOV      r10,r0                ;2045
0000bc  f06f4170          MVN      r1,#0xf0000000        ;2046
0000c0  4650              MOV      r0,r10                ;2046
0000c2  f7fffffe          BL       TEXT_SetBkColor
0000c6  f06f417f          MVN      r1,#0xff000000        ;2047
0000ca  4650              MOV      r0,r10                ;2047
0000cc  f7fffffe          BL       TEXT_SetTextColor
0000d0  7830              LDRB     r0,[r6,#0]            ;2048  ; dot_flag
0000d2  2800              CMP      r0,#0                 ;2048
0000d4  d069              BEQ      |L5.426|
0000d6  7830              LDRB     r0,[r6,#0]            ;2050  ; dot_flag
0000d8  b198              CBZ      r0,|L5.258|
0000da  9400              STR      r4,[sp,#0]            ;2051
0000dc  9401              STR      r4,[sp,#4]            ;2051
0000de  7832              LDRB     r2,[r6,#0]            ;2052  ; dot_flag
0000e0  49d4              LDR      r1,|L5.1076|
0000e2  1d12              ADDS     r2,r2,#4              ;2052
0000e4  4668              MOV      r0,sp                 ;2052
0000e6  f7fffffe          BL       strncpy
0000ea  4668              MOV      r0,sp                 ;2053
0000ec  f7fffffe          BL       __hardfp_atof
0000f0  ec532b18          VMOV     r2,r3,d8              ;2053
0000f4  ec510b10          VMOV     r0,r1,d0              ;2053
0000f8  f7fffffe          BL       __aeabi_dmul
0000fc  f7fffffe          BL       __aeabi_d2uiz
000100  80f8              STRH     r0,[r7,#6]            ;2053
                  |L5.258|
000102  88f9              LDRH     r1,[r7,#6]            ;2056  ; coff
000104  f2427010          MOV      r0,#0x2710            ;2056
000108  4281              CMP      r1,r0                 ;2056
00010a  d900              BLS      |L5.270|
00010c  80f8              STRH     r0,[r7,#6]            ;2058
                  |L5.270|
00010e  f898000d          LDRB     r0,[r8,#0xd]          ;2060  ; coffc_step
000112  2800              CMP      r0,#0                 ;2060
000114  d07e              BEQ      |L5.532|
000116  f898000d          LDRB     r0,[r8,#0xd]          ;2063  ; coffc_step
00011a  2801              CMP      r0,#1                 ;2063
00011c  d07b              BEQ      |L5.534|
00011e  f898000d          LDRB     r0,[r8,#0xd]          ;2065  ; coffc_step
000122  2802              CMP      r0,#2                 ;2065
000124  d078              BEQ      |L5.536|
000126  e2c5              B        |L5.1716|
                  |L5.296|
000128  2a28              CMP      r2,#0x28              ;1799
00012a  d076              BEQ      |L5.538|
;;;2256   			}else if(dot_flag != 0){
;;;2257   				memset(buf, '\0', sizeof(buf));
;;;2258   				strncpy(buf,set_limit,dot_flag);
;;;2259   				CDCLOOP = atof(buf);
;;;2260   			}
;;;2261   			if(CDCLOOP > 500)
;;;2262   			{
;;;2263   				CDCLOOP = 500;
;;;2264   			}
;;;2265               sprintf(buf,"%5d",CDCLOOP);
;;;2266               TEXT_SetText(hItem,buf);   
;;;2267               hItem = WM_GetDialogItem(hWincdc, ID_TEXT_53);
;;;2268               TEXT_SetBkColor(hItem,0x00BFFFFF);//选项背景色设为米色
;;;2269               TEXT_SetTextColor(hItem, GUI_BLACK);
;;;2270   
;;;2271               set_sw = set_37;
;;;2272               bit = 0;
;;;2273               dot_flag = 0;
;;;2274   			Flash_Write32BitDatas(FLASH_USER_START_ADDR,43, InFlashSave);
;;;2275               break;
;;;2276           }  
;;;2277   		case set_92:
;;;2278           {
;;;2279               WM_HWIN hItem;
;;;2280   //            WM_InvalidateWindow(hWincdc);
;;;2281               hItem = WM_GetDialogItem(hWincdc, ID_TEXT_168);
00012c  f6401843          MOV      r8,#0x943
;;;2282               TEXT_SetBkColor(hItem,GUI_INVALID_COLOR);//选项背景色设为透明
;;;2283               TEXT_SetTextColor(hItem, GUI_WHITE);
;;;2284               for(i=0;i<6;i++)
;;;2285               {
;;;2286                   set_limit[i] = '\0';
;;;2287               }   
;;;2288               hItem = WM_GetDialogItem(hWincdc, ID_TEXT_169);
000130  f6401744          MOV      r7,#0x944
000134  2a5b              CMP      r2,#0x5b              ;1799
000136  d071              BEQ      |L5.540|
000138  2a5c              CMP      r2,#0x5c              ;1799
00013a  d14f              BNE      |L5.476|
;;;2289               TEXT_SetBkColor(hItem,0x00BFFFFF);//选项背景色设为米色
;;;2290               TEXT_SetTextColor(hItem, GUI_BLACK);
;;;2291   
;;;2292               set_sw = set_93;
;;;2293               break;
;;;2294           }    
;;;2295   		case set_93:
;;;2296           {
;;;2297               WM_HWIN hItem;
;;;2298   //            WM_InvalidateWindow(hWincdc);
;;;2299               hItem = WM_GetDialogItem(hWincdc, ID_TEXT_169);
00013c  4639              MOV      r1,r7
00013e  4fb8              LDR      r7,|L5.1056|
000140  f7fffffe          BL       WM_GetDialogItem
000144  4683              MOV      r11,r0
;;;2300               TEXT_SetBkColor(hItem,GUI_INVALID_COLOR);//选项背景色设为透明
000146  f06f4170          MVN      r1,#0xf0000000
00014a  4658              MOV      r0,r11
00014c  f7fffffe          BL       TEXT_SetBkColor
;;;2301               TEXT_SetTextColor(hItem, GUI_WHITE);
000150  f06f417f          MVN      r1,#0xff000000
000154  4658              MOV      r0,r11
000156  f7fffffe          BL       TEXT_SetTextColor
;;;2302   			if(gapmode == 0)
00015a  7af8              LDRB     r0,[r7,#0xb]  ; gapmode
;;;2303   			{
;;;2304   				if(dot_flag == 0){
;;;2305   					GAPTIME = atoi(set_limit);					
;;;2306   				}else if(dot_flag != 0){
;;;2307   					memset(buf, '\0', sizeof(buf));
;;;2308   					strncpy(buf,set_limit,dot_flag);
;;;2309   					GAPTIME = atof(buf);
;;;2310   				}
;;;2311   				if(GAPTIME >9999)
00015c  f2427a0f          MOV      r10,#0x270f
000160  2800              CMP      r0,#0                 ;2302
000162  d07c              BEQ      |L5.606|
;;;2312   				{
;;;2313   					GAPTIME = 9999;
;;;2314   				}
;;;2315   				sprintf(buf,"%5d",GAPTIME);
;;;2316   			}else if(gapmode == 1){
000164  7af8              LDRB     r0,[r7,#0xb]  ; gapmode
000166  e004              B        |L5.370|
                  |L5.360|
000168  e2cc              B        |L5.1796|
                  |L5.362|
00016a  e037              B        |L5.476|
                  |L5.364|
00016c  e2f8              B        |L5.1888|
                  |L5.366|
00016e  e35a              B        |L5.2086|
                  |L5.368|
000170  e3f9              B        |L5.2406|
                  |L5.370|
000172  2801              CMP      r0,#1
000174  d074              BEQ      |L5.608|
000176  e3f7              B        |L5.2408|
000178  f640016f          MOV      r1,#0x86f             ;1806
00017c  4ea8              LDR      r6,|L5.1056|
00017e  f7fffffe          BL       WM_GetDialogItem
000182  4607              MOV      r7,r0                 ;1806
000184  f06f4170          MVN      r1,#0xf0000000        ;1807
000188  4638              MOV      r0,r7                 ;1807
00018a  f7fffffe          BL       TEXT_SetBkColor
00018e  f06f417f          MVN      r1,#0xff000000        ;1808
000192  4638              MOV      r0,r7                 ;1808
000194  f7fffffe          BL       TEXT_SetTextColor
000198  4659              MOV      r1,r11                ;1810
00019a  69b0              LDR      r0,[r6,#0x18]         ;1810  ; hWincdc
00019c  f7fffffe          BL       WM_GetDialogItem
0001a0  4606              MOV      r6,r0                 ;1810
0001a2  49a5              LDR      r1,|L5.1080|
0001a4  4630              MOV      r0,r6                 ;1811
0001a6  e001              B        |L5.428|
                  |L5.424|
0001a8  e1a5              B        |L5.1270|
                  |L5.426|
0001aa  e25b              B        |L5.1636|
                  |L5.428|
0001ac  f7fffffe          BL       TEXT_SetBkColor
0001b0  2100              MOVS     r1,#0                 ;1812
0001b2  4630              MOV      r0,r6                 ;1812
0001b4  f7fffffe          BL       TEXT_SetTextColor
0001b8  9402              STR      r4,[sp,#8]            ;1813
0001ba  499e              LDR      r1,|L5.1076|
0001bc  e006              B        |L5.460|
                  |L5.446|
0001be  f89d0008          LDRB     r0,[sp,#8]            ;1815
0001c2  540c              STRB     r4,[r1,r0]            ;1815
0001c4  f89d0008          LDRB     r0,[sp,#8]            ;1813
0001c8  1c40              ADDS     r0,r0,#1              ;1813
0001ca  9002              STR      r0,[sp,#8]            ;1813
                  |L5.460|
0001cc  f89d0008          LDRB     r0,[sp,#8]            ;1813
0001d0  2806              CMP      r0,#6                 ;1813
0001d2  d3f4              BCC      |L5.446|
0001d4  498e              LDR      r1,|L5.1040|
0001d6  201d              MOVS     r0,#0x1d              ;1818
0001d8  7008              STRB     r0,[r1,#0]            ;1818
0001da  702c              STRB     r4,[r5,#0]            ;1819
                  |L5.476|
;;;2317   				if(dot_flag == 0){
;;;2318   					GAPTIME2 = atoi(set_limit);					
;;;2319   				}else if(dot_flag != 0){
;;;2320   					memset(buf, '\0', sizeof(buf));
;;;2321   					strncpy(buf,set_limit,dot_flag);
;;;2322   					GAPTIME2 = atof(buf);
;;;2323   				}
;;;2324   				if(GAPTIME2 >9999)
;;;2325   				{
;;;2326   					GAPTIME2 = 9999;
;;;2327   				}
;;;2328   				sprintf(buf,"%5d",GAPTIME2);
;;;2329   			}
;;;2330               TEXT_SetText(hItem,buf);   
;;;2331               hItem = WM_GetDialogItem(hWincdc, ID_TEXT_168);
;;;2332               TEXT_SetBkColor(hItem,0x00BFFFFF);//选项背景色设为米色
;;;2333               TEXT_SetTextColor(hItem, GUI_BLACK);
;;;2334   
;;;2335               set_sw = set_92;
;;;2336               bit = 0;
;;;2337               dot_flag = 0;
;;;2338   			Flash_Write32BitDatas(FLASH_USER_START_ADDR,43, InFlashSave);
;;;2339               break;
;;;2340           }    
;;;2341           default: break;
;;;2342       }
;;;2343   }
0001dc  b003              ADD      sp,sp,#0xc
0001de  ecbd8b06          VPOP     {d8-d10}
0001e2  e8bd8ff0          POP      {r4-r11,pc}
0001e6  4659              MOV      r1,r11                ;1826
0001e8  f8df9234          LDR      r9,|L5.1056|
0001ec  f7fffffe          BL       WM_GetDialogItem
0001f0  4682              MOV      r10,r0                ;1826
0001f2  f06f4170          MVN      r1,#0xf0000000        ;1827
0001f6  4650              MOV      r0,r10                ;1827
0001f8  f7fffffe          BL       TEXT_SetBkColor
0001fc  f06f417f          MVN      r1,#0xff000000        ;1828
000200  4650              MOV      r0,r10                ;1828
000202  f7fffffe          BL       TEXT_SetTextColor
000206  7830              LDRB     r0,[r6,#0]            ;1837  ; dot_flag
000208  b390              CBZ      r0,|L5.624|
00020a  7830              LDRB     r0,[r6,#0]            ;1839  ; dot_flag
00020c  b1e0              CBZ      r0,|L5.584|
00020e  9400              STR      r4,[sp,#0]            ;1840
000210  9401              STR      r4,[sp,#4]            ;1840
000212  e004              B        |L5.542|
                  |L5.532|
000214  e231              B        |L5.1658|
                  |L5.534|
000216  e23a              B        |L5.1678|
                  |L5.536|
000218  e243              B        |L5.1698|
                  |L5.538|
00021a  e33e              B        |L5.2202|
                  |L5.540|
00021c  e3f6              B        |L5.2572|
                  |L5.542|
00021e  7832              LDRB     r2,[r6,#0]            ;1841  ; dot_flag
000220  4984              LDR      r1,|L5.1076|
000222  1cd2              ADDS     r2,r2,#3              ;1841
000224  4668              MOV      r0,sp                 ;1841
000226  f7fffffe          BL       strncpy
00022a  4668              MOV      r0,sp                 ;1842
00022c  f7fffffe          BL       __hardfp_atof
000230  ed9f1b82          VLDR     d1,|L5.1084|
000234  ec510b10          VMOV     r0,r1,d0              ;1842
000238  ec532b11          VMOV     r2,r3,d1              ;1842
00023c  f7fffffe          BL       __aeabi_dmul
000240  f7fffffe          BL       __aeabi_d2uiz
000244  496f              LDR      r1,|L5.1028|
000246  67c8              STR      r0,[r1,#0x7c]         ;1842  ; Run_Control
                  |L5.584|
000248  486e              LDR      r0,|L5.1028|
00024a  6fc2              LDR      r2,[r0,#0x7c]         ;1844  ; Run_Control
00024c  f6410138          MOV      r1,#0x1838            ;1844
000250  428a              CMP      r2,r1                 ;1844
000252  d900              BLS      |L5.598|
000254  67c1              STR      r1,[r0,#0x7c]         ;1846  ; Run_Control
                  |L5.598|
000256  6fc1              LDR      r1,[r0,#0x7c]         ;1848  ; Run_Control
000258  6041              STR      r1,[r0,#4]            ;1848  ; Run_Control
00025a  6841              LDR      r1,[r0,#4]            ;1849  ; Run_Control
00025c  e009              B        |L5.626|
                  |L5.606|
00025e  e3fd              B        |L5.2652|
                  |L5.608|
000260  e3fd              B        |L5.2654|
000262  e350              B        |L5.2310|
000264  e3fc              B        |L5.2656|
000266  e380              B        |L5.2410|
000268  e070              B        |L5.844|
00026a  e1cb              B        |L5.1540|
00026c  e113              B        |L5.1174|
00026e  e03d              B        |L5.748|
                  |L5.624|
000270  e034              B        |L5.732|
                  |L5.626|
000272  fbb1f1f7          UDIV     r1,r1,r7              ;1849
000276  6882              LDR      r2,[r0,#8]            ;1849  ; Run_Control
000278  4351              MULS     r1,r2,r1              ;1849
00027a  4541              CMP      r1,r8                 ;1849
00027c  d900              BLS      |L5.640|
00027e  6044              STR      r4,[r0,#4]            ;1851  ; Run_Control
                  |L5.640|
000280  6840              LDR      r0,[r0,#4]            ;1853  ; Run_Control
000282  ee000a10          VMOV     s0,r0                 ;1853
000286  eef80a40          VCVT.F32.U32 s1,s0                 ;1853
00028a  ee800a8a          VDIV.F32 s0,s1,s20             ;1853
00028e  ee100a10          VMOV     r0,s0                 ;1854
000292  f7fffffe          BL       __aeabi_f2d
000296  ec410b10          VMOV     d0,r0,r1              ;1854
00029a  a16a              ADR      r1,|L5.1092|
00029c  ec532b10          VMOV     r2,r3,d0              ;1854
0002a0  4668              MOV      r0,sp                 ;1854
0002a2  f7fffffe          BL       __2sprintf
0002a6  4669              MOV      r1,sp                 ;1855
0002a8  4650              MOV      r0,r10                ;1855
0002aa  f7fffffe          BL       TEXT_SetText
0002ae  f640016f          MOV      r1,#0x86f             ;1865
0002b2  f8d90018          LDR      r0,[r9,#0x18]         ;1865  ; hWincdc
0002b6  f7fffffe          BL       WM_GetDialogItem
0002ba  4607              MOV      r7,r0                 ;1865
0002bc  495e              LDR      r1,|L5.1080|
0002be  4638              MOV      r0,r7                 ;1866
0002c0  f7fffffe          BL       TEXT_SetBkColor
0002c4  2100              MOVS     r1,#0                 ;1867
0002c6  4638              MOV      r0,r7                 ;1867
0002c8  f7fffffe          BL       TEXT_SetTextColor
0002cc  4950              LDR      r1,|L5.1040|
0002ce  2019              MOVS     r0,#0x19              ;1869
0002d0  7008              STRB     r0,[r1,#0]            ;1869
0002d2  702c              STRB     r4,[r5,#0]            ;1870
0002d4  7034              STRB     r4,[r6,#0]            ;1871
0002d6  f7fffffe          BL       Write_Limits
                  |L5.730|
0002da  e77f              B        |L5.476|
                  |L5.732|
0002dc  4855              LDR      r0,|L5.1076|
0002de  f7fffffe          BL       atoi
0002e2  2164              MOVS     r1,#0x64              ;1838
0002e4  4348              MULS     r0,r1,r0              ;1838
0002e6  4947              LDR      r1,|L5.1028|
0002e8  67c8              STR      r0,[r1,#0x7c]         ;1838  ; Run_Control
0002ea  e7ad              B        |L5.584|
                  |L5.748|
0002ec  f44f6107          MOV      r1,#0x870             ;1879
0002f0  4d4b              LDR      r5,|L5.1056|
0002f2  f7fffffe          BL       WM_GetDialogItem
0002f6  4606              MOV      r6,r0                 ;1879
0002f8  f06f4170          MVN      r1,#0xf0000000        ;1880
0002fc  4630              MOV      r0,r6                 ;1880
0002fe  f7fffffe          BL       TEXT_SetBkColor
000302  f06f417f          MVN      r1,#0xff000000        ;1881
000306  4630              MOV      r0,r6                 ;1881
000308  f7fffffe          BL       TEXT_SetTextColor
00030c  9402              STR      r4,[sp,#8]            ;1882
00030e  4949              LDR      r1,|L5.1076|
000310  e006              B        |L5.800|
                  |L5.786|
000312  f89d0008          LDRB     r0,[sp,#8]            ;1884
000316  540c              STRB     r4,[r1,r0]            ;1884
000318  f89d0008          LDRB     r0,[sp,#8]            ;1882
00031c  1c40              ADDS     r0,r0,#1              ;1882
00031e  9002              STR      r0,[sp,#8]            ;1882
                  |L5.800|
000320  f89d0008          LDRB     r0,[sp,#8]            ;1882
000324  2806              CMP      r0,#6                 ;1882
000326  d3f4              BCC      |L5.786|
000328  f6400174          MOV      r1,#0x874             ;1887
00032c  69a8              LDR      r0,[r5,#0x18]         ;1887  ; hWincdc
00032e  f7fffffe          BL       WM_GetDialogItem
000332  4604              MOV      r4,r0                 ;1887
000334  4940              LDR      r1,|L5.1080|
000336  4620              MOV      r0,r4                 ;1888
000338  f7fffffe          BL       TEXT_SetBkColor
00033c  2100              MOVS     r1,#0                 ;1889
00033e  4620              MOV      r0,r4                 ;1889
000340  f7fffffe          BL       TEXT_SetTextColor
000344  4932              LDR      r1,|L5.1040|
000346  201e              MOVS     r0,#0x1e              ;1891
000348  7008              STRB     r0,[r1,#0]            ;1891
                  |L5.842|
00034a  e747              B        |L5.476|
                  |L5.844|
00034c  f6400174          MOV      r1,#0x874             ;1898
000350  f8df90cc          LDR      r9,|L5.1056|
000354  f7fffffe          BL       WM_GetDialogItem
000358  4682              MOV      r10,r0                ;1898
00035a  f06f4170          MVN      r1,#0xf0000000        ;1899
00035e  4650              MOV      r0,r10                ;1899
000360  f7fffffe          BL       TEXT_SetBkColor
000364  f06f417f          MVN      r1,#0xff000000        ;1900
000368  4650              MOV      r0,r10                ;1900
00036a  f7fffffe          BL       TEXT_SetTextColor
00036e  7830              LDRB     r0,[r6,#0]            ;1910  ; dot_flag
000370  b3f0              CBZ      r0,|L5.1008|
000372  7830              LDRB     r0,[r6,#0]            ;1912  ; dot_flag
000374  b1a8              CBZ      r0,|L5.930|
000376  9400              STR      r4,[sp,#0]            ;1913
000378  9401              STR      r4,[sp,#4]            ;1913
00037a  7832              LDRB     r2,[r6,#0]            ;1914  ; dot_flag
00037c  492d              LDR      r1,|L5.1076|
00037e  1d12              ADDS     r2,r2,#4              ;1914
000380  4668              MOV      r0,sp                 ;1914
000382  f7fffffe          BL       strncpy
000386  4668              MOV      r0,sp                 ;1915
000388  f7fffffe          BL       __hardfp_atof
00038c  ec532b18          VMOV     r2,r3,d8              ;1915
000390  ec510b10          VMOV     r0,r1,d0              ;1915
000394  f7fffffe          BL       __aeabi_dmul
000398  f7fffffe          BL       __aeabi_d2uiz
00039c  4919              LDR      r1,|L5.1028|
00039e  f8c10088          STR      r0,[r1,#0x88]         ;1915  ; Run_Control
                  |L5.930|
0003a2  4818              LDR      r0,|L5.1028|
0003a4  f8d02088          LDR      r2,[r0,#0x88]         ;1918  ; Run_Control
0003a8  f2427110          MOV      r1,#0x2710            ;1918
0003ac  428a              CMP      r2,r1                 ;1918
0003ae  d901              BLS      |L5.948|
0003b0  f8c01088          STR      r1,[r0,#0x88]         ;1920  ; Run_Control
                  |L5.948|
0003b4  f8d01088          LDR      r1,[r0,#0x88]         ;1922  ; Run_Control
0003b8  6081              STR      r1,[r0,#8]            ;1922  ; Run_Control
0003ba  6841              LDR      r1,[r0,#4]            ;1923  ; Run_Control
0003bc  6882              LDR      r2,[r0,#8]            ;1923  ; Run_Control
0003be  fbb1f1f7          UDIV     r1,r1,r7              ;1923
0003c2  4351              MULS     r1,r2,r1              ;1923
0003c4  4541              CMP      r1,r8                 ;1923
0003c6  d900              BLS      |L5.970|
0003c8  6084              STR      r4,[r0,#8]            ;1925  ; Run_Control
                  |L5.970|
0003ca  6880              LDR      r0,[r0,#8]            ;1931  ; Run_Control
0003cc  ed9f1a0f          VLDR     s2,|L5.1036|
0003d0  ee000a10          VMOV     s0,r0                 ;1931
0003d4  eef80a40          VCVT.F32.U32 s1,s0                 ;1931
0003d8  ee800a81          VDIV.F32 s0,s1,s2              ;1931
0003dc  ee100a10          VMOV     r0,s0                 ;1932
0003e0  f7fffffe          BL       __aeabi_f2d
0003e4  ec410b10          VMOV     d0,r0,r1              ;1932
0003e8  a118              ADR      r1,|L5.1100|
0003ea  ec532b10          VMOV     r2,r3,d0              ;1932
0003ee  e000              B        |L5.1010|
                  |L5.1008|
0003f0  e047              B        |L5.1154|
                  |L5.1010|
0003f2  4668              MOV      r0,sp                 ;1932
0003f4  f7fffffe          BL       __2sprintf
0003f8  4669              MOV      r1,sp                 ;1933
0003fa  4650              MOV      r0,r10                ;1933
0003fc  f7fffffe          BL       TEXT_SetText
000400  e028              B        |L5.1108|
000402  0000              DCW      0x0000
                  |L5.1028|
                          DCD      Run_Control
                  |L5.1032|
000408  42c80000          DCFS     0x42c80000 ; 100
                  |L5.1036|
00040c  447a0000          DCFS     0x447a0000 ; 1000
                  |L5.1040|
                          DCD      set_sw
                  |L5.1044|
                          DCD      bit
                  |L5.1048|
000418  00000000          DCFD     0x408f400000000000 ; 1000
00041c  408f4000
                  |L5.1056|
                          DCD      ||area_number.18||
                  |L5.1060|
                          DCD      dot_flag
                  |L5.1064|
                          DCD      InFlashSave
                  |L5.1068|
                          DCD      0x0003d477
                  |L5.1072|
                          DCD      ||.bss||
                  |L5.1076|
                          DCD      set_limit
                  |L5.1080|
                          DCD      0x00bfffff
                  |L5.1084|
00043c  00000000          DCFD     0x4059000000000000 ; 100
000440  40590000
                  |L5.1092|
000444  252e3266          DCB      "%.2f",0
000448  00      
000449  00                DCB      0
00044a  00                DCB      0
00044b  00                DCB      0
                  |L5.1100|
00044c  252e3366          DCB      "%.3f",0
000450  00      
000451  00                DCB      0
000452  00                DCB      0
000453  00                DCB      0
                  |L5.1108|
000454  f44f6107          MOV      r1,#0x870             ;1944
000458  f8d90018          LDR      r0,[r9,#0x18]         ;1944  ; hWincdc
00045c  f7fffffe          BL       WM_GetDialogItem
000460  4607              MOV      r7,r0                 ;1944
000462  49fa              LDR      r1,|L5.2124|
000464  4638              MOV      r0,r7                 ;1945
000466  f7fffffe          BL       TEXT_SetBkColor
00046a  2100              MOVS     r1,#0                 ;1946
00046c  4638              MOV      r0,r7                 ;1946
00046e  f7fffffe          BL       TEXT_SetTextColor
000472  49f7              LDR      r1,|L5.2128|
000474  201a              MOVS     r0,#0x1a              ;1948
000476  7008              STRB     r0,[r1,#0]            ;1948
000478  702c              STRB     r4,[r5,#0]            ;1949
00047a  7034              STRB     r4,[r6,#0]            ;1950
00047c  f7fffffe          BL       Write_Limits
                  |L5.1152|
000480  e6ac              B        |L5.476|
                  |L5.1154|
000482  48f4              LDR      r0,|L5.2132|
000484  f7fffffe          BL       atoi
000488  f44f717a          MOV      r1,#0x3e8             ;1911
00048c  4348              MULS     r0,r1,r0              ;1911
00048e  49f2              LDR      r1,|L5.2136|
000490  f8c10088          STR      r0,[r1,#0x88]         ;1911  ; Run_Control
000494  e785              B        |L5.930|
                  |L5.1174|
000496  f6400177          MOV      r1,#0x877             ;1958
00049a  4df0              LDR      r5,|L5.2140|
00049c  f7fffffe          BL       WM_GetDialogItem
0004a0  4606              MOV      r6,r0                 ;1958
0004a2  f06f4170          MVN      r1,#0xf0000000        ;1959
0004a6  4630              MOV      r0,r6                 ;1959
0004a8  f7fffffe          BL       TEXT_SetBkColor
0004ac  f06f417f          MVN      r1,#0xff000000        ;1960
0004b0  4630              MOV      r0,r6                 ;1960
0004b2  f7fffffe          BL       TEXT_SetTextColor
0004b6  9402              STR      r4,[sp,#8]            ;1961
0004b8  49e6              LDR      r1,|L5.2132|
0004ba  e006              B        |L5.1226|
                  |L5.1212|
0004bc  f89d0008          LDRB     r0,[sp,#8]            ;1963
0004c0  540c              STRB     r4,[r1,r0]            ;1963
0004c2  f89d0008          LDRB     r0,[sp,#8]            ;1961
0004c6  1c40              ADDS     r0,r0,#1              ;1961
0004c8  9002              STR      r0,[sp,#8]            ;1961
                  |L5.1226|
0004ca  f89d0008          LDRB     r0,[sp,#8]            ;1961
0004ce  2806              CMP      r0,#6                 ;1961
0004d0  d3f4              BCC      |L5.1212|
0004d2  f640017b          MOV      r1,#0x87b             ;1966
0004d6  69a8              LDR      r0,[r5,#0x18]         ;1966  ; hWincdc
0004d8  f7fffffe          BL       WM_GetDialogItem
0004dc  4604              MOV      r4,r0                 ;1966
0004de  49db              LDR      r1,|L5.2124|
0004e0  4620              MOV      r0,r4                 ;1967
0004e2  f7fffffe          BL       TEXT_SetBkColor
0004e6  2100              MOVS     r1,#0                 ;1968
0004e8  4620              MOV      r0,r4                 ;1968
0004ea  f7fffffe          BL       TEXT_SetTextColor
0004ee  49d8              LDR      r1,|L5.2128|
0004f0  2025              MOVS     r0,#0x25              ;1970
0004f2  7008              STRB     r0,[r1,#0]            ;1970
                  |L5.1268|
0004f4  e672              B        |L5.476|
                  |L5.1270|
0004f6  f640017b          MOV      r1,#0x87b             ;1977
0004fa  f8df8360          LDR      r8,|L5.2140|
0004fe  f7fffffe          BL       WM_GetDialogItem
000502  4682              MOV      r10,r0                ;1977
000504  f06f4170          MVN      r1,#0xf0000000        ;1978
000508  4650              MOV      r0,r10                ;1978
00050a  f7fffffe          BL       TEXT_SetBkColor
00050e  f06f417f          MVN      r1,#0xff000000        ;1979
000512  4650              MOV      r0,r10                ;1979
000514  f7fffffe          BL       TEXT_SetTextColor
000518  7830              LDRB     r0,[r6,#0]            ;1980  ; dot_flag
00051a  b348              CBZ      r0,|L5.1392|
00051c  7830              LDRB     r0,[r6,#0]            ;1982  ; dot_flag
00051e  b1a8              CBZ      r0,|L5.1356|
000520  9400              STR      r4,[sp,#0]            ;1983
000522  9401              STR      r4,[sp,#4]            ;1983
000524  7832              LDRB     r2,[r6,#0]            ;1984  ; dot_flag
000526  49cb              LDR      r1,|L5.2132|
000528  1cd2              ADDS     r2,r2,#3              ;1984
00052a  4668              MOV      r0,sp                 ;1984
00052c  f7fffffe          BL       strncpy
000530  4668              MOV      r0,sp                 ;1985
000532  f7fffffe          BL       __hardfp_atof
000536  ed1f1b3f          VLDR     d1,|L5.1084|
00053a  ec510b10          VMOV     r0,r1,d0              ;1985
00053e  ec532b11          VMOV     r2,r3,d1              ;1985
000542  f7fffffe          BL       __aeabi_dmul
000546  f7fffffe          BL       __aeabi_d2uiz
00054a  8038              STRH     r0,[r7,#0]            ;1985
                  |L5.1356|
00054c  8839              LDRH     r1,[r7,#0]            ;1987  ; coff
00054e  f6410038          MOV      r0,#0x1838            ;1987
000552  4281              CMP      r1,r0                 ;1987
000554  d900              BLS      |L5.1368|
000556  8038              STRH     r0,[r7,#0]            ;1989
                  |L5.1368|
000558  f898000c          LDRB     r0,[r8,#0xc]          ;1991  ; coffv_step
00055c  b198              CBZ      r0,|L5.1414|
00055e  f898000c          LDRB     r0,[r8,#0xc]          ;1994  ; coffv_step
000562  2801              CMP      r0,#1                 ;1994
000564  d017              BEQ      |L5.1430|
000566  f898000c          LDRB     r0,[r8,#0xc]          ;1996  ; coffv_step
00056a  2802              CMP      r0,#2                 ;1996
00056c  d01b              BEQ      |L5.1446|
00056e  e021              B        |L5.1460|
                  |L5.1392|
000570  48b8              LDR      r0,|L5.2132|
000572  f7fffffe          BL       atoi
000576  eb0001c0          ADD      r1,r0,r0,LSL #3       ;1981
00057a  eb011000          ADD      r0,r1,r0,LSL #4       ;1981
00057e  ea090080          AND      r0,r9,r0,LSL #2       ;1981
000582  8038              STRH     r0,[r7,#0]            ;1981
000584  e7e2              B        |L5.1356|
                  |L5.1414|
000586  8838              LDRH     r0,[r7,#0]            ;1993  ; coff
000588  ee000a10          VMOV     s0,r0                 ;1993
00058c  eeb80a40          VCVT.F32.U32 s0,s0                 ;1993
000590  eec09a0a          VDIV.F32 s19,s0,s20            ;1993
000594  e00e              B        |L5.1460|
                  |L5.1430|
000596  8878              LDRH     r0,[r7,#2]            ;1995  ; coff
000598  ee000a10          VMOV     s0,r0                 ;1995
00059c  eeb80a40          VCVT.F32.U32 s0,s0                 ;1995
0005a0  eec09a0a          VDIV.F32 s19,s0,s20            ;1995
0005a4  e006              B        |L5.1460|
                  |L5.1446|
0005a6  88b8              LDRH     r0,[r7,#4]            ;1997  ; coff
0005a8  ee000a10          VMOV     s0,r0                 ;1997
0005ac  eeb80a40          VCVT.F32.U32 s0,s0                 ;1997
0005b0  eec09a0a          VDIV.F32 s19,s0,s20            ;1997
                  |L5.1460|
0005b4  ee190a90          VMOV     r0,s19                ;2001
0005b8  f7fffffe          BL       __aeabi_f2d
0005bc  ec410b10          VMOV     d0,r0,r1              ;2001
0005c0  ec532b10          VMOV     r2,r3,d0              ;2001
0005c4  f2af1184          ADR      r1,|L5.1092|
0005c8  4668              MOV      r0,sp                 ;2001
0005ca  f7fffffe          BL       __2sprintf
0005ce  4669              MOV      r1,sp                 ;2002
0005d0  4650              MOV      r0,r10                ;2002
0005d2  f7fffffe          BL       TEXT_SetText
0005d6  f6400177          MOV      r1,#0x877             ;2012
0005da  f8d80018          LDR      r0,[r8,#0x18]         ;2012  ; hWincdc
0005de  f7fffffe          BL       WM_GetDialogItem
0005e2  4607              MOV      r7,r0                 ;2012
0005e4  4999              LDR      r1,|L5.2124|
0005e6  4638              MOV      r0,r7                 ;2013
0005e8  f7fffffe          BL       TEXT_SetBkColor
0005ec  2100              MOVS     r1,#0                 ;2014
0005ee  4638              MOV      r0,r7                 ;2014
0005f0  f7fffffe          BL       TEXT_SetTextColor
0005f4  4996              LDR      r1,|L5.2128|
0005f6  201b              MOVS     r0,#0x1b              ;2016
0005f8  7008              STRB     r0,[r1,#0]            ;2016
0005fa  702c              STRB     r4,[r5,#0]            ;2017
0005fc  7034              STRB     r4,[r6,#0]            ;2018
0005fe  f7fffffe          BL       Write_Limits
000602  e5eb              B        |L5.476|
                  |L5.1540|
000604  f6400178          MOV      r1,#0x878             ;2026
000608  4d94              LDR      r5,|L5.2140|
00060a  f7fffffe          BL       WM_GetDialogItem
00060e  4606              MOV      r6,r0                 ;2026
000610  f06f4170          MVN      r1,#0xf0000000        ;2027
000614  4630              MOV      r0,r6                 ;2027
000616  f7fffffe          BL       TEXT_SetBkColor
00061a  f06f417f          MVN      r1,#0xff000000        ;2028
00061e  4630              MOV      r0,r6                 ;2028
000620  f7fffffe          BL       TEXT_SetTextColor
000624  9402              STR      r4,[sp,#8]            ;2029
000626  498b              LDR      r1,|L5.2132|
000628  e006              B        |L5.1592|
                  |L5.1578|
00062a  f89d0008          LDRB     r0,[sp,#8]            ;2031
00062e  540c              STRB     r4,[r1,r0]            ;2031
000630  f89d0008          LDRB     r0,[sp,#8]            ;2029
000634  1c40              ADDS     r0,r0,#1              ;2029
000636  9002              STR      r0,[sp,#8]            ;2029
                  |L5.1592|
000638  f89d0008          LDRB     r0,[sp,#8]            ;2029
00063c  2806              CMP      r0,#6                 ;2029
00063e  d3f4              BCC      |L5.1578|
000640  f640017c          MOV      r1,#0x87c             ;2034
000644  69a8              LDR      r0,[r5,#0x18]         ;2034  ; hWincdc
000646  f7fffffe          BL       WM_GetDialogItem
00064a  4604              MOV      r4,r0                 ;2034
00064c  497f              LDR      r1,|L5.2124|
00064e  4620              MOV      r0,r4                 ;2035
000650  f7fffffe          BL       TEXT_SetBkColor
000654  2100              MOVS     r1,#0                 ;2036
000656  4620              MOV      r0,r4                 ;2036
000658  f7fffffe          BL       TEXT_SetTextColor
00065c  497c              LDR      r1,|L5.2128|
00065e  2026              MOVS     r0,#0x26              ;2038
000660  7008              STRB     r0,[r1,#0]            ;2038
000662  e5bb              B        |L5.476|
                  |L5.1636|
000664  487b              LDR      r0,|L5.2132|
000666  f7fffffe          BL       atoi
00066a  eb000140          ADD      r1,r0,r0,LSL #1       ;2049
00066e  ebc110c0          RSB      r0,r1,r0,LSL #7       ;2049
000672  ea0900c0          AND      r0,r9,r0,LSL #3       ;2049
000676  80f8              STRH     r0,[r7,#6]            ;2049
000678  e543              B        |L5.258|
                  |L5.1658|
00067a  88f8              LDRH     r0,[r7,#6]            ;2062  ; coff
00067c  ee000a10          VMOV     s0,r0                 ;2062
000680  eeb80a40          VCVT.F32.U32 s0,s0                 ;2062
000684  ed5f0a9f          VLDR     s1,|L5.1036|
000688  ee809a20          VDIV.F32 s18,s0,s1             ;2062
00068c  e012              B        |L5.1716|
                  |L5.1678|
00068e  8938              LDRH     r0,[r7,#8]            ;2064  ; coff
000690  ee000a10          VMOV     s0,r0                 ;2064
000694  eeb80a40          VCVT.F32.U32 s0,s0                 ;2064
000698  ed5f0aa4          VLDR     s1,|L5.1036|
00069c  ee809a20          VDIV.F32 s18,s0,s1             ;2064
0006a0  e008              B        |L5.1716|
                  |L5.1698|
0006a2  8978              LDRH     r0,[r7,#0xa]          ;2066  ; coff
0006a4  ee000a10          VMOV     s0,r0                 ;2066
0006a8  eeb80a40          VCVT.F32.U32 s0,s0                 ;2066
0006ac  ed5f0aa9          VLDR     s1,|L5.1036|
0006b0  ee809a20          VDIV.F32 s18,s0,s1             ;2066
                  |L5.1716|
0006b4  ee190a10          VMOV     r0,s18                ;2069
0006b8  f7fffffe          BL       __aeabi_f2d
0006bc  ec410b10          VMOV     d0,r0,r1              ;2069
0006c0  ec532b10          VMOV     r2,r3,d0              ;2069
0006c4  f2af217c          ADR      r1,|L5.1100|
0006c8  4668              MOV      r0,sp                 ;2069
0006ca  f7fffffe          BL       __2sprintf
0006ce  4669              MOV      r1,sp                 ;2070
0006d0  4650              MOV      r0,r10                ;2070
0006d2  f7fffffe          BL       TEXT_SetText
0006d6  f6400178          MOV      r1,#0x878             ;2079
0006da  f8d80018          LDR      r0,[r8,#0x18]         ;2079  ; hWincdc
0006de  f7fffffe          BL       WM_GetDialogItem
0006e2  4607              MOV      r7,r0                 ;2079
0006e4  4959              LDR      r1,|L5.2124|
0006e6  4638              MOV      r0,r7                 ;2080
0006e8  f7fffffe          BL       TEXT_SetBkColor
0006ec  2100              MOVS     r1,#0                 ;2081
0006ee  4638              MOV      r0,r7                 ;2081
0006f0  f7fffffe          BL       TEXT_SetTextColor
0006f4  4956              LDR      r1,|L5.2128|
0006f6  201c              MOVS     r0,#0x1c              ;2083
0006f8  7008              STRB     r0,[r1,#0]            ;2083
0006fa  702c              STRB     r4,[r5,#0]            ;2084
0006fc  7034              STRB     r4,[r6,#0]            ;2085
0006fe  f7fffffe          BL       Write_Limits
000702  e56b              B        |L5.476|
                  |L5.1796|
000704  4641              MOV      r1,r8                 ;2093
000706  4d55              LDR      r5,|L5.2140|
000708  f7fffffe          BL       WM_GetDialogItem
00070c  4606              MOV      r6,r0                 ;2093
00070e  f06f4170          MVN      r1,#0xf0000000        ;2094
000712  4630              MOV      r0,r6                 ;2094
000714  f7fffffe          BL       TEXT_SetBkColor
000718  f06f417f          MVN      r1,#0xff000000        ;2095
00071c  4630              MOV      r0,r6                 ;2095
00071e  f7fffffe          BL       TEXT_SetTextColor
000722  9402              STR      r4,[sp,#8]            ;2096
000724  494b              LDR      r1,|L5.2132|
000726  e006              B        |L5.1846|
                  |L5.1832|
000728  f89d0008          LDRB     r0,[sp,#8]            ;2098
00072c  540c              STRB     r4,[r1,r0]            ;2098
00072e  f89d0008          LDRB     r0,[sp,#8]            ;2096
000732  1c40              ADDS     r0,r0,#1              ;2096
000734  9002              STR      r0,[sp,#8]            ;2096
                  |L5.1846|
000736  f89d0008          LDRB     r0,[sp,#8]            ;2096
00073a  2806              CMP      r0,#6                 ;2096
00073c  d3f4              BCC      |L5.1832|
00073e  4659              MOV      r1,r11                ;2101
000740  69a8              LDR      r0,[r5,#0x18]         ;2101  ; hWincdc
000742  f7fffffe          BL       WM_GetDialogItem
000746  4604              MOV      r4,r0                 ;2101
000748  4940              LDR      r1,|L5.2124|
00074a  4620              MOV      r0,r4                 ;2102
00074c  f7fffffe          BL       TEXT_SetBkColor
000750  2100              MOVS     r1,#0                 ;2103
000752  4620              MOV      r0,r4                 ;2103
000754  f7fffffe          BL       TEXT_SetTextColor
000758  493d              LDR      r1,|L5.2128|
00075a  2027              MOVS     r0,#0x27              ;2105
00075c  7008              STRB     r0,[r1,#0]            ;2105
00075e  e53d              B        |L5.476|
                  |L5.1888|
000760  4659              MOV      r1,r11                ;2112
000762  4f3e              LDR      r7,|L5.2140|
000764  f7fffffe          BL       WM_GetDialogItem
000768  4681              MOV      r9,r0                 ;2112
00076a  f06f4170          MVN      r1,#0xf0000000        ;2113
00076e  4648              MOV      r0,r9                 ;2113
000770  f7fffffe          BL       TEXT_SetBkColor
000774  f06f417f          MVN      r1,#0xff000000        ;2114
000778  4648              MOV      r0,r9                 ;2114
00077a  f7fffffe          BL       TEXT_SetTextColor
00077e  7830              LDRB     r0,[r6,#0]            ;2115  ; dot_flag
000780  b3e8              CBZ      r0,|L5.2046|
000782  7830              LDRB     r0,[r6,#0]            ;2117  ; dot_flag
000784  b1a0              CBZ      r0,|L5.1968|
000786  9400              STR      r4,[sp,#0]            ;2118
000788  9401              STR      r4,[sp,#4]            ;2118
00078a  7832              LDRB     r2,[r6,#0]            ;2119  ; dot_flag
00078c  4931              LDR      r1,|L5.2132|
00078e  1d12              ADDS     r2,r2,#4              ;2119
000790  4668              MOV      r0,sp                 ;2119
000792  f7fffffe          BL       strncpy
000796  4668              MOV      r0,sp                 ;2120
000798  f7fffffe          BL       __hardfp_atof
00079c  ec532b18          VMOV     r2,r3,d8              ;2120
0007a0  ec510b10          VMOV     r0,r1,d0              ;2120
0007a4  f7fffffe          BL       __aeabi_dmul
0007a8  f7fffffe          BL       __aeabi_d2uiz
0007ac  492a              LDR      r1,|L5.2136|
0007ae  66c8              STR      r0,[r1,#0x6c]         ;2120  ; Run_Control
                  |L5.1968|
0007b0  4829              LDR      r0,|L5.2136|
0007b2  6ec0              LDR      r0,[r0,#0x6c]         ;2122  ; Run_Control
0007b4  ee000a10          VMOV     s0,r0                 ;2122
0007b8  eef80a40          VCVT.F32.U32 s1,s0                 ;2122
0007bc  ed1f1aed          VLDR     s2,|L5.1036|
0007c0  ee800a81          VDIV.F32 s0,s1,s2              ;2122
0007c4  ee100a10          VMOV     r0,s0                 ;2123
0007c8  f7fffffe          BL       __aeabi_f2d
0007cc  ec410b10          VMOV     d0,r0,r1              ;2123
0007d0  ec532b10          VMOV     r2,r3,d0              ;2123
0007d4  f2af318c          ADR      r1,|L5.1100|
0007d8  4668              MOV      r0,sp                 ;2123
0007da  f7fffffe          BL       __2sprintf
0007de  4669              MOV      r1,sp                 ;2124
0007e0  4648              MOV      r0,r9                 ;2124
0007e2  f7fffffe          BL       TEXT_SetText
0007e6  4641              MOV      r1,r8                 ;2126
0007e8  69b8              LDR      r0,[r7,#0x18]         ;2126  ; hWincdc
0007ea  f7fffffe          BL       WM_GetDialogItem
0007ee  4607              MOV      r7,r0                 ;2126
0007f0  4916              LDR      r1,|L5.2124|
0007f2  4638              MOV      r0,r7                 ;2127
0007f4  f7fffffe          BL       TEXT_SetBkColor
0007f8  2100              MOVS     r1,#0                 ;2128
0007fa  4638              MOV      r0,r7                 ;2128
0007fc  e000              B        |L5.2048|
                  |L5.2046|
0007fe  e009              B        |L5.2068|
                  |L5.2048|
000800  f7fffffe          BL       TEXT_SetTextColor
000804  4912              LDR      r1,|L5.2128|
000806  2022              MOVS     r0,#0x22              ;2130
000808  7008              STRB     r0,[r1,#0]            ;2130
00080a  702c              STRB     r4,[r5,#0]            ;2131
00080c  7034              STRB     r4,[r6,#0]            ;2132
00080e  f7fffffe          BL       Write_Limits
000812  e4e3              B        |L5.476|
                  |L5.2068|
000814  480f              LDR      r0,|L5.2132|
000816  f7fffffe          BL       atoi
00081a  f44f717a          MOV      r1,#0x3e8             ;2116
00081e  4348              MULS     r0,r1,r0              ;2116
000820  490d              LDR      r1,|L5.2136|
000822  66c8              STR      r0,[r1,#0x6c]         ;2116  ; Run_Control
000824  e7c4              B        |L5.1968|
                  |L5.2086|
000826  4639              MOV      r1,r7                 ;2140
000828  4d0c              LDR      r5,|L5.2140|
00082a  f7fffffe          BL       WM_GetDialogItem
00082e  4606              MOV      r6,r0                 ;2140
000830  f06f4170          MVN      r1,#0xf0000000        ;2141
000834  4630              MOV      r0,r6                 ;2141
000836  f7fffffe          BL       TEXT_SetBkColor
00083a  f06f417f          MVN      r1,#0xff000000        ;2142
00083e  4630              MOV      r0,r6                 ;2142
000840  f7fffffe          BL       TEXT_SetTextColor
000844  9402              STR      r4,[sp,#8]            ;2143
000846  4903              LDR      r1,|L5.2132|
000848  e011              B        |L5.2158|
00084a  0000              DCW      0x0000
                  |L5.2124|
                          DCD      0x00bfffff
                  |L5.2128|
                          DCD      set_sw
                  |L5.2132|
                          DCD      set_limit
                  |L5.2136|
                          DCD      Run_Control
                  |L5.2140|
                          DCD      ||area_number.18||
                  |L5.2144|
000860  f89d0008          LDRB     r0,[sp,#8]            ;2145
000864  540c              STRB     r4,[r1,r0]            ;2145
000866  f89d0008          LDRB     r0,[sp,#8]            ;2143
00086a  1c40              ADDS     r0,r0,#1              ;2143
00086c  9002              STR      r0,[sp,#8]            ;2143
                  |L5.2158|
00086e  f89d0008          LDRB     r0,[sp,#8]            ;2143
000872  2806              CMP      r0,#6                 ;2143
000874  d3f4              BCC      |L5.2144|
000876  f640017e          MOV      r1,#0x87e             ;2148
00087a  69a8              LDR      r0,[r5,#0x18]         ;2148  ; hWincdc
00087c  f7fffffe          BL       WM_GetDialogItem
000880  4604              MOV      r4,r0                 ;2148
000882  49fe              LDR      r1,|L5.3196|
000884  4620              MOV      r0,r4                 ;2149
000886  f7fffffe          BL       TEXT_SetBkColor
00088a  2100              MOVS     r1,#0                 ;2150
00088c  4620              MOV      r0,r4                 ;2150
00088e  f7fffffe          BL       TEXT_SetTextColor
000892  49fb              LDR      r1,|L5.3200|
000894  2028              MOVS     r0,#0x28              ;2152
000896  7008              STRB     r0,[r1,#0]            ;2152
000898  e4a0              B        |L5.476|
                  |L5.2202|
00089a  f640017e          MOV      r1,#0x87e             ;2159
00089e  f8df83e4          LDR      r8,|L5.3204|
0008a2  f7fffffe          BL       WM_GetDialogItem
0008a6  4681              MOV      r9,r0                 ;2159
0008a8  f06f4170          MVN      r1,#0xf0000000        ;2160
0008ac  4648              MOV      r0,r9                 ;2160
0008ae  f7fffffe          BL       TEXT_SetBkColor
0008b2  f06f417f          MVN      r1,#0xff000000        ;2161
0008b6  4648              MOV      r0,r9                 ;2161
0008b8  f7fffffe          BL       TEXT_SetTextColor
0008bc  ee1a0a90          VMOV     r0,s21                ;2163
0008c0  f7fffffe          BL       __aeabi_f2d
0008c4  ec410b10          VMOV     d0,r0,r1              ;2163
0008c8  ec532b10          VMOV     r2,r3,d0              ;2163
0008cc  f2af418c          ADR      r1,|L5.1092|
0008d0  4668              MOV      r0,sp                 ;2163
0008d2  f7fffffe          BL       __2sprintf
0008d6  4669              MOV      r1,sp                 ;2164
0008d8  4648              MOV      r0,r9                 ;2164
0008da  f7fffffe          BL       TEXT_SetText
0008de  4639              MOV      r1,r7                 ;2166
0008e0  f8d80018          LDR      r0,[r8,#0x18]         ;2166  ; hWincdc
0008e4  f7fffffe          BL       WM_GetDialogItem
0008e8  4607              MOV      r7,r0                 ;2166
0008ea  49e4              LDR      r1,|L5.3196|
0008ec  4638              MOV      r0,r7                 ;2167
0008ee  f7fffffe          BL       TEXT_SetBkColor
0008f2  2100              MOVS     r1,#0                 ;2168
0008f4  4638              MOV      r0,r7                 ;2168
0008f6  f7fffffe          BL       TEXT_SetTextColor
0008fa  49e1              LDR      r1,|L5.3200|
0008fc  2023              MOVS     r0,#0x23              ;2170
0008fe  7008              STRB     r0,[r1,#0]            ;2170
000900  702c              STRB     r4,[r5,#0]            ;2171
000902  7034              STRB     r4,[r6,#0]            ;2172
000904  e46a              B        |L5.476|
                  |L5.2310|
000906  f6400171          MOV      r1,#0x871             ;2179
00090a  4dde              LDR      r5,|L5.3204|
00090c  f7fffffe          BL       WM_GetDialogItem
000910  4606              MOV      r6,r0                 ;2179
000912  f06f4170          MVN      r1,#0xf0000000        ;2180
000916  4630              MOV      r0,r6                 ;2180
000918  f7fffffe          BL       TEXT_SetBkColor
00091c  f06f417f          MVN      r1,#0xff000000        ;2181
000920  4630              MOV      r0,r6                 ;2181
000922  f7fffffe          BL       TEXT_SetTextColor
000926  9402              STR      r4,[sp,#8]            ;2182
000928  49d7              LDR      r1,|L5.3208|
00092a  e006              B        |L5.2362|
                  |L5.2348|
00092c  f89d0008          LDRB     r0,[sp,#8]            ;2184
000930  540c              STRB     r4,[r1,r0]            ;2184
000932  f89d0008          LDRB     r0,[sp,#8]            ;2182
000936  1c40              ADDS     r0,r0,#1              ;2182
000938  9002              STR      r0,[sp,#8]            ;2182
                  |L5.2362|
00093a  f89d0008          LDRB     r0,[sp,#8]            ;2182
00093e  2806              CMP      r0,#6                 ;2182
000940  d3f4              BCC      |L5.2348|
000942  f6400175          MOV      r1,#0x875             ;2187
000946  69a8              LDR      r0,[r5,#0x18]         ;2187  ; hWincdc
000948  f7fffffe          BL       WM_GetDialogItem
00094c  4604              MOV      r4,r0                 ;2187
00094e  49cb              LDR      r1,|L5.3196|
000950  4620              MOV      r0,r4                 ;2188
000952  f7fffffe          BL       TEXT_SetBkColor
000956  2100              MOVS     r1,#0                 ;2189
000958  4620              MOV      r0,r4                 ;2189
00095a  f7fffffe          BL       TEXT_SetTextColor
00095e  49c8              LDR      r1,|L5.3200|
000960  201f              MOVS     r0,#0x1f              ;2191
000962  7008              STRB     r0,[r1,#0]            ;2191
000964  e43a              B        |L5.476|
                  |L5.2406|
000966  e08b              B        |L5.2688|
                  |L5.2408|
000968  e183              B        |L5.3186|
                  |L5.2410|
00096a  f6400175          MOV      r1,#0x875             ;2198
00096e  4fc5              LDR      r7,|L5.3204|
000970  f7fffffe          BL       WM_GetDialogItem
000974  4680              MOV      r8,r0                 ;2198
000976  f06f4170          MVN      r1,#0xf0000000        ;2199
00097a  4640              MOV      r0,r8                 ;2199
00097c  f7fffffe          BL       TEXT_SetBkColor
000980  f06f417f          MVN      r1,#0xff000000        ;2200
000984  4640              MOV      r0,r8                 ;2200
000986  f7fffffe          BL       TEXT_SetTextColor
00098a  7830              LDRB     r0,[r6,#0]            ;2201  ; dot_flag
00098c  b3e8              CBZ      r0,|L5.2570|
00098e  7830              LDRB     r0,[r6,#0]            ;2203  ; dot_flag
000990  b1a8              CBZ      r0,|L5.2494|
000992  9400              STR      r4,[sp,#0]            ;2204
000994  9401              STR      r4,[sp,#4]            ;2204
000996  7832              LDRB     r2,[r6,#0]            ;2205  ; dot_flag
000998  49bb              LDR      r1,|L5.3208|
00099a  1d12              ADDS     r2,r2,#4              ;2205
00099c  4668              MOV      r0,sp                 ;2205
00099e  f7fffffe          BL       strncpy
0009a2  4668              MOV      r0,sp                 ;2206
0009a4  f7fffffe          BL       __hardfp_atof
0009a8  ec532b18          VMOV     r2,r3,d8              ;2206
0009ac  ec510b10          VMOV     r0,r1,d0              ;2206
0009b0  f7fffffe          BL       __aeabi_dmul
0009b4  f7fffffe          BL       __aeabi_d2uiz
0009b8  49b4              LDR      r1,|L5.3212|
0009ba  f8c1009c          STR      r0,[r1,#0x9c]         ;2206  ; Run_Control
                  |L5.2494|
0009be  48b3              LDR      r0,|L5.3212|
0009c0  f8d0109c          LDR      r1,[r0,#0x9c]         ;2208  ; Run_Control
0009c4  f2475230          MOV      r2,#0x7530            ;2208
0009c8  4291              CMP      r1,r2                 ;2208
0009ca  d813              BHI      |L5.2548|
0009cc  f8d0109c          LDR      r1,[r0,#0x9c]         ;2208  ; Run_Control
0009d0  ee001a10          VMOV     s0,r1                 ;2208
0009d4  eef80a40          VCVT.F32.U32 s1,s0                 ;2208
0009d8  ed9f1aad          VLDR     s2,|L5.3216|
0009dc  49ad              LDR      r1,|L5.3220|
0009de  4aae              LDR      r2,|L5.3224|
0009e0  ee800a81          VDIV.F32 s0,s1,s2              ;2208
0009e4  edd10a00          VLDR     s1,[r1,#0]            ;2208
0009e8  ee200a20          VMUL.F32 s0,s0,s1              ;2208
0009ec  ee101a10          VMOV     r1,s0                 ;2208
0009f0  4291              CMP      r1,r2                 ;2208
0009f2  dd01              BLE      |L5.2552|
                  |L5.2548|
0009f4  f8c0409c          STR      r4,[r0,#0x9c]         ;2209  ; Run_Control
                  |L5.2552|
0009f8  f8d0109c          LDR      r1,[r0,#0x9c]         ;2211  ; Run_Control
0009fc  6101              STR      r1,[r0,#0x10]         ;2211  ; Run_Control
0009fe  6900              LDR      r0,[r0,#0x10]         ;2215  ; Run_Control
000a00  ee000a10          VMOV     s0,r0                 ;2215
000a04  eef80a40          VCVT.F32.U32 s1,s0                 ;2215
000a08  e001              B        |L5.2574|
                  |L5.2570|
000a0a  e02f              B        |L5.2668|
                  |L5.2572|
000a0c  e0bc              B        |L5.2952|
                  |L5.2574|
000a0e  ed9f1aa0          VLDR     s2,|L5.3216|
000a12  ee800a81          VDIV.F32 s0,s1,s2              ;2215
000a16  ee100a10          VMOV     r0,s0                 ;2216
000a1a  f7fffffe          BL       __aeabi_f2d
000a1e  ec410b10          VMOV     d0,r0,r1              ;2216
000a22  ec532b10          VMOV     r2,r3,d0              ;2216
000a26  f2af51dc          ADR      r1,|L5.1100|
000a2a  4668              MOV      r0,sp                 ;2216
000a2c  f7fffffe          BL       __2sprintf
000a30  4669              MOV      r1,sp                 ;2217
000a32  4640              MOV      r0,r8                 ;2217
000a34  f7fffffe          BL       TEXT_SetText
000a38  f6400171          MOV      r1,#0x871             ;2219
000a3c  69b8              LDR      r0,[r7,#0x18]         ;2219  ; hWincdc
000a3e  f7fffffe          BL       WM_GetDialogItem
000a42  4607              MOV      r7,r0                 ;2219
000a44  498d              LDR      r1,|L5.3196|
000a46  4638              MOV      r0,r7                 ;2220
000a48  f7fffffe          BL       TEXT_SetBkColor
000a4c  2100              MOVS     r1,#0                 ;2221
000a4e  4638              MOV      r0,r7                 ;2221
000a50  f7fffffe          BL       TEXT_SetTextColor
000a54  498a              LDR      r1,|L5.3200|
000a56  2021              MOVS     r0,#0x21              ;2223
000a58  7008              STRB     r0,[r1,#0]            ;2223
000a5a  e002              B        |L5.2658|
                  |L5.2652|
000a5c  e0c2              B        |L5.3044|
                  |L5.2654|
000a5e  e0e8              B        |L5.3122|
                  |L5.2656|
000a60  e03d              B        |L5.2782|
                  |L5.2658|
000a62  702c              STRB     r4,[r5,#0]            ;2224
000a64  7034              STRB     r4,[r6,#0]            ;2225
000a66  f7fffffe          BL       Write_Limits
000a6a  e436              B        |L5.730|
                  |L5.2668|
000a6c  4886              LDR      r0,|L5.3208|
000a6e  f7fffffe          BL       atoi
000a72  f44f717a          MOV      r1,#0x3e8             ;2202
000a76  4348              MULS     r0,r1,r0              ;2202
000a78  4984              LDR      r1,|L5.3212|
000a7a  f8c1009c          STR      r0,[r1,#0x9c]         ;2202  ; Run_Control
000a7e  e79e              B        |L5.2494|
                  |L5.2688|
000a80  4651              MOV      r1,r10                ;2233
000a82  4d80              LDR      r5,|L5.3204|
000a84  f7fffffe          BL       WM_GetDialogItem
000a88  4606              MOV      r6,r0                 ;2233
000a8a  f06f4170          MVN      r1,#0xf0000000        ;2234
000a8e  4630              MOV      r0,r6                 ;2234
000a90  f7fffffe          BL       TEXT_SetBkColor
000a94  f06f417f          MVN      r1,#0xff000000        ;2235
000a98  4630              MOV      r0,r6                 ;2235
000a9a  f7fffffe          BL       TEXT_SetTextColor
000a9e  9402              STR      r4,[sp,#8]            ;2236
000aa0  4979              LDR      r1,|L5.3208|
000aa2  e006              B        |L5.2738|
                  |L5.2724|
000aa4  f89d0008          LDRB     r0,[sp,#8]            ;2238
000aa8  540c              STRB     r4,[r1,r0]            ;2238
000aaa  f89d0008          LDRB     r0,[sp,#8]            ;2236
000aae  1c40              ADDS     r0,r0,#1              ;2236
000ab0  9002              STR      r0,[sp,#8]            ;2236
                  |L5.2738|
000ab2  f89d0008          LDRB     r0,[sp,#8]            ;2236
000ab6  2806              CMP      r0,#6                 ;2236
000ab8  d3f4              BCC      |L5.2724|
000aba  f6400176          MOV      r1,#0x876             ;2240
000abe  69a8              LDR      r0,[r5,#0x18]         ;2240  ; hWincdc
000ac0  f7fffffe          BL       WM_GetDialogItem
000ac4  4604              MOV      r4,r0                 ;2240
000ac6  496d              LDR      r1,|L5.3196|
000ac8  4620              MOV      r0,r4                 ;2241
000aca  f7fffffe          BL       TEXT_SetBkColor
000ace  2100              MOVS     r1,#0                 ;2242
000ad0  4620              MOV      r0,r4                 ;2242
000ad2  f7fffffe          BL       TEXT_SetTextColor
000ad6  496a              LDR      r1,|L5.3200|
000ad8  2020              MOVS     r0,#0x20              ;2244
000ada  7008              STRB     r0,[r1,#0]            ;2244
000adc  e435              B        |L5.842|
                  |L5.2782|
000ade  f6400176          MOV      r1,#0x876             ;2251
000ae2  4f68              LDR      r7,|L5.3204|
000ae4  f7fffffe          BL       WM_GetDialogItem
000ae8  4680              MOV      r8,r0                 ;2251
000aea  f06f4170          MVN      r1,#0xf0000000        ;2252
000aee  4640              MOV      r0,r8                 ;2252
000af0  f7fffffe          BL       TEXT_SetBkColor
000af4  f06f417f          MVN      r1,#0xff000000        ;2253
000af8  4640              MOV      r0,r8                 ;2253
000afa  f7fffffe          BL       TEXT_SetTextColor
000afe  7830              LDRB     r0,[r6,#0]            ;2254  ; dot_flag
000b00  b3d8              CBZ      r0,|L5.2938|
000b02  7830              LDRB     r0,[r6,#0]            ;2256  ; dot_flag
000b04  b178              CBZ      r0,|L5.2854|
000b06  9400              STR      r4,[sp,#0]            ;2257
000b08  9401              STR      r4,[sp,#4]            ;2257
000b0a  7832              LDRB     r2,[r6,#0]            ;2258  ; dot_flag
000b0c  495e              LDR      r1,|L5.3208|
000b0e  4668              MOV      r0,sp                 ;2258
000b10  f7fffffe          BL       strncpy
000b14  4668              MOV      r0,sp                 ;2259
000b16  f7fffffe          BL       __hardfp_atof
000b1a  ec510b10          VMOV     r0,r1,d0              ;2259
000b1e  f7fffffe          BL       __aeabi_d2iz
000b22  f8c900a0          STR      r0,[r9,#0xa0]         ;2259  ; InFlashSave
                  |L5.2854|
000b26  f8d910a0          LDR      r1,[r9,#0xa0]         ;2261  ; InFlashSave
000b2a  f44f70fa          MOV      r0,#0x1f4             ;2261
000b2e  4281              CMP      r1,r0                 ;2261
000b30  dd01              BLE      |L5.2870|
000b32  f8c900a0          STR      r0,[r9,#0xa0]         ;2263  ; InFlashSave
                  |L5.2870|
000b36  a159              ADR      r1,|L5.3228|
000b38  4668              MOV      r0,sp                 ;2265
000b3a  f8d920a0          LDR      r2,[r9,#0xa0]         ;2265  ; InFlashSave
000b3e  f7fffffe          BL       __2sprintf
000b42  4669              MOV      r1,sp                 ;2266
000b44  4640              MOV      r0,r8                 ;2266
000b46  f7fffffe          BL       TEXT_SetText
000b4a  4651              MOV      r1,r10                ;2267
000b4c  69b8              LDR      r0,[r7,#0x18]         ;2267  ; hWincdc
000b4e  f7fffffe          BL       WM_GetDialogItem
000b52  4607              MOV      r7,r0                 ;2267
000b54  4949              LDR      r1,|L5.3196|
000b56  4638              MOV      r0,r7                 ;2268
000b58  f7fffffe          BL       TEXT_SetBkColor
000b5c  2100              MOVS     r1,#0                 ;2269
000b5e  4638              MOV      r0,r7                 ;2269
000b60  f7fffffe          BL       TEXT_SetTextColor
000b64  4946              LDR      r1,|L5.3200|
000b66  2024              MOVS     r0,#0x24              ;2271
000b68  7008              STRB     r0,[r1,#0]            ;2271
000b6a  702c              STRB     r4,[r5,#0]            ;2272
000b6c  7034              STRB     r4,[r6,#0]            ;2273
000b6e  4a4c              LDR      r2,|L5.3232|
000b70  212b              MOVS     r1,#0x2b              ;2274
000b72  484c              LDR      r0,|L5.3236|
000b74  f7fffffe          BL       Flash_Write32BitDatas
000b78  e482              B        |L5.1152|
                  |L5.2938|
000b7a  e7ff              B        |L5.2940|
                  |L5.2940|
000b7c  4842              LDR      r0,|L5.3208|
000b7e  f7fffffe          BL       atoi
000b82  f8c900a0          STR      r0,[r9,#0xa0]         ;2255  ; InFlashSave
000b86  e7ce              B        |L5.2854|
                  |L5.2952|
000b88  4641              MOV      r1,r8                 ;2281
000b8a  4d3e              LDR      r5,|L5.3204|
000b8c  f7fffffe          BL       WM_GetDialogItem
000b90  4606              MOV      r6,r0                 ;2281
000b92  f06f4170          MVN      r1,#0xf0000000        ;2282
000b96  4630              MOV      r0,r6                 ;2282
000b98  f7fffffe          BL       TEXT_SetBkColor
000b9c  f06f417f          MVN      r1,#0xff000000        ;2283
000ba0  4630              MOV      r0,r6                 ;2283
000ba2  f7fffffe          BL       TEXT_SetTextColor
000ba6  9402              STR      r4,[sp,#8]            ;2284
000ba8  4937              LDR      r1,|L5.3208|
000baa  e006              B        |L5.3002|
                  |L5.2988|
000bac  f89d0008          LDRB     r0,[sp,#8]            ;2286
000bb0  540c              STRB     r4,[r1,r0]            ;2286
000bb2  f89d0008          LDRB     r0,[sp,#8]            ;2284
000bb6  1c40              ADDS     r0,r0,#1              ;2284
000bb8  9002              STR      r0,[sp,#8]            ;2284
                  |L5.3002|
000bba  f89d0008          LDRB     r0,[sp,#8]            ;2284
000bbe  2806              CMP      r0,#6                 ;2284
000bc0  d3f4              BCC      |L5.2988|
000bc2  4639              MOV      r1,r7                 ;2288
000bc4  69a8              LDR      r0,[r5,#0x18]         ;2288  ; hWincdc
000bc6  f7fffffe          BL       WM_GetDialogItem
000bca  4604              MOV      r4,r0                 ;2288
000bcc  492b              LDR      r1,|L5.3196|
000bce  4620              MOV      r0,r4                 ;2289
000bd0  f7fffffe          BL       TEXT_SetBkColor
000bd4  2100              MOVS     r1,#0                 ;2290
000bd6  4620              MOV      r0,r4                 ;2290
000bd8  f7fffffe          BL       TEXT_SetTextColor
000bdc  4928              LDR      r1,|L5.3200|
000bde  205c              MOVS     r0,#0x5c              ;2292
000be0  7008              STRB     r0,[r1,#0]            ;2292
000be2  e44d              B        |L5.1152|
                  |L5.3044|
000be4  7830              LDRB     r0,[r6,#0]            ;2304  ; dot_flag
000be6  b1f0              CBZ      r0,|L5.3110|
000be8  7830              LDRB     r0,[r6,#0]            ;2306  ; dot_flag
000bea  b178              CBZ      r0,|L5.3084|
000bec  9400              STR      r4,[sp,#0]            ;2307
000bee  9401              STR      r4,[sp,#4]            ;2307
000bf0  7832              LDRB     r2,[r6,#0]            ;2308  ; dot_flag
000bf2  4925              LDR      r1,|L5.3208|
000bf4  4668              MOV      r0,sp                 ;2308
000bf6  f7fffffe          BL       strncpy
000bfa  4668              MOV      r0,sp                 ;2309
000bfc  f7fffffe          BL       __hardfp_atof
000c00  ec510b10          VMOV     r0,r1,d0              ;2309
000c04  f7fffffe          BL       __aeabi_d2iz
000c08  f8c900a4          STR      r0,[r9,#0xa4]         ;2309  ; InFlashSave
                  |L5.3084|
000c0c  f8d900a4          LDR      r0,[r9,#0xa4]         ;2311  ; InFlashSave
000c10  4550              CMP      r0,r10                ;2311
000c12  dd01              BLE      |L5.3096|
000c14  f8c9a0a4          STR      r10,[r9,#0xa4]        ;2313  ; InFlashSave
                  |L5.3096|
000c18  a120              ADR      r1,|L5.3228|
000c1a  4668              MOV      r0,sp                 ;2315
000c1c  f8d920a4          LDR      r2,[r9,#0xa4]         ;2315  ; InFlashSave
000c20  f7fffffe          BL       __2sprintf
000c24  e025              B        |L5.3186|
                  |L5.3110|
000c26  4818              LDR      r0,|L5.3208|
000c28  f7fffffe          BL       atoi
000c2c  f8c900a4          STR      r0,[r9,#0xa4]         ;2305  ; InFlashSave
000c30  e7ec              B        |L5.3084|
                  |L5.3122|
000c32  7830              LDRB     r0,[r6,#0]            ;2317  ; dot_flag
000c34  b3c0              CBZ      r0,|L5.3240|
000c36  7830              LDRB     r0,[r6,#0]            ;2319  ; dot_flag
000c38  b178              CBZ      r0,|L5.3162|
000c3a  9400              STR      r4,[sp,#0]            ;2320
000c3c  9401              STR      r4,[sp,#4]            ;2320
000c3e  7832              LDRB     r2,[r6,#0]            ;2321  ; dot_flag
000c40  4911              LDR      r1,|L5.3208|
000c42  4668              MOV      r0,sp                 ;2321
000c44  f7fffffe          BL       strncpy
000c48  4668              MOV      r0,sp                 ;2322
000c4a  f7fffffe          BL       __hardfp_atof
000c4e  ec510b10          VMOV     r0,r1,d0              ;2322
000c52  f7fffffe          BL       __aeabi_d2iz
000c56  f8c900a8          STR      r0,[r9,#0xa8]         ;2322  ; InFlashSave
                  |L5.3162|
000c5a  f8d900a8          LDR      r0,[r9,#0xa8]         ;2324  ; InFlashSave
000c5e  4550              CMP      r0,r10                ;2324
000c60  dd01              BLE      |L5.3174|
000c62  f8c9a0a8          STR      r10,[r9,#0xa8]        ;2326  ; InFlashSave
                  |L5.3174|
000c66  a10d              ADR      r1,|L5.3228|
000c68  4668              MOV      r0,sp                 ;2328
000c6a  f8d920a8          LDR      r2,[r9,#0xa8]         ;2328  ; InFlashSave
000c6e  f7fffffe          BL       __2sprintf
                  |L5.3186|
000c72  4669              MOV      r1,sp                 ;2330
000c74  4658              MOV      r0,r11                ;2330
000c76  f7fffffe          BL       TEXT_SetText
000c7a  e016              B        |L5.3242|
                  |L5.3196|
                          DCD      0x00bfffff
                  |L5.3200|
                          DCD      set_sw
                  |L5.3204|
                          DCD      ||area_number.18||
                  |L5.3208|
                          DCD      set_limit
                  |L5.3212|
                          DCD      Run_Control
                  |L5.3216|
000c90  447a0000          DCFS     0x447a0000 ; 1000
                  |L5.3220|
                          DCD      DISS_Voltage
                  |L5.3224|
                          DCD      0x43480000
                  |L5.3228|
000c9c  25356400          DCB      "%5d",0
                  |L5.3232|
                          DCD      InFlashSave
                  |L5.3236|
                          DCD      0x080e0000
                  |L5.3240|
000ca8  e017              B        |L5.3290|
                  |L5.3242|
000caa  4641              MOV      r1,r8                 ;2331
000cac  69b8              LDR      r0,[r7,#0x18]         ;2331  ; hWincdc
000cae  f7fffffe          BL       WM_GetDialogItem
000cb2  4607              MOV      r7,r0                 ;2331
000cb4  490c              LDR      r1,|L5.3304|
000cb6  4638              MOV      r0,r7                 ;2332
000cb8  f7fffffe          BL       TEXT_SetBkColor
000cbc  2100              MOVS     r1,#0                 ;2333
000cbe  4638              MOV      r0,r7                 ;2333
000cc0  f7fffffe          BL       TEXT_SetTextColor
000cc4  4909              LDR      r1,|L5.3308|
000cc6  205b              MOVS     r0,#0x5b              ;2335
000cc8  7008              STRB     r0,[r1,#0]            ;2335
000cca  702c              STRB     r4,[r5,#0]            ;2336
000ccc  7034              STRB     r4,[r6,#0]            ;2337
000cce  4a08              LDR      r2,|L5.3312|
000cd0  212b              MOVS     r1,#0x2b              ;2338
000cd2  4808              LDR      r0,|L5.3316|
000cd4  f7fffffe          BL       Flash_Write32BitDatas
000cd8  e40c              B        |L5.1268|
                  |L5.3290|
000cda  4807              LDR      r0,|L5.3320|
000cdc  f7fffffe          BL       atoi
000ce0  f8c900a8          STR      r0,[r9,#0xa8]         ;2318  ; InFlashSave
000ce4  e7b9              B        |L5.3162|
;;;2344   
                          ENDP

000ce6  0000              DCW      0x0000
                  |L5.3304|
                          DCD      0x00bfffff
                  |L5.3308|
                          DCD      set_sw
                  |L5.3312|
                          DCD      InFlashSave
                  |L5.3316|
                          DCD      0x080e0000
                  |L5.3320|
                          DCD      set_limit

                          AREA ||i.CreateCDC||, CODE, READONLY, ALIGN=2

                  CreateCDC PROC
;;;1426   WM_HWIN CreateCDC(void);
;;;1427   WM_HWIN CreateCDC(void) {
000000  b57c              PUSH     {r2-r6,lr}
;;;1428     
;;;1429     if(page_sw == face_graph)
000002  4c1b              LDR      r4,|L6.112|
000004  7820              LDRB     r0,[r4,#0]  ; page_sw
;;;1430     {  
;;;1431   	  
;;;1432     }else{
;;;1433   	  SET_Voltage = opv1;
;;;1434   	  SET_Current = opc1;
;;;1435   	  SET_Current_Laod = cdc_dc;
;;;1436   	  track = face_cdc;
000006  2501              MOVS     r5,#1
000008  2800              CMP      r0,#0                 ;1429
00000a  d01d              BEQ      |L6.72|
00000c  4819              LDR      r0,|L6.116|
00000e  6fc1              LDR      r1,[r0,#0x7c]         ;1433  ; Run_Control
000010  6041              STR      r1,[r0,#4]            ;1433  ; Run_Control
000012  f8d01088          LDR      r1,[r0,#0x88]         ;1434  ; Run_Control
000016  6081              STR      r1,[r0,#8]            ;1434  ; Run_Control
000018  f8d0109c          LDR      r1,[r0,#0x9c]         ;1435  ; Run_Control
00001c  6101              STR      r1,[r0,#0x10]         ;1435  ; Run_Control
00001e  4816              LDR      r0,|L6.120|
000020  7005              STRB     r5,[r0,#0]
;;;1437   	  TM1650_SET_LED(0x68,0x70);
000022  2170              MOVS     r1,#0x70
000024  2068              MOVS     r0,#0x68
000026  f7fffffe          BL       TM1650_SET_LED
;;;1438   	  GPIO_ResetBits(GPIOD,GPIO_Pin_12);//İֆ+
00002a  0329              LSLS     r1,r5,#12
00002c  4813              LDR      r0,|L6.124|
00002e  f7fffffe          BL       GPIO_ResetBits
;;;1439   	  IO_OFF();//ȍ
000032  f7fffffe          BL       IO_OFF
;;;1440   	  GPIO_ResetBits(GPIOC,GPIO_Pin_10);//CC
000036  02a9              LSLS     r1,r5,#10
000038  4811              LDR      r0,|L6.128|
00003a  f7fffffe          BL       GPIO_ResetBits
;;;1441   	  flag_Load_CC = 1;
00003e  4811              LDR      r0,|L6.132|
000040  6801              LDR      r1,[r0,#0]  ; flagD
000042  f0410180          ORR      r1,r1,#0x80
000046  6001              STR      r1,[r0,#0]  ; flagD
                  |L6.72|
;;;1442     }
;;;1443     page_sw = face_cdc;
000048  7025              STRB     r5,[r4,#0]
;;;1444     set_sw = set_26;
00004a  490f              LDR      r1,|L6.136|
00004c  2019              MOVS     r0,#0x19
00004e  7008              STRB     r0,[r1,#0]
;;;1445     pass = 0;
000050  480e              LDR      r0,|L6.140|
000052  2400              MOVS     r4,#0
000054  7004              STRB     r4,[r0,#0]
;;;1446   //  double_sw = face_cdc;
;;;1447     hWincdc = GUI_CreateDialogBox(_aDialogCreate4, GUI_COUNTOF(_aDialogCreate4), _cbDialog, WM_HBKWIN, 0, 0);
000056  f7fffffe          BL       WM_GetDesktopWindow
00005a  4603              MOV      r3,r0
00005c  9400              STR      r4,[sp,#0]
00005e  4a0c              LDR      r2,|L6.144|
000060  212c              MOVS     r1,#0x2c
000062  480c              LDR      r0,|L6.148|
000064  9401              STR      r4,[sp,#4]
000066  f7fffffe          BL       GUI_CreateDialogBox
00006a  490b              LDR      r1,|L6.152|
00006c  6188              STR      r0,[r1,#0x18]  ; hWincdc
;;;1448     return hWincdc;
;;;1449   }
00006e  bd7c              POP      {r2-r6,pc}
;;;1450   
                          ENDP

                  |L6.112|
                          DCD      page_sw
                  |L6.116|
                          DCD      Run_Control
                  |L6.120|
                          DCD      track
                  |L6.124|
                          DCD      0x40020c00
                  |L6.128|
                          DCD      0x40020800
                  |L6.132|
                          DCD      flagD
                  |L6.136|
                          DCD      set_sw
                  |L6.140|
                          DCD      pass
                  |L6.144|
                          DCD      _cbDialog
                  |L6.148|
                          DCD      ||.constdata||
                  |L6.152|
                          DCD      ||area_number.18||

                          AREA ||i.DEL_CDC||, CODE, READONLY, ALIGN=2

                  DEL_CDC PROC
;;;2344   
;;;2345   void DEL_CDC(){
000000  e92d41f0          PUSH     {r4-r8,lr}
;;;2346       switch(set_sw){
000004  486f              LDR      r0,|L7.452|
000006  7801              LDRB     r1,[r0,#0]  ; set_sw
;;;2347           case set_30:
;;;2348           {
;;;2349               WM_HWIN hItem;
;;;2350   //            WM_InvalidateWindow(hWincdc);
;;;2351               hItem = WM_GetDialogItem(hWincdc, ID_TEXT_54);
000008  486f              LDR      r0,|L7.456|
;;;2352   			if(bit > 0)
;;;2353   			{
;;;2354   				bit --;
;;;2355   				set_limit[bit] = '\0';
00000a  4f70              LDR      r7,|L7.460|
00000c  2400              MOVS     r4,#0                 ;2351
00000e  6980              LDR      r0,[r0,#0x18]         ;2351
000010  4d6f              LDR      r5,|L7.464|
;;;2356   			}
;;;2357   			if(bit == dot_flag)
000012  4e70              LDR      r6,|L7.468|
000014  2925              CMP      r1,#0x25              ;2346
000016  d079              BEQ      |L7.268|
000018  dc1c              BGT      |L7.84|
00001a  291d              CMP      r1,#0x1d              ;2346
00001c  d037              BEQ      |L7.142|
00001e  291e              CMP      r1,#0x1e              ;2346
000020  d04a              BEQ      |L7.184|
000022  291f              CMP      r1,#0x1f              ;2346
000024  d05d              BEQ      |L7.226|
000026  2920              CMP      r1,#0x20              ;2346
000028  d17e              BNE      |L7.296|
;;;2358   			{
;;;2359   				dot_flag = 0;
;;;2360   			}
;;;2361   			TEXT_SetText(hItem,set_limit);
;;;2362               break;
;;;2363           }
;;;2364           case set_31:
;;;2365           {
;;;2366               WM_HWIN hItem;
;;;2367   //            WM_InvalidateWindow(hWincdc);
;;;2368               hItem = WM_GetDialogItem(hWincdc, ID_TEXT_55);
;;;2369               if(bit > 0)
;;;2370   			{
;;;2371   				bit --;
;;;2372   				set_limit[bit] = '\0';
;;;2373   			}
;;;2374   			if(bit == dot_flag)
;;;2375   			{
;;;2376   				dot_flag = 0;
;;;2377   			}
;;;2378   			TEXT_SetText(hItem,set_limit);
;;;2379               break;
;;;2380           }
;;;2381           case set_32:
;;;2382           {
;;;2383               WM_HWIN hItem;
;;;2384   //            WM_InvalidateWindow(hWincdc);
;;;2385               hItem = WM_GetDialogItem(hWincdc, ID_TEXT_56);
;;;2386               if(bit > 0)
;;;2387   			{
;;;2388   				bit --;
;;;2389   				set_limit[bit] = '\0';
;;;2390   			}
;;;2391   			if(bit == dot_flag)
;;;2392   			{
;;;2393   				dot_flag = 0;
;;;2394   			}
;;;2395   			TEXT_SetText(hItem,set_limit);
;;;2396               break;
;;;2397           }
;;;2398           case set_33:
;;;2399           {
;;;2400               WM_HWIN hItem;
;;;2401   //            WM_InvalidateWindow(hWincdc);
;;;2402               hItem = WM_GetDialogItem(hWincdc, ID_TEXT_57);
00002a  f6400176          MOV      r1,#0x876
00002e  f7fffffe          BL       WM_GetDialogItem
;;;2403               if(bit > 0)
000032  7829              LDRB     r1,[r5,#0]  ; bit
000034  b121              CBZ      r1,|L7.64|
;;;2404   			{
;;;2405   				bit --;
000036  7829              LDRB     r1,[r5,#0]  ; bit
000038  1e49              SUBS     r1,r1,#1
00003a  7029              STRB     r1,[r5,#0]
;;;2406   				set_limit[bit] = '\0';
00003c  7829              LDRB     r1,[r5,#0]  ; bit
00003e  547c              STRB     r4,[r7,r1]
                  |L7.64|
;;;2407   			}
;;;2408   			if(bit == dot_flag)
000040  7829              LDRB     r1,[r5,#0]  ; bit
000042  7832              LDRB     r2,[r6,#0]  ; dot_flag
000044  4291              CMP      r1,r2
000046  d100              BNE      |L7.74|
;;;2409   			{
;;;2410   				dot_flag = 0;
000048  7034              STRB     r4,[r6,#0]
                  |L7.74|
;;;2411   			}
;;;2412   			TEXT_SetText(hItem,set_limit);
00004a  e8bd41f0          POP      {r4-r8,lr}
00004e  495f              LDR      r1,|L7.460|
000050  f7ffbffe          B.W      TEXT_SetText
                  |L7.84|
000054  2926              CMP      r1,#0x26              ;2346
000056  d073              BEQ      |L7.320|
000058  2927              CMP      r1,#0x27              ;2346
00005a  d067              BEQ      |L7.300|
00005c  2928              CMP      r1,#0x28              ;2346
00005e  d066              BEQ      |L7.302|
000060  295c              CMP      r1,#0x5c              ;2346
000062  d161              BNE      |L7.296|
;;;2413               break;
;;;2414           }
;;;2415           case set_38:
;;;2416           {
;;;2417               WM_HWIN hItem;
;;;2418   //            WM_InvalidateWindow(hWincdc);
;;;2419               hItem = WM_GetDialogItem(hWincdc, ID_TEXT_62);
;;;2420               if(bit > 0)
;;;2421   			{
;;;2422   				bit --;
;;;2423   				set_limit[bit] = '\0';
;;;2424   			}
;;;2425   			if(bit == dot_flag)
;;;2426   			{
;;;2427   				dot_flag = 0;
;;;2428   			}
;;;2429   			TEXT_SetText(hItem,set_limit);
;;;2430               break;
;;;2431           }
;;;2432           case set_39:
;;;2433           {
;;;2434               WM_HWIN hItem;
;;;2435   //            WM_InvalidateWindow(hWincdc);
;;;2436               hItem = WM_GetDialogItem(hWincdc, ID_TEXT_63);
;;;2437               if(bit > 0)
;;;2438   			{
;;;2439   				bit --;
;;;2440   				set_limit[bit] = '\0';
;;;2441   			}
;;;2442   			if(bit == dot_flag)
;;;2443   			{
;;;2444   				dot_flag = 0;
;;;2445   			}
;;;2446   			TEXT_SetText(hItem,set_limit);
;;;2447               break;
;;;2448           }
;;;2449           case set_40:
;;;2450           {
;;;2451               WM_HWIN hItem;
;;;2452   //            WM_InvalidateWindow(hWincdc);
;;;2453               hItem = WM_GetDialogItem(hWincdc, ID_TEXT_64);
;;;2454               if(bit > 0)
;;;2455   			{
;;;2456   				bit --;
;;;2457   				set_limit[bit] = '\0';
;;;2458   			}
;;;2459   			if(bit == dot_flag)
;;;2460   			{
;;;2461   				dot_flag = 0;
;;;2462   			}
;;;2463   			TEXT_SetText(hItem,set_limit);
;;;2464               break;
;;;2465           }
;;;2466           case set_41:
;;;2467           {
;;;2468               WM_HWIN hItem;
;;;2469   //            WM_InvalidateWindow(hWincdc);
;;;2470               hItem = WM_GetDialogItem(hWincdc, ID_TEXT_65);
;;;2471               if(bit > 0)
;;;2472   			{
;;;2473   				bit --;
;;;2474   				set_limit[bit] = '\0';
;;;2475   			}
;;;2476   			if(bit == dot_flag)
;;;2477   			{
;;;2478   				dot_flag = 0;
;;;2479   			}
;;;2480   			TEXT_SetText(hItem,set_limit);
;;;2481               break;
;;;2482           }
;;;2483   		 case set_93:
;;;2484           {
;;;2485               WM_HWIN hItem;
;;;2486   //            WM_InvalidateWindow(hWincdc);
;;;2487               hItem = WM_GetDialogItem(hWincdc, ID_TEXT_169);
000064  f6401144          MOV      r1,#0x944
000068  f7fffffe          BL       WM_GetDialogItem
;;;2488               if(bit > 0)
00006c  7829              LDRB     r1,[r5,#0]  ; bit
00006e  b121              CBZ      r1,|L7.122|
;;;2489   			{
;;;2490   				bit --;
000070  7829              LDRB     r1,[r5,#0]  ; bit
000072  1e49              SUBS     r1,r1,#1
000074  7029              STRB     r1,[r5,#0]
;;;2491   				set_limit[bit] = '\0';
000076  7829              LDRB     r1,[r5,#0]  ; bit
000078  547c              STRB     r4,[r7,r1]
                  |L7.122|
;;;2492   			}
;;;2493   			if(bit == dot_flag)
00007a  7829              LDRB     r1,[r5,#0]  ; bit
00007c  7832              LDRB     r2,[r6,#0]  ; dot_flag
00007e  4291              CMP      r1,r2
000080  d100              BNE      |L7.132|
;;;2494   			{
;;;2495   				dot_flag = 0;
000082  7034              STRB     r4,[r6,#0]
                  |L7.132|
;;;2496   			}
;;;2497   			TEXT_SetText(hItem,set_limit);
000084  e8bd41f0          POP      {r4-r8,lr}
000088  4950              LDR      r1,|L7.460|
00008a  f7ffbffe          B.W      TEXT_SetText
                  |L7.142|
00008e  f6400173          MOV      r1,#0x873             ;2351
000092  f7fffffe          BL       WM_GetDialogItem
000096  7829              LDRB     r1,[r5,#0]            ;2352  ; bit
000098  b121              CBZ      r1,|L7.164|
00009a  7829              LDRB     r1,[r5,#0]            ;2354  ; bit
00009c  1e49              SUBS     r1,r1,#1              ;2354
00009e  7029              STRB     r1,[r5,#0]            ;2354
0000a0  7829              LDRB     r1,[r5,#0]            ;2355  ; bit
0000a2  547c              STRB     r4,[r7,r1]            ;2355
                  |L7.164|
0000a4  7829              LDRB     r1,[r5,#0]            ;2357  ; bit
0000a6  7832              LDRB     r2,[r6,#0]            ;2357  ; dot_flag
0000a8  4291              CMP      r1,r2                 ;2357
0000aa  d100              BNE      |L7.174|
0000ac  7034              STRB     r4,[r6,#0]            ;2359
                  |L7.174|
0000ae  e8bd41f0          POP      {r4-r8,lr}            ;2361
0000b2  4946              LDR      r1,|L7.460|
0000b4  f7ffbffe          B.W      TEXT_SetText
                  |L7.184|
0000b8  f6400174          MOV      r1,#0x874             ;2368
0000bc  f7fffffe          BL       WM_GetDialogItem
0000c0  7829              LDRB     r1,[r5,#0]            ;2369  ; bit
0000c2  b121              CBZ      r1,|L7.206|
0000c4  7829              LDRB     r1,[r5,#0]            ;2371  ; bit
0000c6  1e49              SUBS     r1,r1,#1              ;2371
0000c8  7029              STRB     r1,[r5,#0]            ;2371
0000ca  7829              LDRB     r1,[r5,#0]            ;2372  ; bit
0000cc  547c              STRB     r4,[r7,r1]            ;2372
                  |L7.206|
0000ce  7829              LDRB     r1,[r5,#0]            ;2374  ; bit
0000d0  7832              LDRB     r2,[r6,#0]            ;2374  ; dot_flag
0000d2  4291              CMP      r1,r2                 ;2374
0000d4  d100              BNE      |L7.216|
0000d6  7034              STRB     r4,[r6,#0]            ;2376
                  |L7.216|
0000d8  e8bd41f0          POP      {r4-r8,lr}            ;2378
0000dc  493b              LDR      r1,|L7.460|
0000de  f7ffbffe          B.W      TEXT_SetText
                  |L7.226|
0000e2  f6400175          MOV      r1,#0x875             ;2385
0000e6  f7fffffe          BL       WM_GetDialogItem
0000ea  7829              LDRB     r1,[r5,#0]            ;2386  ; bit
0000ec  b121              CBZ      r1,|L7.248|
0000ee  7829              LDRB     r1,[r5,#0]            ;2388  ; bit
0000f0  1e49              SUBS     r1,r1,#1              ;2388
0000f2  7029              STRB     r1,[r5,#0]            ;2388
0000f4  7829              LDRB     r1,[r5,#0]            ;2389  ; bit
0000f6  547c              STRB     r4,[r7,r1]            ;2389
                  |L7.248|
0000f8  7829              LDRB     r1,[r5,#0]            ;2391  ; bit
0000fa  7832              LDRB     r2,[r6,#0]            ;2391  ; dot_flag
0000fc  4291              CMP      r1,r2                 ;2391
0000fe  d100              BNE      |L7.258|
000100  7034              STRB     r4,[r6,#0]            ;2393
                  |L7.258|
000102  e8bd41f0          POP      {r4-r8,lr}            ;2395
000106  4931              LDR      r1,|L7.460|
000108  f7ffbffe          B.W      TEXT_SetText
                  |L7.268|
00010c  f640017b          MOV      r1,#0x87b             ;2419
000110  f7fffffe          BL       WM_GetDialogItem
000114  7829              LDRB     r1,[r5,#0]            ;2420  ; bit
000116  b121              CBZ      r1,|L7.290|
000118  7829              LDRB     r1,[r5,#0]            ;2422  ; bit
00011a  1e49              SUBS     r1,r1,#1              ;2422
00011c  7029              STRB     r1,[r5,#0]            ;2422
00011e  7829              LDRB     r1,[r5,#0]            ;2423  ; bit
000120  547c              STRB     r4,[r7,r1]            ;2423
                  |L7.290|
000122  7829              LDRB     r1,[r5,#0]            ;2425  ; bit
000124  7832              LDRB     r2,[r6,#0]            ;2425  ; dot_flag
000126  e003              B        |L7.304|
                  |L7.296|
000128  e049              B        |L7.446|
00012a  e009              B        |L7.320|
                  |L7.300|
00012c  e01d              B        |L7.362|
                  |L7.302|
00012e  e031              B        |L7.404|
                  |L7.304|
000130  4291              CMP      r1,r2                 ;2425
000132  d100              BNE      |L7.310|
000134  7034              STRB     r4,[r6,#0]            ;2427
                  |L7.310|
000136  e8bd41f0          POP      {r4-r8,lr}            ;2429
00013a  4924              LDR      r1,|L7.460|
00013c  f7ffbffe          B.W      TEXT_SetText
                  |L7.320|
000140  f640017c          MOV      r1,#0x87c             ;2436
000144  f7fffffe          BL       WM_GetDialogItem
000148  7829              LDRB     r1,[r5,#0]            ;2437  ; bit
00014a  b121              CBZ      r1,|L7.342|
00014c  7829              LDRB     r1,[r5,#0]            ;2439  ; bit
00014e  1e49              SUBS     r1,r1,#1              ;2439
000150  7029              STRB     r1,[r5,#0]            ;2439
000152  7829              LDRB     r1,[r5,#0]            ;2440  ; bit
000154  547c              STRB     r4,[r7,r1]            ;2440
                  |L7.342|
000156  7829              LDRB     r1,[r5,#0]            ;2442  ; bit
000158  7832              LDRB     r2,[r6,#0]            ;2442  ; dot_flag
00015a  4291              CMP      r1,r2                 ;2442
00015c  d100              BNE      |L7.352|
00015e  7034              STRB     r4,[r6,#0]            ;2444
                  |L7.352|
000160  e8bd41f0          POP      {r4-r8,lr}            ;2446
000164  4919              LDR      r1,|L7.460|
000166  f7ffbffe          B.W      TEXT_SetText
                  |L7.362|
00016a  f640017d          MOV      r1,#0x87d             ;2453
00016e  f7fffffe          BL       WM_GetDialogItem
000172  7829              LDRB     r1,[r5,#0]            ;2454  ; bit
000174  b121              CBZ      r1,|L7.384|
000176  7829              LDRB     r1,[r5,#0]            ;2456  ; bit
000178  1e49              SUBS     r1,r1,#1              ;2456
00017a  7029              STRB     r1,[r5,#0]            ;2456
00017c  7829              LDRB     r1,[r5,#0]            ;2457  ; bit
00017e  547c              STRB     r4,[r7,r1]            ;2457
                  |L7.384|
000180  7829              LDRB     r1,[r5,#0]            ;2459  ; bit
000182  7832              LDRB     r2,[r6,#0]            ;2459  ; dot_flag
000184  4291              CMP      r1,r2                 ;2459
000186  d100              BNE      |L7.394|
000188  7034              STRB     r4,[r6,#0]            ;2461
                  |L7.394|
00018a  e8bd41f0          POP      {r4-r8,lr}            ;2463
00018e  490f              LDR      r1,|L7.460|
000190  f7ffbffe          B.W      TEXT_SetText
                  |L7.404|
000194  f640017e          MOV      r1,#0x87e             ;2470
000198  f7fffffe          BL       WM_GetDialogItem
00019c  7829              LDRB     r1,[r5,#0]            ;2471  ; bit
00019e  b121              CBZ      r1,|L7.426|
0001a0  7829              LDRB     r1,[r5,#0]            ;2473  ; bit
0001a2  1e49              SUBS     r1,r1,#1              ;2473
0001a4  7029              STRB     r1,[r5,#0]            ;2473
0001a6  7829              LDRB     r1,[r5,#0]            ;2474  ; bit
0001a8  547c              STRB     r4,[r7,r1]            ;2474
                  |L7.426|
0001aa  7829              LDRB     r1,[r5,#0]            ;2476  ; bit
0001ac  7832              LDRB     r2,[r6,#0]            ;2476  ; dot_flag
0001ae  4291              CMP      r1,r2                 ;2476
0001b0  d100              BNE      |L7.436|
0001b2  7034              STRB     r4,[r6,#0]            ;2478
                  |L7.436|
0001b4  e8bd41f0          POP      {r4-r8,lr}            ;2480
0001b8  4904              LDR      r1,|L7.460|
0001ba  f7ffbffe          B.W      TEXT_SetText
                  |L7.446|
;;;2498               break;
;;;2499           }
;;;2500           
;;;2501       }    
;;;2502   }
0001be  e8bd81f0          POP      {r4-r8,pc}
;;;2503   
                          ENDP

0001c2  0000              DCW      0x0000
                  |L7.452|
                          DCD      set_sw
                  |L7.456|
                          DCD      ||area_number.18||
                  |L7.460|
                          DCD      set_limit
                  |L7.464|
                          DCD      bit
                  |L7.468|
                          DCD      dot_flag

                          AREA ||i.INPUT_CDC||, CODE, READONLY, ALIGN=2

                  INPUT_CDC PROC
;;;2505              
;;;2506   void INPUT_CDC(char* num){
000000  e92d47f0          PUSH     {r4-r10,lr}
000004  4681              MOV      r9,r0
;;;2507       char loop_count[2];
;;;2508   	u8 i;
;;;2509       switch(set_sw){
000006  48e3              LDR      r0,|L8.916|
000008  7802              LDRB     r2,[r0,#0]  ; set_sw
;;;2510           case set_30:
;;;2511           {
;;;2512               WM_HWIN hItem;
;;;2513   //            WM_InvalidateWindow(hWincdc);
;;;2514               hItem = WM_GetDialogItem(hWincdc, ID_TEXT_54);
00000a  48e3              LDR      r0,|L8.920|
;;;2515   			if(bit < 6)
;;;2516   			{
;;;2517   				strcat(set_limit,num);
;;;2518   				if(dot_flag != 0 && strcmp(num,".") == 0)
00000c  4fe3              LDR      r7,|L8.924|
00000e  4ee4              LDR      r6,|L8.928|
000010  6980              LDR      r0,[r0,#0x18]         ;2514
000012  2400              MOVS     r4,#0                 ;2515
000014  4de3              LDR      r5,|L8.932|
000016  2a25              CMP      r2,#0x25              ;2509
000018  d07e              BEQ      |L8.280|
00001a  dc1f              BGT      |L8.92|
00001c  2a1d              CMP      r2,#0x1d              ;2509
00001e  d03d              BEQ      |L8.156|
000020  2a1e              CMP      r2,#0x1e              ;2509
000022  d068              BEQ      |L8.246|
000024  2a1f              CMP      r2,#0x1f              ;2509
000026  d078              BEQ      |L8.282|
000028  2a20              CMP      r2,#0x20              ;2509
00002a  d177              BNE      |L8.284|
;;;2519   				{
;;;2520   					
;;;2521   				}else{			
;;;2522   					
;;;2523   					if(dot_flag == 0 && strcmp(num,".") == 0)
;;;2524   					{
;;;2525   						dot_flag = bit;
;;;2526   					}
;;;2527   					bit ++;
;;;2528   				}
;;;2529   			}else{
;;;2530   				bit = 0;
;;;2531   				for(i=0;i<6;i++)
;;;2532   				{
;;;2533   					set_limit[i] = '\0';
;;;2534   				}
;;;2535   			}
;;;2536   			TEXT_SetText(hItem,set_limit);
;;;2537               break;
;;;2538           }
;;;2539           case set_31:
;;;2540           {
;;;2541               WM_HWIN hItem;
;;;2542   //            WM_InvalidateWindow(hWincdc);
;;;2543               hItem = WM_GetDialogItem(hWincdc, ID_TEXT_55);
;;;2544               if(bit < 6)
;;;2545   			{
;;;2546   				strcat(set_limit,num);
;;;2547   				if(dot_flag != 0 && strcmp(num,".") == 0)
;;;2548   				{
;;;2549   					
;;;2550   				}else{			
;;;2551   					
;;;2552   					if(dot_flag == 0 && strcmp(num,".") == 0)
;;;2553   					{
;;;2554   						dot_flag = bit;
;;;2555   					}
;;;2556   					bit ++;
;;;2557   				}
;;;2558   			}else{
;;;2559   				bit = 0;
;;;2560   				for(i=0;i<6;i++)
;;;2561   				{
;;;2562   					set_limit[i] = '\0';
;;;2563   				}
;;;2564   			}
;;;2565   			TEXT_SetText(hItem,set_limit);
;;;2566               break;
;;;2567           }
;;;2568           case set_32:
;;;2569           {
;;;2570               WM_HWIN hItem;
;;;2571   //            WM_InvalidateWindow(hWincdc);
;;;2572               hItem = WM_GetDialogItem(hWincdc, ID_TEXT_56);
;;;2573               if(bit < 6)
;;;2574   			{
;;;2575   				strcat(set_limit,num);
;;;2576   				if(dot_flag != 0 && strcmp(num,".") == 0)
;;;2577   				{
;;;2578   					
;;;2579   				}else{			
;;;2580   					
;;;2581   					if(dot_flag == 0 && strcmp(num,".") == 0)
;;;2582   					{
;;;2583   						dot_flag = bit;
;;;2584   					}
;;;2585   					bit ++;
;;;2586   				}
;;;2587   			}else{
;;;2588   				bit = 0;
;;;2589   				for(i=0;i<6;i++)
;;;2590   				{
;;;2591   					set_limit[i] = '\0';
;;;2592   				}
;;;2593   			}
;;;2594   			TEXT_SetText(hItem,set_limit);
;;;2595               break;
;;;2596           }
;;;2597           case set_33:
;;;2598           {
;;;2599               WM_HWIN hItem;
;;;2600   //            WM_InvalidateWindow(hWincdc);
;;;2601               hItem = WM_GetDialogItem(hWincdc, ID_TEXT_57);
00002c  f6400176          MOV      r1,#0x876
000030  f7fffffe          BL       WM_GetDialogItem
000034  4680              MOV      r8,r0
;;;2602               if(bit < 6)
000036  7830              LDRB     r0,[r6,#0]  ; bit
000038  2806              CMP      r0,#6
00003a  d270              BCS      |L8.286|
;;;2603   			{
;;;2604   				strcat(set_limit,num);
00003c  4649              MOV      r1,r9
00003e  48d9              LDR      r0,|L8.932|
000040  f7fffffe          BL       strcat
;;;2605   				if(dot_flag != 0 && strcmp(num,".") == 0)
000044  7838              LDRB     r0,[r7,#0]  ; dot_flag
000046  b128              CBZ      r0,|L8.84|
000048  a1d7              ADR      r1,|L8.936|
00004a  4648              MOV      r0,r9
00004c  f7fffffe          BL       strcmp
000050  2800              CMP      r0,#0
000052  d065              BEQ      |L8.288|
                  |L8.84|
;;;2606   				{
;;;2607   					
;;;2608   				}else{			
;;;2609   					
;;;2610   					if(dot_flag == 0 && strcmp(num,".") == 0)
000054  7838              LDRB     r0,[r7,#0]  ; dot_flag
000056  2800              CMP      r0,#0
000058  d073              BEQ      |L8.322|
00005a  e0bb              B        |L8.468|
                  |L8.92|
00005c  2a26              CMP      r2,#0x26              ;2509
00005e  d071              BEQ      |L8.324|
000060  2a27              CMP      r2,#0x27              ;2509
000062  d070              BEQ      |L8.326|
000064  2a28              CMP      r2,#0x28              ;2509
000066  d06f              BEQ      |L8.328|
000068  2a5c              CMP      r2,#0x5c              ;2509
00006a  d157              BNE      |L8.284|
;;;2611   					{
;;;2612   						dot_flag = bit;
;;;2613   					}
;;;2614   					bit ++;
;;;2615   				}
;;;2616   			}else{
;;;2617   				bit = 0;
;;;2618   				for(i=0;i<6;i++)
;;;2619   				{
;;;2620   					set_limit[i] = '\0';
;;;2621   				}
;;;2622   			}
;;;2623   			TEXT_SetText(hItem,set_limit);
;;;2624               break;
;;;2625           }
;;;2626           case set_38:
;;;2627           {
;;;2628               WM_HWIN hItem;
;;;2629   //            WM_InvalidateWindow(hWincdc);
;;;2630               hItem = WM_GetDialogItem(hWincdc, ID_TEXT_62);
;;;2631               if(bit < 6)
;;;2632   			{
;;;2633   				strcat(set_limit,num);
;;;2634   				if(dot_flag != 0 && strcmp(num,".") == 0)
;;;2635   				{
;;;2636   					
;;;2637   				}else{			
;;;2638   					
;;;2639   					if(dot_flag == 0 && strcmp(num,".") == 0)
;;;2640   					{
;;;2641   						dot_flag = bit;
;;;2642   					}
;;;2643   					bit ++;
;;;2644   				}
;;;2645   			}else{
;;;2646   				bit = 0;
;;;2647   				for(i=0;i<6;i++)
;;;2648   				{
;;;2649   					set_limit[i] = '\0';
;;;2650   				}
;;;2651   			}
;;;2652   			TEXT_SetText(hItem,set_limit);
;;;2653               break;
;;;2654           }
;;;2655           case set_39:
;;;2656           {
;;;2657               WM_HWIN hItem;
;;;2658   //            WM_InvalidateWindow(hWincdc);
;;;2659               hItem = WM_GetDialogItem(hWincdc, ID_TEXT_63);
;;;2660               if(bit < 6)
;;;2661   			{
;;;2662   				strcat(set_limit,num);
;;;2663   				if(dot_flag != 0 && strcmp(num,".") == 0)
;;;2664   				{
;;;2665   					
;;;2666   				}else{			
;;;2667   					
;;;2668   					if(dot_flag == 0 && strcmp(num,".") == 0)
;;;2669   					{
;;;2670   						dot_flag = bit;
;;;2671   					}
;;;2672   					bit ++;
;;;2673   				}
;;;2674   			}else{
;;;2675   				bit = 0;
;;;2676   				for(i=0;i<6;i++)
;;;2677   				{
;;;2678   					set_limit[i] = '\0';
;;;2679   				}
;;;2680   			}
;;;2681   			TEXT_SetText(hItem,set_limit);
;;;2682               break;
;;;2683           }
;;;2684           case set_40:
;;;2685           {
;;;2686               WM_HWIN hItem;
;;;2687   //            WM_InvalidateWindow(hWincdc);
;;;2688               hItem = WM_GetDialogItem(hWincdc, ID_TEXT_64);
;;;2689               if(bit < 6)
;;;2690   			{
;;;2691   				strcat(set_limit,num);
;;;2692   				if(dot_flag != 0 && strcmp(num,".") == 0)
;;;2693   				{
;;;2694   					
;;;2695   				}else{			
;;;2696   					
;;;2697   					if(dot_flag == 0 && strcmp(num,".") == 0)
;;;2698   					{
;;;2699   						dot_flag = bit;
;;;2700   					}
;;;2701   					bit ++;
;;;2702   				}
;;;2703   			}else{
;;;2704   				bit = 0;
;;;2705   				for(i=0;i<6;i++)
;;;2706   				{
;;;2707   					set_limit[i] = '\0';
;;;2708   				}
;;;2709   			}
;;;2710   			TEXT_SetText(hItem,set_limit);
;;;2711               break;
;;;2712           }
;;;2713           case set_41:
;;;2714           {
;;;2715               WM_HWIN hItem;
;;;2716   //            WM_InvalidateWindow(hWincdc);
;;;2717               hItem = WM_GetDialogItem(hWincdc, ID_TEXT_65);
;;;2718               if(bit < 6)
;;;2719   			{
;;;2720   				strcat(set_limit,num);
;;;2721   				if(dot_flag != 0 && strcmp(num,".") == 0)
;;;2722   				{
;;;2723   					
;;;2724   				}else{			
;;;2725   					
;;;2726   					if(dot_flag == 0 && strcmp(num,".") == 0)
;;;2727   					{
;;;2728   						dot_flag = bit;
;;;2729   					}
;;;2730   					bit ++;
;;;2731   				}
;;;2732   			}else{
;;;2733   				bit = 0;
;;;2734   				for(i=0;i<6;i++)
;;;2735   				{
;;;2736   					set_limit[i] = '\0';
;;;2737   				}
;;;2738   			}
;;;2739   			TEXT_SetText(hItem,set_limit);
;;;2740               break;
;;;2741           }
;;;2742   		case set_93:
;;;2743           {
;;;2744               WM_HWIN hItem;
;;;2745   //            WM_InvalidateWindow(hWincdc);
;;;2746               hItem = WM_GetDialogItem(hWincdc, ID_TEXT_169);
00006c  f6401144          MOV      r1,#0x944
000070  f7fffffe          BL       WM_GetDialogItem
000074  4680              MOV      r8,r0
;;;2747               if(bit < 6)
000076  7830              LDRB     r0,[r6,#0]  ; bit
000078  2806              CMP      r0,#6
00007a  d27d              BCS      |L8.376|
;;;2748   			{
;;;2749   				strcat(set_limit,num);
00007c  4649              MOV      r1,r9
00007e  48c9              LDR      r0,|L8.932|
000080  f7fffffe          BL       strcat
;;;2750   				if(dot_flag != 0 && strcmp(num,".") == 0)
000084  7838              LDRB     r0,[r7,#0]  ; dot_flag
000086  b128              CBZ      r0,|L8.148|
000088  a1c7              ADR      r1,|L8.936|
00008a  4648              MOV      r0,r9
00008c  f7fffffe          BL       strcmp
000090  2800              CMP      r0,#0
000092  d072              BEQ      |L8.378|
                  |L8.148|
;;;2751   				{
;;;2752   					
;;;2753   				}else{			
;;;2754   					
;;;2755   					if(dot_flag == 0 && strcmp(num,".") == 0)
000094  7838              LDRB     r0,[r7,#0]  ; dot_flag
000096  2800              CMP      r0,#0
000098  d070              BEQ      |L8.380|
00009a  e167              B        |L8.876|
                  |L8.156|
00009c  f6400173          MOV      r1,#0x873             ;2514
0000a0  f7fffffe          BL       WM_GetDialogItem
0000a4  4680              MOV      r8,r0                 ;2514
0000a6  7830              LDRB     r0,[r6,#0]            ;2515  ; bit
0000a8  2806              CMP      r0,#6                 ;2515
0000aa  d217              BCS      |L8.220|
0000ac  4649              MOV      r1,r9                 ;2517
0000ae  48bd              LDR      r0,|L8.932|
0000b0  f7fffffe          BL       strcat
0000b4  7838              LDRB     r0,[r7,#0]            ;2518  ; dot_flag
0000b6  b120              CBZ      r0,|L8.194|
0000b8  a1bb              ADR      r1,|L8.936|
0000ba  4648              MOV      r0,r9                 ;2518
0000bc  f7fffffe          BL       strcmp
0000c0  b198              CBZ      r0,|L8.234|
                  |L8.194|
0000c2  7838              LDRB     r0,[r7,#0]            ;2523  ; dot_flag
0000c4  b930              CBNZ     r0,|L8.212|
0000c6  a1b8              ADR      r1,|L8.936|
0000c8  4648              MOV      r0,r9                 ;2523
0000ca  f7fffffe          BL       strcmp
0000ce  b908              CBNZ     r0,|L8.212|
0000d0  7830              LDRB     r0,[r6,#0]            ;2525  ; bit
0000d2  7038              STRB     r0,[r7,#0]            ;2525
                  |L8.212|
0000d4  7830              LDRB     r0,[r6,#0]            ;2527  ; bit
0000d6  1c40              ADDS     r0,r0,#1              ;2527
0000d8  7030              STRB     r0,[r6,#0]            ;2527
0000da  e006              B        |L8.234|
                  |L8.220|
0000dc  7034              STRB     r4,[r6,#0]            ;2530
0000de  2000              MOVS     r0,#0                 ;2531
                  |L8.224|
0000e0  542c              STRB     r4,[r5,r0]            ;2533
0000e2  1c40              ADDS     r0,r0,#1              ;2531
0000e4  b2c0              UXTB     r0,r0                 ;2531
0000e6  2806              CMP      r0,#6                 ;2531
0000e8  d3fa              BCC      |L8.224|
                  |L8.234|
0000ea  4640              MOV      r0,r8                 ;2536
0000ec  e8bd47f0          POP      {r4-r10,lr}           ;2536
0000f0  49ac              LDR      r1,|L8.932|
0000f2  f7ffbffe          B.W      TEXT_SetText
                  |L8.246|
0000f6  f6400174          MOV      r1,#0x874             ;2543
0000fa  f7fffffe          BL       WM_GetDialogItem
0000fe  4680              MOV      r8,r0                 ;2543
000100  7830              LDRB     r0,[r6,#0]            ;2544  ; bit
000102  2806              CMP      r0,#6                 ;2544
000104  d221              BCS      |L8.330|
000106  4649              MOV      r1,r9                 ;2546
000108  48a6              LDR      r0,|L8.932|
00010a  f7fffffe          BL       strcat
00010e  7838              LDRB     r0,[r7,#0]            ;2547  ; dot_flag
000110  b150              CBZ      r0,|L8.296|
000112  a1a5              ADR      r1,|L8.936|
000114  4648              MOV      r0,r9                 ;2547
000116  e004              B        |L8.290|
                  |L8.280|
000118  e06d              B        |L8.502|
                  |L8.282|
00011a  e023              B        |L8.356|
                  |L8.284|
00011c  e137              B        |L8.910|
                  |L8.286|
00011e  e05d              B        |L8.476|
                  |L8.288|
000120  e063              B        |L8.490|
                  |L8.290|
000122  f7fffffe          BL       strcmp
000126  b1b8              CBZ      r0,|L8.344|
                  |L8.296|
000128  7838              LDRB     r0,[r7,#0]            ;2552  ; dot_flag
00012a  b930              CBNZ     r0,|L8.314|
00012c  a19e              ADR      r1,|L8.936|
00012e  4648              MOV      r0,r9                 ;2552
000130  f7fffffe          BL       strcmp
000134  b908              CBNZ     r0,|L8.314|
000136  7830              LDRB     r0,[r6,#0]            ;2554  ; bit
000138  7038              STRB     r0,[r7,#0]            ;2554
                  |L8.314|
00013a  7830              LDRB     r0,[r6,#0]            ;2556  ; bit
00013c  1c40              ADDS     r0,r0,#1              ;2556
00013e  7030              STRB     r0,[r6,#0]            ;2556
000140  e00a              B        |L8.344|
                  |L8.322|
000142  e040              B        |L8.454|
                  |L8.324|
000144  e084              B        |L8.592|
                  |L8.326|
000146  e0b0              B        |L8.682|
                  |L8.328|
000148  e0dc              B        |L8.772|
                  |L8.330|
00014a  7034              STRB     r4,[r6,#0]            ;2559
00014c  2000              MOVS     r0,#0                 ;2560
                  |L8.334|
00014e  542c              STRB     r4,[r5,r0]            ;2562
000150  1c40              ADDS     r0,r0,#1              ;2560
000152  b2c0              UXTB     r0,r0                 ;2560
000154  2806              CMP      r0,#6                 ;2560
000156  d3fa              BCC      |L8.334|
                  |L8.344|
000158  4640              MOV      r0,r8                 ;2565
00015a  e8bd47f0          POP      {r4-r10,lr}           ;2565
00015e  4991              LDR      r1,|L8.932|
000160  f7ffbffe          B.W      TEXT_SetText
                  |L8.356|
000164  f6400175          MOV      r1,#0x875             ;2572
000168  f7fffffe          BL       WM_GetDialogItem
00016c  4680              MOV      r8,r0                 ;2572
00016e  7830              LDRB     r0,[r6,#0]            ;2573  ; bit
000170  2806              CMP      r0,#6                 ;2573
000172  d21b              BCS      |L8.428|
000174  4649              MOV      r1,r9                 ;2575
000176  e002              B        |L8.382|
                  |L8.376|
000178  e0fc              B        |L8.884|
                  |L8.378|
00017a  e102              B        |L8.898|
                  |L8.380|
00017c  e0ef              B        |L8.862|
                  |L8.382|
00017e  4889              LDR      r0,|L8.932|
000180  f7fffffe          BL       strcat
000184  7838              LDRB     r0,[r7,#0]            ;2576  ; dot_flag
000186  b120              CBZ      r0,|L8.402|
000188  a187              ADR      r1,|L8.936|
00018a  4648              MOV      r0,r9                 ;2576
00018c  f7fffffe          BL       strcmp
000190  b198              CBZ      r0,|L8.442|
                  |L8.402|
000192  7838              LDRB     r0,[r7,#0]            ;2581  ; dot_flag
000194  b930              CBNZ     r0,|L8.420|
000196  a184              ADR      r1,|L8.936|
000198  4648              MOV      r0,r9                 ;2581
00019a  f7fffffe          BL       strcmp
00019e  b908              CBNZ     r0,|L8.420|
0001a0  7830              LDRB     r0,[r6,#0]            ;2583  ; bit
0001a2  7038              STRB     r0,[r7,#0]            ;2583
                  |L8.420|
0001a4  7830              LDRB     r0,[r6,#0]            ;2585  ; bit
0001a6  1c40              ADDS     r0,r0,#1              ;2585
0001a8  7030              STRB     r0,[r6,#0]            ;2585
0001aa  e006              B        |L8.442|
                  |L8.428|
0001ac  7034              STRB     r4,[r6,#0]            ;2588
0001ae  2000              MOVS     r0,#0                 ;2589
                  |L8.432|
0001b0  542c              STRB     r4,[r5,r0]            ;2591
0001b2  1c40              ADDS     r0,r0,#1              ;2589
0001b4  b2c0              UXTB     r0,r0                 ;2589
0001b6  2806              CMP      r0,#6                 ;2589
0001b8  d3fa              BCC      |L8.432|
                  |L8.442|
0001ba  4640              MOV      r0,r8                 ;2594
0001bc  e8bd47f0          POP      {r4-r10,lr}           ;2594
0001c0  4978              LDR      r1,|L8.932|
0001c2  f7ffbffe          B.W      TEXT_SetText
                  |L8.454|
0001c6  a178              ADR      r1,|L8.936|
0001c8  4648              MOV      r0,r9                 ;2610
0001ca  f7fffffe          BL       strcmp
0001ce  b908              CBNZ     r0,|L8.468|
0001d0  7830              LDRB     r0,[r6,#0]            ;2612  ; bit
0001d2  7038              STRB     r0,[r7,#0]            ;2612
                  |L8.468|
0001d4  7830              LDRB     r0,[r6,#0]            ;2614  ; bit
0001d6  1c40              ADDS     r0,r0,#1              ;2614
0001d8  7030              STRB     r0,[r6,#0]            ;2614
0001da  e006              B        |L8.490|
                  |L8.476|
0001dc  7034              STRB     r4,[r6,#0]            ;2617
0001de  2000              MOVS     r0,#0                 ;2618
                  |L8.480|
0001e0  542c              STRB     r4,[r5,r0]            ;2620
0001e2  1c40              ADDS     r0,r0,#1              ;2618
0001e4  b2c0              UXTB     r0,r0                 ;2618
0001e6  2806              CMP      r0,#6                 ;2618
0001e8  d3fa              BCC      |L8.480|
                  |L8.490|
0001ea  4640              MOV      r0,r8                 ;2623
0001ec  e8bd47f0          POP      {r4-r10,lr}           ;2623
0001f0  496c              LDR      r1,|L8.932|
0001f2  f7ffbffe          B.W      TEXT_SetText
                  |L8.502|
0001f6  f640017b          MOV      r1,#0x87b             ;2630
0001fa  f7fffffe          BL       WM_GetDialogItem
0001fe  4680              MOV      r8,r0                 ;2630
000200  7830              LDRB     r0,[r6,#0]            ;2631  ; bit
000202  2806              CMP      r0,#6                 ;2631
000204  d217              BCS      |L8.566|
000206  4649              MOV      r1,r9                 ;2633
000208  4866              LDR      r0,|L8.932|
00020a  f7fffffe          BL       strcat
00020e  7838              LDRB     r0,[r7,#0]            ;2634  ; dot_flag
000210  b120              CBZ      r0,|L8.540|
000212  a165              ADR      r1,|L8.936|
000214  4648              MOV      r0,r9                 ;2634
000216  f7fffffe          BL       strcmp
00021a  b198              CBZ      r0,|L8.580|
                  |L8.540|
00021c  7838              LDRB     r0,[r7,#0]            ;2639  ; dot_flag
00021e  b930              CBNZ     r0,|L8.558|
000220  a161              ADR      r1,|L8.936|
000222  4648              MOV      r0,r9                 ;2639
000224  f7fffffe          BL       strcmp
000228  b908              CBNZ     r0,|L8.558|
00022a  7830              LDRB     r0,[r6,#0]            ;2641  ; bit
00022c  7038              STRB     r0,[r7,#0]            ;2641
                  |L8.558|
00022e  7830              LDRB     r0,[r6,#0]            ;2643  ; bit
000230  1c40              ADDS     r0,r0,#1              ;2643
000232  7030              STRB     r0,[r6,#0]            ;2643
000234  e006              B        |L8.580|
                  |L8.566|
000236  7034              STRB     r4,[r6,#0]            ;2646
000238  2000              MOVS     r0,#0                 ;2647
                  |L8.570|
00023a  542c              STRB     r4,[r5,r0]            ;2649
00023c  1c40              ADDS     r0,r0,#1              ;2647
00023e  b2c0              UXTB     r0,r0                 ;2647
000240  2806              CMP      r0,#6                 ;2647
000242  d3fa              BCC      |L8.570|
                  |L8.580|
000244  4640              MOV      r0,r8                 ;2652
000246  e8bd47f0          POP      {r4-r10,lr}           ;2652
00024a  4956              LDR      r1,|L8.932|
00024c  f7ffbffe          B.W      TEXT_SetText
                  |L8.592|
000250  f640017c          MOV      r1,#0x87c             ;2659
000254  f7fffffe          BL       WM_GetDialogItem
000258  4680              MOV      r8,r0                 ;2659
00025a  7830              LDRB     r0,[r6,#0]            ;2660  ; bit
00025c  2806              CMP      r0,#6                 ;2660
00025e  d217              BCS      |L8.656|
000260  4649              MOV      r1,r9                 ;2662
000262  4850              LDR      r0,|L8.932|
000264  f7fffffe          BL       strcat
000268  7838              LDRB     r0,[r7,#0]            ;2663  ; dot_flag
00026a  b120              CBZ      r0,|L8.630|
00026c  a14e              ADR      r1,|L8.936|
00026e  4648              MOV      r0,r9                 ;2663
000270  f7fffffe          BL       strcmp
000274  b198              CBZ      r0,|L8.670|
                  |L8.630|
000276  7838              LDRB     r0,[r7,#0]            ;2668  ; dot_flag
000278  b930              CBNZ     r0,|L8.648|
00027a  a14b              ADR      r1,|L8.936|
00027c  4648              MOV      r0,r9                 ;2668
00027e  f7fffffe          BL       strcmp
000282  b908              CBNZ     r0,|L8.648|
000284  7830              LDRB     r0,[r6,#0]            ;2670  ; bit
000286  7038              STRB     r0,[r7,#0]            ;2670
                  |L8.648|
000288  7830              LDRB     r0,[r6,#0]            ;2672  ; bit
00028a  1c40              ADDS     r0,r0,#1              ;2672
00028c  7030              STRB     r0,[r6,#0]            ;2672
00028e  e006              B        |L8.670|
                  |L8.656|
000290  7034              STRB     r4,[r6,#0]            ;2675
000292  2000              MOVS     r0,#0                 ;2676
                  |L8.660|
000294  542c              STRB     r4,[r5,r0]            ;2678
000296  1c40              ADDS     r0,r0,#1              ;2676
000298  b2c0              UXTB     r0,r0                 ;2676
00029a  2806              CMP      r0,#6                 ;2676
00029c  d3fa              BCC      |L8.660|
                  |L8.670|
00029e  4640              MOV      r0,r8                 ;2681
0002a0  e8bd47f0          POP      {r4-r10,lr}           ;2681
0002a4  493f              LDR      r1,|L8.932|
0002a6  f7ffbffe          B.W      TEXT_SetText
                  |L8.682|
0002aa  f640017d          MOV      r1,#0x87d             ;2688
0002ae  f7fffffe          BL       WM_GetDialogItem
0002b2  4680              MOV      r8,r0                 ;2688
0002b4  7830              LDRB     r0,[r6,#0]            ;2689  ; bit
0002b6  2806              CMP      r0,#6                 ;2689
0002b8  d217              BCS      |L8.746|
0002ba  4649              MOV      r1,r9                 ;2691
0002bc  4839              LDR      r0,|L8.932|
0002be  f7fffffe          BL       strcat
0002c2  7838              LDRB     r0,[r7,#0]            ;2692  ; dot_flag
0002c4  b120              CBZ      r0,|L8.720|
0002c6  a138              ADR      r1,|L8.936|
0002c8  4648              MOV      r0,r9                 ;2692
0002ca  f7fffffe          BL       strcmp
0002ce  b198              CBZ      r0,|L8.760|
                  |L8.720|
0002d0  7838              LDRB     r0,[r7,#0]            ;2697  ; dot_flag
0002d2  b930              CBNZ     r0,|L8.738|
0002d4  a134              ADR      r1,|L8.936|
0002d6  4648              MOV      r0,r9                 ;2697
0002d8  f7fffffe          BL       strcmp
0002dc  b908              CBNZ     r0,|L8.738|
0002de  7830              LDRB     r0,[r6,#0]            ;2699  ; bit
0002e0  7038              STRB     r0,[r7,#0]            ;2699
                  |L8.738|
0002e2  7830              LDRB     r0,[r6,#0]            ;2701  ; bit
0002e4  1c40              ADDS     r0,r0,#1              ;2701
0002e6  7030              STRB     r0,[r6,#0]            ;2701
0002e8  e006              B        |L8.760|
                  |L8.746|
0002ea  7034              STRB     r4,[r6,#0]            ;2704
0002ec  2000              MOVS     r0,#0                 ;2705
                  |L8.750|
0002ee  542c              STRB     r4,[r5,r0]            ;2707
0002f0  1c40              ADDS     r0,r0,#1              ;2705
0002f2  b2c0              UXTB     r0,r0                 ;2705
0002f4  2806              CMP      r0,#6                 ;2705
0002f6  d3fa              BCC      |L8.750|
                  |L8.760|
0002f8  4640              MOV      r0,r8                 ;2710
0002fa  e8bd47f0          POP      {r4-r10,lr}           ;2710
0002fe  4929              LDR      r1,|L8.932|
000300  f7ffbffe          B.W      TEXT_SetText
                  |L8.772|
000304  f640017e          MOV      r1,#0x87e             ;2717
000308  f7fffffe          BL       WM_GetDialogItem
00030c  4680              MOV      r8,r0                 ;2717
00030e  7830              LDRB     r0,[r6,#0]            ;2718  ; bit
000310  2806              CMP      r0,#6                 ;2718
000312  d217              BCS      |L8.836|
000314  4649              MOV      r1,r9                 ;2720
000316  4823              LDR      r0,|L8.932|
000318  f7fffffe          BL       strcat
00031c  7838              LDRB     r0,[r7,#0]            ;2721  ; dot_flag
00031e  b120              CBZ      r0,|L8.810|
000320  a121              ADR      r1,|L8.936|
000322  4648              MOV      r0,r9                 ;2721
000324  f7fffffe          BL       strcmp
000328  b198              CBZ      r0,|L8.850|
                  |L8.810|
00032a  7838              LDRB     r0,[r7,#0]            ;2726  ; dot_flag
00032c  b930              CBNZ     r0,|L8.828|
00032e  a11e              ADR      r1,|L8.936|
000330  4648              MOV      r0,r9                 ;2726
000332  f7fffffe          BL       strcmp
000336  b908              CBNZ     r0,|L8.828|
000338  7830              LDRB     r0,[r6,#0]            ;2728  ; bit
00033a  7038              STRB     r0,[r7,#0]            ;2728
                  |L8.828|
00033c  7830              LDRB     r0,[r6,#0]            ;2730  ; bit
00033e  1c40              ADDS     r0,r0,#1              ;2730
000340  7030              STRB     r0,[r6,#0]            ;2730
000342  e006              B        |L8.850|
                  |L8.836|
000344  7034              STRB     r4,[r6,#0]            ;2733
000346  2000              MOVS     r0,#0                 ;2734
                  |L8.840|
000348  542c              STRB     r4,[r5,r0]            ;2736
00034a  1c40              ADDS     r0,r0,#1              ;2734
00034c  b2c0              UXTB     r0,r0                 ;2734
00034e  2806              CMP      r0,#6                 ;2734
000350  d3fa              BCC      |L8.840|
                  |L8.850|
000352  4640              MOV      r0,r8                 ;2739
000354  e8bd47f0          POP      {r4-r10,lr}           ;2739
000358  4912              LDR      r1,|L8.932|
00035a  f7ffbffe          B.W      TEXT_SetText
                  |L8.862|
00035e  a112              ADR      r1,|L8.936|
000360  4648              MOV      r0,r9
000362  f7fffffe          BL       strcmp
000366  b908              CBNZ     r0,|L8.876|
;;;2756   					{
;;;2757   						dot_flag = bit;
000368  7830              LDRB     r0,[r6,#0]  ; bit
00036a  7038              STRB     r0,[r7,#0]
                  |L8.876|
;;;2758   					}
;;;2759   					bit ++;
00036c  7830              LDRB     r0,[r6,#0]  ; bit
00036e  1c40              ADDS     r0,r0,#1
000370  7030              STRB     r0,[r6,#0]
000372  e006              B        |L8.898|
                  |L8.884|
;;;2760   				}
;;;2761   			}else{
;;;2762   				bit = 0;
000374  7034              STRB     r4,[r6,#0]
;;;2763   				for(i=0;i<6;i++)
000376  2000              MOVS     r0,#0
                  |L8.888|
;;;2764   				{
;;;2765   					set_limit[i] = '\0';
000378  542c              STRB     r4,[r5,r0]
00037a  1c40              ADDS     r0,r0,#1              ;2763
00037c  b2c0              UXTB     r0,r0                 ;2763
00037e  2806              CMP      r0,#6                 ;2763
000380  d3fa              BCC      |L8.888|
                  |L8.898|
;;;2766   				}
;;;2767   			}
;;;2768   			TEXT_SetText(hItem,set_limit);
000382  4640              MOV      r0,r8
000384  e8bd47f0          POP      {r4-r10,lr}
000388  4906              LDR      r1,|L8.932|
00038a  f7ffbffe          B.W      TEXT_SetText
                  |L8.910|
;;;2769               break;
;;;2770           }
;;;2771           
;;;2772       }    
;;;2773   }
00038e  e8bd87f0          POP      {r4-r10,pc}
;;;2774   
                          ENDP

000392  0000              DCW      0x0000
                  |L8.916|
                          DCD      set_sw
                  |L8.920|
                          DCD      ||area_number.18||
                  |L8.924|
                          DCD      dot_flag
                  |L8.928|
                          DCD      bit
                  |L8.932|
                          DCD      set_limit
                  |L8.936|
0003a8  2e00              DCB      ".",0
0003aa  00                DCB      0
0003ab  00                DCB      0

                          AREA ||i.ResetCDC||, CODE, READONLY, ALIGN=2

                  ResetCDC PROC
;;;1450   
;;;1451   WM_HWIN ResetCDC(void) {
000000  b51c              PUSH     {r2-r4,lr}
;;;1452     hWincdc = GUI_CreateDialogBox(_aDialogCreate4, GUI_COUNTOF(_aDialogCreate4), _cbDialog, WM_HBKWIN, 0, 0);
000002  f7fffffe          BL       WM_GetDesktopWindow
000006  4603              MOV      r3,r0
000008  2000              MOVS     r0,#0
00000a  9000              STR      r0,[sp,#0]
00000c  9001              STR      r0,[sp,#4]
00000e  4a04              LDR      r2,|L9.32|
000010  212c              MOVS     r1,#0x2c
000012  4804              LDR      r0,|L9.36|
000014  f7fffffe          BL       GUI_CreateDialogBox
000018  4903              LDR      r1,|L9.40|
00001a  6188              STR      r0,[r1,#0x18]  ; hWincdc
;;;1453     return hWincdc;
;;;1454   }
00001c  bd1c              POP      {r2-r4,pc}
;;;1455   
                          ENDP

00001e  0000              DCW      0x0000
                  |L9.32|
                          DCD      _cbDialog
                  |L9.36|
                          DCD      ||.constdata||
                  |L9.40|
                          DCD      ||area_number.18||

                          AREA ||i._cbDialog||, CODE, READONLY, ALIGN=2

                          REQUIRE _printf_pre_padding
                          REQUIRE _printf_percent
                          REQUIRE _printf_flags
                          REQUIRE _printf_widthprec
                          REQUIRE _printf_d
                          REQUIRE _printf_int_dec
                          REQUIRE _printf_f
                          REQUIRE _printf_fp_dec
                  _cbDialog PROC
;;;207    */
;;;208    static void _cbDialog(WM_MESSAGE * pMsg) {
000000  e92d4ff0          PUSH     {r4-r11,lr}
000004  ed2d8b0a          VPUSH    {d8-d12}
000008  b083              SUB      sp,sp,#0xc
00000a  4604              MOV      r4,r0
;;;209      WM_HWIN hItem;
;;;210      
;;;211      char buf[5];    
;;;212      
;;;213      float dis_load_c = (float)cdc_dc/1000;
00000c  4efe              LDR      r6,|L10.1032|
00000e  f8d6009c          LDR      r0,[r6,#0x9c]  ; Run_Control
000012  ee000a10          VMOV     s0,r0
000016  eeb80a40          VCVT.F32.U32 s0,s0
00001a  eddfaafc          VLDR     s21,|L10.1036|
00001e  eec0ba2a          VDIV.F32 s23,s0,s21
;;;214      float dis_output_v = (float)SET_Voltage/100;
000022  6870              LDR      r0,[r6,#4]  ; Run_Control
000024  ee000a10          VMOV     s0,r0
000028  eeb80a40          VCVT.F32.U32 s0,s0
00002c  ed9fbaf8          VLDR     s22,|L10.1040|
000030  eec0ca0b          VDIV.F32 s25,s0,s22
;;;215      float dis_output_c = (float)SET_Current/1000;
000034  68b0              LDR      r0,[r6,#8]  ; Run_Control
000036  ee000a10          VMOV     s0,r0
00003a  eeb80a40          VCVT.F32.U32 s0,s0
00003e  ee80ca2a          VDIV.F32 s24,s0,s21
;;;216      float dis_c_cutoff_v = (float)cov1/100;
000042  48f4              LDR      r0,|L10.1044|
000044  8801              LDRH     r1,[r0,#0]  ; coff
000046  ee001a10          VMOV     s0,r1
00004a  eeb80a40          VCVT.F32.U32 s0,s0
00004e  ee80aa0b          VDIV.F32 s20,s0,s22
;;;217      float dis_c_cutoff_c = (float)coc1/1000;
000052  88c0              LDRH     r0,[r0,#6]  ; coff
000054  ee000a10          VMOV     s0,r0
000058  eeb80a40          VCVT.F32.U32 s0,s0
00005c  eec09a2a          VDIV.F32 s19,s0,s21
;;;218      float dis_dc_cutoff_v = (float)set_dc_cutoff_v/1000;
000060  6ef0              LDR      r0,[r6,#0x6c]  ; Run_Control
000062  ee000a10          VMOV     s0,r0
000066  eeb80a40          VCVT.F32.U32 s0,s0
00006a  ee809a2a          VDIV.F32 s18,s0,s21
;;;219      float dis_dc_cutoff_c = (float)set_dc_cutoff_c/100;
00006e  6f30              LDR      r0,[r6,#0x70]  ; Run_Control
;;;220    
;;;221      // USER START (Optionally insert additional variables)
;;;222      // USER END
;;;223    
;;;224      switch (pMsg->MsgId) {
000070  6820              LDR      r0,[r4,#0]
;;;225    		
;;;226    	case WM_PAINT:
;;;227    
;;;228            GUI_SetColor(GUI_WHITE);//ʨ׃ۭҊҕɫ
;;;229            GUI_FillRect(0,25,480,26);//ۭһ͵ʵП
;;;230            GUI_SetColor(GUI_ORANGE);
;;;231            GUI_SetFont(&GUI_Fontsymbol);
;;;232            GUI_UC_SetEncodeUTF8();
;;;233            GUI_SetTextMode(GUI_TM_TRANS);//ʨ׃τѾģʽΪ֗ɫ͸ķ
;;;234            if(jkflag == 1)
;;;235    		{
;;;236    			GUI_DispStringAt("Jinko", 5, 1);//SET
;;;237    		}
;;;238            GUI_SetColor(GUI_WHITE);
;;;239            GUI_SetFont(&GUI_FontHZ20S);
;;;240            GUI_UC_SetEncodeUTF8();
;;;241            GUI_SetTextMode(GUI_TM_TRANS);//ʨ׃τѾģʽΪ֗ɫ͸ķ
;;;242    //         GUI_DispStringAt("测量显示", 130, 3);//SET
;;;243            GUI_SetColor(GUI_WHITE);//ʨ׃ǰްɫΪїɫ
;;;244            GUI_SetFont(&GUI_Font24_1);
;;;245            
;;;246    
;;;247            GUI_SetFont(&GUI_FontEN40);
;;;248            GUI_SetColor(GUI_LIGHTGRAY);
000072  f8df83a4          LDR      r8,|L10.1048|
000076  f06f477f          MVN      r7,#0xff000000        ;228
00007a  280f              CMP      r0,#0xf               ;224
00007c  d00f              BEQ      |L10.158|
;;;249            GUI_DispStringAt("C:", 28, 190);
;;;250            GUI_SetColor(GUI_LIGHTGRAY);
;;;251            GUI_DispStringAt("m", 217+24, 196);
;;;252            GUI_DispStringAt("AH", 238+24, 187);
;;;253            
;;;254            GUI_SetColor(GUI_GREEN);
;;;255            GUI_SetFont(&GUI_Fontunit);
;;;256            GUI_DispStringAt("°",372+60, 2);
;;;257            GUI_SetFont(&GUI_Font24_1);
;;;258            GUI_DispStringAt("C",380+60, 2);       
;;;259    //        DrawLockc();
;;;260            
;;;261    		if(lang == 0)
;;;262    		{
;;;263    			GUI_SetColor(GUI_WHITE);
;;;264    			GUI_SetFont(&GUI_Fontset_font);
;;;265    			GUI_DispStringAt("充电",115, 4);
;;;266    			GUI_DispStringAt("放电",255, 4);
;;;267    			GUI_DispStringAt("循环",25, 225);
;;;268    		}else{
;;;269    			GUI_SetColor(GUI_WHITE);
;;;270    			GUI_SetFont(&GUI_Font20_ASCII);
;;;271    			GUI_DispStringAt("C",115, 4);
;;;272    			GUI_DispStringAt("DC",255, 4);
;;;273    		}
;;;274            GUI_SetFont(&GUI_Font24_1);
;;;275            GUI_DispStringAt(":",320, 3);
;;;276            GUI_DispStringAt(":",350, 3);
;;;277            GUI_DispStringAt(":",180, 3);
;;;278            GUI_DispStringAt(":",210, 3);
;;;279        
;;;280    	break;
;;;281    	case WM_TIMER://֨ʱģࠩлϢ
;;;282    	if(WM_GetTimerId(pMsg->Data.v) == ID_TimerTime4)
;;;283    	{
;;;284    //        lockstat2 = lockstat1;
;;;285    //        lockstat1 = lock; 
;;;286    //        if(lockstat1 != lockstat2)
;;;287    //        {
;;;288    //            WM_InvalidateWindow(hWincdc);
;;;289    //        }
;;;290            if(DISS_Voltage * DISS_Current > 200 || DISS_Voltage * DISS_POW_Current > 200)
;;;291    		{
;;;292    			GPIO_ResetBits(GPIOC,GPIO_Pin_1);//关闭电源输出
;;;293                GPIO_SetBits(GPIOC,GPIO_Pin_13);//关闭电源输出继电噿
;;;294    			GPIO_SetBits(GPIOA,GPIO_Pin_15);//电子负载OFF
;;;295    			c_sum += bc_raw;
;;;296    			battery_c = c_sum/CDCLOOP;                     
;;;297    			count = 1;
;;;298    			cdc_sw = cdc_off;
;;;299    			hItem = WM_GetDialogItem(pMsg->hWin, ID_TEXT_68);
;;;300    			sprintf(buf,"%06d",battery_c);
;;;301    			TEXT_SetText(hItem,buf);
;;;302    			
;;;303    			hItem = WM_GetDialogItem(pMsg->hWin, ID_TEXT_71);
;;;304    			TEXT_SetText(hItem,"");
;;;305    
;;;306    			hItem = WM_GetDialogItem(pMsg->hWin, ID_TEXT_77);
;;;307    			TEXT_SetText(hItem,"");
;;;308    				
;;;309    //			hItem = WM_GetDialogItem(pMsg->hWin, ID_TEXT_78);
;;;310    //			TEXT_SetText(hItem,"");
;;;311    			
;;;312    			hItem = WM_GetDialogItem(pMsg->hWin, ID_TEXT_79);
;;;313    			TEXT_SetText(hItem,"");
;;;314    			sendmodeflag = 1;
;;;315    		}
;;;316    		if(lock == 1)
;;;317    		{
;;;318    			hItem = WM_GetDialogItem(pMsg->hWin, ID_TEXT_163);
;;;319    			TEXT_SetText(hItem,"锁");
;;;320    		}else{
;;;321    			hItem = WM_GetDialogItem(pMsg->hWin, ID_TEXT_163);
;;;322    			TEXT_SetText(hItem,"");
;;;323    		}
;;;324    		
;;;325            hItem = WM_GetDialogItem(pMsg->hWin, ID_TEXT_74);
;;;326            sprintf(buf,"%02d",hour);
;;;327            TEXT_SetTextColor(hItem, GUI_WHITE);//设置字体颜色
;;;328            TEXT_SetFont(hItem,&GUI_Font24_1);//设定文本字体
;;;329            GUI_UC_SetEncodeUTF8();        
;;;330            TEXT_SetText(hItem,buf);
;;;331    
;;;332            hItem = WM_GetDialogItem(pMsg->hWin, ID_TEXT_75);
;;;333            sprintf(buf,"%02d",minute);
;;;334            TEXT_SetTextColor(hItem, GUI_WHITE);//设置字体颜色
;;;335            TEXT_SetFont(hItem,&GUI_Font24_1);//设定文本字体
;;;336            GUI_UC_SetEncodeUTF8();        
;;;337            TEXT_SetText(hItem,buf);
;;;338            
;;;339            hItem = WM_GetDialogItem(pMsg->hWin, ID_TEXT_76);
;;;340            sprintf(buf,"%02d",second);
;;;341            TEXT_SetTextColor(hItem, GUI_WHITE);//设置字体颜色
;;;342            TEXT_SetFont(hItem,&GUI_Font24_1);//设定文本字体
;;;343            GUI_UC_SetEncodeUTF8();        
;;;344            TEXT_SetText(hItem,buf);
;;;345            
;;;346            hItem = WM_GetDialogItem(pMsg->hWin, ID_TEXT_72);
;;;347            sprintf(buf,"%02d",hour1);
;;;348            TEXT_SetTextColor(hItem, GUI_WHITE);//设置字体颜色
;;;349            TEXT_SetFont(hItem,&GUI_Font24_1);//设定文本字体
;;;350            GUI_UC_SetEncodeUTF8();        
;;;351            TEXT_SetText(hItem,buf);
;;;352    
;;;353            hItem = WM_GetDialogItem(pMsg->hWin, ID_TEXT_73);
;;;354            sprintf(buf,"%02d",minute1);
;;;355            TEXT_SetTextColor(hItem, GUI_WHITE);//设置字体颜色
;;;356            TEXT_SetFont(hItem,&GUI_Font24_1);//设定文本字体
;;;357            GUI_UC_SetEncodeUTF8();        
;;;358            TEXT_SetText(hItem,buf);
;;;359            
;;;360            hItem = WM_GetDialogItem(pMsg->hWin, ID_TEXT_135);
;;;361            sprintf(buf,"%02d",second1);
;;;362            TEXT_SetTextColor(hItem, GUI_WHITE);//设置字体颜色
;;;363            TEXT_SetFont(hItem,&GUI_Font24_1);//设定文本字体
;;;364            GUI_UC_SetEncodeUTF8();        
;;;365            TEXT_SetText(hItem,buf);
;;;366            
;;;367    		if(lang == 0)
;;;368            {
;;;369    			hItem = WM_GetDialogItem(pMsg->hWin, ID_TEXT_168);
;;;370    			if(gapmode == 0)
;;;371    				TEXT_SetText(hItem,"充电搁置");
;;;372    			else if(gapmode == 1)
;;;373    				TEXT_SetText(hItem,"放电搁置");
;;;374    		}else{
;;;375    			hItem = WM_GetDialogItem(pMsg->hWin, ID_TEXT_168);
;;;376    			if(gapmode == 0)
;;;377    				TEXT_SetText(hItem,"CHOLD");
;;;378    			else if(gapmode == 1)
;;;379    				TEXT_SetText(hItem,"DCHOLD");
;;;380    		}
;;;381    		
;;;382    		if(set_sw != set_93)
;;;383    		{
;;;384    			hItem = WM_GetDialogItem(pMsg->hWin, ID_TEXT_169);
;;;385    			if(gapmode == 0)
;;;386    				sprintf(buf,"%5d",GAPTIME);
;;;387    			else if(gapmode == 1)
;;;388    				sprintf(buf,"%5d",GAPTIME2);
;;;389    			TEXT_SetText(hItem,buf); 
;;;390    		}
;;;391    		
;;;392            if(mode_sw == mode_pow && cdc_sw == cdc_on){
;;;393                
;;;394                
;;;395                hItem = WM_GetDialogItem(pMsg->hWin, ID_TEXT_66);
;;;396                sprintf(buf,"%.3f",DISS_Voltage);       
;;;397                TEXT_SetText(hItem,buf);
;;;398                
;;;399                hItem = WM_GetDialogItem(pMsg->hWin, ID_TEXT_67);
;;;400                sprintf(buf,"%.3f",DISS_POW_Current);
;;;401                TEXT_SetText(hItem,buf);
;;;402                
;;;403                battery_c = cbc_raw;
;;;404                hItem = WM_GetDialogItem(pMsg->hWin, ID_TEXT_68);
;;;405                sprintf(buf,"%06d",battery_c);
;;;406                TEXT_SetText(hItem,buf);
;;;407                
;;;408    			hItem = WM_GetDialogItem(pMsg->hWin, ID_TEXT_77);
;;;409                TEXT_SetText(hItem,"");
;;;410               
;;;411                
;;;412    //            hItem = WM_GetDialogItem(pMsg->hWin, ID_TEXT_78);
;;;413    //            TEXT_SetTextColor(hItem, GUI_GREEN);//设置字体颜色
;;;414    //            TEXT_SetFont(hItem,&GUI_Font24_1);//设定文本字体
;;;415    //            GUI_UC_SetEncodeUTF8();
;;;416    //            TEXT_SetText(hItem,")");
;;;417                
;;;418                hItem = WM_GetDialogItem(pMsg->hWin, ID_TEXT_79);
;;;419                TEXT_SetTextColor(hItem, GUI_GREEN);//设置字体颜色
;;;420                sprintf(buf,"%5d",count);
;;;421                TEXT_SetFont(hItem,&GUI_Font24_1);//设定文本字体
;;;422                GUI_UC_SetEncodeUTF8();
;;;423                TEXT_SetText(hItem,buf);
;;;424                
;;;425                hItem = WM_GetDialogItem(pMsg->hWin, ID_TEXT_69);
;;;426                TEXT_SetTextColor(hItem, GUI_RED);//设置字体颜色
;;;427                
;;;428    			hItem = WM_GetDialogItem(pMsg->hWin, ID_TEXT_78);
;;;429                TEXT_SetTextColor(hItem, GUI_WHITE);//设置字体颜色
;;;430    			
;;;431                hItem = WM_GetDialogItem(pMsg->hWin, ID_TEXT_70);
;;;432                TEXT_SetTextColor(hItem, GUI_WHITE);//设置字体颜色
;;;433                
;;;434    //             hItem = WM_GetDialogItem(pMsg->hWin, ID_TEXT_72);        
;;;435    //             TEXT_SetText(hItem,"");
;;;436    
;;;437    //             hItem = WM_GetDialogItem(pMsg->hWin, ID_TEXT_73);     
;;;438    //             TEXT_SetText(hItem,"");
;;;439    //             
;;;440    //             hItem = WM_GetDialogItem(pMsg->hWin, ID_TEXT_74);      
;;;441    //             TEXT_SetText(hItem,"");
;;;442    //             
;;;443    //             hItem = WM_GetDialogItem(pMsg->hWin, ID_TEXT_75);      
;;;444    //             TEXT_SetText(hItem,"");
;;;445    //             
;;;446    //             hItem = WM_GetDialogItem(pMsg->hWin, ID_TEXT_76);      
;;;447    //             TEXT_SetText(hItem,"");
;;;448                
;;;449    //             if(charge_step == 1)
;;;450    //             {
;;;451    //                 hItem = WM_GetDialogItem(pMsg->hWin, ID_TEXT_119);
;;;452    //                 TEXT_SetText(hItem,"步骤1");
;;;453    //             }else if(charge_step == 2){
;;;454    //                  hItem = WM_GetDialogItem(pMsg->hWin, ID_TEXT_119);
;;;455    //                 TEXT_SetText(hItem,"步骤2");
;;;456    //             }else if(charge_step == 3){
;;;457    //                  hItem = WM_GetDialogItem(pMsg->hWin, ID_TEXT_119);
;;;458    //                 TEXT_SetText(hItem,"步骤3");
;;;459    //             }
;;;460                
;;;461                if(status_flash == 0){
;;;462                    hItem = WM_GetDialogItem(pMsg->hWin, ID_TEXT_71);
;;;463                    TEXT_SetTextColor(hItem, GUI_RED);//设置字体颜色
;;;464                    if(lang == 0)
;;;465                    {
;;;466                        TEXT_SetFont(hItem,&GUI_FontHZ16);//设定文本字体
;;;467                        GUI_UC_SetEncodeUTF8();
;;;468                        TEXT_SetText(hItem,"充电中");
;;;469                    }else{
;;;470                        TEXT_SetFont(hItem,&GUI_Font20_ASCII);//设定文本字体
;;;471                        GUI_UC_SetEncodeUTF8();
;;;472                        TEXT_SetText(hItem,"Charging");
;;;473                    }
;;;474                    status_flash = 1;
;;;475                }else{
;;;476                    hItem = WM_GetDialogItem(pMsg->hWin, ID_TEXT_71);
;;;477                    TEXT_SetText(hItem,"");
;;;478                    status_flash = 0;
;;;479                }
;;;480    //             if(opv2 == 0 && opv3 == 0 && opc2 == 0 && opc3 == 0)
;;;481    //             {
;;;482    //                 if(cov1 == 0 || coc1 == 0)
;;;483    //                 {
;;;484    //                     if(((DISS_POW_Voltage >= (float)cov1/100 && cov1 != 0) || DISS_POW_Current < (float)coc1/1000) && cutoff_flag == 0){//判断电流是否小于截止电流，并记录时间
;;;485    //                     cutoff_time = GUI_GetTime()/500;
;;;486    //                     cutoff_flag = 1;
;;;487    //                     }
;;;488    //                     if(((DISS_POW_Voltage >= (float)cov1/100 && cov1 != 0) || DISS_POW_Current < (float)coc1/1000) && (GUI_GetTime()/500 - cutoff_time) >= 10 )//若测量电流小于截止电流
;;;489    //                     {
;;;490    //                         if(mode_sw == mode_pow){
;;;491    //                             start_time = GUI_GetTime()/500;//记录开始时间
;;;492    //                         }
;;;493    //                         cutoff_flag = 0;
;;;494    //                         GPIO_ResetBits(GPIOC,GPIO_Pin_1);//关闭电源输出
;;;495    //                         GPIO_SetBits(GPIOC,GPIO_Pin_13);//关闭电源输出继电器                  
;;;496    //     //                     Mode_SW_CONT(0x02);//切换至负载模式
;;;497    //     //                     GPIO_ResetBits(GPIOC,GPIO_Pin_1);//开启负载
;;;498    //                         GPIO_ResetBits(GPIOC,GPIO_Pin_10);//CC
;;;499    //                          GPIO_ResetBits(GPIOA,GPIO_Pin_15);//电子负载On
;;;500    //                         mode_sw = mode_load;
;;;501    //                     }
;;;502    //                 }else{
;;;503    //                     if(((DISS_POW_Voltage >= (float)cov1/100 && cov1 != 0) && DISS_POW_Current < (float)coc1/1000) && cutoff_flag == 0){//判断电流是否小于截止电流，并记录时间
;;;504    //                     cutoff_time = GUI_GetTime()/500;
;;;505    //                     cutoff_flag = 1;
;;;506    //                     }
;;;507    //                     if(((DISS_POW_Voltage >= (float)cov1/100 && cov1 != 0) && DISS_POW_Current < (float)coc1/1000) && (GUI_GetTime()/500 - cutoff_time) >= 10 )//若测量电流小于截止电流
;;;508    //                     {
;;;509    //                         if(mode_sw == mode_pow){
;;;510    //                             start_time = GUI_GetTime()/500;//记录开始时间
;;;511    //                         }
;;;512    //                         cutoff_flag = 0;
;;;513    //                         GPIO_ResetBits(GPIOC,GPIO_Pin_1);//关闭电源输出
;;;514    //                         GPIO_SetBits(GPIOC,GPIO_Pin_13);//关闭电源输出继电器                   
;;;515    //     //                     Mode_SW_CONT(0x02);//切换至负载模式
;;;516    //     //                     GPIO_ResetBits(GPIOC,GPIO_Pin_1);//开启负载
;;;517    //                         GPIO_ResetBits(GPIOC,GPIO_Pin_10);//CC
;;;518    //                          GPIO_ResetBits(GPIOA,GPIO_Pin_15);//电子负载On
;;;519    //                         mode_sw = mode_load;
;;;520    //                     }
;;;521    //                 }
;;;522    //                 
;;;523    //             }else if(opv3 == 0 && opc3 == 0){
;;;524    //                 if(cov1 == 0 || coc1 == 0)
;;;525    //                 { 
;;;526    //                     if(((DISS_POW_Voltage >= (float)cov1/100 && cov1 != 0) || DISS_POW_Current < (float)coc1/1000) && cutoff_flag == 0 && charge_step == 1)
;;;527    //                     {//判断电流是否小于截止电流，并记录时间
;;;528    //                         SET_Voltage = opv2;
;;;529    //                         SET_Current = opc2;
;;;530    //                         charge_step = 2;
;;;531    //                     }
;;;532    //                 }else{
;;;533    //                     if(((DISS_POW_Voltage >= (float)cov1/100 && cov1 != 0) && DISS_POW_Current < (float)coc1/1000) && cutoff_flag == 0 && charge_step == 1)
;;;534    //                     {//判断电流是否小于截止电流，并记录时间
;;;535    //                         SET_Voltage = opv2;
;;;536    //                         SET_Current = opc2;
;;;537    //                         charge_step = 2;
;;;538    //                     }
;;;539    //                 }
;;;540    //                 
;;;541    //                 if(cov2 == 0 || coc2 == 0)
;;;542    //                 {
;;;543    //                     if(((DISS_POW_Voltage >= (float)cov2/100 && cov2 != 0) || DISS_POW_Current < (float)coc2/1000) && cutoff_flag == 0 && charge_step == 2){//判断电流是否小于截止电流，并记录时间
;;;544    //                     cutoff_time = GUI_GetTime()/500;
;;;545    //                     cutoff_flag = 1;
;;;546    //                     }
;;;547    //                     if(((DISS_POW_Voltage >= (float)cov2/100 && cov2 != 0) || DISS_POW_Current < (float)coc2/1000) && (GUI_GetTime()/500 - cutoff_time) >= 10 && charge_step == 2)//若测量电流小于截止电流
;;;548    //                     {
;;;549    //                         if(mode_sw == mode_pow){
;;;550    //                             start_time = GUI_GetTime()/500;//记录开始时间
;;;551    //                         }
;;;552    //                         cutoff_flag = 0;
;;;553    //                         GPIO_ResetBits(GPIOC,GPIO_Pin_1);//关闭电源输出
;;;554    //                         GPIO_SetBits(GPIOC,GPIO_Pin_13);//关闭电源输出继电器
;;;555    //     //                     Mode_SW_CONT(0x02);//切换至负载模式
;;;556    //     //                     GPIO_ResetBits(GPIOC,GPIO_Pin_1);//开启负载
;;;557    //                         GPIO_ResetBits(GPIOC,GPIO_Pin_10);//CC
;;;558    //                         GPIO_ResetBits(GPIOA,GPIO_Pin_15);//电子负载On
;;;559    //                         mode_sw = mode_load;
;;;560    //                     }
;;;561    //                 }else{
;;;562    //                     if(((DISS_POW_Voltage >= (float)cov2/100 && cov2 != 0) && DISS_POW_Current < (float)coc2/1000) && cutoff_flag == 0 && charge_step == 2){//判断电流是否小于截止电流，并记录时间
;;;563    //                     cutoff_time = GUI_GetTime()/500;
;;;564    //                     cutoff_flag = 1;
;;;565    //                     }
;;;566    //                     if(((DISS_POW_Voltage >= (float)cov2/100 && cov2 != 0) && DISS_POW_Current < (float)coc2/1000) && (GUI_GetTime()/500 - cutoff_time) >= 10 && charge_step == 2)//若测量电流小于截止电流
;;;567    //                     {
;;;568    //                         if(mode_sw == mode_pow){
;;;569    //                             start_time = GUI_GetTime()/500;//记录开始时间
;;;570    //                         }
;;;571    //                         cutoff_flag = 0;
;;;572    //                         GPIO_ResetBits(GPIOC,GPIO_Pin_1);//关闭电源输出
;;;573    //                         GPIO_SetBits(GPIOC,GPIO_Pin_13);//关闭电源输出继电器
;;;574    //     //                     Mode_SW_CONT(0x02);//切换至负载模式
;;;575    //     //                     GPIO_ResetBits(GPIOC,GPIO_Pin_1);//开启负载
;;;576    //                         GPIO_ResetBits(GPIOC,GPIO_Pin_12);//CC
;;;577    //                         GPIO_ResetBits(GPIOA,GPIO_Pin_15);//电子负载On
;;;578    //                         mode_sw = mode_load;
;;;579    //                     }
;;;580    //                 }
;;;581    //                 
;;;582    //             }else if((opv1 != 0 || opc1 != 0) && (opv2 != 0 || opc2 != 0) && (opv3 != 0 || opc3 != 0)){
;;;583    //                 if(cov1 == 0 || coc1 == 0)
;;;584    //                 { 
;;;585    //                     if(((DISS_POW_Voltage >= (float)cov1/100 && cov1 != 0) || DISS_POW_Current < (float)coc1/1000) && cutoff_flag == 0 && charge_step == 1)
;;;586    //                     {//判断电流是否小于截止电流，并记录时间
;;;587    //                         SET_Voltage = opv2;
;;;588    //                         SET_Current = opc2;
;;;589    //                         charge_step = 2;
;;;590    //                     }
;;;591    //                 }else{
;;;592    //                     if(((DISS_POW_Voltage >= (float)cov1/100 && cov1 != 0) && DISS_POW_Current < (float)coc1/1000) && cutoff_flag == 0 && charge_step == 1)
;;;593    //                     {//判断电流是否小于截止电流，并记录时间
;;;594    //                         SET_Voltage = opv2;
;;;595    //                         SET_Current = opc2;
;;;596    //                         charge_step = 2;
;;;597    //                     }
;;;598    //                 }
;;;599    //                 
;;;600    //                 if(cov2 == 0 || coc2 == 0)
;;;601    //                 {
;;;602    //                     if(((DISS_POW_Voltage > (float)cov2/100 && cov2 != 0) || DISS_POW_Current < (float)coc2/1000) && cutoff_flag == 0 && charge_step == 2)
;;;603    //                     {//判断电流是否小于截止电流，并记录时间
;;;604    //                         SET_Voltage = opv3;
;;;605    //                         SET_Current = opc3;
;;;606    //                         charge_step = 3;
;;;607    //                     }
;;;608    //                 }else{
;;;609    //                     if(((DISS_POW_Voltage > (float)cov2/100 && cov2 != 0) && DISS_POW_Current < (float)coc2/1000) && cutoff_flag == 0 && charge_step == 2)
;;;610    //                     {//判断电流是否小于截止电流，并记录时间
;;;611    //                         SET_Voltage = opv3;
;;;612    //                         SET_Current = opc3;
;;;613    //                         charge_step = 3;
;;;614    //                     }
;;;615    //                 }
;;;616    //                 
;;;617    //                 if(cov3 == 0 || coc3 == 0)
;;;618    //                 {
;;;619    //                     if(((DISS_POW_Voltage > (float)cov3/100 && cov3 != 0) || DISS_POW_Current < (float)coc3/1000) && cutoff_flag == 0 && charge_step == 3){//判断电流是否小于截止电流，并记录时间
;;;620    //                         cutoff_time = GUI_GetTime()/500;
;;;621    //                         cutoff_flag = 1;
;;;622    //                     }
;;;623    //                     if(((DISS_POW_Voltage > (float)cov3/100 && cov3 != 0) || DISS_POW_Current < (float)coc3/1000) && (GUI_GetTime()/500 - cutoff_time) >= 10 && charge_step == 3)//若测量电流小于截止电流
;;;624    //                     {
;;;625    //                         if(mode_sw == mode_pow){
;;;626    //                             start_time = GUI_GetTime()/500;//记录开始时间
;;;627    //                         }
;;;628    //                         cutoff_flag = 0;
;;;629    //                         GPIO_ResetBits(GPIOC,GPIO_Pin_1);//关闭电源输出
;;;630    //                         GPIO_SetBits(GPIOC,GPIO_Pin_13);//关闭电源输出继电器
;;;631    //     //                     Mode_SW_CONT(0x02);//切换至负载模式
;;;632    //     //                     GPIO_ResetBits(GPIOC,GPIO_Pin_1);//开启负载
;;;633    //                         GPIO_ResetBits(GPIOC,GPIO_Pin_10);//CC
;;;634    //                          GPIO_ResetBits(GPIOA,GPIO_Pin_15);//电子负载On
;;;635    //                         mode_sw = mode_load;
;;;636    //                     }
;;;637    //                 }else{
;;;638    //                     if(((DISS_POW_Voltage > (float)cov3/100 && cov3 != 0) && DISS_POW_Current < (float)coc3/1000) && cutoff_flag == 0 && charge_step == 3){//判断电流是否小于截止电流，并记录时间
;;;639    //                         cutoff_time = GUI_GetTime()/500;
;;;640    //                         cutoff_flag = 1;
;;;641    //                     }
;;;642    //                     if(((DISS_POW_Voltage > (float)cov3/100 && cov3 != 0) && DISS_POW_Current < (float)coc3/1000) && (GUI_GetTime()/500 - cutoff_time) >= 10 && charge_step == 3)//若测量电流小于截止电流
;;;643    //                     {
;;;644    //                         if(mode_sw == mode_pow){
;;;645    //                             start_time = GUI_GetTime()/500;//记录开始时间
;;;646    //                         }
;;;647    //                         cutoff_flag = 0;
;;;648    //                         GPIO_ResetBits(GPIOC,GPIO_Pin_1);//关闭电源输出
;;;649    //                         GPIO_SetBits(GPIOC,GPIO_Pin_13);//关闭电源输出继电器
;;;650    //     //                     Mode_SW_CONT(0x02);//切换至负载模式
;;;651    //     //                     GPIO_ResetBits(GPIOC,GPIO_Pin_1);//开启负载
;;;652    //                         GPIO_ResetBits(GPIOC,GPIO_Pin_10);//CC
;;;653    //                          GPIO_ResetBits(GPIOA,GPIO_Pin_15);//电子负载On
;;;654    //                         mode_sw = mode_load;
;;;655    //                     }
;;;656    //                 }
;;;657    //             }
;;;658                
;;;659                if(charge_step == 1)
;;;660                {
;;;661                    if(DISS_Voltage >= (float)cov1/100 && cov1 != 0)//若测量电流小于截止电流
;;;662                    {
;;;663    					SET_Voltage = cov1;
;;;664    //                    SET_Current = 100;
;;;665                        charge_step =2;
;;;666                    }
;;;667                }else if(charge_step == 2){
;;;668                    if(DISS_POW_Current < ((float)coc1/1000))//若测量电流小于截止电流
;;;669                    {
;;;670    					if(GAPTIME == 0)
;;;671    					{
;;;672    						GPIO_ResetBits(GPIOC,GPIO_Pin_1);//关闭电源输出
;;;673    						GPIO_SetBits(GPIOC,GPIO_Pin_13);//关闭电源输出继电?
;;;674    						SET_Current_Laod = cdc_dc;
;;;675    	//                     Mode_SW_CONT(0x02);//切换至负载模?
;;;676    	//                     GPIO_ResetBits(GPIOC,GPIO_Pin_1);//开启负?
;;;677    						GPIO_SetBits(GPIOC,GPIO_Pin_10);//CC
;;;678    						 GPIO_ResetBits(GPIOA,GPIO_Pin_15);//电子负载On
;;;679    						mode_sw = mode_load;
;;;680    						sendmodeflag = 1;
;;;681    					}else{
;;;682    						gaptimecount = GAPTIME;
;;;683    						GPIO_ResetBits(GPIOC,GPIO_Pin_1);//关闭电源输出
;;;684    						GPIO_SetBits(GPIOC,GPIO_Pin_13);//关闭电源输出继电噿
;;;685    						mode_sw = mode_gapc;
;;;686    						sendmodeflag = 1;
;;;687    					}
;;;688                    }
;;;689                }
;;;690    //			else if(charge_step == 3){
;;;691    //                if((DISS_POW_Voltage >= (float)cov1/100 && cov1 != 0) && (DISS_POW_Current <= 8))//若测量电流小于截止电流
;;;692    //                {
;;;693    //                    GPIO_ResetBits(GPIOC,GPIO_Pin_1);//关闭电源输出
;;;694    //                    GPIO_SetBits(GPIOC,GPIO_Pin_13);//关闭电源输出继电器
;;;695    ////                     Mode_SW_CONT(0x02);//切换至负载模式
;;;696    ////                     GPIO_ResetBits(GPIOC,GPIO_Pin_1);//开启负载
;;;697    //                    GPIO_ResetBits(GPIOC,GPIO_Pin_10);//CC
;;;698    //                     GPIO_ResetBits(GPIOA,GPIO_Pin_15);//电子负载On
;;;699    //                    mode_sw = mode_load;
;;;700    //                }
;;;701    //            }
;;;702                
;;;703    //             if(DISS_POW_Current < dis_c_cutoff_c && cutoff_flag == 0){//判断电流是否小于截止电流，并记录时间
;;;704    //                 cutoff_time = GUI_GetTime()/500;
;;;705    //                 cutoff_flag = 1;
;;;706    //             }
;;;707    //             if(((DISS_POW_Voltage >= dis_c_cutoff_v && dis_c_cutoff_v != 0) || DISS_POW_Current < dis_c_cutoff_c) && (GUI_GetTime()/500 - cutoff_time) >= 10 )//若测量电流小于截止电流
;;;708    //             {
;;;709    //                 if(mode_sw == mode_pow){
;;;710    //                     start_time = GUI_GetTime()/500;//记录开始时间
;;;711    //                 }
;;;712    //                 cutoff_flag = 0;
;;;713    //                 Mode_SW_CONT(0x02);//切换至负载模式
;;;714    //                 GPIO_ResetBits(GPIOC,GPIO_Pin_1);//开启负载
;;;715    //             }          
;;;716            }else if(mode_sw == mode_load && cdc_sw == cdc_on){
;;;717                charge_step = 1;
;;;718                hItem = WM_GetDialogItem(pMsg->hWin, ID_TEXT_119);
;;;719                TEXT_SetText(hItem,"");
;;;720    //             if(paused == 0){
;;;721    //                 second = (GUI_GetTime()/500-start_time)%60;//秒
;;;722    //                 minute = ((GUI_GetTime()/500-start_time)/60)%60;//分
;;;723    //                 hour   = (GUI_GetTime()/500-start_time)/3600;//时
;;;724    //             }else{
;;;725    //                 second = (GUI_GetTime()/500-restart_time + pause_time)%60;//秒 
;;;726    //                 minute = ((GUI_GetTime()/500-restart_time + pause_time)/60)%60;//分
;;;727    //                 hour = ((GUI_GetTime()/500-restart_time) + pause_time)/3600;//时
;;;728    //             }
;;;729                
;;;730                
;;;731                
;;;732                
;;;733                
;;;734                hItem = WM_GetDialogItem(pMsg->hWin, ID_TEXT_66);
;;;735                sprintf(buf,"%.3f",DISS_Voltage);       
;;;736                TEXT_SetText(hItem,buf);
;;;737                
;;;738                hItem = WM_GetDialogItem(pMsg->hWin, ID_TEXT_67);
;;;739                sprintf(buf,"%.3f",DISS_Current);       
;;;740                TEXT_SetText(hItem,buf);
;;;741                
;;;742                battery_c = bc_raw;
;;;743                hItem = WM_GetDialogItem(pMsg->hWin, ID_TEXT_68);
;;;744                sprintf(buf,"%06d",battery_c);
;;;745                TEXT_SetText(hItem,buf);
;;;746                
;;;747    			hItem = WM_GetDialogItem(pMsg->hWin, ID_TEXT_77);
;;;748                TEXT_SetText(hItem,"");
;;;749    			
;;;750                hItem = WM_GetDialogItem(pMsg->hWin, ID_TEXT_69);
;;;751                TEXT_SetTextColor(hItem, GUI_WHITE);//设置字体颜色
;;;752    			
;;;753                hItem = WM_GetDialogItem(pMsg->hWin, ID_TEXT_78);
;;;754                TEXT_SetTextColor(hItem, GUI_WHITE);//设置字体颜色
;;;755    			
;;;756                hItem = WM_GetDialogItem(pMsg->hWin, ID_TEXT_70);
;;;757                TEXT_SetTextColor(hItem, GUI_RED);//设置字体颜色
;;;758                
;;;759    
;;;760                if(status_flash == 0){
;;;761                    hItem = WM_GetDialogItem(pMsg->hWin, ID_TEXT_71);
;;;762                    TEXT_SetTextColor(hItem, GUI_RED);//设置字体颜色
;;;763                    if(lang == 0)
;;;764                    {
;;;765                        TEXT_SetFont(hItem,&GUI_FontHZ16);//设定文本字体
;;;766                        GUI_UC_SetEncodeUTF8();        
;;;767                        TEXT_SetText(hItem,"放电中");
;;;768                    }else{
;;;769                        TEXT_SetFont(hItem,&GUI_Font20_ASCII);//设定文本字体
;;;770                        GUI_UC_SetEncodeUTF8();        
;;;771                        TEXT_SetText(hItem,"Discharging");
;;;772                    }
;;;773                    status_flash = 1;
;;;774                }else{
;;;775                    hItem = WM_GetDialogItem(pMsg->hWin, ID_TEXT_71);
;;;776                    TEXT_SetText(hItem,"");
;;;777                    status_flash = 0;
;;;778                }
;;;779                if(pause_flag == 1){
;;;780    //                GPIO_SetBits(GPIOC,GPIO_Pin_1);//关闭负载
;;;781                    GPIO_SetBits(GPIOA,GPIO_Pin_15);//电子负载OFF
;;;782                    cdc_sw = cdc_off;
;;;783                    paused = 1;
;;;784                    
;;;785                    pause_time = second + minute*60 + hour*3600;
;;;786                }
;;;787                
;;;788                if(DISS_Voltage < dis_dc_cutoff_v && cutoff_flag == 0)
;;;789                {
;;;790                    cutoff_time = GUI_GetTime()/500;
;;;791                    cutoff_flag = 1;
;;;792                }
;;;793                
;;;794                if(DISS_Voltage < dis_dc_cutoff_v && (GUI_GetTime()/500 - cutoff_time) >= 10)//若测量电压小于截止电压
;;;795                {
;;;796                    if(mode_sw == mode_load){
;;;797                        end_time = GUI_GetTime()/500;//记录结束时间
;;;798                        count++;
;;;799                    }
;;;800                            
;;;801    //                GPIO_SetBits(GPIOC,GPIO_Pin_1);//关闭负载
;;;802                    GPIO_SetBits(GPIOA,GPIO_Pin_15);//电子负载OFF
;;;803                    if(count > CDCLOOP){
;;;804    //                    c_sum += bc_raw;
;;;805                        battery_c = bc_raw/CDCLOOP;                     
;;;806                        count = 1;
;;;807                        cdc_sw = cdc_off;
;;;808                        hItem = WM_GetDialogItem(pMsg->hWin, ID_TEXT_68);
;;;809                        sprintf(buf,"%06d",battery_c);
;;;810                        TEXT_SetText(hItem,buf);
;;;811                        
;;;812                        hItem = WM_GetDialogItem(pMsg->hWin, ID_TEXT_71);
;;;813                        TEXT_SetText(hItem,"");
;;;814                        
;;;815    //                     hItem = WM_GetDialogItem(pMsg->hWin, ID_TEXT_72);       
;;;816    //                     TEXT_SetText(hItem,"");
;;;817    
;;;818    //                     hItem = WM_GetDialogItem(pMsg->hWin, ID_TEXT_73);     
;;;819    //                     TEXT_SetText(hItem,"");
;;;820    //                     
;;;821    //                     hItem = WM_GetDialogItem(pMsg->hWin, ID_TEXT_74);      
;;;822    //                     TEXT_SetText(hItem,"");
;;;823    //                     
;;;824    //                     hItem = WM_GetDialogItem(pMsg->hWin, ID_TEXT_75);       
;;;825    //                     TEXT_SetText(hItem,"");
;;;826    //                     
;;;827    //                     hItem = WM_GetDialogItem(pMsg->hWin, ID_TEXT_76);       
;;;828    //                     TEXT_SetText(hItem,"");
;;;829                        
;;;830    //                    hItem = WM_GetDialogItem(pMsg->hWin, ID_TEXT_77);
;;;831    //                    TEXT_SetText(hItem,"");
;;;832    //                        
;;;833    //                    hItem = WM_GetDialogItem(pMsg->hWin, ID_TEXT_78);
;;;834    //                    TEXT_SetText(hItem,"");
;;;835                        
;;;836                        hItem = WM_GetDialogItem(pMsg->hWin, ID_TEXT_79);
;;;837                        TEXT_SetText(hItem,"");
;;;838    					sendmodeflag = 1;
;;;839                        
;;;840                    }else{
;;;841    //                    c_sum += bc_raw;
;;;842    //                     Mode_SW_CONT(0x03);//切换至电源模式
;;;843    					if(GAPTIME == 0)
;;;844    					{
;;;845    						GPIO_SetBits(GPIOA,GPIO_Pin_15);//电子负载OFF
;;;846    						 hItem = WM_GetDialogItem(pMsg->hWin, ID_TEXT_68);
;;;847    						 sprintf(buf,"%06d",battery_c);
;;;848    						 TEXT_SetText(hItem,buf);
;;;849    						SET_Voltage = opv1;
;;;850    						 SET_Current = opc1;
;;;851    					   GPIO_ResetBits(GPIOC,GPIO_Pin_13);//打开电源输出继电器
;;;852    						GPIO_SetBits(GPIOC,GPIO_Pin_1);//打开电源输出
;;;853    	//                    GPIO_SetBits(GPIOB,GPIO_Pin_13);//打开稳压电源输出
;;;854    						mode_sw = mode_pow;
;;;855    						cutoff_flag = 0; 
;;;856    						sendmodeflag = 1;
;;;857    					}else{
;;;858    						gaptimecount = GAPTIME2;
;;;859    						GPIO_SetBits(GPIOA,GPIO_Pin_15);//电子负载OFF
;;;860    						mode_sw = mode_gapd;
;;;861    						sendmodeflag = 1;
;;;862    					}
;;;863                    }
;;;864                }
;;;865            }else if(pause_flag == 1 && battery_c != 0){
;;;866                hItem = WM_GetDialogItem(pMsg->hWin, ID_TEXT_66);
;;;867                sprintf(buf,"%.3f",0.00);       
00007e  ed9f8be7          VLDR     d8,|L10.1052|
000082  281d              CMP      r0,#0x1d              ;224
000084  d07e              BEQ      |L10.388|
000086  f5a07080          SUB      r0,r0,#0x100          ;224
00008a  3813              SUBS     r0,r0,#0x13           ;224
00008c  d07b              BEQ      |L10.390|
;;;868                TEXT_SetText(hItem,buf);
;;;869                    
;;;870                hItem = WM_GetDialogItem(pMsg->hWin, ID_TEXT_67);
;;;871                sprintf(buf,"%.3f",0.00);       
;;;872                TEXT_SetText(hItem,buf);
;;;873                
;;;874                hItem = WM_GetDialogItem(pMsg->hWin, ID_TEXT_69);
;;;875                TEXT_SetTextColor(hItem, GUI_WHITE);//设置字体颜色
;;;876                
;;;877                hItem = WM_GetDialogItem(pMsg->hWin, ID_TEXT_70);
;;;878                TEXT_SetTextColor(hItem, GUI_WHITE);//设置字体颜色   
;;;879                    
;;;880                hItem = WM_GetDialogItem(pMsg->hWin, ID_TEXT_71);
;;;881                TEXT_SetText(hItem,"");
;;;882                
;;;883            }else if(mode_sw == mode_gapc && cdc_sw == cdc_on){
;;;884    			hItem = WM_GetDialogItem(pMsg->hWin, ID_TEXT_69);
;;;885                TEXT_SetTextColor(hItem, GUI_WHITE);//设置字体颜色
;;;886                
;;;887    			hItem = WM_GetDialogItem(pMsg->hWin, ID_TEXT_78);
;;;888                TEXT_SetTextColor(hItem, GUI_RED);//设置字体颜色
;;;889    			
;;;890                hItem = WM_GetDialogItem(pMsg->hWin, ID_TEXT_70);
;;;891                TEXT_SetTextColor(hItem, GUI_WHITE);//设置字体颜色
;;;892    			
;;;893    			
;;;894    			hItem = WM_GetDialogItem(pMsg->hWin, ID_TEXT_77);
;;;895                TEXT_SetTextColor(hItem, GUI_GREEN);//设置字体颜色
;;;896                sprintf(buf,"%5d",gaptimecount);
;;;897    			TEXT_SetFont(hItem,&GUI_Font24_1);//设定文本字体
;;;898                TEXT_SetText(hItem,buf);
;;;899    			
;;;900    			if(gaptimecount == 0)
;;;901    			{
;;;902    				SET_Current_Laod = cdc_dc;
;;;903    //                     Mode_SW_CONT(0x02);//切换至负载模弿
;;;904    //                     GPIO_ResetBits(GPIOC,GPIO_Pin_1);//开启负轿
;;;905    				GPIO_SetBits(GPIOC,GPIO_Pin_10);//CC
;;;906    				 GPIO_ResetBits(GPIOA,GPIO_Pin_15);//电子负载On
;;;907    				mode_sw = mode_load;
;;;908    				sendmodeflag = 1;
;;;909    			}
;;;910    			
;;;911    		}else if(mode_sw == mode_gapd && cdc_sw == cdc_on){
;;;912    			hItem = WM_GetDialogItem(pMsg->hWin, ID_TEXT_69);
;;;913                TEXT_SetTextColor(hItem, GUI_WHITE);//设置字体颜色
;;;914                
;;;915    			hItem = WM_GetDialogItem(pMsg->hWin, ID_TEXT_78);
;;;916                TEXT_SetTextColor(hItem, GUI_RED);//设置字体颜色
;;;917    			
;;;918                hItem = WM_GetDialogItem(pMsg->hWin, ID_TEXT_70);
;;;919                TEXT_SetTextColor(hItem, GUI_WHITE);//设置字体颜色
;;;920    			
;;;921    			hItem = WM_GetDialogItem(pMsg->hWin, ID_TEXT_77);
;;;922                TEXT_SetTextColor(hItem, GUI_GREEN);//设置字体颜色
;;;923                sprintf(buf,"%5d",gaptimecount);
;;;924    			TEXT_SetFont(hItem,&GUI_Font24_1);//设定文本字体
;;;925                TEXT_SetText(hItem,buf);
;;;926    			
;;;927    			if(gaptimecount == 0)
;;;928    			{
;;;929    				 hItem = WM_GetDialogItem(pMsg->hWin, ID_TEXT_68);
;;;930    				 sprintf(buf,"%06d",battery_c);
;;;931    				 TEXT_SetText(hItem,buf);
;;;932    				SET_Voltage = opv1;
;;;933    				 SET_Current = opc1;
;;;934    			   GPIO_ResetBits(GPIOC,GPIO_Pin_13);//打开电源输出继电器
;;;935    				GPIO_SetBits(GPIOC,GPIO_Pin_1);//打开电源输出
;;;936    				flag_pow=1;
;;;937    //                    GPIO_SetBits(GPIOB,GPIO_Pin_13);//打开稳压电源输出
;;;938    				mode_sw = mode_pow;
;;;939    				cutoff_flag = 0; 
;;;940    				sendmodeflag = 1;
;;;941    			}
;;;942    		}else if(cdc_sw == cdc_off){
;;;943                hItem = WM_GetDialogItem(pMsg->hWin, ID_TEXT_66);
;;;944                sprintf(buf,"%.3f",0.00);       
;;;945                TEXT_SetText(hItem,buf);
;;;946                    
;;;947                hItem = WM_GetDialogItem(pMsg->hWin, ID_TEXT_67);
;;;948                sprintf(buf,"%.3f",0.000);       
;;;949                TEXT_SetText(hItem,buf);
;;;950                
;;;951                hItem = WM_GetDialogItem(pMsg->hWin, ID_TEXT_119);
;;;952                TEXT_SetText(hItem,"");
;;;953                
;;;954                hItem = WM_GetDialogItem(pMsg->hWin, ID_TEXT_69);
;;;955                TEXT_SetTextColor(hItem, GUI_WHITE);//设置字体颜色
;;;956    			
;;;957                hItem = WM_GetDialogItem(pMsg->hWin, ID_TEXT_78);
;;;958                TEXT_SetTextColor(hItem, GUI_WHITE);//设置字体颜色
;;;959    			
;;;960                hItem = WM_GetDialogItem(pMsg->hWin, ID_TEXT_70);
;;;961                TEXT_SetTextColor(hItem, GUI_WHITE);//设置字体颜色
;;;962                
;;;963                hItem = WM_GetDialogItem(pMsg->hWin, ID_TEXT_71);
;;;964                TEXT_SetText(hItem,"");
;;;965    			
;;;966    			hItem = WM_GetDialogItem(pMsg->hWin, ID_TEXT_77);
;;;967                TEXT_SetText(hItem,"");
;;;968    			
;;;969    			count = 1;
;;;970            }   
;;;971            hItem = WM_GetDialogItem(pMsg->hWin, ID_TEXT_127);       
;;;972            sprintf(buf,"%.1f",temp);
;;;973            TEXT_SetText(hItem,buf);
;;;974            
;;;975    		WM_RestartTimer(pMsg->Data.v, 497);//شλ֨ʱǷ˽ֵԽճˢтʱݤԽ׌
;;;976    	}
;;;977    	break;
;;;978        
;;;979    		
;;;980      case WM_INIT_DIALOG:
;;;981        //
;;;982        // Initialization of 'R'
;;;983    	
;;;984        //
;;;985            hItem = pMsg->hWin;
;;;986            WINDOW_SetBkColor(hItem, GUI_BLACK);
;;;987    		WM_CreateTimer(hItem,ID_TimerTime4,500,0);//ԴݨѾ԰ࠚ֨ʱǷ
;;;988    
;;;989    		hItem = WM_GetDialogItem(pMsg->hWin, ID_TEXT_163);
;;;990    		TEXT_SetTextColor(hItem, GUI_RED);//设置字体颜色
;;;991    		TEXT_SetFont(hItem,&GUI_FontHZ14);
;;;992    		TEXT_SetText(hItem,"");
;;;993    
;;;994    		if(lang ==0)
;;;995            {
;;;996                hItem = WM_GetDialogItem(pMsg->hWin, ID_BUTTON_25);
;;;997                BUTTON_SetTextColor(hItem,0,GUI_BLACK);//ʨ׃ؖͥҕɫΪۚɫ
;;;998                BUTTON_SetFont      (hItem,    &GUI_FontHZ16);//ʨ֨дťτѾؖͥ
;;;999                GUI_UC_SetEncodeUTF8();
;;;1000               BUTTON_SetText(hItem,"内阻测试");
;;;1001           
;;;1002               hItem = WM_GetDialogItem(pMsg->hWin, ID_BUTTON_26);
;;;1003               BUTTON_SetTextColor(hItem,0,GUI_BLACK);//ʨ׃ؖͥҕɫΪۚɫ
;;;1004               BUTTON_SetFont      (hItem,    &GUI_FontHZ16);//ʨ֨дťτѾؖͥ
;;;1005               GUI_UC_SetEncodeUTF8();
;;;1006               BUTTON_SetText(hItem,"程控负载");
;;;1007               
;;;1008               hItem = WM_GetDialogItem(pMsg->hWin, ID_BUTTON_27);
;;;1009               BUTTON_SetTextColor(hItem,0,GUI_BLACK);//ʨ׃ؖͥҕɫΪۚɫ
;;;1010               BUTTON_SetFont      (hItem,    &GUI_FontHZ16);//ʨ֨дťτѾؖͥ
;;;1011               GUI_UC_SetEncodeUTF8();
;;;1012               BUTTON_SetText(hItem,"程控电源");
;;;1013               
;;;1014               hItem = WM_GetDialogItem(pMsg->hWin, ID_BUTTON_28);
;;;1015               BUTTON_SetPressed(hItem,1);
;;;1016               BUTTON_SetTextColor(hItem,0,GUI_BLACK);//ʨ׃ؖͥҕɫΪۚɫ
;;;1017               BUTTON_SetFont      (hItem,    &GUI_FontHZ16);//ʨ֨дťτѾؖͥ
;;;1018               GUI_UC_SetEncodeUTF8();
;;;1019               BUTTON_SetText(hItem,"充放电");
;;;1020               
;;;1021               hItem = WM_GetDialogItem(pMsg->hWin, ID_BUTTON_29);
;;;1022               BUTTON_SetTextColor(hItem,0,GUI_BLACK);//ʨ׃ؖͥҕɫΪۚɫ
;;;1023               BUTTON_SetFont      (hItem,&GUI_FontHZ16);//ʨ֨дťτѾؖͥ
;;;1024               GUI_UC_SetEncodeUTF8();
;;;1025               BUTTON_SetText(hItem,"曲线");
;;;1026           }else{
;;;1027               hItem = WM_GetDialogItem(pMsg->hWin, ID_BUTTON_25);
;;;1028               BUTTON_SetTextColor(hItem,0,GUI_BLACK);//ʨ׃ؖͥҕɫΪۚɫ
;;;1029               BUTTON_SetFont      (hItem,    &GUI_Font16B_ASCII);//ʨ֨дťτѾؖͥ
;;;1030               GUI_UC_SetEncodeUTF8();
;;;1031               BUTTON_SetText(hItem,"I.R. TEST");
;;;1032           
;;;1033               hItem = WM_GetDialogItem(pMsg->hWin, ID_BUTTON_26);
;;;1034               BUTTON_SetTextColor(hItem,0,GUI_BLACK);//ʨ׃ؖͥҕɫΪۚɫ
;;;1035               BUTTON_SetFont      (hItem,    &GUI_Font16B_ASCII);//ʨ֨дťτѾؖͥ
;;;1036               GUI_UC_SetEncodeUTF8();
;;;1037               BUTTON_SetText(hItem,"LOAD");
;;;1038               
;;;1039               hItem = WM_GetDialogItem(pMsg->hWin, ID_BUTTON_27);
;;;1040               BUTTON_SetTextColor(hItem,0,GUI_BLACK);//ʨ׃ؖͥҕɫΪۚɫ
;;;1041               BUTTON_SetFont      (hItem,    &GUI_Font16B_ASCII);//ʨ֨дťτѾؖͥ
;;;1042               GUI_UC_SetEncodeUTF8();
;;;1043               BUTTON_SetText(hItem,"POWER");
;;;1044               
;;;1045               hItem = WM_GetDialogItem(pMsg->hWin, ID_BUTTON_28);
;;;1046               BUTTON_SetPressed(hItem,1);
;;;1047               BUTTON_SetTextColor(hItem,0,GUI_BLACK);//ʨ׃ؖͥҕɫΪۚɫ
;;;1048               BUTTON_SetFont      (hItem,    &GUI_Font16B_ASCII);//ʨ֨дťτѾؖͥ
;;;1049               GUI_UC_SetEncodeUTF8();
;;;1050               BUTTON_SetText(hItem,"C&DC");
;;;1051               
;;;1052               hItem = WM_GetDialogItem(pMsg->hWin, ID_BUTTON_29);
;;;1053               BUTTON_SetTextColor(hItem,0,GUI_BLACK);//ʨ׃ؖͥҕɫΪۚɫ
;;;1054               BUTTON_SetFont      (hItem,&GUI_Font16B_ASCII);//ʨ֨дťτѾؖͥ
;;;1055               GUI_UC_SetEncodeUTF8();
;;;1056               BUTTON_SetText(hItem,"GRAPH");
;;;1057           }
;;;1058           
;;;1059           hItem = WM_GetDialogItem(pMsg->hWin, ID_TEXT_17);
;;;1060   		TEXT_SetTextColor(hItem, GUI_LIGHTGRAY);//设置字体颜色
;;;1061           TEXT_SetFont(hItem,&GUI_FontEN40);//设定文本字体
;;;1062   		GUI_UC_SetEncodeUTF8();
;;;1063   		TEXT_SetText(hItem,"V:");
;;;1064   		
;;;1065   		hItem = WM_GetDialogItem(pMsg->hWin, ID_TEXT_18);
;;;1066   		TEXT_SetTextColor(hItem, GUI_LIGHTGRAY);//设置字体颜色
;;;1067           TEXT_SetFont(hItem,&GUI_FontEN40);//设定文本字体
;;;1068   		GUI_UC_SetEncodeUTF8();
;;;1069   		TEXT_SetText(hItem,"I:");
;;;1070           
;;;1071           hItem = WM_GetDialogItem(pMsg->hWin, ID_TEXT_19);
;;;1072   		TEXT_SetTextColor(hItem, GUI_LIGHTGRAY);//设置字体颜色
;;;1073           TEXT_SetFont(hItem,&GUI_FontEN40);//设定文本字体
;;;1074   		GUI_UC_SetEncodeUTF8();
;;;1075   		TEXT_SetText(hItem,"V");
;;;1076   		
;;;1077   		hItem = WM_GetDialogItem(pMsg->hWin, ID_TEXT_20);
;;;1078   		TEXT_SetTextColor(hItem, GUI_LIGHTGRAY);//设置字体颜色
;;;1079           TEXT_SetFont(hItem,&GUI_FontEN40);//设定文本字体
;;;1080   		GUI_UC_SetEncodeUTF8();
;;;1081   		TEXT_SetText(hItem,"A");
;;;1082           
;;;1083   		if(lang == 0)
;;;1084           {
;;;1085   			hItem = WM_GetDialogItem(pMsg->hWin, ID_TEXT_50);
;;;1086   			TEXT_SetTextColor(hItem, GUI_BLACK);//设置字体颜色
;;;1087   			TEXT_SetBkColor(hItem,0x00BFFFFF);
;;;1088   			TEXT_SetFont(hItem,&GUI_Fontset_font);//设定文本字体
;;;1089   			GUI_UC_SetEncodeUTF8(); 
;;;1090   			TEXT_SetText(hItem,"输出电压");        
;;;1091   			
;;;1092   			hItem = WM_GetDialogItem(pMsg->hWin, ID_TEXT_51);
;;;1093   			TEXT_SetTextColor(hItem, GUI_WHITE);//设置字体颜色
;;;1094   			TEXT_SetFont(hItem,&GUI_Fontset_font);//设定文本字体
;;;1095   			GUI_UC_SetEncodeUTF8();
;;;1096   			TEXT_SetText(hItem,"限制电流");
;;;1097   			
;;;1098   			hItem = WM_GetDialogItem(pMsg->hWin, ID_TEXT_58);
;;;1099   			TEXT_SetTextColor(hItem, GUI_WHITE);//设置字体颜色
;;;1100   			TEXT_SetFont(hItem,&GUI_Fontset_font);//设定文本字体
;;;1101   			GUI_UC_SetEncodeUTF8();
;;;1102   			TEXT_SetText(hItem,"截止电压");
;;;1103   			
;;;1104   			hItem = WM_GetDialogItem(pMsg->hWin, ID_TEXT_59);
;;;1105   			TEXT_SetTextColor(hItem, GUI_WHITE);//设置字体颜色
;;;1106   			TEXT_SetFont(hItem,&GUI_Fontset_font);//设定文本字体
;;;1107   			GUI_UC_SetEncodeUTF8();
;;;1108   			TEXT_SetText(hItem,"截止电流");
;;;1109   			
;;;1110   			hItem = WM_GetDialogItem(pMsg->hWin, ID_TEXT_52);
;;;1111   			TEXT_SetTextColor(hItem, GUI_WHITE);//设置字体颜色
;;;1112   			TEXT_SetFont(hItem,&GUI_Fontset_font);//设定文本字体
;;;1113   			GUI_UC_SetEncodeUTF8();
;;;1114   			TEXT_SetText(hItem,"负载电流");
;;;1115   
;;;1116   			hItem = WM_GetDialogItem(pMsg->hWin, ID_TEXT_60);
;;;1117   			TEXT_SetTextColor(hItem, GUI_WHITE);//设置字体颜色
;;;1118   			TEXT_SetFont(hItem,&GUI_Fontset_font);//设定文本字体
;;;1119   			GUI_UC_SetEncodeUTF8();
;;;1120   			TEXT_SetText(hItem,"截止电压");
;;;1121   		
;;;1122           
;;;1123   //         hItem = WM_GetDialogItem(pMsg->hWin, ID_TEXT_61);
;;;1124   // 		TEXT_SetTextColor(hItem, GUI_WHITE);//设置字体颜色
;;;1125   //         TEXT_SetFont(hItem,&GUI_Fontset_font);//设定文本字体
;;;1126   // 		GUI_UC_SetEncodeUTF8();
;;;1127   // 		TEXT_SetText(hItem,"截止电流");
;;;1128           
;;;1129   			hItem = WM_GetDialogItem(pMsg->hWin, ID_TEXT_53);
;;;1130   			TEXT_SetTextColor(hItem, GUI_WHITE);//设置字体颜色
;;;1131   			TEXT_SetFont(hItem,&GUI_Fontset_font);//设定文本字体
;;;1132   			GUI_UC_SetEncodeUTF8();
;;;1133   			TEXT_SetText(hItem,"循环次数");
;;;1134   			
;;;1135   			hItem = WM_GetDialogItem(pMsg->hWin, ID_TEXT_168);
;;;1136   			TEXT_SetTextColor(hItem, GUI_WHITE);//设置字体颜色
;;;1137   			TEXT_SetFont(hItem,&GUI_Fontset_font);//设定文本字体
;;;1138   			GUI_UC_SetEncodeUTF8();
;;;1139   			if(gapmode == 0)
;;;1140   			{
;;;1141   				TEXT_SetText(hItem,"充电搁置");
;;;1142   			}else if(gapmode == 1){
;;;1143   				TEXT_SetText(hItem,"放电搁置");
;;;1144   			}
;;;1145   			
;;;1146           }else{
;;;1147   			hItem = WM_GetDialogItem(pMsg->hWin, ID_TEXT_50);
;;;1148               TEXT_SetTextColor(hItem, GUI_BLACK);//设置字体颜色
;;;1149               TEXT_SetBkColor(hItem,0x00BFFFFF);
;;;1150               TEXT_SetFont(hItem,&GUI_Font20_ASCII);//设定文本字体
;;;1151               GUI_UC_SetEncodeUTF8(); 
;;;1152               TEXT_SetText(hItem,"Output V");        
;;;1153               
;;;1154               hItem = WM_GetDialogItem(pMsg->hWin, ID_TEXT_51);
;;;1155               TEXT_SetTextColor(hItem, GUI_WHITE);//设置字体颜色
;;;1156               TEXT_SetFont(hItem,&GUI_Font20_ASCII);//设定文本字体
;;;1157               GUI_UC_SetEncodeUTF8();
;;;1158               TEXT_SetText(hItem,"Limiting C");
;;;1159               
;;;1160               hItem = WM_GetDialogItem(pMsg->hWin, ID_TEXT_58);
;;;1161               TEXT_SetTextColor(hItem, GUI_WHITE);//设置字体颜色
;;;1162               TEXT_SetFont(hItem,&GUI_Font20_ASCII);//设定文本字体
;;;1163               GUI_UC_SetEncodeUTF8();
;;;1164               TEXT_SetText(hItem,"Cutoff V");
;;;1165               
;;;1166               hItem = WM_GetDialogItem(pMsg->hWin, ID_TEXT_59);
;;;1167               TEXT_SetTextColor(hItem, GUI_WHITE);//设置字体颜色
;;;1168               TEXT_SetFont(hItem,&GUI_Font20_ASCII);//设定文本字体
;;;1169               GUI_UC_SetEncodeUTF8();
;;;1170               TEXT_SetText(hItem,"Cutoff C");
;;;1171               
;;;1172               hItem = WM_GetDialogItem(pMsg->hWin, ID_TEXT_52);
;;;1173               TEXT_SetTextColor(hItem, GUI_WHITE);//设置字体颜色
;;;1174               TEXT_SetFont(hItem,&GUI_Font20_ASCII);//设定文本字体
;;;1175               GUI_UC_SetEncodeUTF8();
;;;1176               TEXT_SetText(hItem,"Load C");
;;;1177   
;;;1178               hItem = WM_GetDialogItem(pMsg->hWin, ID_TEXT_60);
;;;1179               TEXT_SetTextColor(hItem, GUI_WHITE);//设置字体颜色
;;;1180               TEXT_SetFont(hItem,&GUI_Font20_ASCII);//设定文本字体
;;;1181               GUI_UC_SetEncodeUTF8();
;;;1182               TEXT_SetText(hItem,"Cutoff V");
;;;1183               
;;;1184       //         hItem = WM_GetDialogItem(pMsg->hWin, ID_TEXT_61);
;;;1185       // 		TEXT_SetTextColor(hItem, GUI_WHITE);//设置字体颜色
;;;1186       //         TEXT_SetFont(hItem,&GUI_Fontset_font);//设定文本字体
;;;1187       // 		GUI_UC_SetEncodeUTF8();
;;;1188       // 		TEXT_SetText(hItem,"截止电流");
;;;1189               
;;;1190               hItem = WM_GetDialogItem(pMsg->hWin, ID_TEXT_53);
;;;1191               TEXT_SetTextColor(hItem, GUI_WHITE);//设置字体颜色
;;;1192               TEXT_SetFont(hItem,&GUI_Font20_ASCII);//设定文本字体
;;;1193               GUI_UC_SetEncodeUTF8();
;;;1194               TEXT_SetText(hItem,"LOOPS");
;;;1195   			
;;;1196   			hItem = WM_GetDialogItem(pMsg->hWin, ID_TEXT_168);
;;;1197   			TEXT_SetTextColor(hItem, GUI_WHITE);//设置字体颜色
;;;1198   			TEXT_SetFont(hItem,&GUI_Font20_ASCII);//设定文本字体
;;;1199   			GUI_UC_SetEncodeUTF8();
;;;1200   			if(gapmode == 0)
;;;1201   			{
;;;1202   				TEXT_SetText(hItem,"CHOLD");
;;;1203   			}else if(gapmode == 1){
;;;1204   				TEXT_SetText(hItem,"DCHOLD");
;;;1205   			}
;;;1206   			
;;;1207   		}
;;;1208           hItem = WM_GetDialogItem(pMsg->hWin, ID_TEXT_54);
;;;1209           sprintf(buf,"%.2f",dis_output_v);
;;;1210   		TEXT_SetTextColor(hItem, GUI_WHITE);//设置字体颜色
;;;1211           TEXT_SetFont(hItem,&GUI_Font24_1);//设定文本字体
;;;1212   		GUI_UC_SetEncodeUTF8();        
;;;1213   		TEXT_SetText(hItem,buf);
;;;1214           
;;;1215           hItem = WM_GetDialogItem(pMsg->hWin, ID_TEXT_55);
;;;1216           sprintf(buf,"%.3f",dis_output_c);
;;;1217   		TEXT_SetTextColor(hItem, GUI_WHITE);//设置字体颜色
;;;1218           TEXT_SetFont(hItem,&GUI_Font24_1);//设定文本字体
;;;1219   		GUI_UC_SetEncodeUTF8();        
;;;1220   		TEXT_SetText(hItem,buf);
;;;1221           
;;;1222           hItem = WM_GetDialogItem(pMsg->hWin, ID_TEXT_56);
;;;1223           sprintf(buf,"%.3f",dis_load_c);
;;;1224   		TEXT_SetTextColor(hItem, GUI_WHITE);//设置字体颜色
;;;1225           TEXT_SetFont(hItem,&GUI_Font24_1);//设定文本字体
;;;1226   		GUI_UC_SetEncodeUTF8();        
;;;1227   		TEXT_SetText(hItem,buf);
;;;1228           
;;;1229           hItem = WM_GetDialogItem(pMsg->hWin, ID_TEXT_57);
;;;1230           sprintf(buf,"%4d",CDCLOOP);
;;;1231           TEXT_SetTextColor(hItem, GUI_WHITE);//设置字体颜色
;;;1232           TEXT_SetFont(hItem,&GUI_Font24_1);//设定文本字体
;;;1233           GUI_UC_SetEncodeUTF8();        
;;;1234           TEXT_SetText(hItem,buf);            
;;;1235   
;;;1236   		hItem = WM_GetDialogItem(pMsg->hWin, ID_TEXT_169);
;;;1237           sprintf(buf,"%5d",GAPTIME);
;;;1238           TEXT_SetTextColor(hItem, GUI_WHITE);//设置字体颜色
;;;1239           TEXT_SetFont(hItem,&GUI_Font24_1);//设定文本字体
;;;1240           GUI_UC_SetEncodeUTF8();        
;;;1241           TEXT_SetText(hItem,buf); 
;;;1242           
;;;1243           hItem = WM_GetDialogItem(pMsg->hWin, ID_TEXT_62);
;;;1244           sprintf(buf,"%.2f",dis_c_cutoff_v);
;;;1245   		TEXT_SetTextColor(hItem, GUI_WHITE);//设置字体颜色
;;;1246           TEXT_SetFont(hItem,&GUI_Font24_1);//设定文本字体
;;;1247   		GUI_UC_SetEncodeUTF8();        
;;;1248   		TEXT_SetText(hItem,buf);
;;;1249           
;;;1250           hItem = WM_GetDialogItem(pMsg->hWin, ID_TEXT_63);
;;;1251           sprintf(buf,"%.3f",dis_c_cutoff_c);
;;;1252   		TEXT_SetTextColor(hItem, GUI_WHITE);//设置字体颜色
;;;1253           TEXT_SetFont(hItem,&GUI_Font24_1);//设定文本字体
;;;1254   		GUI_UC_SetEncodeUTF8();        
;;;1255   		TEXT_SetText(hItem,buf);
;;;1256           
;;;1257           hItem = WM_GetDialogItem(pMsg->hWin, ID_TEXT_64);
;;;1258           sprintf(buf,"%.3f",dis_dc_cutoff_v);
;;;1259   		TEXT_SetTextColor(hItem, GUI_WHITE);//设置字体颜色
;;;1260           TEXT_SetFont(hItem,&GUI_Font24_1);//设定文本字体
;;;1261   		GUI_UC_SetEncodeUTF8();        
;;;1262   		TEXT_SetText(hItem,buf);
;;;1263           
;;;1264   //         hItem = WM_GetDialogItem(pMsg->hWin, ID_TEXT_65);
;;;1265   //         sprintf(dc_cutoff_c,"%.2f",dis_dc_cutoff_c);
;;;1266   // 		TEXT_SetTextColor(hItem, GUI_WHITE);//设置字体颜色
;;;1267   //         TEXT_SetFont(hItem,&GUI_Font24_1);//设定文本字体
;;;1268   // 		GUI_UC_SetEncodeUTF8();        
;;;1269   // 		TEXT_SetText(hItem,dc_cutoff_c);
;;;1270           
;;;1271           hItem = WM_GetDialogItem(pMsg->hWin, ID_TEXT_66);
;;;1272           sprintf(buf,"%.3f",0.00);
;;;1273           TEXT_SetTextColor(hItem, GUI_GREEN);//设置字体颜色
;;;1274           TEXT_SetFont(hItem,&GUI_FontD24x32);//设定文本字体
;;;1275           GUI_UC_SetEncodeUTF8();        
;;;1276           TEXT_SetText(hItem,buf);
;;;1277               
;;;1278           hItem = WM_GetDialogItem(pMsg->hWin, ID_TEXT_67);
;;;1279           sprintf(buf,"%.3f",0.000);
;;;1280           TEXT_SetTextColor(hItem, GUI_GREEN);//设置字体颜色
;;;1281           TEXT_SetFont(hItem,&GUI_FontD24x32);//设定文本字体
;;;1282           GUI_UC_SetEncodeUTF8();        
;;;1283           TEXT_SetText(hItem,buf);    
;;;1284               
;;;1285           hItem = WM_GetDialogItem(pMsg->hWin, ID_TEXT_68);
;;;1286           sprintf(buf,"%05d",0);
;;;1287           TEXT_SetTextColor(hItem, GUI_GREEN);//设置字体颜色
;;;1288           TEXT_SetFont(hItem,&GUI_FontD24x32);//设定文本字体
;;;1289           GUI_UC_SetEncodeUTF8();        
;;;1290           TEXT_SetText(hItem,buf);
;;;1291   		
;;;1292           
;;;1293           hItem = WM_GetDialogItem(pMsg->hWin, ID_TEXT_69);
;;;1294           TEXT_SetTextColor(hItem, GUI_WHITE);//设置字体颜色
;;;1295           if(lang == 0)
;;;1296           {
;;;1297               TEXT_SetFont(hItem,&GUI_FontHZ16);//设定文本字体
;;;1298               GUI_UC_SetEncodeUTF8();        
;;;1299               TEXT_SetText(hItem,"充电");
;;;1300           }else{
;;;1301               TEXT_SetFont(hItem,&GUI_Font20_ASCII);//设定文本字体
;;;1302               GUI_UC_SetEncodeUTF8();        
;;;1303               TEXT_SetText(hItem,"Charge");
;;;1304           }
;;;1305           
;;;1306           hItem = WM_GetDialogItem(pMsg->hWin, ID_TEXT_77);
;;;1307           TEXT_SetTextColor(hItem, GUI_GREEN);//设置字体颜色
;;;1308           TEXT_SetFont(hItem,&GUI_Font24_1);//设定文本字体
;;;1309           GUI_UC_SetEncodeUTF8();
;;;1310           TEXT_SetText(hItem,"");
;;;1311   //            
;;;1312   //        hItem = WM_GetDialogItem(pMsg->hWin, ID_TEXT_78);
;;;1313   //        TEXT_SetTextColor(hItem, GUI_GREEN);//设置字体颜色
;;;1314   //        TEXT_SetFont(hItem,&GUI_Font24_1);//设定文本字体
;;;1315   //        GUI_UC_SetEncodeUTF8();
;;;1316   //        TEXT_SetText(hItem,"");
;;;1317           
;;;1318   		hItem = WM_GetDialogItem(pMsg->hWin, ID_TEXT_78);
;;;1319           TEXT_SetTextColor(hItem, GUI_WHITE);//设置字体颜色
;;;1320           if(lang == 0)
;;;1321           {
;;;1322               TEXT_SetFont(hItem,&GUI_FontHZ16);//设定文本字体
;;;1323               GUI_UC_SetEncodeUTF8();        
;;;1324               TEXT_SetText(hItem,"搁置");
;;;1325           }else{
;;;1326               TEXT_SetFont(hItem,&GUI_Font20_ASCII);//设定文本字体
;;;1327               GUI_UC_SetEncodeUTF8();        
;;;1328               TEXT_SetText(hItem,"HOLD");
;;;1329           }
;;;1330   		
;;;1331           hItem = WM_GetDialogItem(pMsg->hWin, ID_TEXT_79);
;;;1332           TEXT_SetTextColor(hItem, GUI_GREEN);//设置字体颜色
;;;1333           TEXT_SetFont(hItem,&GUI_Font24_1);//设定文本字体
;;;1334           GUI_UC_SetEncodeUTF8();
;;;1335           TEXT_SetText(hItem,"");
;;;1336           
;;;1337           hItem = WM_GetDialogItem(pMsg->hWin, ID_TEXT_119);
;;;1338           TEXT_SetTextColor(hItem, GUI_RED);//设置字体颜色
;;;1339           TEXT_SetFont(hItem,&GUI_Fontset_font);//设定文本字体
;;;1340           GUI_UC_SetEncodeUTF8();        
;;;1341           TEXT_SetText(hItem,"");
;;;1342           
;;;1343           hItem = WM_GetDialogItem(pMsg->hWin, ID_TEXT_70);
;;;1344           TEXT_SetTextColor(hItem, GUI_WHITE);//设置字体颜色
;;;1345           if(lang == 0)
;;;1346           {
;;;1347               TEXT_SetFont(hItem,&GUI_FontHZ16);//设定文本字体
;;;1348               GUI_UC_SetEncodeUTF8();        
;;;1349               TEXT_SetText(hItem,"放电");
;;;1350           }else{
;;;1351               TEXT_SetFont(hItem,&GUI_Font20_ASCII);//设定文本字体
;;;1352               GUI_UC_SetEncodeUTF8();        
;;;1353               TEXT_SetText(hItem,"Discharge");
;;;1354           }
;;;1355           
;;;1356           hItem = WM_GetDialogItem(pMsg->hWin, ID_TEXT_127);
;;;1357           TEXT_SetTextColor(hItem, GUI_GREEN);//ʨ׃ؖͥҕɫ
;;;1358           TEXT_SetFont(hItem,&GUI_Font24_1);//ʨ֨τѾؖͥ       
;;;1359           sprintf(buf,"%.1f",temp);
;;;1360           TEXT_SetText(hItem,buf);
;;;1361           
;;;1362           hItem = WM_GetDialogItem(pMsg->hWin, ID_TEXT_74);
;;;1363           sprintf(buf,"%02d",hour);
;;;1364           TEXT_SetTextColor(hItem, GUI_WHITE);//设置字体颜色
;;;1365           TEXT_SetFont(hItem,&GUI_Font24_1);//设定文本字体
;;;1366           GUI_UC_SetEncodeUTF8();        
;;;1367           TEXT_SetText(hItem,buf);
;;;1368   
;;;1369           hItem = WM_GetDialogItem(pMsg->hWin, ID_TEXT_75);
;;;1370           sprintf(buf,"%02d",minute);
;;;1371           TEXT_SetTextColor(hItem, GUI_WHITE);//设置字体颜色
;;;1372           TEXT_SetFont(hItem,&GUI_Font24_1);//设定文本字体
;;;1373           GUI_UC_SetEncodeUTF8();        
;;;1374           TEXT_SetText(hItem,buf);
;;;1375           
;;;1376           hItem = WM_GetDialogItem(pMsg->hWin, ID_TEXT_76);
;;;1377           sprintf(buf,"%02d",second);
;;;1378           TEXT_SetTextColor(hItem, GUI_WHITE);//设置字体颜色
;;;1379           TEXT_SetFont(hItem,&GUI_Font24_1);//设定文本字体
;;;1380           GUI_UC_SetEncodeUTF8();        
;;;1381           TEXT_SetText(hItem,buf);
;;;1382           
;;;1383           hItem = WM_GetDialogItem(pMsg->hWin, ID_TEXT_72);
;;;1384           sprintf(buf,"%02d",hour1);
;;;1385           TEXT_SetTextColor(hItem, GUI_WHITE);//设置字体颜色
;;;1386           TEXT_SetFont(hItem,&GUI_Font24_1);//设定文本字体
;;;1387           GUI_UC_SetEncodeUTF8();        
;;;1388           TEXT_SetText(hItem,buf);
;;;1389   
;;;1390           hItem = WM_GetDialogItem(pMsg->hWin, ID_TEXT_73);
;;;1391           sprintf(buf,"%02d",minute1);
;;;1392           TEXT_SetTextColor(hItem, GUI_WHITE);//设置字体颜色
;;;1393           TEXT_SetFont(hItem,&GUI_Font24_1);//设定文本字体
;;;1394           GUI_UC_SetEncodeUTF8();        
;;;1395           TEXT_SetText(hItem,buf);
;;;1396           
;;;1397           hItem = WM_GetDialogItem(pMsg->hWin, ID_TEXT_135);
;;;1398           sprintf(buf,"%02d",second1);
;;;1399           TEXT_SetTextColor(hItem, GUI_WHITE);//设置字体颜色
;;;1400           TEXT_SetFont(hItem,&GUI_Font24_1);//设定文本字体
;;;1401           GUI_UC_SetEncodeUTF8();        
;;;1402           TEXT_SetText(hItem,buf);
;;;1403           
;;;1404           
;;;1405       // USER START (Optionally insert additional code for further widget initialization)
;;;1406       // USER END
;;;1407           break;
;;;1408     // USER START (Optionally insert additional message handling)
;;;1409     // USER END
;;;1410       default:
;;;1411           WM_DefaultProc(pMsg);
00008e  4620              MOV      r0,r4
000090  f7fffffe          BL       WM_DefaultProc
                  |L10.148|
;;;1412           break;
;;;1413     }
;;;1414   }
000094  b003              ADD      sp,sp,#0xc
000096  ecbd8b0a          VPOP     {d8-d12}
00009a  e8bd8ff0          POP      {r4-r11,pc}
                  |L10.158|
00009e  4638              MOV      r0,r7                 ;228
0000a0  f7fffffe          BL       GUI_SetColor
0000a4  231a              MOVS     r3,#0x1a              ;229
0000a6  f44f72f0          MOV      r2,#0x1e0             ;229
0000aa  2119              MOVS     r1,#0x19              ;229
0000ac  2000              MOVS     r0,#0                 ;229
0000ae  f7fffffe          BL       GUI_FillRect
0000b2  f24a50ff          MOV      r0,#0xa5ff            ;230
0000b6  f7fffffe          BL       GUI_SetColor
0000ba  48da              LDR      r0,|L10.1060|
0000bc  f7fffffe          BL       GUI_SetFont
0000c0  f7fffffe          BL       GUI_UC_SetEncodeUTF8
0000c4  2002              MOVS     r0,#2                 ;233
0000c6  f7fffffe          BL       GUI_SetTextMode
0000ca  48d7              LDR      r0,|L10.1064|
0000cc  7800              LDRB     r0,[r0,#0]            ;234  ; jkflag
0000ce  2801              CMP      r0,#1                 ;234
0000d0  d104              BNE      |L10.220|
0000d2  2201              MOVS     r2,#1                 ;236
0000d4  2105              MOVS     r1,#5                 ;236
0000d6  a0d5              ADR      r0,|L10.1068|
0000d8  f7fffffe          BL       GUI_DispStringAt
                  |L10.220|
0000dc  4638              MOV      r0,r7                 ;238
0000de  f7fffffe          BL       GUI_SetColor
0000e2  48d4              LDR      r0,|L10.1076|
0000e4  f7fffffe          BL       GUI_SetFont
0000e8  f7fffffe          BL       GUI_UC_SetEncodeUTF8
0000ec  2002              MOVS     r0,#2                 ;241
0000ee  f7fffffe          BL       GUI_SetTextMode
0000f2  4638              MOV      r0,r7                 ;243
0000f4  f7fffffe          BL       GUI_SetColor
0000f8  48cf              LDR      r0,|L10.1080|
0000fa  f7fffffe          BL       GUI_SetFont
0000fe  48cf              LDR      r0,|L10.1084|
000100  f7fffffe          BL       GUI_SetFont
000104  4640              MOV      r0,r8                 ;248
000106  f7fffffe          BL       GUI_SetColor
00010a  22be              MOVS     r2,#0xbe              ;249
00010c  211c              MOVS     r1,#0x1c              ;249
00010e  a0cc              ADR      r0,|L10.1088|
000110  f7fffffe          BL       GUI_DispStringAt
000114  4640              MOV      r0,r8                 ;250
000116  f7fffffe          BL       GUI_SetColor
00011a  22c4              MOVS     r2,#0xc4              ;251
00011c  21f1              MOVS     r1,#0xf1              ;251
00011e  a0c9              ADR      r0,|L10.1092|
000120  f7fffffe          BL       GUI_DispStringAt
000124  22bb              MOVS     r2,#0xbb              ;252
000126  f44f7183          MOV      r1,#0x106             ;252
00012a  a0c7              ADR      r0,|L10.1096|
00012c  f7fffffe          BL       GUI_DispStringAt
000130  f44f407f          MOV      r0,#0xff00            ;254
000134  f7fffffe          BL       GUI_SetColor
000138  48c4              LDR      r0,|L10.1100|
00013a  f7fffffe          BL       GUI_SetFont
00013e  2202              MOVS     r2,#2                 ;256
000140  f44f71d8          MOV      r1,#0x1b0             ;256
000144  a0c2              ADR      r0,|L10.1104|
000146  f7fffffe          BL       GUI_DispStringAt
00014a  48bb              LDR      r0,|L10.1080|
00014c  f7fffffe          BL       GUI_SetFont
000150  2202              MOVS     r2,#2                 ;258
000152  f44f71dc          MOV      r1,#0x1b8             ;258
000156  a0bf              ADR      r0,|L10.1108|
000158  f7fffffe          BL       GUI_DispStringAt
00015c  48be              LDR      r0,|L10.1112|
00015e  7800              LDRB     r0,[r0,#0]            ;261  ; lang
000160  b360              CBZ      r0,|L10.444|
000162  4638              MOV      r0,r7                 ;269
000164  f7fffffe          BL       GUI_SetColor
000168  48bc              LDR      r0,|L10.1116|
00016a  f7fffffe          BL       GUI_SetFont
00016e  2204              MOVS     r2,#4                 ;271
000170  2173              MOVS     r1,#0x73              ;271
000172  a0b8              ADR      r0,|L10.1108|
000174  f7fffffe          BL       GUI_DispStringAt
000178  2204              MOVS     r2,#4                 ;272
00017a  21ff              MOVS     r1,#0xff              ;272
00017c  a0b8              ADR      r0,|L10.1120|
00017e  f7fffffe          BL       GUI_DispStringAt
                  |L10.386|
000182  e001              B        |L10.392|
                  |L10.388|
000184  e3ee              B        |L10.2404|
                  |L10.390|
000186  e02f              B        |L10.488|
                  |L10.392|
000188  48ab              LDR      r0,|L10.1080|
00018a  f7fffffe          BL       GUI_SetFont
00018e  2203              MOVS     r2,#3                 ;275
000190  f44f71a0          MOV      r1,#0x140             ;275
000194  a0b3              ADR      r0,|L10.1124|
000196  f7fffffe          BL       GUI_DispStringAt
00019a  2203              MOVS     r2,#3                 ;276
00019c  f44f71af          MOV      r1,#0x15e             ;276
0001a0  a0b0              ADR      r0,|L10.1124|
0001a2  f7fffffe          BL       GUI_DispStringAt
0001a6  2203              MOVS     r2,#3                 ;277
0001a8  21b4              MOVS     r1,#0xb4              ;277
0001aa  a0ae              ADR      r0,|L10.1124|
0001ac  f7fffffe          BL       GUI_DispStringAt
0001b0  2203              MOVS     r2,#3                 ;278
0001b2  21d2              MOVS     r1,#0xd2              ;278
0001b4  a0ab              ADR      r0,|L10.1124|
0001b6  f7fffffe          BL       GUI_DispStringAt
                  |L10.442|
0001ba  e76b              B        |L10.148|
                  |L10.444|
0001bc  4638              MOV      r0,r7                 ;263
0001be  f7fffffe          BL       GUI_SetColor
0001c2  48a9              LDR      r0,|L10.1128|
0001c4  f7fffffe          BL       GUI_SetFont
0001c8  2204              MOVS     r2,#4                 ;265
0001ca  2173              MOVS     r1,#0x73              ;265
0001cc  a0a7              ADR      r0,|L10.1132|
0001ce  f7fffffe          BL       GUI_DispStringAt
0001d2  2204              MOVS     r2,#4                 ;266
0001d4  21ff              MOVS     r1,#0xff              ;266
0001d6  a0a7              ADR      r0,|L10.1140|
0001d8  f7fffffe          BL       GUI_DispStringAt
0001dc  22e1              MOVS     r2,#0xe1              ;267
0001de  2119              MOVS     r1,#0x19              ;267
0001e0  a0a6              ADR      r0,|L10.1148|
0001e2  f7fffffe          BL       GUI_DispStringAt
0001e6  e7cc              B        |L10.386|
                  |L10.488|
0001e8  68e0              LDR      r0,[r4,#0xc]          ;282
0001ea  f7fffffe          BL       WM_GetTimerId
0001ee  2805              CMP      r0,#5                 ;282
0001f0  d1e3              BNE      |L10.442|
0001f2  48a4              LDR      r0,|L10.1156|
0001f4  49a5              LDR      r1,|L10.1164|
0001f6  f8dfb298          LDR      r11,|L10.1168|
0001fa  ed900a00          VLDR     s0,[r0,#0]            ;290
0001fe  48a2              LDR      r0,|L10.1160|
000200  2501              MOVS     r5,#1                 ;236
000202  f8df9290          LDR      r9,|L10.1172|
000206  edd00a00          VLDR     s1,[r0,#0]            ;290
00020a  f04f0800          MOV      r8,#0                 ;292
00020e  ee600a20          VMUL.F32 s1,s0,s1              ;290
000212  ee100a90          VMOV     r0,s1                 ;290
000216  4288              CMP      r0,r1                 ;290
000218  dc08              BGT      |L10.556|
00021a  489f              LDR      r0,|L10.1176|
00021c  edd00a00          VLDR     s1,[r0,#0]            ;290
000220  ee200a20          VMUL.F32 s0,s0,s1              ;290
000224  ee100a10          VMOV     r0,s0                 ;290
000228  4288              CMP      r0,r1                 ;290
00022a  dd54              BLE      |L10.726|
                  |L10.556|
00022c  2102              MOVS     r1,#2                 ;292
00022e  4658              MOV      r0,r11                ;292
000230  f7fffffe          BL       GPIO_ResetBits
000234  f44f5100          MOV      r1,#0x2000            ;293
000238  4658              MOV      r0,r11                ;293
00023a  f7fffffe          BL       GPIO_SetBits
00023e  f44f4100          MOV      r1,#0x8000            ;294
000242  4896              LDR      r0,|L10.1180|
000244  f7fffffe          BL       GPIO_SetBits
000248  4895              LDR      r0,|L10.1184|
00024a  4996              LDR      r1,|L10.1188|
00024c  ed900a00          VLDR     s0,[r0,#0]            ;295
000250  edd10a00          VLDR     s1,[r1,#0]            ;295
000254  ee300a20          VADD.F32 s0,s0,s1              ;295
000258  ed800a00          VSTR     s0,[r0,#0]            ;295
00025c  4892              LDR      r0,|L10.1192|
00025e  edd00a28          VLDR     s1,[r0,#0xa0]         ;296
000262  eef80ae0          VCVT.F32.S32 s1,s1                 ;296
000266  ee801a20          VDIV.F32 s2,s0,s1              ;296
00026a  eebc0ac1          VCVT.U32.F32 s0,s2                 ;296
00026e  ee100a10          VMOV     r0,s0                 ;296
000272  f8c90000          STR      r0,[r9,#0]            ;296  ; battery_c
000276  f8dfa234          LDR      r10,|L10.1196|
00027a  f8aa5010          STRH     r5,[r10,#0x10]        ;297
00027e  f88a8007          STRB     r8,[r10,#7]           ;298
000282  f6400181          MOV      r1,#0x881             ;299
000286  6860              LDR      r0,[r4,#4]            ;299
000288  f7fffffe          BL       WM_GetDialogItem
00028c  9002              STR      r0,[sp,#8]            ;299
00028e  f8d92000          LDR      r2,[r9,#0]            ;300  ; battery_c
000292  a187              ADR      r1,|L10.1200|
000294  4668              MOV      r0,sp                 ;300
000296  f7fffffe          BL       __2sprintf
00029a  4669              MOV      r1,sp                 ;301
00029c  9802              LDR      r0,[sp,#8]            ;301
00029e  f7fffffe          BL       TEXT_SetText
0002a2  f6400184          MOV      r1,#0x884             ;303
0002a6  6860              LDR      r0,[r4,#4]            ;303
0002a8  f7fffffe          BL       WM_GetDialogItem
0002ac  a181              ADR      r1,|L10.1204|
0002ae  f7fffffe          BL       TEXT_SetText
0002b2  f640018a          MOV      r1,#0x88a             ;306
0002b6  6860              LDR      r0,[r4,#4]            ;306
0002b8  f7fffffe          BL       WM_GetDialogItem
0002bc  a17d              ADR      r1,|L10.1204|
0002be  f7fffffe          BL       TEXT_SetText
0002c2  f640018c          MOV      r1,#0x88c             ;312
0002c6  6860              LDR      r0,[r4,#4]            ;312
0002c8  f7fffffe          BL       WM_GetDialogItem
0002cc  a179              ADR      r1,|L10.1204|
0002ce  f7fffffe          BL       TEXT_SetText
0002d2  f88a500f          STRB     r5,[r10,#0xf]         ;314
                  |L10.726|
0002d6  4878              LDR      r0,|L10.1208|
0002d8  7800              LDRB     r0,[r0,#0]            ;316  ; lock
0002da  2801              CMP      r0,#1                 ;316
0002dc  d07e              BEQ      |L10.988|
0002de  f640113e          MOV      r1,#0x93e             ;321
0002e2  6860              LDR      r0,[r4,#4]            ;321
0002e4  f7fffffe          BL       WM_GetDialogItem
0002e8  a172              ADR      r1,|L10.1204|
0002ea  f7fffffe          BL       TEXT_SetText
                  |L10.750|
0002ee  f6400187          MOV      r1,#0x887             ;325
0002f2  6860              LDR      r0,[r4,#4]            ;325
0002f4  f7fffffe          BL       WM_GetDialogItem
0002f8  9002              STR      r0,[sp,#8]            ;325
0002fa  f8dfa1b0          LDR      r10,|L10.1196|
0002fe  f89a2002          LDRB     r2,[r10,#2]           ;326  ; hour
000302  a16e              ADR      r1,|L10.1212|
000304  4668              MOV      r0,sp                 ;326
000306  f7fffffe          BL       __2sprintf
00030a  4639              MOV      r1,r7                 ;327
00030c  9802              LDR      r0,[sp,#8]            ;327
00030e  f7fffffe          BL       TEXT_SetTextColor
000312  4949              LDR      r1,|L10.1080|
000314  9802              LDR      r0,[sp,#8]            ;328
000316  f7fffffe          BL       TEXT_SetFont
00031a  f7fffffe          BL       GUI_UC_SetEncodeUTF8
00031e  4669              MOV      r1,sp                 ;330
000320  9802              LDR      r0,[sp,#8]            ;330
000322  f7fffffe          BL       TEXT_SetText
000326  f6400188          MOV      r1,#0x888             ;332
00032a  6860              LDR      r0,[r4,#4]            ;332
00032c  f7fffffe          BL       WM_GetDialogItem
000330  9002              STR      r0,[sp,#8]            ;332
000332  f89a2001          LDRB     r2,[r10,#1]           ;333  ; minute
000336  a161              ADR      r1,|L10.1212|
000338  4668              MOV      r0,sp                 ;333
00033a  f7fffffe          BL       __2sprintf
00033e  4639              MOV      r1,r7                 ;334
000340  9802              LDR      r0,[sp,#8]            ;334
000342  f7fffffe          BL       TEXT_SetTextColor
000346  493c              LDR      r1,|L10.1080|
000348  9802              LDR      r0,[sp,#8]            ;335
00034a  f7fffffe          BL       TEXT_SetFont
00034e  f7fffffe          BL       GUI_UC_SetEncodeUTF8
000352  4669              MOV      r1,sp                 ;337
000354  9802              LDR      r0,[sp,#8]            ;337
000356  f7fffffe          BL       TEXT_SetText
00035a  f6400189          MOV      r1,#0x889             ;339
00035e  6860              LDR      r0,[r4,#4]            ;339
000360  f7fffffe          BL       WM_GetDialogItem
000364  9002              STR      r0,[sp,#8]            ;339
000366  f89a2000          LDRB     r2,[r10,#0]           ;340  ; second
00036a  a154              ADR      r1,|L10.1212|
00036c  4668              MOV      r0,sp                 ;340
00036e  f7fffffe          BL       __2sprintf
000372  4639              MOV      r1,r7                 ;341
000374  9802              LDR      r0,[sp,#8]            ;341
000376  f7fffffe          BL       TEXT_SetTextColor
00037a  492f              LDR      r1,|L10.1080|
00037c  9802              LDR      r0,[sp,#8]            ;342
00037e  f7fffffe          BL       TEXT_SetFont
000382  f7fffffe          BL       GUI_UC_SetEncodeUTF8
000386  4669              MOV      r1,sp                 ;344
000388  9802              LDR      r0,[sp,#8]            ;344
00038a  f7fffffe          BL       TEXT_SetText
00038e  f6400185          MOV      r1,#0x885             ;346
000392  6860              LDR      r0,[r4,#4]            ;346
000394  f7fffffe          BL       WM_GetDialogItem
000398  9002              STR      r0,[sp,#8]            ;346
00039a  f89a2005          LDRB     r2,[r10,#5]           ;347  ; hour1
00039e  a147              ADR      r1,|L10.1212|
0003a0  4668              MOV      r0,sp                 ;347
0003a2  f7fffffe          BL       __2sprintf
0003a6  4639              MOV      r1,r7                 ;348
0003a8  9802              LDR      r0,[sp,#8]            ;348
0003aa  f7fffffe          BL       TEXT_SetTextColor
0003ae  4922              LDR      r1,|L10.1080|
0003b0  9802              LDR      r0,[sp,#8]            ;349
0003b2  f7fffffe          BL       TEXT_SetFont
0003b6  f7fffffe          BL       GUI_UC_SetEncodeUTF8
0003ba  4669              MOV      r1,sp                 ;351
0003bc  9802              LDR      r0,[sp,#8]            ;351
0003be  f7fffffe          BL       TEXT_SetText
0003c2  f6400186          MOV      r1,#0x886             ;353
0003c6  6860              LDR      r0,[r4,#4]            ;353
0003c8  f7fffffe          BL       WM_GetDialogItem
0003cc  9002              STR      r0,[sp,#8]            ;353
0003ce  f89a2004          LDRB     r2,[r10,#4]           ;354  ; minute1
0003d2  a13a              ADR      r1,|L10.1212|
0003d4  4668              MOV      r0,sp                 ;354
0003d6  f7fffffe          BL       __2sprintf
0003da  e000              B        |L10.990|
                  |L10.988|
0003dc  e097              B        |L10.1294|
                  |L10.990|
0003de  4639              MOV      r1,r7                 ;355
0003e0  9802              LDR      r0,[sp,#8]            ;355
0003e2  f7fffffe          BL       TEXT_SetTextColor
0003e6  4914              LDR      r1,|L10.1080|
0003e8  9802              LDR      r0,[sp,#8]            ;356
0003ea  f7fffffe          BL       TEXT_SetFont
0003ee  f7fffffe          BL       GUI_UC_SetEncodeUTF8
0003f2  4669              MOV      r1,sp                 ;358
0003f4  9802              LDR      r0,[sp,#8]            ;358
0003f6  f7fffffe          BL       TEXT_SetText
0003fa  f6401124          MOV      r1,#0x924             ;360
0003fe  6860              LDR      r0,[r4,#4]            ;360
000400  f7fffffe          BL       WM_GetDialogItem
000404  9002              STR      r0,[sp,#8]            ;360
000406  e05d              B        |L10.1220|
                  |L10.1032|
                          DCD      Run_Control
                  |L10.1036|
00040c  447a0000          DCFS     0x447a0000 ; 1000
                  |L10.1040|
000410  42c80000          DCFS     0x42c80000 ; 100
                  |L10.1044|
                          DCD      ||.bss||
                  |L10.1048|
                          DCD      0x00d3d3d3
                  |L10.1052|
00041c  00000000          DCFD     0x0000000000000000 ; 0
000420  00000000
                  |L10.1060|
                          DCD      GUI_Fontsymbol
                  |L10.1064|
                          DCD      jkflag
                  |L10.1068|
00042c  4a696e6b          DCB      "Jinko",0
000430  6f00    
000432  00                DCB      0
000433  00                DCB      0
                  |L10.1076|
                          DCD      GUI_FontHZ20S
                  |L10.1080|
                          DCD      GUI_Font24_1
                  |L10.1084|
                          DCD      GUI_FontEN40
                  |L10.1088|
000440  433a00            DCB      "C:",0
000443  00                DCB      0
                  |L10.1092|
000444  6d00              DCB      "m",0
000446  00                DCB      0
000447  00                DCB      0
                  |L10.1096|
000448  414800            DCB      "AH",0
00044b  00                DCB      0
                  |L10.1100|
                          DCD      GUI_Fontunit
                  |L10.1104|
000450  c2b000            DCB      194,176,0
000453  00                DCB      0
                  |L10.1108|
000454  4300              DCB      "C",0
000456  00                DCB      0
000457  00                DCB      0
                  |L10.1112|
                          DCD      lang
                  |L10.1116|
                          DCD      GUI_Font20_ASCII
                  |L10.1120|
000460  444300            DCB      "DC",0
000463  00                DCB      0
                  |L10.1124|
000464  3a00              DCB      ":",0
000466  00                DCB      0
000467  00                DCB      0
                  |L10.1128|
                          DCD      GUI_Fontset_font
                  |L10.1132|
00046c  e58585e7          DCB      229,133,133,231,148,181,0
000470  94b500  
000473  00                DCB      0
                  |L10.1140|
000474  e694bee7          DCB      230,148,190,231,148,181,0
000478  94b500  
00047b  00                DCB      0
                  |L10.1148|
00047c  e5beaae7          DCB      229,190,170,231,142,175,0
000480  8eaf00  
000483  00                DCB      0
                  |L10.1156|
                          DCD      DISS_Voltage
                  |L10.1160|
                          DCD      DISS_Current
                  |L10.1164|
                          DCD      0x43480000
                  |L10.1168|
                          DCD      0x40020800
                  |L10.1172|
                          DCD      battery_c
                  |L10.1176|
                          DCD      DISS_POW_Current
                  |L10.1180|
                          DCD      0x40020000
                  |L10.1184|
                          DCD      c_sum
                  |L10.1188|
                          DCD      bc_raw
                  |L10.1192|
                          DCD      InFlashSave
                  |L10.1196|
                          DCD      ||area_number.18||
                  |L10.1200|
0004b0  25303664          DCB      "%06d"
                  |L10.1204|
0004b4  00                DCB      0
0004b5  00                DCB      0
0004b6  00                DCB      0
0004b7  00                DCB      0
                  |L10.1208|
                          DCD      lock
                  |L10.1212|
0004bc  25303264          DCB      "%02d",0
0004c0  00      
0004c1  00                DCB      0
0004c2  00                DCB      0
0004c3  00                DCB      0
                  |L10.1220|
0004c4  f89a2003          LDRB     r2,[r10,#3]           ;361  ; second1
0004c8  f2af0110          ADR      r1,|L10.1212|
0004cc  4668              MOV      r0,sp                 ;361
0004ce  f7fffffe          BL       __2sprintf
0004d2  4639              MOV      r1,r7                 ;362
0004d4  9802              LDR      r0,[sp,#8]            ;362
0004d6  f7fffffe          BL       TEXT_SetTextColor
0004da  49fd              LDR      r1,|L10.2256|
0004dc  9802              LDR      r0,[sp,#8]            ;363
0004de  f7fffffe          BL       TEXT_SetFont
0004e2  f7fffffe          BL       GUI_UC_SetEncodeUTF8
0004e6  4669              MOV      r1,sp                 ;365
0004e8  9802              LDR      r0,[sp,#8]            ;365
0004ea  f7fffffe          BL       TEXT_SetText
0004ee  48f9              LDR      r0,|L10.2260|
0004f0  7800              LDRB     r0,[r0,#0]            ;367  ; lang
0004f2  b1a8              CBZ      r0,|L10.1312|
0004f4  f6401143          MOV      r1,#0x943             ;375
0004f8  6860              LDR      r0,[r4,#4]            ;375
0004fa  f7fffffe          BL       WM_GetDialogItem
0004fe  f89a100b          LDRB     r1,[r10,#0xb]         ;376  ; gapmode
000502  b311              CBZ      r1,|L10.1354|
000504  f89a100b          LDRB     r1,[r10,#0xb]         ;378  ; gapmode
000508  2901              CMP      r1,#1                 ;378
00050a  d022              BEQ      |L10.1362|
00050c  e024              B        |L10.1368|
                  |L10.1294|
00050e  f640113e          MOV      r1,#0x93e             ;318
000512  6860              LDR      r0,[r4,#4]            ;318
000514  f7fffffe          BL       WM_GetDialogItem
000518  a1ef              ADR      r1,|L10.2264|
00051a  f7fffffe          BL       TEXT_SetText
00051e  e6e6              B        |L10.750|
                  |L10.1312|
000520  f6401143          MOV      r1,#0x943             ;369
000524  6860              LDR      r0,[r4,#4]            ;369
000526  f7fffffe          BL       WM_GetDialogItem
00052a  f89a100b          LDRB     r1,[r10,#0xb]         ;370  ; gapmode
00052e  b121              CBZ      r1,|L10.1338|
000530  f89a100b          LDRB     r1,[r10,#0xb]         ;372  ; gapmode
000534  2901              CMP      r1,#1                 ;372
000536  d004              BEQ      |L10.1346|
000538  e00e              B        |L10.1368|
                  |L10.1338|
00053a  a1e8              ADR      r1,|L10.2268|
00053c  f7fffffe          BL       TEXT_SetText
000540  e00a              B        |L10.1368|
                  |L10.1346|
000542  a1ea              ADR      r1,|L10.2284|
000544  f7fffffe          BL       TEXT_SetText
000548  e006              B        |L10.1368|
                  |L10.1354|
00054a  a1ec              ADR      r1,|L10.2300|
00054c  f7fffffe          BL       TEXT_SetText
000550  e002              B        |L10.1368|
                  |L10.1362|
000552  a1ec              ADR      r1,|L10.2308|
000554  f7fffffe          BL       TEXT_SetText
                  |L10.1368|
000558  48ec              LDR      r0,|L10.2316|
00055a  7800              LDRB     r0,[r0,#0]            ;382  ; set_sw
00055c  285c              CMP      r0,#0x5c              ;382
00055e  d020              BEQ      |L10.1442|
000560  f6401144          MOV      r1,#0x944             ;384
000564  6860              LDR      r0,[r4,#4]            ;384
000566  f7fffffe          BL       WM_GetDialogItem
00056a  9002              STR      r0,[sp,#8]            ;384
00056c  f89a000b          LDRB     r0,[r10,#0xb]         ;385  ; gapmode
000570  b120              CBZ      r0,|L10.1404|
000572  f89a000b          LDRB     r0,[r10,#0xb]         ;387  ; gapmode
000576  2801              CMP      r0,#1                 ;387
000578  d008              BEQ      |L10.1420|
00057a  e00e              B        |L10.1434|
                  |L10.1404|
00057c  48e4              LDR      r0,|L10.2320|
00057e  a1e5              ADR      r1,|L10.2324|
000580  f8d020a4          LDR      r2,[r0,#0xa4]         ;386  ; InFlashSave
000584  4668              MOV      r0,sp                 ;386
000586  f7fffffe          BL       __2sprintf
00058a  e006              B        |L10.1434|
                  |L10.1420|
00058c  48e0              LDR      r0,|L10.2320|
00058e  a1e1              ADR      r1,|L10.2324|
000590  f8d020a8          LDR      r2,[r0,#0xa8]         ;388  ; InFlashSave
000594  4668              MOV      r0,sp                 ;388
000596  f7fffffe          BL       __2sprintf
                  |L10.1434|
00059a  4669              MOV      r1,sp                 ;389
00059c  9802              LDR      r0,[sp,#8]            ;389
00059e  f7fffffe          BL       TEXT_SetText
                  |L10.1442|
0005a2  48dd              LDR      r0,|L10.2328|
0005a4  7800              LDRB     r0,[r0,#0]            ;392  ; mode_sw
0005a6  2803              CMP      r0,#3                 ;392
0005a8  d103              BNE      |L10.1458|
0005aa  f89a0007          LDRB     r0,[r10,#7]           ;392  ; cdc_sw
0005ae  2801              CMP      r0,#1                 ;392
0005b0  d004              BEQ      |L10.1468|
                  |L10.1458|
0005b2  48d9              LDR      r0,|L10.2328|
0005b4  7800              LDRB     r0,[r0,#0]            ;716  ; mode_sw
0005b6  2802              CMP      r0,#2                 ;716
0005b8  d07d              BEQ      |L10.1718|
0005ba  e11b              B        |L10.2036|
                  |L10.1468|
0005bc  f640017f          MOV      r1,#0x87f             ;395
0005c0  6860              LDR      r0,[r4,#4]            ;395
0005c2  f7fffffe          BL       WM_GetDialogItem
0005c6  9002              STR      r0,[sp,#8]            ;395
0005c8  48d4              LDR      r0,|L10.2332|
0005ca  6800              LDR      r0,[r0,#0]            ;396  ; DISS_Voltage
0005cc  f7fffffe          BL       __aeabi_f2d
0005d0  ec410b10          VMOV     d0,r0,r1              ;396
0005d4  a1d2              ADR      r1,|L10.2336|
0005d6  ec532b10          VMOV     r2,r3,d0              ;396
0005da  4668              MOV      r0,sp                 ;396
0005dc  f7fffffe          BL       __2sprintf
0005e0  4669              MOV      r1,sp                 ;397
0005e2  9802              LDR      r0,[sp,#8]            ;397
0005e4  f7fffffe          BL       TEXT_SetText
0005e8  f44f6108          MOV      r1,#0x880             ;399
0005ec  6860              LDR      r0,[r4,#4]            ;399
0005ee  f7fffffe          BL       WM_GetDialogItem
0005f2  9002              STR      r0,[sp,#8]            ;399
0005f4  48cc              LDR      r0,|L10.2344|
0005f6  6800              LDR      r0,[r0,#0]            ;400  ; DISS_POW_Current
0005f8  f7fffffe          BL       __aeabi_f2d
0005fc  ec410b10          VMOV     d0,r0,r1              ;400
000600  a1c7              ADR      r1,|L10.2336|
000602  ec532b10          VMOV     r2,r3,d0              ;400
000606  4668              MOV      r0,sp                 ;400
000608  f7fffffe          BL       __2sprintf
00060c  4669              MOV      r1,sp                 ;401
00060e  9802              LDR      r0,[sp,#8]            ;401
000610  f7fffffe          BL       TEXT_SetText
000614  48c5              LDR      r0,|L10.2348|
000616  ed900a00          VLDR     s0,[r0,#0]            ;403
00061a  eebc0ac0          VCVT.U32.F32 s0,s0                 ;403
00061e  ee100a10          VMOV     r0,s0                 ;403
000622  f8c90000          STR      r0,[r9,#0]            ;403  ; battery_c
000626  f6400181          MOV      r1,#0x881             ;404
00062a  6860              LDR      r0,[r4,#4]            ;404
00062c  f7fffffe          BL       WM_GetDialogItem
000630  9002              STR      r0,[sp,#8]            ;404
000632  f8d92000          LDR      r2,[r9,#0]            ;405  ; battery_c
000636  f2af1188          ADR      r1,|L10.1200|
00063a  4668              MOV      r0,sp                 ;405
00063c  f7fffffe          BL       __2sprintf
000640  4669              MOV      r1,sp                 ;406
000642  9802              LDR      r0,[sp,#8]            ;406
000644  f7fffffe          BL       TEXT_SetText
000648  f640018a          MOV      r1,#0x88a             ;408
00064c  6860              LDR      r0,[r4,#4]            ;408
00064e  f7fffffe          BL       WM_GetDialogItem
000652  a1a5              ADR      r1,|L10.2280|
000654  f7fffffe          BL       TEXT_SetText
000658  f640018c          MOV      r1,#0x88c             ;418
00065c  6860              LDR      r0,[r4,#4]            ;418
00065e  f7fffffe          BL       WM_GetDialogItem
000662  4681              MOV      r9,r0                 ;418
000664  f44f417f          MOV      r1,#0xff00            ;419
000668  4648              MOV      r0,r9                 ;419
00066a  f7fffffe          BL       TEXT_SetTextColor
00066e  f8ba2010          LDRH     r2,[r10,#0x10]        ;420  ; count
000672  a1a8              ADR      r1,|L10.2324|
000674  4668              MOV      r0,sp                 ;420
000676  f7fffffe          BL       __2sprintf
00067a  4995              LDR      r1,|L10.2256|
00067c  4648              MOV      r0,r9                 ;421
00067e  f7fffffe          BL       TEXT_SetFont
000682  f7fffffe          BL       GUI_UC_SetEncodeUTF8
000686  4669              MOV      r1,sp                 ;423
000688  4648              MOV      r0,r9                 ;423
00068a  f7fffffe          BL       TEXT_SetText
00068e  f6400182          MOV      r1,#0x882             ;425
000692  6860              LDR      r0,[r4,#4]            ;425
000694  f7fffffe          BL       WM_GetDialogItem
000698  21ff              MOVS     r1,#0xff              ;426
00069a  f7fffffe          BL       TEXT_SetTextColor
00069e  f640018b          MOV      r1,#0x88b             ;428
0006a2  6860              LDR      r0,[r4,#4]            ;428
0006a4  f7fffffe          BL       WM_GetDialogItem
0006a8  4639              MOV      r1,r7                 ;429
0006aa  f7fffffe          BL       TEXT_SetTextColor
0006ae  f6400183          MOV      r1,#0x883             ;431
0006b2  6860              LDR      r0,[r4,#4]            ;431
0006b4  e000              B        |L10.1720|
                  |L10.1718|
0006b6  e099              B        |L10.2028|
                  |L10.1720|
0006b8  f7fffffe          BL       WM_GetDialogItem
0006bc  4639              MOV      r1,r7                 ;432
0006be  f7fffffe          BL       TEXT_SetTextColor
0006c2  f89a0008          LDRB     r0,[r10,#8]           ;461  ; status_flash
0006c6  b190              CBZ      r0,|L10.1774|
0006c8  f6400184          MOV      r1,#0x884             ;476
0006cc  6860              LDR      r0,[r4,#4]            ;476
0006ce  f7fffffe          BL       WM_GetDialogItem
0006d2  a185              ADR      r1,|L10.2280|
0006d4  f7fffffe          BL       TEXT_SetText
0006d8  f88a8008          STRB     r8,[r10,#8]           ;478
                  |L10.1756|
0006dc  f89a000e          LDRB     r0,[r10,#0xe]         ;659  ; charge_step
0006e0  2801              CMP      r0,#1                 ;659
0006e2  d029              BEQ      |L10.1848|
0006e4  f89a000e          LDRB     r0,[r10,#0xe]         ;667  ; charge_step
0006e8  2802              CMP      r0,#2                 ;667
0006ea  d03e              BEQ      |L10.1898|
                  |L10.1772|
0006ec  e3c9              B        |L10.3714|
                  |L10.1774|
0006ee  f6400184          MOV      r1,#0x884             ;462
0006f2  6860              LDR      r0,[r4,#4]            ;462
0006f4  f7fffffe          BL       WM_GetDialogItem
0006f8  4607              MOV      r7,r0                 ;462
0006fa  21ff              MOVS     r1,#0xff              ;463
0006fc  4638              MOV      r0,r7                 ;463
0006fe  f7fffffe          BL       TEXT_SetTextColor
000702  4874              LDR      r0,|L10.2260|
000704  7800              LDRB     r0,[r0,#0]            ;464  ; lang
000706  b160              CBZ      r0,|L10.1826|
000708  4989              LDR      r1,|L10.2352|
00070a  4638              MOV      r0,r7                 ;470
00070c  f7fffffe          BL       TEXT_SetFont
000710  f7fffffe          BL       GUI_UC_SetEncodeUTF8
000714  a187              ADR      r1,|L10.2356|
000716  4638              MOV      r0,r7                 ;472
000718  f7fffffe          BL       TEXT_SetText
                  |L10.1820|
00071c  f88a5008          STRB     r5,[r10,#8]           ;474
000720  e7dc              B        |L10.1756|
                  |L10.1826|
000722  4987              LDR      r1,|L10.2368|
000724  4638              MOV      r0,r7                 ;466
000726  f7fffffe          BL       TEXT_SetFont
00072a  f7fffffe          BL       GUI_UC_SetEncodeUTF8
00072e  a185              ADR      r1,|L10.2372|
000730  4638              MOV      r0,r7                 ;468
000732  f7fffffe          BL       TEXT_SetText
000736  e7f1              B        |L10.1820|
                  |L10.1848|
000738  4885              LDR      r0,|L10.2384|
00073a  8801              LDRH     r1,[r0,#0]            ;661  ; coff
00073c  ee001a10          VMOV     s0,r1                 ;661
000740  4976              LDR      r1,|L10.2332|
000742  eeb80a40          VCVT.F32.U32 s0,s0                 ;661
000746  eec00a0b          VDIV.F32 s1,s0,s22             ;661
00074a  ed910a00          VLDR     s0,[r1,#0]            ;661
00074e  eef40ac0          VCMPE.F32 s1,s0                 ;661
000752  eef1fa10          VMRS     APSR_nzcv,FPSCR       ;661
000756  d8c9              BHI      |L10.1772|
000758  8801              LDRH     r1,[r0,#0]            ;661  ; coff
00075a  2900              CMP      r1,#0                 ;661
00075c  d0c6              BEQ      |L10.1772|
00075e  8800              LDRH     r0,[r0,#0]            ;663  ; coff
000760  6070              STR      r0,[r6,#4]            ;663  ; Run_Control
000762  2002              MOVS     r0,#2                 ;665
000764  f88a000e          STRB     r0,[r10,#0xe]         ;665
000768  e38b              B        |L10.3714|
                  |L10.1898|
00076a  4879              LDR      r0,|L10.2384|
00076c  88c0              LDRH     r0,[r0,#6]            ;668  ; coff
00076e  ee000a10          VMOV     s0,r0                 ;668
000772  486d              LDR      r0,|L10.2344|
000774  eeb80a40          VCVT.F32.U32 s0,s0                 ;668
000778  eec00a2a          VDIV.F32 s1,s0,s21             ;668
00077c  ed900a00          VLDR     s0,[r0,#0]            ;668
000780  eef40ac0          VCMPE.F32 s1,s0                 ;668
000784  eef1fa10          VMRS     APSR_nzcv,FPSCR       ;668
000788  ddb0              BLE      |L10.1772|
00078a  4861              LDR      r0,|L10.2320|
00078c  f8d000a4          LDR      r0,[r0,#0xa4]         ;670  ; InFlashSave
000790  b180              CBZ      r0,|L10.1972|
000792  4970              LDR      r1,|L10.2388|
000794  8008              STRH     r0,[r1,#0]            ;682
000796  2102              MOVS     r1,#2                 ;683
000798  4658              MOV      r0,r11                ;683
00079a  f7fffffe          BL       GPIO_ResetBits
00079e  f44f5100          MOV      r1,#0x2000            ;684
0007a2  4658              MOV      r0,r11                ;684
0007a4  f7fffffe          BL       GPIO_SetBits
0007a8  485b              LDR      r0,|L10.2328|
0007aa  2107              MOVS     r1,#7                 ;685
0007ac  7001              STRB     r1,[r0,#0]            ;685
0007ae  f88a500f          STRB     r5,[r10,#0xf]         ;686
0007b2  e366              B        |L10.3714|
                  |L10.1972|
0007b4  2102              MOVS     r1,#2                 ;672
0007b6  4658              MOV      r0,r11                ;672
0007b8  f7fffffe          BL       GPIO_ResetBits
0007bc  f44f5100          MOV      r1,#0x2000            ;673
0007c0  4658              MOV      r0,r11                ;673
0007c2  f7fffffe          BL       GPIO_SetBits
0007c6  f8d6009c          LDR      r0,[r6,#0x9c]         ;674  ; Run_Control
0007ca  6130              STR      r0,[r6,#0x10]         ;674  ; Run_Control
0007cc  f44f6180          MOV      r1,#0x400             ;677
0007d0  4658              MOV      r0,r11                ;677
0007d2  f7fffffe          BL       GPIO_SetBits
0007d6  f44f4100          MOV      r1,#0x8000            ;678
0007da  485f              LDR      r0,|L10.2392|
0007dc  f7fffffe          BL       GPIO_ResetBits
0007e0  494d              LDR      r1,|L10.2328|
0007e2  2002              MOVS     r0,#2                 ;679
0007e4  7008              STRB     r0,[r1,#0]            ;679
0007e6  f88a500f          STRB     r5,[r10,#0xf]         ;680
0007ea  e34a              B        |L10.3714|
                  |L10.2028|
0007ec  f89a0007          LDRB     r0,[r10,#7]           ;716  ; cdc_sw
0007f0  2801              CMP      r0,#1                 ;716
0007f2  d005              BEQ      |L10.2048|
                  |L10.2036|
0007f4  f89a1009          LDRB     r1,[r10,#9]           ;865  ; pause_flag
0007f8  4650              MOV      r0,r10                ;865
0007fa  2901              CMP      r1,#1                 ;865
0007fc  d067              BEQ      |L10.2254|
0007fe  e207              B        |L10.3088|
                  |L10.2048|
000800  f88a500e          STRB     r5,[r10,#0xe]         ;717
000804  f6401113          MOV      r1,#0x913             ;718
000808  6860              LDR      r0,[r4,#4]            ;718
00080a  f7fffffe          BL       WM_GetDialogItem
00080e  a136              ADR      r1,|L10.2280|
000810  f7fffffe          BL       TEXT_SetText
000814  f640017f          MOV      r1,#0x87f             ;734
000818  6860              LDR      r0,[r4,#4]            ;734
00081a  f7fffffe          BL       WM_GetDialogItem
00081e  9002              STR      r0,[sp,#8]            ;734
000820  483e              LDR      r0,|L10.2332|
000822  6800              LDR      r0,[r0,#0]            ;735  ; DISS_Voltage
000824  f7fffffe          BL       __aeabi_f2d
000828  ec410b10          VMOV     d0,r0,r1              ;735
00082c  a13c              ADR      r1,|L10.2336|
00082e  ec532b10          VMOV     r2,r3,d0              ;735
000832  4668              MOV      r0,sp                 ;735
000834  f7fffffe          BL       __2sprintf
000838  4669              MOV      r1,sp                 ;736
00083a  9802              LDR      r0,[sp,#8]            ;736
00083c  f7fffffe          BL       TEXT_SetText
000840  f44f6108          MOV      r1,#0x880             ;738
000844  6860              LDR      r0,[r4,#4]            ;738
000846  f7fffffe          BL       WM_GetDialogItem
00084a  9002              STR      r0,[sp,#8]            ;738
00084c  4843              LDR      r0,|L10.2396|
00084e  6800              LDR      r0,[r0,#0]            ;739  ; DISS_Current
000850  f7fffffe          BL       __aeabi_f2d
000854  ec410b10          VMOV     d0,r0,r1              ;739
000858  a131              ADR      r1,|L10.2336|
00085a  ec532b10          VMOV     r2,r3,d0              ;739
00085e  4668              MOV      r0,sp                 ;739
000860  f7fffffe          BL       __2sprintf
000864  4669              MOV      r1,sp                 ;740
000866  9802              LDR      r0,[sp,#8]            ;740
000868  f7fffffe          BL       TEXT_SetText
00086c  483c              LDR      r0,|L10.2400|
00086e  ed900a00          VLDR     s0,[r0,#0]            ;742
000872  eebc0ac0          VCVT.U32.F32 s0,s0                 ;742
000876  ee100a10          VMOV     r0,s0                 ;742
00087a  f8c90000          STR      r0,[r9,#0]            ;742  ; battery_c
00087e  f6400181          MOV      r1,#0x881             ;743
000882  6860              LDR      r0,[r4,#4]            ;743
000884  f7fffffe          BL       WM_GetDialogItem
000888  9002              STR      r0,[sp,#8]            ;743
00088a  f8d92000          LDR      r2,[r9,#0]            ;744  ; battery_c
00088e  f2af31e0          ADR      r1,|L10.1200|
000892  4668              MOV      r0,sp                 ;744
000894  f7fffffe          BL       __2sprintf
000898  4669              MOV      r1,sp                 ;745
00089a  9802              LDR      r0,[sp,#8]            ;745
00089c  f7fffffe          BL       TEXT_SetText
0008a0  f640018a          MOV      r1,#0x88a             ;747
0008a4  6860              LDR      r0,[r4,#4]            ;747
0008a6  f7fffffe          BL       WM_GetDialogItem
0008aa  a10f              ADR      r1,|L10.2280|
0008ac  f7fffffe          BL       TEXT_SetText
0008b0  f6400182          MOV      r1,#0x882             ;750
0008b4  6860              LDR      r0,[r4,#4]            ;750
0008b6  f7fffffe          BL       WM_GetDialogItem
0008ba  4639              MOV      r1,r7                 ;751
0008bc  f7fffffe          BL       TEXT_SetTextColor
0008c0  f640018b          MOV      r1,#0x88b             ;753
0008c4  6860              LDR      r0,[r4,#4]            ;753
0008c6  f7fffffe          BL       WM_GetDialogItem
0008ca  4639              MOV      r1,r7                 ;754
0008cc  e04b              B        |L10.2406|
                  |L10.2254|
0008ce  e15f              B        |L10.2960|
                  |L10.2256|
                          DCD      GUI_Font24_1
                  |L10.2260|
                          DCD      lang
                  |L10.2264|
0008d8  e9948100          DCB      233,148,129,0
                  |L10.2268|
0008dc  e58585e7          DCB      229,133,133,231,148,181,230,144,129,231,189,174
0008e0  94b5e690
0008e4  81e7bdae
                  |L10.2280|
0008e8  00                DCB      0
0008e9  00                DCB      0
0008ea  00                DCB      0
0008eb  00                DCB      0
                  |L10.2284|
0008ec  e694bee7          DCB      230,148,190,231,148,181,230,144,129,231,189,174,0
0008f0  94b5e690
0008f4  81e7bdae
0008f8  00      
0008f9  00                DCB      0
0008fa  00                DCB      0
0008fb  00                DCB      0
                  |L10.2300|
0008fc  43484f4c          DCB      "CHOLD",0
000900  4400    
000902  00                DCB      0
000903  00                DCB      0
                  |L10.2308|
000904  4443484f          DCB      "DCHOLD",0
000908  4c4400  
00090b  00                DCB      0
                  |L10.2316|
                          DCD      set_sw
                  |L10.2320|
                          DCD      InFlashSave
                  |L10.2324|
000914  25356400          DCB      "%5d",0
                  |L10.2328|
                          DCD      mode_sw
                  |L10.2332|
                          DCD      DISS_Voltage
                  |L10.2336|
000920  252e3366          DCB      "%.3f",0
000924  00      
000925  00                DCB      0
000926  00                DCB      0
000927  00                DCB      0
                  |L10.2344|
                          DCD      DISS_POW_Current
                  |L10.2348|
                          DCD      cbc_raw
                  |L10.2352|
                          DCD      GUI_Font20_ASCII
                  |L10.2356|
000934  43686172          DCB      "Charging",0
000938  67696e67
00093c  00      
00093d  00                DCB      0
00093e  00                DCB      0
00093f  00                DCB      0
                  |L10.2368|
                          DCD      GUI_FontHZ16
                  |L10.2372|
000944  e58585e7          DCB      229,133,133,231,148,181,228,184,173,0
000948  94b5e4b8
00094c  ad00    
00094e  00                DCB      0
00094f  00                DCB      0
                  |L10.2384|
                          DCD      ||.bss||
                  |L10.2388|
                          DCD      gaptimecount
                  |L10.2392|
                          DCD      0x40020000
                  |L10.2396|
                          DCD      DISS_Current
                  |L10.2400|
                          DCD      bc_raw
                  |L10.2404|
000964  e2ad              B        |L10.3778|
                  |L10.2406|
000966  f7fffffe          BL       TEXT_SetTextColor
00096a  f6400183          MOV      r1,#0x883             ;756
00096e  6860              LDR      r0,[r4,#4]            ;756
000970  f7fffffe          BL       WM_GetDialogItem
000974  21ff              MOVS     r1,#0xff              ;757
000976  f7fffffe          BL       TEXT_SetTextColor
00097a  f89a0008          LDRB     r0,[r10,#8]           ;760  ; status_flash
00097e  b178              CBZ      r0,|L10.2464|
000980  f6400184          MOV      r1,#0x884             ;775
000984  6860              LDR      r0,[r4,#4]            ;775
000986  f7fffffe          BL       WM_GetDialogItem
00098a  f2af01a4          ADR      r1,|L10.2280|
00098e  f7fffffe          BL       TEXT_SetText
000992  f88a8008          STRB     r8,[r10,#8]           ;777
                  |L10.2454|
000996  f89a0009          LDRB     r0,[r10,#9]           ;779  ; pause_flag
00099a  2801              CMP      r0,#1                 ;779
00099c  d025              BEQ      |L10.2538|
00099e  e03f              B        |L10.2592|
                  |L10.2464|
0009a0  f6400184          MOV      r1,#0x884             ;761
0009a4  6860              LDR      r0,[r4,#4]            ;761
0009a6  f7fffffe          BL       WM_GetDialogItem
0009aa  4607              MOV      r7,r0                 ;761
0009ac  21ff              MOVS     r1,#0xff              ;762
0009ae  4638              MOV      r0,r7                 ;762
0009b0  f7fffffe          BL       TEXT_SetTextColor
0009b4  48fe              LDR      r0,|L10.3504|
0009b6  7800              LDRB     r0,[r0,#0]            ;763  ; lang
0009b8  b160              CBZ      r0,|L10.2516|
0009ba  49fe              LDR      r1,|L10.3508|
0009bc  4638              MOV      r0,r7                 ;769
0009be  f7fffffe          BL       TEXT_SetFont
0009c2  f7fffffe          BL       GUI_UC_SetEncodeUTF8
0009c6  a1fc              ADR      r1,|L10.3512|
0009c8  4638              MOV      r0,r7                 ;771
0009ca  f7fffffe          BL       TEXT_SetText
                  |L10.2510|
0009ce  f88a5008          STRB     r5,[r10,#8]           ;773
0009d2  e7e0              B        |L10.2454|
                  |L10.2516|
0009d4  49fb              LDR      r1,|L10.3524|
0009d6  4638              MOV      r0,r7                 ;765
0009d8  f7fffffe          BL       TEXT_SetFont
0009dc  f7fffffe          BL       GUI_UC_SetEncodeUTF8
0009e0  a1f9              ADR      r1,|L10.3528|
0009e2  4638              MOV      r0,r7                 ;767
0009e4  f7fffffe          BL       TEXT_SetText
0009e8  e7f1              B        |L10.2510|
                  |L10.2538|
0009ea  f44f4100          MOV      r1,#0x8000            ;781
0009ee  48f9              LDR      r0,|L10.3540|
0009f0  f7fffffe          BL       GPIO_SetBits
0009f4  f88a8007          STRB     r8,[r10,#7]           ;782
0009f8  f88a500a          STRB     r5,[r10,#0xa]         ;783
0009fc  f89a0001          LDRB     r0,[r10,#1]           ;785  ; minute
000a00  f89a1000          LDRB     r1,[r10,#0]           ;785  ; second
000a04  ebc01000          RSB      r0,r0,r0,LSL #4       ;785
000a08  eb010180          ADD      r1,r1,r0,LSL #2       ;785
000a0c  f89a0002          LDRB     r0,[r10,#2]           ;785  ; hour
000a10  ebc01240          RSB      r2,r0,r0,LSL #5       ;785
000a14  ebc22000          RSB      r0,r2,r0,LSL #8       ;785
000a18  eb011000          ADD      r0,r1,r0,LSL #4       ;785
000a1c  f8aa0014          STRH     r0,[r10,#0x14]        ;785
                  |L10.2592|
000a20  4fed              LDR      r7,|L10.3544|
000a22  ed970a00          VLDR     s0,[r7,#0]            ;788
000a26  eeb40ac9          VCMPE.F32 s0,s18                ;788
000a2a  eef1fa10          VMRS     APSR_nzcv,FPSCR       ;788
000a2e  d20c              BCS      |L10.2634|
000a30  f89a0006          LDRB     r0,[r10,#6]           ;788  ; cutoff_flag
000a34  b948              CBNZ     r0,|L10.2634|
000a36  f7fffffe          BL       GUI_GetTime
000a3a  f44f71fa          MOV      r1,#0x1f4             ;790
000a3e  fb90f0f1          SDIV     r0,r0,r1              ;790
000a42  f8aa0012          STRH     r0,[r10,#0x12]        ;790
000a46  f88a5006          STRB     r5,[r10,#6]           ;791
                  |L10.2634|
000a4a  ed970a00          VLDR     s0,[r7,#0]            ;794
000a4e  eeb40ac9          VCMPE.F32 s0,s18                ;794
000a52  eef1fa10          VMRS     APSR_nzcv,FPSCR       ;794
000a56  d25e              BCS      |L10.2838|
000a58  f7fffffe          BL       GUI_GetTime
000a5c  f44f71fa          MOV      r1,#0x1f4             ;794
000a60  fb90f0f1          SDIV     r0,r0,r1              ;794
000a64  f8ba1012          LDRH     r1,[r10,#0x12]        ;794  ; cutoff_time
000a68  1a40              SUBS     r0,r0,r1              ;794
000a6a  280a              CMP      r0,#0xa               ;794
000a6c  db53              BLT      |L10.2838|
000a6e  4fdb              LDR      r7,|L10.3548|
000a70  7838              LDRB     r0,[r7,#0]            ;796  ; mode_sw
000a72  2802              CMP      r0,#2                 ;796
000a74  d10b              BNE      |L10.2702|
000a76  f7fffffe          BL       GUI_GetTime
000a7a  f44f71fa          MOV      r1,#0x1f4             ;797
000a7e  fb90f0f1          SDIV     r0,r0,r1              ;797
000a82  67b0              STR      r0,[r6,#0x78]         ;797  ; Run_Control
000a84  f8ba0010          LDRH     r0,[r10,#0x10]        ;798  ; count
000a88  1c40              ADDS     r0,r0,#1              ;798
000a8a  f8aa0010          STRH     r0,[r10,#0x10]        ;798
                  |L10.2702|
000a8e  f44f4100          MOV      r1,#0x8000            ;802
000a92  48d0              LDR      r0,|L10.3540|
000a94  f7fffffe          BL       GPIO_SetBits
000a98  49d1              LDR      r1,|L10.3552|
000a9a  f8ba2010          LDRH     r2,[r10,#0x10]        ;803  ; count
000a9e  f8d100a0          LDR      r0,[r1,#0xa0]         ;803  ; InFlashSave
000aa2  4290              CMP      r0,r2                 ;803
000aa4  da38              BGE      |L10.2840|
000aa6  ee000a10          VMOV     s0,r0                 ;805
000aaa  48ce              LDR      r0,|L10.3556|
000aac  eeb80ac0          VCVT.F32.S32 s0,s0                 ;805
000ab0  edd00a00          VLDR     s1,[r0,#0]            ;805
000ab4  ee801a80          VDIV.F32 s2,s1,s0              ;805
000ab8  eebc0ac1          VCVT.U32.F32 s0,s2                 ;805
000abc  ee100a10          VMOV     r0,s0                 ;805
000ac0  f8c90000          STR      r0,[r9,#0]            ;805  ; battery_c
000ac4  f8aa5010          STRH     r5,[r10,#0x10]        ;806
000ac8  f88a8007          STRB     r8,[r10,#7]           ;807
000acc  f6400181          MOV      r1,#0x881             ;808
000ad0  6860              LDR      r0,[r4,#4]            ;808
000ad2  f7fffffe          BL       WM_GetDialogItem
000ad6  4606              MOV      r6,r0                 ;808
000ad8  f8d92000          LDR      r2,[r9,#0]            ;809  ; battery_c
000adc  f2af6130          ADR      r1,|L10.1200|
000ae0  4668              MOV      r0,sp                 ;809
000ae2  f7fffffe          BL       __2sprintf
000ae6  4669              MOV      r1,sp                 ;810
000ae8  4630              MOV      r0,r6                 ;810
000aea  f7fffffe          BL       TEXT_SetText
000aee  f6400184          MOV      r1,#0x884             ;812
000af2  6860              LDR      r0,[r4,#4]            ;812
000af4  f7fffffe          BL       WM_GetDialogItem
000af8  f2af2114          ADR      r1,|L10.2280|
000afc  f7fffffe          BL       TEXT_SetText
000b00  f640018c          MOV      r1,#0x88c             ;836
000b04  6860              LDR      r0,[r4,#4]            ;836
000b06  f7fffffe          BL       WM_GetDialogItem
000b0a  f2af2124          ADR      r1,|L10.2280|
000b0e  f7fffffe          BL       TEXT_SetText
000b12  f88a500f          STRB     r5,[r10,#0xf]         ;838
                  |L10.2838|
000b16  e1b4              B        |L10.3714|
                  |L10.2840|
000b18  f8d100a4          LDR      r0,[r1,#0xa4]         ;843  ; InFlashSave
000b1c  b168              CBZ      r0,|L10.2874|
000b1e  f8b100a8          LDRH     r0,[r1,#0xa8]         ;858  ; InFlashSave
000b22  49b1              LDR      r1,|L10.3560|
000b24  8008              STRH     r0,[r1,#0]            ;858
000b26  f44f4100          MOV      r1,#0x8000            ;859
000b2a  48aa              LDR      r0,|L10.3540|
000b2c  f7fffffe          BL       GPIO_SetBits
000b30  2008              MOVS     r0,#8                 ;860
000b32  7038              STRB     r0,[r7,#0]            ;860
000b34  f88a500f          STRB     r5,[r10,#0xf]         ;861
000b38  e1a3              B        |L10.3714|
                  |L10.2874|
000b3a  f44f4100          MOV      r1,#0x8000            ;845
000b3e  48a5              LDR      r0,|L10.3540|
000b40  f7fffffe          BL       GPIO_SetBits
000b44  f6400181          MOV      r1,#0x881             ;846
000b48  6860              LDR      r0,[r4,#4]            ;846
000b4a  f7fffffe          BL       WM_GetDialogItem
000b4e  9002              STR      r0,[sp,#8]            ;846
000b50  f8d92000          LDR      r2,[r9,#0]            ;847  ; battery_c
000b54  f2af61a8          ADR      r1,|L10.1200|
000b58  4668              MOV      r0,sp                 ;847
000b5a  f7fffffe          BL       __2sprintf
000b5e  4669              MOV      r1,sp                 ;848
000b60  9802              LDR      r0,[sp,#8]            ;848
000b62  f7fffffe          BL       TEXT_SetText
000b66  6ff0              LDR      r0,[r6,#0x7c]         ;849  ; Run_Control
000b68  6070              STR      r0,[r6,#4]            ;849  ; Run_Control
000b6a  f8d60088          LDR      r0,[r6,#0x88]         ;850  ; Run_Control
000b6e  60b0              STR      r0,[r6,#8]            ;850  ; Run_Control
000b70  f44f5100          MOV      r1,#0x2000            ;851
000b74  4658              MOV      r0,r11                ;851
000b76  f7fffffe          BL       GPIO_ResetBits
000b7a  2102              MOVS     r1,#2                 ;852
000b7c  4658              MOV      r0,r11                ;852
000b7e  f7fffffe          BL       GPIO_SetBits
000b82  2003              MOVS     r0,#3                 ;854
000b84  7038              STRB     r0,[r7,#0]            ;854
000b86  f88a8006          STRB     r8,[r10,#6]           ;855
000b8a  f88a500f          STRB     r5,[r10,#0xf]         ;856
000b8e  e178              B        |L10.3714|
                  |L10.2960|
000b90  f8d91000          LDR      r1,[r9,#0]            ;865  ; battery_c
000b94  b3d9              CBZ      r1,|L10.3086|
000b96  f640017f          MOV      r1,#0x87f             ;866
000b9a  6860              LDR      r0,[r4,#4]            ;866
000b9c  f7fffffe          BL       WM_GetDialogItem
000ba0  4605              MOV      r5,r0                 ;866
000ba2  ec532b18          VMOV     r2,r3,d8              ;867
000ba6  f2af2188          ADR      r1,|L10.2336|
000baa  4668              MOV      r0,sp                 ;867
000bac  f7fffffe          BL       __2sprintf
000bb0  4669              MOV      r1,sp                 ;868
000bb2  4628              MOV      r0,r5                 ;868
000bb4  f7fffffe          BL       TEXT_SetText
000bb8  f44f6108          MOV      r1,#0x880             ;870
000bbc  6860              LDR      r0,[r4,#4]            ;870
000bbe  f7fffffe          BL       WM_GetDialogItem
000bc2  4605              MOV      r5,r0                 ;870
000bc4  ec532b18          VMOV     r2,r3,d8              ;871
000bc8  f2af21ac          ADR      r1,|L10.2336|
000bcc  4668              MOV      r0,sp                 ;871
000bce  f7fffffe          BL       __2sprintf
000bd2  4669              MOV      r1,sp                 ;872
000bd4  4628              MOV      r0,r5                 ;872
000bd6  f7fffffe          BL       TEXT_SetText
000bda  f6400182          MOV      r1,#0x882             ;874
000bde  6860              LDR      r0,[r4,#4]            ;874
000be0  f7fffffe          BL       WM_GetDialogItem
000be4  4639              MOV      r1,r7                 ;875
000be6  f7fffffe          BL       TEXT_SetTextColor
000bea  f6400183          MOV      r1,#0x883             ;877
000bee  6860              LDR      r0,[r4,#4]            ;877
000bf0  f7fffffe          BL       WM_GetDialogItem
000bf4  4639              MOV      r1,r7                 ;878
000bf6  f7fffffe          BL       TEXT_SetTextColor
000bfa  f6400184          MOV      r1,#0x884             ;880
000bfe  6860              LDR      r0,[r4,#4]            ;880
000c00  f7fffffe          BL       WM_GetDialogItem
000c04  f2af3120          ADR      r1,|L10.2280|
000c08  f7fffffe          BL       TEXT_SetText
000c0c  e139              B        |L10.3714|
                  |L10.3086|
000c0e  e7ff              B        |L10.3088|
                  |L10.3088|
000c10  f8dfa1c8          LDR      r10,|L10.3548|
000c14  f89a1000          LDRB     r1,[r10,#0]           ;883  ; mode_sw
000c18  2907              CMP      r1,#7                 ;883
000c1a  d103              BNE      |L10.3108|
000c1c  4873              LDR      r0,|L10.3564|
000c1e  79c1              LDRB     r1,[r0,#7]            ;883  ; cdc_sw
000c20  2901              CMP      r1,#1                 ;883
000c22  d004              BEQ      |L10.3118|
                  |L10.3108|
000c24  496d              LDR      r1,|L10.3548|
000c26  7809              LDRB     r1,[r1,#0]            ;911  ; mode_sw
000c28  2908              CMP      r1,#8                 ;911
000c2a  d048              BEQ      |L10.3262|
000c2c  e04b              B        |L10.3270|
                  |L10.3118|
000c2e  f6400182          MOV      r1,#0x882             ;884
000c32  6860              LDR      r0,[r4,#4]            ;884
000c34  f7fffffe          BL       WM_GetDialogItem
000c38  4639              MOV      r1,r7                 ;885
000c3a  f7fffffe          BL       TEXT_SetTextColor
000c3e  f640018b          MOV      r1,#0x88b             ;887
000c42  6860              LDR      r0,[r4,#4]            ;887
000c44  f7fffffe          BL       WM_GetDialogItem
000c48  21ff              MOVS     r1,#0xff              ;888
000c4a  f7fffffe          BL       TEXT_SetTextColor
000c4e  f6400183          MOV      r1,#0x883             ;890
000c52  6860              LDR      r0,[r4,#4]            ;890
000c54  f7fffffe          BL       WM_GetDialogItem
000c58  4639              MOV      r1,r7                 ;891
000c5a  f7fffffe          BL       TEXT_SetTextColor
000c5e  f640018a          MOV      r1,#0x88a             ;894
000c62  6860              LDR      r0,[r4,#4]            ;894
000c64  f7fffffe          BL       WM_GetDialogItem
000c68  4680              MOV      r8,r0                 ;894
000c6a  f44f417f          MOV      r1,#0xff00            ;895
000c6e  4640              MOV      r0,r8                 ;895
000c70  f7fffffe          BL       TEXT_SetTextColor
000c74  4f5c              LDR      r7,|L10.3560|
000c76  883a              LDRH     r2,[r7,#0]            ;896  ; gaptimecount
000c78  f2af3168          ADR      r1,|L10.2324|
000c7c  4668              MOV      r0,sp                 ;896
000c7e  f7fffffe          BL       __2sprintf
000c82  495b              LDR      r1,|L10.3568|
000c84  4640              MOV      r0,r8                 ;897
000c86  f7fffffe          BL       TEXT_SetFont
000c8a  4669              MOV      r1,sp                 ;898
000c8c  4640              MOV      r0,r8                 ;898
000c8e  f7fffffe          BL       TEXT_SetText
000c92  8838              LDRH     r0,[r7,#0]            ;900  ; gaptimecount
000c94  2800              CMP      r0,#0                 ;900
000c96  d111              BNE      |L10.3260|
000c98  f8d6009c          LDR      r0,[r6,#0x9c]         ;902  ; Run_Control
000c9c  6130              STR      r0,[r6,#0x10]         ;902  ; Run_Control
000c9e  f44f6180          MOV      r1,#0x400             ;905
000ca2  4658              MOV      r0,r11                ;905
000ca4  f7fffffe          BL       GPIO_SetBits
000ca8  f44f4100          MOV      r1,#0x8000            ;906
000cac  4849              LDR      r0,|L10.3540|
000cae  f7fffffe          BL       GPIO_ResetBits
000cb2  2002              MOVS     r0,#2                 ;907
000cb4  f88a0000          STRB     r0,[r10,#0]           ;907
000cb8  484c              LDR      r0,|L10.3564|
000cba  73c5              STRB     r5,[r0,#0xf]          ;908
                  |L10.3260|
000cbc  e0e1              B        |L10.3714|
                  |L10.3262|
000cbe  79c1              LDRB     r1,[r0,#7]            ;911  ; cdc_sw
000cc0  4682              MOV      r10,r0                ;911
000cc2  2901              CMP      r1,#1                 ;911
000cc4  d003              BEQ      |L10.3278|
                  |L10.3270|
000cc6  4606              MOV      r6,r0                 ;942
000cc8  79c0              LDRB     r0,[r0,#7]            ;942  ; cdc_sw
000cca  b3e8              CBZ      r0,|L10.3400|
000ccc  e0d9              B        |L10.3714|
                  |L10.3278|
000cce  f6400182          MOV      r1,#0x882             ;912
000cd2  6860              LDR      r0,[r4,#4]            ;912
000cd4  f7fffffe          BL       WM_GetDialogItem
000cd8  4639              MOV      r1,r7                 ;913
000cda  f7fffffe          BL       TEXT_SetTextColor
000cde  f640018b          MOV      r1,#0x88b             ;915
000ce2  6860              LDR      r0,[r4,#4]            ;915
000ce4  f7fffffe          BL       WM_GetDialogItem
000ce8  21ff              MOVS     r1,#0xff              ;916
000cea  f7fffffe          BL       TEXT_SetTextColor
000cee  f6400183          MOV      r1,#0x883             ;918
000cf2  6860              LDR      r0,[r4,#4]            ;918
000cf4  f7fffffe          BL       WM_GetDialogItem
000cf8  4639              MOV      r1,r7                 ;919
000cfa  f7fffffe          BL       TEXT_SetTextColor
000cfe  f640018a          MOV      r1,#0x88a             ;921
000d02  6860              LDR      r0,[r4,#4]            ;921
000d04  f7fffffe          BL       WM_GetDialogItem
000d08  9002              STR      r0,[sp,#8]            ;921
000d0a  f44f417f          MOV      r1,#0xff00            ;922
000d0e  9802              LDR      r0,[sp,#8]            ;922
000d10  f7fffffe          BL       TEXT_SetTextColor
000d14  4f34              LDR      r7,|L10.3560|
000d16  883a              LDRH     r2,[r7,#0]            ;923  ; gaptimecount
000d18  f2af4108          ADR      r1,|L10.2324|
000d1c  4668              MOV      r0,sp                 ;923
000d1e  f7fffffe          BL       __2sprintf
000d22  4933              LDR      r1,|L10.3568|
000d24  9802              LDR      r0,[sp,#8]            ;924
000d26  f7fffffe          BL       TEXT_SetFont
000d2a  4669              MOV      r1,sp                 ;925
000d2c  9802              LDR      r0,[sp,#8]            ;925
000d2e  f7fffffe          BL       TEXT_SetText
000d32  8838              LDRH     r0,[r7,#0]            ;927  ; gaptimecount
000d34  bb48              CBNZ     r0,|L10.3466|
000d36  f6400181          MOV      r1,#0x881             ;929
000d3a  6860              LDR      r0,[r4,#4]            ;929
000d3c  f7fffffe          BL       WM_GetDialogItem
000d40  4607              MOV      r7,r0                 ;929
000d42  f8d92000          LDR      r2,[r9,#0]            ;930  ; battery_c
000d46  e000              B        |L10.3402|
                  |L10.3400|
000d48  e020              B        |L10.3468|
                  |L10.3402|
000d4a  f6af019c          ADR      r1,|L10.1200|
000d4e  4668              MOV      r0,sp                 ;930
000d50  f7fffffe          BL       __2sprintf
000d54  4669              MOV      r1,sp                 ;931
000d56  4638              MOV      r0,r7                 ;931
000d58  f7fffffe          BL       TEXT_SetText
000d5c  6ff0              LDR      r0,[r6,#0x7c]         ;932  ; Run_Control
000d5e  6070              STR      r0,[r6,#4]            ;932  ; Run_Control
000d60  f8d60088          LDR      r0,[r6,#0x88]         ;933  ; Run_Control
000d64  60b0              STR      r0,[r6,#8]            ;933  ; Run_Control
000d66  f44f5100          MOV      r1,#0x2000            ;934
000d6a  4658              MOV      r0,r11                ;934
000d6c  f7fffffe          BL       GPIO_ResetBits
000d70  2102              MOVS     r1,#2                 ;935
000d72  4658              MOV      r0,r11                ;935
000d74  f7fffffe          BL       GPIO_SetBits
000d78  481e              LDR      r0,|L10.3572|
000d7a  7005              STRB     r5,[r0,#0]            ;936
000d7c  4917              LDR      r1,|L10.3548|
000d7e  2003              MOVS     r0,#3                 ;938
000d80  7008              STRB     r0,[r1,#0]            ;938
000d82  f88a8006          STRB     r8,[r10,#6]           ;939
000d86  f88a500f          STRB     r5,[r10,#0xf]         ;940
                  |L10.3466|
000d8a  e07a              B        |L10.3714|
                  |L10.3468|
000d8c  f640017f          MOV      r1,#0x87f             ;943
000d90  6860              LDR      r0,[r4,#4]            ;943
000d92  f7fffffe          BL       WM_GetDialogItem
000d96  4680              MOV      r8,r0                 ;943
000d98  ec532b18          VMOV     r2,r3,d8              ;944
000d9c  f2af4180          ADR      r1,|L10.2336|
000da0  4668              MOV      r0,sp                 ;944
000da2  f7fffffe          BL       __2sprintf
000da6  4669              MOV      r1,sp                 ;945
000da8  4640              MOV      r0,r8                 ;945
000daa  f7fffffe          BL       TEXT_SetText
000dae  e023              B        |L10.3576|
                  |L10.3504|
                          DCD      lang
                  |L10.3508|
                          DCD      GUI_Font20_ASCII
                  |L10.3512|
000db8  44697363          DCB      "Discharging",0
000dbc  68617267
000dc0  696e6700
                  |L10.3524|
                          DCD      GUI_FontHZ16
                  |L10.3528|
000dc8  e694bee7          DCB      230,148,190,231,148,181,228,184,173,0
000dcc  94b5e4b8
000dd0  ad00    
000dd2  00                DCB      0
000dd3  00                DCB      0
                  |L10.3540|
                          DCD      0x40020000
                  |L10.3544|
                          DCD      DISS_Voltage
                  |L10.3548|
                          DCD      mode_sw
                  |L10.3552|
                          DCD      InFlashSave
                  |L10.3556|
                          DCD      bc_raw
                  |L10.3560|
                          DCD      gaptimecount
                  |L10.3564|
                          DCD      ||area_number.18||
                  |L10.3568|
                          DCD      GUI_Font24_1
                  |L10.3572|
                          DCD      flag_pow
                  |L10.3576|
000df8  f44f6108          MOV      r1,#0x880             ;947
000dfc  6860              LDR      r0,[r4,#4]            ;947
000dfe  f7fffffe          BL       WM_GetDialogItem
000e02  4680              MOV      r8,r0                 ;947
000e04  ec532b18          VMOV     r2,r3,d8              ;948
000e08  f2af41ec          ADR      r1,|L10.2336|
000e0c  4668              MOV      r0,sp                 ;948
000e0e  f7fffffe          BL       __2sprintf
000e12  4669              MOV      r1,sp                 ;949
000e14  4640              MOV      r0,r8                 ;949
000e16  f7fffffe          BL       TEXT_SetText
000e1a  f6401113          MOV      r1,#0x913             ;951
000e1e  6860              LDR      r0,[r4,#4]            ;951
000e20  f7fffffe          BL       WM_GetDialogItem
000e24  f2af5140          ADR      r1,|L10.2280|
000e28  f7fffffe          BL       TEXT_SetText
000e2c  f6400182          MOV      r1,#0x882             ;954
000e30  6860              LDR      r0,[r4,#4]            ;954
000e32  f7fffffe          BL       WM_GetDialogItem
000e36  4639              MOV      r1,r7                 ;955
000e38  f7fffffe          BL       TEXT_SetTextColor
000e3c  f640018b          MOV      r1,#0x88b             ;957
000e40  6860              LDR      r0,[r4,#4]            ;957
000e42  f7fffffe          BL       WM_GetDialogItem
000e46  4639              MOV      r1,r7                 ;958
000e48  f7fffffe          BL       TEXT_SetTextColor
000e4c  f6400183          MOV      r1,#0x883             ;960
000e50  6860              LDR      r0,[r4,#4]            ;960
000e52  f7fffffe          BL       WM_GetDialogItem
000e56  4639              MOV      r1,r7                 ;961
000e58  f7fffffe          BL       TEXT_SetTextColor
000e5c  f6400184          MOV      r1,#0x884             ;963
000e60  6860              LDR      r0,[r4,#4]            ;963
000e62  f7fffffe          BL       WM_GetDialogItem
000e66  f2af5180          ADR      r1,|L10.2280|
000e6a  f7fffffe          BL       TEXT_SetText
000e6e  f640018a          MOV      r1,#0x88a             ;966
000e72  6860              LDR      r0,[r4,#4]            ;966
000e74  f7fffffe          BL       WM_GetDialogItem
000e78  f2af5194          ADR      r1,|L10.2280|
000e7c  f7fffffe          BL       TEXT_SetText
000e80  8235              STRH     r5,[r6,#0x10]         ;969
                  |L10.3714|
000e82  f6401114          MOV      r1,#0x914             ;971
000e86  6860              LDR      r0,[r4,#4]            ;971
000e88  f7fffffe          BL       WM_GetDialogItem
000e8c  4605              MOV      r5,r0                 ;971
000e8e  48fe              LDR      r0,|L10.4744|
000e90  6800              LDR      r0,[r0,#0]            ;972  ; temp
000e92  f7fffffe          BL       __aeabi_f2d
000e96  ec410b10          VMOV     d0,r0,r1              ;972
000e9a  a1fc              ADR      r1,|L10.4748|
000e9c  ec532b10          VMOV     r2,r3,d0              ;972
000ea0  4668              MOV      r0,sp                 ;972
000ea2  f7fffffe          BL       __2sprintf
000ea6  4669              MOV      r1,sp                 ;973
000ea8  4628              MOV      r0,r5                 ;973
000eaa  f7fffffe          BL       TEXT_SetText
000eae  f24011f1          MOV      r1,#0x1f1             ;975
000eb2  68e0              LDR      r0,[r4,#0xc]          ;975
000eb4  f7fffffe          BL       WM_RestartTimer
000eb8  b003              ADD      sp,sp,#0xc
000eba  ecbd8b0a          VPOP     {d8-d12}
000ebe  e8bd8ff0          POP      {r4-r11,pc}
                  |L10.3778|
000ec2  6865              LDR      r5,[r4,#4]            ;985
000ec4  2100              MOVS     r1,#0                 ;986
000ec6  4628              MOV      r0,r5                 ;986
000ec8  f7fffffe          BL       WINDOW_SetBkColor
000ecc  2300              MOVS     r3,#0                 ;987
000ece  f44f72fa          MOV      r2,#0x1f4             ;987
000ed2  2105              MOVS     r1,#5                 ;987
000ed4  4628              MOV      r0,r5                 ;987
000ed6  f7fffffe          BL       WM_CreateTimer
000eda  f640113e          MOV      r1,#0x93e             ;989
000ede  6860              LDR      r0,[r4,#4]            ;989
000ee0  f7fffffe          BL       WM_GetDialogItem
000ee4  4605              MOV      r5,r0                 ;989
000ee6  21ff              MOVS     r1,#0xff              ;990
000ee8  4628              MOV      r0,r5                 ;990
000eea  f7fffffe          BL       TEXT_SetTextColor
000eee  49e9              LDR      r1,|L10.4756|
000ef0  4628              MOV      r0,r5                 ;991
000ef2  f7fffffe          BL       TEXT_SetFont
000ef6  a1e6              ADR      r1,|L10.4752|
000ef8  4628              MOV      r0,r5                 ;992
000efa  f7fffffe          BL       TEXT_SetText
000efe  4de6              LDR      r5,|L10.4760|
000f00  7828              LDRB     r0,[r5,#0]            ;994  ; lang
000f02  f640012c          MOV      r1,#0x82c             ;996
000f06  1c4e              ADDS     r6,r1,#1              ;1002
000f08  f640092e          MOV      r9,#0x82e             ;1008
000f0c  f6400a2f          MOV      r10,#0x82f            ;1014
000f10  f44f6b03          MOV      r11,#0x830            ;1021
000f14  2800              CMP      r0,#0                 ;994
000f16  d07d              BEQ      |L10.4116|
000f18  6860              LDR      r0,[r4,#4]            ;1027
000f1a  f7fffffe          BL       WM_GetDialogItem
000f1e  9002              STR      r0,[sp,#8]            ;1027
000f20  2200              MOVS     r2,#0                 ;1028
000f22  4611              MOV      r1,r2                 ;1028
000f24  9802              LDR      r0,[sp,#8]            ;1028
000f26  f7fffffe          BL       BUTTON_SetTextColor
000f2a  49dc              LDR      r1,|L10.4764|
000f2c  9802              LDR      r0,[sp,#8]            ;1029
000f2e  f7fffffe          BL       BUTTON_SetFont
000f32  f7fffffe          BL       GUI_UC_SetEncodeUTF8
000f36  a1da              ADR      r1,|L10.4768|
000f38  9802              LDR      r0,[sp,#8]            ;1031
000f3a  f7fffffe          BL       BUTTON_SetText
000f3e  4631              MOV      r1,r6                 ;1033
000f40  6860              LDR      r0,[r4,#4]            ;1033
000f42  f7fffffe          BL       WM_GetDialogItem
000f46  4606              MOV      r6,r0                 ;1033
000f48  2200              MOVS     r2,#0                 ;1034
000f4a  4611              MOV      r1,r2                 ;1034
000f4c  4630              MOV      r0,r6                 ;1034
000f4e  f7fffffe          BL       BUTTON_SetTextColor
000f52  49d2              LDR      r1,|L10.4764|
000f54  4630              MOV      r0,r6                 ;1035
000f56  f7fffffe          BL       BUTTON_SetFont
000f5a  f7fffffe          BL       GUI_UC_SetEncodeUTF8
000f5e  a1d3              ADR      r1,|L10.4780|
000f60  4630              MOV      r0,r6                 ;1037
000f62  f7fffffe          BL       BUTTON_SetText
000f66  4649              MOV      r1,r9                 ;1039
000f68  6860              LDR      r0,[r4,#4]            ;1039
000f6a  f7fffffe          BL       WM_GetDialogItem
000f6e  4606              MOV      r6,r0                 ;1039
000f70  2200              MOVS     r2,#0                 ;1040
000f72  4611              MOV      r1,r2                 ;1040
000f74  4630              MOV      r0,r6                 ;1040
000f76  f7fffffe          BL       BUTTON_SetTextColor
000f7a  49c8              LDR      r1,|L10.4764|
000f7c  4630              MOV      r0,r6                 ;1041
000f7e  f7fffffe          BL       BUTTON_SetFont
000f82  f7fffffe          BL       GUI_UC_SetEncodeUTF8
000f86  a1cb              ADR      r1,|L10.4788|
000f88  4630              MOV      r0,r6                 ;1043
000f8a  f7fffffe          BL       BUTTON_SetText
000f8e  4651              MOV      r1,r10                ;1045
000f90  6860              LDR      r0,[r4,#4]            ;1045
000f92  f7fffffe          BL       WM_GetDialogItem
000f96  4606              MOV      r6,r0                 ;1045
000f98  2101              MOVS     r1,#1                 ;1046
000f9a  4630              MOV      r0,r6                 ;1046
000f9c  f7fffffe          BL       BUTTON_SetPressed
000fa0  2200              MOVS     r2,#0                 ;1047
000fa2  4611              MOV      r1,r2                 ;1047
000fa4  4630              MOV      r0,r6                 ;1047
000fa6  f7fffffe          BL       BUTTON_SetTextColor
000faa  49bc              LDR      r1,|L10.4764|
000fac  4630              MOV      r0,r6                 ;1048
000fae  f7fffffe          BL       BUTTON_SetFont
000fb2  f7fffffe          BL       GUI_UC_SetEncodeUTF8
000fb6  a1c1              ADR      r1,|L10.4796|
000fb8  4630              MOV      r0,r6                 ;1050
000fba  f7fffffe          BL       BUTTON_SetText
000fbe  4659              MOV      r1,r11                ;1052
000fc0  6860              LDR      r0,[r4,#4]            ;1052
000fc2  f7fffffe          BL       WM_GetDialogItem
000fc6  4606              MOV      r6,r0                 ;1052
000fc8  2200              MOVS     r2,#0                 ;1053
000fca  4611              MOV      r1,r2                 ;1053
000fcc  4630              MOV      r0,r6                 ;1053
000fce  f7fffffe          BL       BUTTON_SetTextColor
000fd2  49b2              LDR      r1,|L10.4764|
000fd4  4630              MOV      r0,r6                 ;1054
000fd6  f7fffffe          BL       BUTTON_SetFont
000fda  f7fffffe          BL       GUI_UC_SetEncodeUTF8
000fde  a1b9              ADR      r1,|L10.4804|
000fe0  4630              MOV      r0,r6                 ;1056
000fe2  f7fffffe          BL       BUTTON_SetText
                  |L10.4070|
000fe6  f6400131          MOV      r1,#0x831             ;1059
000fea  6860              LDR      r0,[r4,#4]            ;1059
000fec  f7fffffe          BL       WM_GetDialogItem
000ff0  4606              MOV      r6,r0                 ;1059
000ff2  4641              MOV      r1,r8                 ;1060
000ff4  4630              MOV      r0,r6                 ;1060
000ff6  f7fffffe          BL       TEXT_SetTextColor
000ffa  49b4              LDR      r1,|L10.4812|
000ffc  4630              MOV      r0,r6                 ;1061
000ffe  f7fffffe          BL       TEXT_SetFont
001002  f7fffffe          BL       GUI_UC_SetEncodeUTF8
001006  a1b2              ADR      r1,|L10.4816|
001008  4630              MOV      r0,r6                 ;1063
00100a  f7fffffe          BL       TEXT_SetText
00100e  f6400132          MOV      r1,#0x832             ;1065
001012  e000              B        |L10.4118|
                  |L10.4116|
001014  e0eb              B        |L10.4590|
                  |L10.4118|
001016  6860              LDR      r0,[r4,#4]            ;1065
001018  f7fffffe          BL       WM_GetDialogItem
00101c  4606              MOV      r6,r0                 ;1065
00101e  4641              MOV      r1,r8                 ;1066
001020  4630              MOV      r0,r6                 ;1066
001022  f7fffffe          BL       TEXT_SetTextColor
001026  49a9              LDR      r1,|L10.4812|
001028  4630              MOV      r0,r6                 ;1067
00102a  f7fffffe          BL       TEXT_SetFont
00102e  f7fffffe          BL       GUI_UC_SetEncodeUTF8
001032  a1a8              ADR      r1,|L10.4820|
001034  4630              MOV      r0,r6                 ;1069
001036  f7fffffe          BL       TEXT_SetText
00103a  f6400133          MOV      r1,#0x833             ;1071
00103e  6860              LDR      r0,[r4,#4]            ;1071
001040  f7fffffe          BL       WM_GetDialogItem
001044  4606              MOV      r6,r0                 ;1071
001046  4641              MOV      r1,r8                 ;1072
001048  4630              MOV      r0,r6                 ;1072
00104a  f7fffffe          BL       TEXT_SetTextColor
00104e  499f              LDR      r1,|L10.4812|
001050  4630              MOV      r0,r6                 ;1073
001052  f7fffffe          BL       TEXT_SetFont
001056  f7fffffe          BL       GUI_UC_SetEncodeUTF8
00105a  a19f              ADR      r1,|L10.4824|
00105c  4630              MOV      r0,r6                 ;1075
00105e  f7fffffe          BL       TEXT_SetText
001062  f6400134          MOV      r1,#0x834             ;1077
001066  6860              LDR      r0,[r4,#4]            ;1077
001068  f7fffffe          BL       WM_GetDialogItem
00106c  4606              MOV      r6,r0                 ;1077
00106e  4641              MOV      r1,r8                 ;1078
001070  4630              MOV      r0,r6                 ;1078
001072  f7fffffe          BL       TEXT_SetTextColor
001076  4995              LDR      r1,|L10.4812|
001078  4630              MOV      r0,r6                 ;1079
00107a  f7fffffe          BL       TEXT_SetFont
00107e  f7fffffe          BL       GUI_UC_SetEncodeUTF8
001082  a196              ADR      r1,|L10.4828|
001084  4630              MOV      r0,r6                 ;1081
001086  f7fffffe          BL       TEXT_SetText
00108a  7828              LDRB     r0,[r5,#0]            ;1083  ; lang
00108c  4e94              LDR      r6,|L10.4832|
00108e  f640016f          MOV      r1,#0x86f             ;1085
001092  f44f6807          MOV      r8,#0x870             ;1092
001096  f6400977          MOV      r9,#0x877             ;1098
00109a  f6400a78          MOV      r10,#0x878            ;1104
00109e  f6400b71          MOV      r11,#0x871            ;1110
0010a2  2800              CMP      r0,#0                 ;1083
0010a4  d07e              BEQ      |L10.4516|
0010a6  6860              LDR      r0,[r4,#4]            ;1147
0010a8  f7fffffe          BL       WM_GetDialogItem
0010ac  9002              STR      r0,[sp,#8]            ;1147
0010ae  2100              MOVS     r1,#0                 ;1148
0010b0  9802              LDR      r0,[sp,#8]            ;1148
0010b2  f7fffffe          BL       TEXT_SetTextColor
0010b6  4631              MOV      r1,r6                 ;1149
0010b8  9802              LDR      r0,[sp,#8]            ;1149
0010ba  f7fffffe          BL       TEXT_SetBkColor
0010be  4989              LDR      r1,|L10.4836|
0010c0  9802              LDR      r0,[sp,#8]            ;1150
0010c2  f7fffffe          BL       TEXT_SetFont
0010c6  f7fffffe          BL       GUI_UC_SetEncodeUTF8
0010ca  a187              ADR      r1,|L10.4840|
0010cc  9802              LDR      r0,[sp,#8]            ;1152
0010ce  f7fffffe          BL       TEXT_SetText
0010d2  4641              MOV      r1,r8                 ;1154
0010d4  6860              LDR      r0,[r4,#4]            ;1154
0010d6  f7fffffe          BL       WM_GetDialogItem
0010da  4606              MOV      r6,r0                 ;1154
0010dc  4639              MOV      r1,r7                 ;1155
0010de  4630              MOV      r0,r6                 ;1155
0010e0  f7fffffe          BL       TEXT_SetTextColor
0010e4  497f              LDR      r1,|L10.4836|
0010e6  4630              MOV      r0,r6                 ;1156
0010e8  f7fffffe          BL       TEXT_SetFont
0010ec  f7fffffe          BL       GUI_UC_SetEncodeUTF8
0010f0  a180              ADR      r1,|L10.4852|
0010f2  4630              MOV      r0,r6                 ;1158
0010f4  f7fffffe          BL       TEXT_SetText
0010f8  4649              MOV      r1,r9                 ;1160
0010fa  6860              LDR      r0,[r4,#4]            ;1160
0010fc  f7fffffe          BL       WM_GetDialogItem
001100  4606              MOV      r6,r0                 ;1160
001102  4639              MOV      r1,r7                 ;1161
001104  4630              MOV      r0,r6                 ;1161
001106  f7fffffe          BL       TEXT_SetTextColor
00110a  4976              LDR      r1,|L10.4836|
00110c  4630              MOV      r0,r6                 ;1162
00110e  f7fffffe          BL       TEXT_SetFont
001112  f7fffffe          BL       GUI_UC_SetEncodeUTF8
001116  a17a              ADR      r1,|L10.4864|
001118  4630              MOV      r0,r6                 ;1164
00111a  f7fffffe          BL       TEXT_SetText
00111e  4651              MOV      r1,r10                ;1166
001120  6860              LDR      r0,[r4,#4]            ;1166
001122  f7fffffe          BL       WM_GetDialogItem
001126  4606              MOV      r6,r0                 ;1166
001128  4639              MOV      r1,r7                 ;1167
00112a  4630              MOV      r0,r6                 ;1167
00112c  f7fffffe          BL       TEXT_SetTextColor
001130  496c              LDR      r1,|L10.4836|
001132  4630              MOV      r0,r6                 ;1168
001134  f7fffffe          BL       TEXT_SetFont
001138  f7fffffe          BL       GUI_UC_SetEncodeUTF8
00113c  a173              ADR      r1,|L10.4876|
00113e  4630              MOV      r0,r6                 ;1170
001140  f7fffffe          BL       TEXT_SetText
001144  4659              MOV      r1,r11                ;1172
001146  6860              LDR      r0,[r4,#4]            ;1172
001148  f7fffffe          BL       WM_GetDialogItem
00114c  4606              MOV      r6,r0                 ;1172
00114e  4639              MOV      r1,r7                 ;1173
001150  4630              MOV      r0,r6                 ;1173
001152  f7fffffe          BL       TEXT_SetTextColor
001156  4963              LDR      r1,|L10.4836|
001158  4630              MOV      r0,r6                 ;1174
00115a  f7fffffe          BL       TEXT_SetFont
00115e  f7fffffe          BL       GUI_UC_SetEncodeUTF8
001162  a16d              ADR      r1,|L10.4888|
001164  4630              MOV      r0,r6                 ;1176
001166  f7fffffe          BL       TEXT_SetText
00116a  f6400179          MOV      r1,#0x879             ;1178
00116e  6860              LDR      r0,[r4,#4]            ;1178
001170  f7fffffe          BL       WM_GetDialogItem
001174  4606              MOV      r6,r0                 ;1178
001176  4639              MOV      r1,r7                 ;1179
001178  4630              MOV      r0,r6                 ;1179
00117a  f7fffffe          BL       TEXT_SetTextColor
00117e  4959              LDR      r1,|L10.4836|
001180  4630              MOV      r0,r6                 ;1180
001182  f7fffffe          BL       TEXT_SetFont
001186  f7fffffe          BL       GUI_UC_SetEncodeUTF8
00118a  a15d              ADR      r1,|L10.4864|
00118c  4630              MOV      r0,r6                 ;1182
00118e  f7fffffe          BL       TEXT_SetText
001192  f6400172          MOV      r1,#0x872             ;1190
001196  6860              LDR      r0,[r4,#4]            ;1190
001198  f7fffffe          BL       WM_GetDialogItem
00119c  4606              MOV      r6,r0                 ;1190
00119e  4639              MOV      r1,r7                 ;1191
0011a0  4630              MOV      r0,r6                 ;1191
0011a2  e000              B        |L10.4518|
                  |L10.4516|
0011a4  e0fa              B        |L10.5020|
                  |L10.4518|
0011a6  f7fffffe          BL       TEXT_SetTextColor
0011aa  494e              LDR      r1,|L10.4836|
0011ac  4630              MOV      r0,r6                 ;1192
0011ae  f7fffffe          BL       TEXT_SetFont
0011b2  f7fffffe          BL       GUI_UC_SetEncodeUTF8
0011b6  a15a              ADR      r1,|L10.4896|
0011b8  4630              MOV      r0,r6                 ;1194
0011ba  f7fffffe          BL       TEXT_SetText
0011be  f6401143          MOV      r1,#0x943             ;1196
0011c2  6860              LDR      r0,[r4,#4]            ;1196
0011c4  f7fffffe          BL       WM_GetDialogItem
0011c8  4606              MOV      r6,r0                 ;1196
0011ca  4639              MOV      r1,r7                 ;1197
0011cc  4630              MOV      r0,r6                 ;1197
0011ce  f7fffffe          BL       TEXT_SetTextColor
0011d2  4944              LDR      r1,|L10.4836|
0011d4  4630              MOV      r0,r6                 ;1198
0011d6  f7fffffe          BL       TEXT_SetFont
0011da  f7fffffe          BL       GUI_UC_SetEncodeUTF8
0011de  4852              LDR      r0,|L10.4904|
0011e0  7ac1              LDRB     r1,[r0,#0xb]          ;1200  ; gapmode
0011e2  2900              CMP      r1,#0                 ;1200
0011e4  d04e              BEQ      |L10.4740|
0011e6  7ac0              LDRB     r0,[r0,#0xb]          ;1203  ; gapmode
0011e8  2801              CMP      r0,#1                 ;1203
0011ea  d04c              BEQ      |L10.4742|
0011ec  e18e              B        |L10.5388|
                  |L10.4590|
0011ee  6860              LDR      r0,[r4,#4]            ;996
0011f0  f7fffffe          BL       WM_GetDialogItem
0011f4  9002              STR      r0,[sp,#8]            ;996
0011f6  2200              MOVS     r2,#0                 ;997
0011f8  4611              MOV      r1,r2                 ;997
0011fa  9802              LDR      r0,[sp,#8]            ;997
0011fc  f7fffffe          BL       BUTTON_SetTextColor
001200  494a              LDR      r1,|L10.4908|
001202  9802              LDR      r0,[sp,#8]            ;998
001204  f7fffffe          BL       BUTTON_SetFont
001208  f7fffffe          BL       GUI_UC_SetEncodeUTF8
00120c  a148              ADR      r1,|L10.4912|
00120e  9802              LDR      r0,[sp,#8]            ;1000
001210  f7fffffe          BL       BUTTON_SetText
001214  4631              MOV      r1,r6                 ;1002
001216  6860              LDR      r0,[r4,#4]            ;1002
001218  f7fffffe          BL       WM_GetDialogItem
00121c  4606              MOV      r6,r0                 ;1002
00121e  2200              MOVS     r2,#0                 ;1003
001220  4611              MOV      r1,r2                 ;1003
001222  4630              MOV      r0,r6                 ;1003
001224  f7fffffe          BL       BUTTON_SetTextColor
001228  4940              LDR      r1,|L10.4908|
00122a  4630              MOV      r0,r6                 ;1004
00122c  f7fffffe          BL       BUTTON_SetFont
001230  f7fffffe          BL       GUI_UC_SetEncodeUTF8
001234  a142              ADR      r1,|L10.4928|
001236  4630              MOV      r0,r6                 ;1006
001238  f7fffffe          BL       BUTTON_SetText
00123c  4649              MOV      r1,r9                 ;1008
00123e  6860              LDR      r0,[r4,#4]            ;1008
001240  f7fffffe          BL       WM_GetDialogItem
001244  4606              MOV      r6,r0                 ;1008
001246  2200              MOVS     r2,#0                 ;1009
001248  4611              MOV      r1,r2                 ;1009
00124a  4630              MOV      r0,r6                 ;1009
00124c  f7fffffe          BL       BUTTON_SetTextColor
001250  4936              LDR      r1,|L10.4908|
001252  4630              MOV      r0,r6                 ;1010
001254  f7fffffe          BL       BUTTON_SetFont
001258  f7fffffe          BL       GUI_UC_SetEncodeUTF8
00125c  a13c              ADR      r1,|L10.4944|
00125e  4630              MOV      r0,r6                 ;1012
001260  f7fffffe          BL       BUTTON_SetText
001264  4651              MOV      r1,r10                ;1014
001266  6860              LDR      r0,[r4,#4]            ;1014
001268  f7fffffe          BL       WM_GetDialogItem
00126c  4606              MOV      r6,r0                 ;1014
00126e  2101              MOVS     r1,#1                 ;1015
001270  4630              MOV      r0,r6                 ;1015
001272  f7fffffe          BL       BUTTON_SetPressed
001276  2200              MOVS     r2,#0                 ;1016
001278  4611              MOV      r1,r2                 ;1016
00127a  4630              MOV      r0,r6                 ;1016
00127c  f7fffffe          BL       BUTTON_SetTextColor
001280  492a              LDR      r1,|L10.4908|
001282  e06d              B        |L10.4960|
                  |L10.4740|
001284  e137              B        |L10.5366|
                  |L10.4742|
001286  e13c              B        |L10.5378|
                  |L10.4744|
                          DCD      temp
                  |L10.4748|
00128c  252e3166          DCB      "%.1f"
                  |L10.4752|
001290  00                DCB      0
001291  00                DCB      0
001292  00                DCB      0
001293  00                DCB      0
                  |L10.4756|
                          DCD      GUI_FontHZ14
                  |L10.4760|
                          DCD      lang
                  |L10.4764|
                          DCD      GUI_Font16B_ASCII
                  |L10.4768|
0012a0  492e522e          DCB      "I.R. TEST",0
0012a4  20544553
0012a8  5400    
0012aa  00                DCB      0
0012ab  00                DCB      0
                  |L10.4780|
0012ac  4c4f4144          DCB      "LOAD",0
0012b0  00      
0012b1  00                DCB      0
0012b2  00                DCB      0
0012b3  00                DCB      0
                  |L10.4788|
0012b4  504f5745          DCB      "POWER",0
0012b8  5200    
0012ba  00                DCB      0
0012bb  00                DCB      0
                  |L10.4796|
0012bc  43264443          DCB      "C&DC",0
0012c0  00      
0012c1  00                DCB      0
0012c2  00                DCB      0
0012c3  00                DCB      0
                  |L10.4804|
0012c4  47524150          DCB      "GRAPH",0
0012c8  4800    
0012ca  00                DCB      0
0012cb  00                DCB      0
                  |L10.4812|
                          DCD      GUI_FontEN40
                  |L10.4816|
0012d0  563a00            DCB      "V:",0
0012d3  00                DCB      0
                  |L10.4820|
0012d4  493a00            DCB      "I:",0
0012d7  00                DCB      0
                  |L10.4824|
0012d8  5600              DCB      "V",0
0012da  00                DCB      0
0012db  00                DCB      0
                  |L10.4828|
0012dc  4100              DCB      "A",0
0012de  00                DCB      0
0012df  00                DCB      0
                  |L10.4832|
                          DCD      0x00bfffff
                  |L10.4836|
                          DCD      GUI_Font20_ASCII
                  |L10.4840|
0012e8  4f757470          DCB      "Output V",0
0012ec  75742056
0012f0  00      
0012f1  00                DCB      0
0012f2  00                DCB      0
0012f3  00                DCB      0
                  |L10.4852|
0012f4  4c696d69          DCB      "Limiting C",0
0012f8  74696e67
0012fc  204300  
0012ff  00                DCB      0
                  |L10.4864|
001300  4375746f          DCB      "Cutoff V",0
001304  66662056
001308  00      
001309  00                DCB      0
00130a  00                DCB      0
00130b  00                DCB      0
                  |L10.4876|
00130c  4375746f          DCB      "Cutoff C",0
001310  66662043
001314  00      
001315  00                DCB      0
001316  00                DCB      0
001317  00                DCB      0
                  |L10.4888|
001318  4c6f6164          DCB      "Load C",0
00131c  204300  
00131f  00                DCB      0
                  |L10.4896|
001320  4c4f4f50          DCB      "LOOPS",0
001324  5300    
001326  00                DCB      0
001327  00                DCB      0
                  |L10.4904|
                          DCD      ||area_number.18||
                  |L10.4908|
                          DCD      GUI_FontHZ16
                  |L10.4912|
001330  e58685e9          DCB      229,134,133,233,152,187,230,181,139,232,175,149,0
001334  98bbe6b5
001338  8be8af95
00133c  00      
00133d  00                DCB      0
00133e  00                DCB      0
00133f  00                DCB      0
                  |L10.4928|
001340  e7a88be6          DCB      231,168,139,230,142,167,232,180,159,232,189,189,0
001344  8ea7e8b4
001348  9fe8bdbd
00134c  00      
00134d  00                DCB      0
00134e  00                DCB      0
00134f  00                DCB      0
                  |L10.4944|
001350  e7a88be6          DCB      231,168,139,230,142,167,231,148,181,230,186,144,0
001354  8ea7e794
001358  b5e6ba90
00135c  00      
00135d  00                DCB      0
00135e  00                DCB      0
00135f  00                DCB      0
                  |L10.4960|
001360  4630              MOV      r0,r6                 ;1017
001362  f7fffffe          BL       BUTTON_SetFont
001366  f7fffffe          BL       GUI_UC_SetEncodeUTF8
00136a  a1fe              ADR      r1,|L10.5988|
00136c  4630              MOV      r0,r6                 ;1019
00136e  f7fffffe          BL       BUTTON_SetText
001372  4659              MOV      r1,r11                ;1021
001374  6860              LDR      r0,[r4,#4]            ;1021
001376  f7fffffe          BL       WM_GetDialogItem
00137a  4606              MOV      r6,r0                 ;1021
00137c  2200              MOVS     r2,#0                 ;1022
00137e  4611              MOV      r1,r2                 ;1022
001380  4630              MOV      r0,r6                 ;1022
001382  f7fffffe          BL       BUTTON_SetTextColor
001386  49fa              LDR      r1,|L10.6000|
001388  4630              MOV      r0,r6                 ;1023
00138a  f7fffffe          BL       BUTTON_SetFont
00138e  f7fffffe          BL       GUI_UC_SetEncodeUTF8
001392  a1f8              ADR      r1,|L10.6004|
001394  4630              MOV      r0,r6                 ;1025
001396  f7fffffe          BL       BUTTON_SetText
00139a  e624              B        |L10.4070|
                  |L10.5020|
00139c  6860              LDR      r0,[r4,#4]            ;1085
00139e  f7fffffe          BL       WM_GetDialogItem
0013a2  9002              STR      r0,[sp,#8]            ;1085
0013a4  2100              MOVS     r1,#0                 ;1086
0013a6  9802              LDR      r0,[sp,#8]            ;1086
0013a8  f7fffffe          BL       TEXT_SetTextColor
0013ac  4631              MOV      r1,r6                 ;1087
0013ae  9802              LDR      r0,[sp,#8]            ;1087
0013b0  f7fffffe          BL       TEXT_SetBkColor
0013b4  49f1              LDR      r1,|L10.6012|
0013b6  9802              LDR      r0,[sp,#8]            ;1088
0013b8  f7fffffe          BL       TEXT_SetFont
0013bc  f7fffffe          BL       GUI_UC_SetEncodeUTF8
0013c0  a1ef              ADR      r1,|L10.6016|
0013c2  9802              LDR      r0,[sp,#8]            ;1090
0013c4  f7fffffe          BL       TEXT_SetText
0013c8  4641              MOV      r1,r8                 ;1092
0013ca  6860              LDR      r0,[r4,#4]            ;1092
0013cc  f7fffffe          BL       WM_GetDialogItem
0013d0  4606              MOV      r6,r0                 ;1092
0013d2  4639              MOV      r1,r7                 ;1093
0013d4  4630              MOV      r0,r6                 ;1093
0013d6  f7fffffe          BL       TEXT_SetTextColor
0013da  49e8              LDR      r1,|L10.6012|
0013dc  4630              MOV      r0,r6                 ;1094
0013de  f7fffffe          BL       TEXT_SetFont
0013e2  f7fffffe          BL       GUI_UC_SetEncodeUTF8
0013e6  a1ea              ADR      r1,|L10.6032|
0013e8  4630              MOV      r0,r6                 ;1096
0013ea  f7fffffe          BL       TEXT_SetText
0013ee  4649              MOV      r1,r9                 ;1098
0013f0  6860              LDR      r0,[r4,#4]            ;1098
0013f2  f7fffffe          BL       WM_GetDialogItem
0013f6  4606              MOV      r6,r0                 ;1098
0013f8  4639              MOV      r1,r7                 ;1099
0013fa  4630              MOV      r0,r6                 ;1099
0013fc  f7fffffe          BL       TEXT_SetTextColor
001400  49de              LDR      r1,|L10.6012|
001402  4630              MOV      r0,r6                 ;1100
001404  f7fffffe          BL       TEXT_SetFont
001408  f7fffffe          BL       GUI_UC_SetEncodeUTF8
00140c  a1e4              ADR      r1,|L10.6048|
00140e  4630              MOV      r0,r6                 ;1102
001410  f7fffffe          BL       TEXT_SetText
001414  4651              MOV      r1,r10                ;1104
001416  6860              LDR      r0,[r4,#4]            ;1104
001418  f7fffffe          BL       WM_GetDialogItem
00141c  4606              MOV      r6,r0                 ;1104
00141e  4639              MOV      r1,r7                 ;1105
001420  4630              MOV      r0,r6                 ;1105
001422  f7fffffe          BL       TEXT_SetTextColor
001426  49d5              LDR      r1,|L10.6012|
001428  4630              MOV      r0,r6                 ;1106
00142a  f7fffffe          BL       TEXT_SetFont
00142e  f7fffffe          BL       GUI_UC_SetEncodeUTF8
001432  a1df              ADR      r1,|L10.6064|
001434  4630              MOV      r0,r6                 ;1108
001436  f7fffffe          BL       TEXT_SetText
00143a  4659              MOV      r1,r11                ;1110
00143c  6860              LDR      r0,[r4,#4]            ;1110
00143e  f7fffffe          BL       WM_GetDialogItem
001442  4606              MOV      r6,r0                 ;1110
001444  4639              MOV      r1,r7                 ;1111
001446  4630              MOV      r0,r6                 ;1111
001448  f7fffffe          BL       TEXT_SetTextColor
00144c  49cb              LDR      r1,|L10.6012|
00144e  4630              MOV      r0,r6                 ;1112
001450  f7fffffe          BL       TEXT_SetFont
001454  f7fffffe          BL       GUI_UC_SetEncodeUTF8
001458  a1d9              ADR      r1,|L10.6080|
00145a  4630              MOV      r0,r6                 ;1114
00145c  f7fffffe          BL       TEXT_SetText
001460  f6400179          MOV      r1,#0x879             ;1116
001464  6860              LDR      r0,[r4,#4]            ;1116
001466  f7fffffe          BL       WM_GetDialogItem
00146a  4606              MOV      r6,r0                 ;1116
00146c  4639              MOV      r1,r7                 ;1117
00146e  4630              MOV      r0,r6                 ;1117
001470  f7fffffe          BL       TEXT_SetTextColor
001474  49c1              LDR      r1,|L10.6012|
001476  4630              MOV      r0,r6                 ;1118
001478  f7fffffe          BL       TEXT_SetFont
00147c  f7fffffe          BL       GUI_UC_SetEncodeUTF8
001480  a1c7              ADR      r1,|L10.6048|
001482  4630              MOV      r0,r6                 ;1120
001484  f7fffffe          BL       TEXT_SetText
001488  f6400172          MOV      r1,#0x872             ;1129
00148c  6860              LDR      r0,[r4,#4]            ;1129
00148e  f7fffffe          BL       WM_GetDialogItem
001492  4606              MOV      r6,r0                 ;1129
001494  4639              MOV      r1,r7                 ;1130
001496  4630              MOV      r0,r6                 ;1130
001498  f7fffffe          BL       TEXT_SetTextColor
00149c  49b7              LDR      r1,|L10.6012|
00149e  4630              MOV      r0,r6                 ;1131
0014a0  f7fffffe          BL       TEXT_SetFont
0014a4  f7fffffe          BL       GUI_UC_SetEncodeUTF8
0014a8  a1c9              ADR      r1,|L10.6096|
0014aa  4630              MOV      r0,r6                 ;1133
0014ac  f7fffffe          BL       TEXT_SetText
0014b0  f6401143          MOV      r1,#0x943             ;1135
0014b4  6860              LDR      r0,[r4,#4]            ;1135
0014b6  f7fffffe          BL       WM_GetDialogItem
0014ba  4606              MOV      r6,r0                 ;1135
0014bc  4639              MOV      r1,r7                 ;1136
0014be  4630              MOV      r0,r6                 ;1136
0014c0  f7fffffe          BL       TEXT_SetTextColor
0014c4  49ad              LDR      r1,|L10.6012|
0014c6  4630              MOV      r0,r6                 ;1137
0014c8  f7fffffe          BL       TEXT_SetFont
0014cc  f7fffffe          BL       GUI_UC_SetEncodeUTF8
0014d0  48c3              LDR      r0,|L10.6112|
0014d2  7ac1              LDRB     r1,[r0,#0xb]          ;1139  ; gapmode
0014d4  b119              CBZ      r1,|L10.5342|
0014d6  7ac0              LDRB     r0,[r0,#0xb]          ;1142  ; gapmode
0014d8  2801              CMP      r0,#1                 ;1142
0014da  d006              BEQ      |L10.5354|
0014dc  e016              B        |L10.5388|
                  |L10.5342|
0014de  f6af4104          ADR      r1,|L10.2268|
0014e2  4630              MOV      r0,r6                 ;1141
0014e4  f7fffffe          BL       TEXT_SetText
0014e8  e010              B        |L10.5388|
                  |L10.5354|
0014ea  f6af4100          ADR      r1,|L10.2284|
0014ee  4630              MOV      r0,r6                 ;1143
0014f0  f7fffffe          BL       TEXT_SetText
0014f4  e00a              B        |L10.5388|
                  |L10.5366|
0014f6  f6af31fc          ADR      r1,|L10.2300|
0014fa  4630              MOV      r0,r6                 ;1202
0014fc  f7fffffe          BL       TEXT_SetText
001500  e004              B        |L10.5388|
                  |L10.5378|
001502  f6af4100          ADR      r1,|L10.2308|
001506  4630              MOV      r0,r6                 ;1204
001508  f7fffffe          BL       TEXT_SetText
                  |L10.5388|
00150c  f6400173          MOV      r1,#0x873             ;1208
001510  6860              LDR      r0,[r4,#4]            ;1208
001512  f7fffffe          BL       WM_GetDialogItem
001516  4606              MOV      r6,r0                 ;1208
001518  ee1c0a90          VMOV     r0,s25                ;1209
00151c  f7fffffe          BL       __aeabi_f2d
001520  ec410b10          VMOV     d0,r0,r1              ;1209
001524  a1af              ADR      r1,|L10.6116|
001526  ec532b10          VMOV     r2,r3,d0              ;1209
00152a  4668              MOV      r0,sp                 ;1209
00152c  f7fffffe          BL       __2sprintf
001530  4639              MOV      r1,r7                 ;1210
001532  4630              MOV      r0,r6                 ;1210
001534  f7fffffe          BL       TEXT_SetTextColor
001538  49ac              LDR      r1,|L10.6124|
00153a  4630              MOV      r0,r6                 ;1211
00153c  f7fffffe          BL       TEXT_SetFont
001540  f7fffffe          BL       GUI_UC_SetEncodeUTF8
001544  4669              MOV      r1,sp                 ;1213
001546  4630              MOV      r0,r6                 ;1213
001548  f7fffffe          BL       TEXT_SetText
00154c  f6400174          MOV      r1,#0x874             ;1215
001550  6860              LDR      r0,[r4,#4]            ;1215
001552  f7fffffe          BL       WM_GetDialogItem
001556  4606              MOV      r6,r0                 ;1215
001558  ee1c0a10          VMOV     r0,s24                ;1216
00155c  f7fffffe          BL       __aeabi_f2d
001560  ec410b10          VMOV     d0,r0,r1              ;1216
001564  ec532b10          VMOV     r2,r3,d0              ;1216
001568  f6af414c          ADR      r1,|L10.2336|
00156c  4668              MOV      r0,sp                 ;1216
00156e  f7fffffe          BL       __2sprintf
001572  4639              MOV      r1,r7                 ;1217
001574  4630              MOV      r0,r6                 ;1217
001576  f7fffffe          BL       TEXT_SetTextColor
00157a  499c              LDR      r1,|L10.6124|
00157c  4630              MOV      r0,r6                 ;1218
00157e  f7fffffe          BL       TEXT_SetFont
001582  f7fffffe          BL       GUI_UC_SetEncodeUTF8
001586  4669              MOV      r1,sp                 ;1220
001588  4630              MOV      r0,r6                 ;1220
00158a  f7fffffe          BL       TEXT_SetText
00158e  f6400175          MOV      r1,#0x875             ;1222
001592  6860              LDR      r0,[r4,#4]            ;1222
001594  f7fffffe          BL       WM_GetDialogItem
001598  4606              MOV      r6,r0                 ;1222
00159a  ee1b0a90          VMOV     r0,s23                ;1223
00159e  f7fffffe          BL       __aeabi_f2d
0015a2  ec410b10          VMOV     d0,r0,r1              ;1223
0015a6  ec532b10          VMOV     r2,r3,d0              ;1223
0015aa  f6af418c          ADR      r1,|L10.2336|
0015ae  4668              MOV      r0,sp                 ;1223
0015b0  f7fffffe          BL       __2sprintf
0015b4  4639              MOV      r1,r7                 ;1224
0015b6  4630              MOV      r0,r6                 ;1224
0015b8  f7fffffe          BL       TEXT_SetTextColor
0015bc  498b              LDR      r1,|L10.6124|
0015be  4630              MOV      r0,r6                 ;1225
0015c0  f7fffffe          BL       TEXT_SetFont
0015c4  f7fffffe          BL       GUI_UC_SetEncodeUTF8
0015c8  4669              MOV      r1,sp                 ;1227
0015ca  4630              MOV      r0,r6                 ;1227
0015cc  f7fffffe          BL       TEXT_SetText
0015d0  f6400176          MOV      r1,#0x876             ;1229
0015d4  6860              LDR      r0,[r4,#4]            ;1229
0015d6  f7fffffe          BL       WM_GetDialogItem
0015da  4680              MOV      r8,r0                 ;1229
0015dc  4e84              LDR      r6,|L10.6128|
0015de  a185              ADR      r1,|L10.6132|
0015e0  4668              MOV      r0,sp                 ;1230
0015e2  6832              LDR      r2,[r6,#0]            ;1230  ; InFlashSave
0015e4  f7fffffe          BL       __2sprintf
0015e8  4639              MOV      r1,r7                 ;1231
0015ea  4640              MOV      r0,r8                 ;1231
0015ec  f7fffffe          BL       TEXT_SetTextColor
0015f0  497e              LDR      r1,|L10.6124|
0015f2  4640              MOV      r0,r8                 ;1232
0015f4  f7fffffe          BL       TEXT_SetFont
0015f8  f7fffffe          BL       GUI_UC_SetEncodeUTF8
0015fc  4669              MOV      r1,sp                 ;1234
0015fe  4640              MOV      r0,r8                 ;1234
001600  f7fffffe          BL       TEXT_SetText
001604  f6401144          MOV      r1,#0x944             ;1236
001608  6860              LDR      r0,[r4,#4]            ;1236
00160a  f7fffffe          BL       WM_GetDialogItem
00160e  4680              MOV      r8,r0                 ;1236
001610  f6af5100          ADR      r1,|L10.2324|
001614  4668              MOV      r0,sp                 ;1237
001616  6872              LDR      r2,[r6,#4]            ;1237  ; InFlashSave
001618  f7fffffe          BL       __2sprintf
00161c  4639              MOV      r1,r7                 ;1238
00161e  4640              MOV      r0,r8                 ;1238
001620  f7fffffe          BL       TEXT_SetTextColor
001624  4971              LDR      r1,|L10.6124|
001626  4640              MOV      r0,r8                 ;1239
001628  f7fffffe          BL       TEXT_SetFont
00162c  f7fffffe          BL       GUI_UC_SetEncodeUTF8
001630  4669              MOV      r1,sp                 ;1241
001632  4640              MOV      r0,r8                 ;1241
001634  f7fffffe          BL       TEXT_SetText
001638  f640017b          MOV      r1,#0x87b             ;1243
00163c  6860              LDR      r0,[r4,#4]            ;1243
00163e  f7fffffe          BL       WM_GetDialogItem
001642  4606              MOV      r6,r0                 ;1243
001644  ee1a0a10          VMOV     r0,s20                ;1244
001648  f7fffffe          BL       __aeabi_f2d
00164c  ec410b10          VMOV     d0,r0,r1              ;1244
001650  a164              ADR      r1,|L10.6116|
001652  ec532b10          VMOV     r2,r3,d0              ;1244
001656  4668              MOV      r0,sp                 ;1244
001658  f7fffffe          BL       __2sprintf
00165c  4639              MOV      r1,r7                 ;1245
00165e  4630              MOV      r0,r6                 ;1245
001660  f7fffffe          BL       TEXT_SetTextColor
001664  4961              LDR      r1,|L10.6124|
001666  4630              MOV      r0,r6                 ;1246
001668  f7fffffe          BL       TEXT_SetFont
00166c  f7fffffe          BL       GUI_UC_SetEncodeUTF8
001670  4669              MOV      r1,sp                 ;1248
001672  4630              MOV      r0,r6                 ;1248
001674  f7fffffe          BL       TEXT_SetText
001678  f640017c          MOV      r1,#0x87c             ;1250
00167c  6860              LDR      r0,[r4,#4]            ;1250
00167e  f7fffffe          BL       WM_GetDialogItem
001682  4606              MOV      r6,r0                 ;1250
001684  ee190a90          VMOV     r0,s19                ;1251
001688  f7fffffe          BL       __aeabi_f2d
00168c  ec410b10          VMOV     d0,r0,r1              ;1251
001690  ec532b10          VMOV     r2,r3,d0              ;1251
001694  f6af5178          ADR      r1,|L10.2336|
001698  4668              MOV      r0,sp                 ;1251
00169a  f7fffffe          BL       __2sprintf
00169e  4639              MOV      r1,r7                 ;1252
0016a0  4630              MOV      r0,r6                 ;1252
0016a2  f7fffffe          BL       TEXT_SetTextColor
0016a6  4951              LDR      r1,|L10.6124|
0016a8  4630              MOV      r0,r6                 ;1253
0016aa  f7fffffe          BL       TEXT_SetFont
0016ae  f7fffffe          BL       GUI_UC_SetEncodeUTF8
0016b2  4669              MOV      r1,sp                 ;1255
0016b4  4630              MOV      r0,r6                 ;1255
0016b6  f7fffffe          BL       TEXT_SetText
0016ba  f640017d          MOV      r1,#0x87d             ;1257
0016be  6860              LDR      r0,[r4,#4]            ;1257
0016c0  f7fffffe          BL       WM_GetDialogItem
0016c4  4606              MOV      r6,r0                 ;1257
0016c6  ee190a10          VMOV     r0,s18                ;1258
0016ca  f7fffffe          BL       __aeabi_f2d
0016ce  ec410b10          VMOV     d0,r0,r1              ;1258
0016d2  ec532b10          VMOV     r2,r3,d0              ;1258
0016d6  f6af51b8          ADR      r1,|L10.2336|
0016da  4668              MOV      r0,sp                 ;1258
0016dc  f7fffffe          BL       __2sprintf
0016e0  4639              MOV      r1,r7                 ;1259
0016e2  4630              MOV      r0,r6                 ;1259
0016e4  f7fffffe          BL       TEXT_SetTextColor
0016e8  4940              LDR      r1,|L10.6124|
0016ea  4630              MOV      r0,r6                 ;1260
0016ec  f7fffffe          BL       TEXT_SetFont
0016f0  f7fffffe          BL       GUI_UC_SetEncodeUTF8
0016f4  4669              MOV      r1,sp                 ;1262
0016f6  4630              MOV      r0,r6                 ;1262
0016f8  f7fffffe          BL       TEXT_SetText
0016fc  f640017f          MOV      r1,#0x87f             ;1271
001700  6860              LDR      r0,[r4,#4]            ;1271
001702  f7fffffe          BL       WM_GetDialogItem
001706  4680              MOV      r8,r0                 ;1271
001708  ec532b18          VMOV     r2,r3,d8              ;1272
00170c  f6af51f0          ADR      r1,|L10.2336|
001710  4668              MOV      r0,sp                 ;1272
001712  f7fffffe          BL       __2sprintf
001716  f44f467f          MOV      r6,#0xff00            ;1273
00171a  4631              MOV      r1,r6                 ;1273
00171c  4640              MOV      r0,r8                 ;1273
00171e  f7fffffe          BL       TEXT_SetTextColor
001722  4935              LDR      r1,|L10.6136|
001724  4640              MOV      r0,r8                 ;1274
001726  f7fffffe          BL       TEXT_SetFont
00172a  f7fffffe          BL       GUI_UC_SetEncodeUTF8
00172e  4669              MOV      r1,sp                 ;1276
001730  4640              MOV      r0,r8                 ;1276
001732  f7fffffe          BL       TEXT_SetText
001736  f44f6108          MOV      r1,#0x880             ;1278
00173a  6860              LDR      r0,[r4,#4]            ;1278
00173c  f7fffffe          BL       WM_GetDialogItem
001740  4680              MOV      r8,r0                 ;1278
001742  ec532b18          VMOV     r2,r3,d8              ;1279
001746  f6af6128          ADR      r1,|L10.2336|
00174a  4668              MOV      r0,sp                 ;1279
00174c  f7fffffe          BL       __2sprintf
001750  4631              MOV      r1,r6                 ;1280
001752  4640              MOV      r0,r8                 ;1280
001754  f7fffffe          BL       TEXT_SetTextColor
001758  4927              LDR      r1,|L10.6136|
00175a  4640              MOV      r0,r8                 ;1281
00175c  f7fffffe          BL       TEXT_SetFont
001760  e04c              B        |L10.6140|
001762  0000              DCW      0x0000
                  |L10.5988|
001764  e58585e6          DCB      229,133,133,230,148,190,231,148,181,0
001768  94bee794
00176c  b500    
00176e  00                DCB      0
00176f  00                DCB      0
                  |L10.6000|
                          DCD      GUI_FontHZ16
                  |L10.6004|
001774  e69bb2e7          DCB      230,155,178,231,186,191,0
001778  babf00  
00177b  00                DCB      0
                  |L10.6012|
                          DCD      GUI_Fontset_font
                  |L10.6016|
001780  e8be93e5          DCB      232,190,147,229,135,186,231,148,181,229,142,139,0
001784  87bae794
001788  b5e58e8b
00178c  00      
00178d  00                DCB      0
00178e  00                DCB      0
00178f  00                DCB      0
                  |L10.6032|
001790  e99990e5          DCB      233,153,144,229,136,182,231,148,181,230,181,129,0
001794  88b6e794
001798  b5e6b581
00179c  00      
00179d  00                DCB      0
00179e  00                DCB      0
00179f  00                DCB      0
                  |L10.6048|
0017a0  e688aae6          DCB      230,136,170,230,173,162,231,148,181,229,142,139,0
0017a4  ada2e794
0017a8  b5e58e8b
0017ac  00      
0017ad  00                DCB      0
0017ae  00                DCB      0
0017af  00                DCB      0
                  |L10.6064|
0017b0  e688aae6          DCB      230,136,170,230,173,162,231,148,181,230,181,129,0
0017b4  ada2e794
0017b8  b5e6b581
0017bc  00      
0017bd  00                DCB      0
0017be  00                DCB      0
0017bf  00                DCB      0
                  |L10.6080|
0017c0  e8b49fe8          DCB      232,180,159,232,189,189,231,148,181,230,181,129,0
0017c4  bdbde794
0017c8  b5e6b581
0017cc  00      
0017cd  00                DCB      0
0017ce  00                DCB      0
0017cf  00                DCB      0
                  |L10.6096|
0017d0  e5beaae7          DCB      229,190,170,231,142,175,230,172,161,230,149,176,0
0017d4  8eafe6ac
0017d8  a1e695b0
0017dc  00      
0017dd  00                DCB      0
0017de  00                DCB      0
0017df  00                DCB      0
                  |L10.6112|
                          DCD      ||area_number.18||
                  |L10.6116|
0017e4  252e3266          DCB      "%.2f",0
0017e8  00      
0017e9  00                DCB      0
0017ea  00                DCB      0
0017eb  00                DCB      0
                  |L10.6124|
                          DCD      GUI_Font24_1
                  |L10.6128|
                          DCD      InFlashSave+0xa0
                  |L10.6132|
0017f4  25346400          DCB      "%4d",0
                  |L10.6136|
                          DCD      GUI_FontD24x32
                  |L10.6140|
0017fc  f7fffffe          BL       GUI_UC_SetEncodeUTF8
001800  4669              MOV      r1,sp                 ;1283
001802  4640              MOV      r0,r8                 ;1283
001804  f7fffffe          BL       TEXT_SetText
001808  f6400181          MOV      r1,#0x881             ;1285
00180c  6860              LDR      r0,[r4,#4]            ;1285
00180e  f7fffffe          BL       WM_GetDialogItem
001812  4680              MOV      r8,r0                 ;1285
001814  2200              MOVS     r2,#0                 ;1286
001816  a1bb              ADR      r1,|L10.6916|
001818  4668              MOV      r0,sp                 ;1286
00181a  f7fffffe          BL       __2sprintf
00181e  4631              MOV      r1,r6                 ;1287
001820  4640              MOV      r0,r8                 ;1287
001822  f7fffffe          BL       TEXT_SetTextColor
001826  49b9              LDR      r1,|L10.6924|
001828  4640              MOV      r0,r8                 ;1288
00182a  f7fffffe          BL       TEXT_SetFont
00182e  f7fffffe          BL       GUI_UC_SetEncodeUTF8
001832  4669              MOV      r1,sp                 ;1290
001834  4640              MOV      r0,r8                 ;1290
001836  f7fffffe          BL       TEXT_SetText
00183a  f6400182          MOV      r1,#0x882             ;1293
00183e  6860              LDR      r0,[r4,#4]            ;1293
001840  f7fffffe          BL       WM_GetDialogItem
001844  4680              MOV      r8,r0                 ;1293
001846  4639              MOV      r1,r7                 ;1294
001848  4640              MOV      r0,r8                 ;1294
00184a  f7fffffe          BL       TEXT_SetTextColor
00184e  7828              LDRB     r0,[r5,#0]            ;1295  ; lang
001850  2800              CMP      r0,#0                 ;1295
001852  d07c              BEQ      |L10.6478|
001854  49ae              LDR      r1,|L10.6928|
001856  4640              MOV      r0,r8                 ;1301
001858  f7fffffe          BL       TEXT_SetFont
00185c  f7fffffe          BL       GUI_UC_SetEncodeUTF8
001860  a1ac              ADR      r1,|L10.6932|
001862  4640              MOV      r0,r8                 ;1303
001864  f7fffffe          BL       TEXT_SetText
                  |L10.6248|
001868  f640018a          MOV      r1,#0x88a             ;1306
00186c  6860              LDR      r0,[r4,#4]            ;1306
00186e  f7fffffe          BL       WM_GetDialogItem
001872  4680              MOV      r8,r0                 ;1306
001874  4631              MOV      r1,r6                 ;1307
001876  4640              MOV      r0,r8                 ;1307
001878  f7fffffe          BL       TEXT_SetTextColor
00187c  49a7              LDR      r1,|L10.6940|
00187e  4640              MOV      r0,r8                 ;1308
001880  f7fffffe          BL       TEXT_SetFont
001884  f7fffffe          BL       GUI_UC_SetEncodeUTF8
001888  a19f              ADR      r1,|L10.6920|
00188a  4640              MOV      r0,r8                 ;1310
00188c  f7fffffe          BL       TEXT_SetText
001890  f640018b          MOV      r1,#0x88b             ;1318
001894  6860              LDR      r0,[r4,#4]            ;1318
001896  f7fffffe          BL       WM_GetDialogItem
00189a  4680              MOV      r8,r0                 ;1318
00189c  4639              MOV      r1,r7                 ;1319
00189e  4640              MOV      r0,r8                 ;1319
0018a0  f7fffffe          BL       TEXT_SetTextColor
0018a4  7828              LDRB     r0,[r5,#0]            ;1320  ; lang
0018a6  2800              CMP      r0,#0                 ;1320
0018a8  d07e              BEQ      |L10.6568|
0018aa  4999              LDR      r1,|L10.6928|
0018ac  4640              MOV      r0,r8                 ;1326
0018ae  f7fffffe          BL       TEXT_SetFont
0018b2  f7fffffe          BL       GUI_UC_SetEncodeUTF8
0018b6  a19a              ADR      r1,|L10.6944|
0018b8  4640              MOV      r0,r8                 ;1328
0018ba  f7fffffe          BL       TEXT_SetText
                  |L10.6334|
0018be  f640018c          MOV      r1,#0x88c             ;1331
0018c2  6860              LDR      r0,[r4,#4]            ;1331
0018c4  f7fffffe          BL       WM_GetDialogItem
0018c8  4680              MOV      r8,r0                 ;1331
0018ca  4631              MOV      r1,r6                 ;1332
0018cc  4640              MOV      r0,r8                 ;1332
0018ce  f7fffffe          BL       TEXT_SetTextColor
0018d2  4992              LDR      r1,|L10.6940|
0018d4  4640              MOV      r0,r8                 ;1333
0018d6  f7fffffe          BL       TEXT_SetFont
0018da  f7fffffe          BL       GUI_UC_SetEncodeUTF8
0018de  a18a              ADR      r1,|L10.6920|
0018e0  4640              MOV      r0,r8                 ;1335
0018e2  f7fffffe          BL       TEXT_SetText
0018e6  f6401113          MOV      r1,#0x913             ;1337
0018ea  6860              LDR      r0,[r4,#4]            ;1337
0018ec  f7fffffe          BL       WM_GetDialogItem
0018f0  4680              MOV      r8,r0                 ;1337
0018f2  21ff              MOVS     r1,#0xff              ;1338
0018f4  4640              MOV      r0,r8                 ;1338
0018f6  f7fffffe          BL       TEXT_SetTextColor
0018fa  498b              LDR      r1,|L10.6952|
0018fc  4640              MOV      r0,r8                 ;1339
0018fe  f7fffffe          BL       TEXT_SetFont
001902  f7fffffe          BL       GUI_UC_SetEncodeUTF8
001906  a180              ADR      r1,|L10.6920|
001908  4640              MOV      r0,r8                 ;1341
00190a  f7fffffe          BL       TEXT_SetText
00190e  f6400183          MOV      r1,#0x883             ;1343
001912  6860              LDR      r0,[r4,#4]            ;1343
001914  f7fffffe          BL       WM_GetDialogItem
001918  4680              MOV      r8,r0                 ;1343
00191a  4639              MOV      r1,r7                 ;1344
00191c  4640              MOV      r0,r8                 ;1344
00191e  f7fffffe          BL       TEXT_SetTextColor
001922  7828              LDRB     r0,[r5,#0]            ;1345  ; lang
001924  2800              CMP      r0,#0                 ;1345
001926  d07c              BEQ      |L10.6690|
001928  4979              LDR      r1,|L10.6928|
00192a  4640              MOV      r0,r8                 ;1351
00192c  f7fffffe          BL       TEXT_SetFont
001930  f7fffffe          BL       GUI_UC_SetEncodeUTF8
001934  a17d              ADR      r1,|L10.6956|
001936  4640              MOV      r0,r8                 ;1353
001938  f7fffffe          BL       TEXT_SetText
                  |L10.6460|
00193c  f6401114          MOV      r1,#0x914             ;1356
001940  6860              LDR      r0,[r4,#4]            ;1356
001942  f7fffffe          BL       WM_GetDialogItem
001946  4605              MOV      r5,r0                 ;1356
001948  4631              MOV      r1,r6                 ;1357
00194a  4628              MOV      r0,r5                 ;1357
00194c  e000              B        |L10.6480|
                  |L10.6478|
00194e  e0b6              B        |L10.6846|
                  |L10.6480|
001950  f7fffffe          BL       TEXT_SetTextColor
001954  4971              LDR      r1,|L10.6940|
001956  4628              MOV      r0,r5                 ;1358
001958  f7fffffe          BL       TEXT_SetFont
00195c  4876              LDR      r0,|L10.6968|
00195e  6800              LDR      r0,[r0,#0]            ;1359  ; temp
001960  f7fffffe          BL       __aeabi_f2d
001964  ec410b10          VMOV     d0,r0,r1              ;1359
001968  ec532b10          VMOV     r2,r3,d0              ;1359
00196c  f2af61e4          ADR      r1,|L10.4748|
001970  4668              MOV      r0,sp                 ;1359
001972  f7fffffe          BL       __2sprintf
001976  4669              MOV      r1,sp                 ;1360
001978  4628              MOV      r0,r5                 ;1360
00197a  f7fffffe          BL       TEXT_SetText
00197e  f6400187          MOV      r1,#0x887             ;1362
001982  6860              LDR      r0,[r4,#4]            ;1362
001984  f7fffffe          BL       WM_GetDialogItem
001988  4606              MOV      r6,r0                 ;1362
00198a  4d6c              LDR      r5,|L10.6972|
00198c  78aa              LDRB     r2,[r5,#2]            ;1363  ; hour
00198e  496c              LDR      r1,|L10.6976|
001990  4668              MOV      r0,sp                 ;1363
001992  f7fffffe          BL       __2sprintf
001996  4639              MOV      r1,r7                 ;1364
001998  4630              MOV      r0,r6                 ;1364
00199a  f7fffffe          BL       TEXT_SetTextColor
00199e  495f              LDR      r1,|L10.6940|
0019a0  4630              MOV      r0,r6                 ;1365
0019a2  f7fffffe          BL       TEXT_SetFont
0019a6  e000              B        |L10.6570|
                  |L10.6568|
0019a8  e095              B        |L10.6870|
                  |L10.6570|
0019aa  f7fffffe          BL       GUI_UC_SetEncodeUTF8
0019ae  4669              MOV      r1,sp                 ;1367
0019b0  4630              MOV      r0,r6                 ;1367
0019b2  f7fffffe          BL       TEXT_SetText
0019b6  f6400188          MOV      r1,#0x888             ;1369
0019ba  6860              LDR      r0,[r4,#4]            ;1369
0019bc  f7fffffe          BL       WM_GetDialogItem
0019c0  4606              MOV      r6,r0                 ;1369
0019c2  786a              LDRB     r2,[r5,#1]            ;1370  ; minute
0019c4  495e              LDR      r1,|L10.6976|
0019c6  4668              MOV      r0,sp                 ;1370
0019c8  f7fffffe          BL       __2sprintf
0019cc  4639              MOV      r1,r7                 ;1371
0019ce  4630              MOV      r0,r6                 ;1371
0019d0  f7fffffe          BL       TEXT_SetTextColor
0019d4  4951              LDR      r1,|L10.6940|
0019d6  4630              MOV      r0,r6                 ;1372
0019d8  f7fffffe          BL       TEXT_SetFont
0019dc  f7fffffe          BL       GUI_UC_SetEncodeUTF8
0019e0  4669              MOV      r1,sp                 ;1374
0019e2  4630              MOV      r0,r6                 ;1374
0019e4  f7fffffe          BL       TEXT_SetText
0019e8  f6400189          MOV      r1,#0x889             ;1376
0019ec  6860              LDR      r0,[r4,#4]            ;1376
0019ee  f7fffffe          BL       WM_GetDialogItem
0019f2  4606              MOV      r6,r0                 ;1376
0019f4  782a              LDRB     r2,[r5,#0]            ;1377  ; second
0019f6  4952              LDR      r1,|L10.6976|
0019f8  4668              MOV      r0,sp                 ;1377
0019fa  f7fffffe          BL       __2sprintf
0019fe  4639              MOV      r1,r7                 ;1378
001a00  4630              MOV      r0,r6                 ;1378
001a02  f7fffffe          BL       TEXT_SetTextColor
001a06  4945              LDR      r1,|L10.6940|
001a08  4630              MOV      r0,r6                 ;1379
001a0a  f7fffffe          BL       TEXT_SetFont
001a0e  f7fffffe          BL       GUI_UC_SetEncodeUTF8
001a12  4669              MOV      r1,sp                 ;1381
001a14  4630              MOV      r0,r6                 ;1381
001a16  f7fffffe          BL       TEXT_SetText
001a1a  f6400185          MOV      r1,#0x885             ;1383
001a1e  6860              LDR      r0,[r4,#4]            ;1383
001a20  e000              B        |L10.6692|
                  |L10.6690|
001a22  e063              B        |L10.6892|
                  |L10.6692|
001a24  f7fffffe          BL       WM_GetDialogItem
001a28  4606              MOV      r6,r0                 ;1383
001a2a  796a              LDRB     r2,[r5,#5]            ;1384  ; hour1
001a2c  4944              LDR      r1,|L10.6976|
001a2e  4668              MOV      r0,sp                 ;1384
001a30  f7fffffe          BL       __2sprintf
001a34  4639              MOV      r1,r7                 ;1385
001a36  4630              MOV      r0,r6                 ;1385
001a38  f7fffffe          BL       TEXT_SetTextColor
001a3c  4937              LDR      r1,|L10.6940|
001a3e  4630              MOV      r0,r6                 ;1386
001a40  f7fffffe          BL       TEXT_SetFont
001a44  f7fffffe          BL       GUI_UC_SetEncodeUTF8
001a48  4669              MOV      r1,sp                 ;1388
001a4a  4630              MOV      r0,r6                 ;1388
001a4c  f7fffffe          BL       TEXT_SetText
001a50  f6400186          MOV      r1,#0x886             ;1390
001a54  6860              LDR      r0,[r4,#4]            ;1390
001a56  f7fffffe          BL       WM_GetDialogItem
001a5a  4606              MOV      r6,r0                 ;1390
001a5c  792a              LDRB     r2,[r5,#4]            ;1391  ; minute1
001a5e  4938              LDR      r1,|L10.6976|
001a60  4668              MOV      r0,sp                 ;1391
001a62  f7fffffe          BL       __2sprintf
001a66  4639              MOV      r1,r7                 ;1392
001a68  4630              MOV      r0,r6                 ;1392
001a6a  f7fffffe          BL       TEXT_SetTextColor
001a6e  492b              LDR      r1,|L10.6940|
001a70  4630              MOV      r0,r6                 ;1393
001a72  f7fffffe          BL       TEXT_SetFont
001a76  f7fffffe          BL       GUI_UC_SetEncodeUTF8
001a7a  4669              MOV      r1,sp                 ;1395
001a7c  4630              MOV      r0,r6                 ;1395
001a7e  f7fffffe          BL       TEXT_SetText
001a82  f6401124          MOV      r1,#0x924             ;1397
001a86  6860              LDR      r0,[r4,#4]            ;1397
001a88  f7fffffe          BL       WM_GetDialogItem
001a8c  4604              MOV      r4,r0                 ;1397
001a8e  78ea              LDRB     r2,[r5,#3]            ;1398  ; second1
001a90  492b              LDR      r1,|L10.6976|
001a92  4668              MOV      r0,sp                 ;1398
001a94  f7fffffe          BL       __2sprintf
001a98  4639              MOV      r1,r7                 ;1399
001a9a  4620              MOV      r0,r4                 ;1399
001a9c  f7fffffe          BL       TEXT_SetTextColor
001aa0  491e              LDR      r1,|L10.6940|
001aa2  4620              MOV      r0,r4                 ;1400
001aa4  f7fffffe          BL       TEXT_SetFont
001aa8  f7fffffe          BL       GUI_UC_SetEncodeUTF8
001aac  4669              MOV      r1,sp                 ;1402
001aae  4620              MOV      r0,r4                 ;1402
001ab0  f7fffffe          BL       TEXT_SetText
001ab4  b003              ADD      sp,sp,#0xc
001ab6  ecbd8b0a          VPOP     {d8-d12}
001aba  e8bd8ff0          POP      {r4-r11,pc}
                  |L10.6846|
001abe  4921              LDR      r1,|L10.6980|
001ac0  4640              MOV      r0,r8                 ;1297
001ac2  f7fffffe          BL       TEXT_SetFont
001ac6  f7fffffe          BL       GUI_UC_SetEncodeUTF8
001aca  491d              LDR      r1,|L10.6976|
001acc  4640              MOV      r0,r8                 ;1299
001ace  3950              SUBS     r1,r1,#0x50           ;1299
001ad0  f7fffffe          BL       TEXT_SetText
001ad4  e6c8              B        |L10.6248|
                  |L10.6870|
001ad6  491b              LDR      r1,|L10.6980|
001ad8  4640              MOV      r0,r8                 ;1322
001ada  f7fffffe          BL       TEXT_SetFont
001ade  f7fffffe          BL       GUI_UC_SetEncodeUTF8
001ae2  a119              ADR      r1,|L10.6984|
001ae4  4640              MOV      r0,r8                 ;1324
001ae6  f7fffffe          BL       TEXT_SetText
001aea  e6e8              B        |L10.6334|
                  |L10.6892|
001aec  4915              LDR      r1,|L10.6980|
001aee  4640              MOV      r0,r8                 ;1347
001af0  f7fffffe          BL       TEXT_SetFont
001af4  f7fffffe          BL       GUI_UC_SetEncodeUTF8
001af8  4911              LDR      r1,|L10.6976|
001afa  4640              MOV      r0,r8                 ;1349
001afc  3948              SUBS     r1,r1,#0x48           ;1349
001afe  f7fffffe          BL       TEXT_SetText
001b02  e71b              B        |L10.6460|
;;;1415   
                          ENDP

                  |L10.6916|
001b04  25303564          DCB      "%05d"
                  |L10.6920|
001b08  00                DCB      0
001b09  00                DCB      0
001b0a  00                DCB      0
001b0b  00                DCB      0
                  |L10.6924|
                          DCD      GUI_FontD24x32
                  |L10.6928|
                          DCD      GUI_Font20_ASCII
                  |L10.6932|
001b14  43686172          DCB      "Charge",0
001b18  676500  
001b1b  00                DCB      0
                  |L10.6940|
                          DCD      GUI_Font24_1
                  |L10.6944|
001b20  484f4c44          DCB      "HOLD",0
001b24  00      
001b25  00                DCB      0
001b26  00                DCB      0
001b27  00                DCB      0
                  |L10.6952|
                          DCD      GUI_Fontset_font
                  |L10.6956|
001b2c  44697363          DCB      "Discharge",0
001b30  68617267
001b34  6500    
001b36  00                DCB      0
001b37  00                DCB      0
                  |L10.6968|
                          DCD      temp
                  |L10.6972|
                          DCD      ||area_number.18||
                  |L10.6976|
                          DCD      ||i._cbDialog||+0x4bc
                  |L10.6980|
                          DCD      GUI_FontHZ16
                  |L10.6984|
001b48  e69081e7          DCB      230,144,129,231,189,174,0
001b4c  bdae00  
001b4f  00                DCB      0

                          AREA ||i.count_num||, CODE, READONLY, ALIGN=1

                  count_num PROC
;;;2774   
;;;2775   int count_num(int data)
000000  2100              MOVS     r1,#0
;;;2776   {
;;;2777       int count = 0;
;;;2778       while(data != 0){
;;;2779           data/=10;
000002  220a              MOVS     r2,#0xa
000004  e002              B        |L11.12|
                  |L11.6|
000006  fb90f0f2          SDIV     r0,r0,r2
;;;2780           count++;
00000a  1c49              ADDS     r1,r1,#1
                  |L11.12|
00000c  2800              CMP      r0,#0                 ;2778
00000e  d1fa              BNE      |L11.6|
;;;2781       }
;;;2782       return count;
000010  4608              MOV      r0,r1
;;;2783   }
000012  4770              BX       lr
;;;2784   
                          ENDP


                          AREA ||.bss||, DATA, NOINIT, ALIGN=1

                  coff
                          %        12

                          AREA ||.constdata||, DATA, READONLY, ALIGN=2

                  _aDialogCreate4
                          DCD      WINDOW_CreateIndirect
                          DCD      ||.conststring||
000008  082a0000          DCW      0x082a,0x0000
00000c  000001e0          DCW      0x0000,0x01e0
000010  01100000          DCW      0x0110,0x0000
                          DCD      0x00000000
                          DCD      0x00000000
                          DCD      BUTTON_CreateIndirect
                          DCD      ||.conststring||+0x4
000024  082c0053          DCW      0x082c,0x0053
000028  00e2004d          DCW      0x00e2,0x004d
00002c  002d0000          DCW      0x002d,0x0000
                          DCD      0x00000000
                          DCD      0x00000000
                          DCD      BUTTON_CreateIndirect
                          DCD      ||.conststring||+0x4
000040  082d00a3          DCW      0x082d,0x00a3
000044  00e2004d          DCW      0x00e2,0x004d
000048  002d0000          DCW      0x002d,0x0000
                          DCD      0x00000000
                          DCD      0x00000000
                          DCD      BUTTON_CreateIndirect
                          DCD      ||.conststring||+0x4
00005c  082e00f3          DCW      0x082e,0x00f3
000060  00e2004d          DCW      0x00e2,0x004d
000064  002d0000          DCW      0x002d,0x0000
                          DCD      0x00000000
                          DCD      0x00000000
                          DCD      BUTTON_CreateIndirect
                          DCD      ||.conststring||+0x4
000078  082f0143          DCW      0x082f,0x0143
00007c  00e2004d          DCW      0x00e2,0x004d
000080  002d0000          DCW      0x002d,0x0000
                          DCD      0x00000000
                          DCD      0x00000000
                          DCD      BUTTON_CreateIndirect
                          DCD      ||.conststring||+0x4
000094  08300193          DCW      0x0830,0x0193
000098  00e2004d          DCW      0x00e2,0x004d
00009c  002d0000          DCW      0x002d,0x0000
                          DCD      0x00000000
                          DCD      0x00000000
                          DCD      TEXT_CreateIndirect
                          DCD      ||.conststring||+0xc
0000b0  0831001c          DCW      0x0831,0x001c
0000b4  00320040          DCW      0x0032,0x0040
0000b8  00200000          DCW      0x0020,0x0000
                          DCD      0x00000064
                          DCD      0x00000000
                          DCD      TEXT_CreateIndirect
                          DCD      ||.conststring||+0xc
0000cc  0832001c          DCW      0x0832,0x001c
0000d0  00780040          DCW      0x0078,0x0040
0000d4  00200000          DCW      0x0020,0x0000
                          DCD      0x00000064
                          DCD      0x00000000
                          DCD      TEXT_CreateIndirect
                          DCD      ||.conststring||+0xc
0000e8  083300f0          DCW      0x0833,0x00f0
0000ec  00320020          DCW      0x0032,0x0020
0000f0  001e0000          DCW      0x001e,0x0000
                          DCD      0x00000000
                          DCD      0x00000000
                          DCD      TEXT_CreateIndirect
                          DCD      ||.conststring||+0xc
000104  083400f0          DCW      0x0834,0x00f0
000108  00790020          DCW      0x0079,0x0020
00010c  001e0000          DCW      0x001e,0x0000
                          DCD      0x00000000
                          DCD      0x00000000
                          DCD      TEXT_CreateIndirect
                          DCD      ||.conststring||+0xc
000120  086f0140          DCW      0x086f,0x0140
000124  001e005a          DCW      0x001e,0x005a
000128  00140000          DCW      0x0014,0x0000
                          DCD      0x00000000
                          DCD      0x00000000
                          DCD      TEXT_CreateIndirect
                          DCD      ||.conststring||+0xc
00013c  08700140          DCW      0x0870,0x0140
000140  0037005a          DCW      0x0037,0x005a
000144  00140000          DCW      0x0014,0x0000
                          DCD      0x00000000
                          DCD      0x00000000
                          DCD      TEXT_CreateIndirect
                          DCD      ||.conststring||+0xc
000158  08770140          DCW      0x0877,0x0140
00015c  0050005a          DCW      0x0050,0x005a
000160  00140000          DCW      0x0014,0x0000
                          DCD      0x00000000
                          DCD      0x00000000
                          DCD      TEXT_CreateIndirect
                          DCD      ||.conststring||+0xc
000174  08780140          DCW      0x0878,0x0140
000178  0069005a          DCW      0x0069,0x005a
00017c  00140000          DCW      0x0014,0x0000
                          DCD      0x00000000
                          DCD      0x00000000
                          DCD      TEXT_CreateIndirect
                          DCD      ||.conststring||+0xc
000190  08710140          DCW      0x0871,0x0140
000194  00820050          DCW      0x0082,0x0050
000198  00140000          DCW      0x0014,0x0000
                          DCD      0x00000000
                          DCD      0x00000000
                          DCD      TEXT_CreateIndirect
                          DCD      ||.conststring||+0xc
0001ac  08790140          DCW      0x0879,0x0140
0001b0  009b0050          DCW      0x009b,0x0050
0001b4  00140000          DCW      0x0014,0x0000
                          DCD      0x00000000
                          DCD      0x00000000
                          DCD      TEXT_CreateIndirect
                          DCD      ||.conststring||+0xc
0001c8  08720140          DCW      0x0872,0x0140
0001cc  00b40050          DCW      0x00b4,0x0050
0001d0  00140000          DCW      0x0014,0x0000
                          DCD      0x00000000
                          DCD      0x00000000
                          DCD      TEXT_CreateIndirect
                          DCD      ||.conststring||+0xc
0001e4  09430140          DCW      0x0943,0x0140
0001e8  00cd0050          DCW      0x00cd,0x0050
0001ec  00140000          DCW      0x0014,0x0000
                          DCD      0x00000000
                          DCD      0x00000000
                          DCD      TEXT_CreateIndirect
                          DCD      ||.conststring||+0xc
000200  0873019f          DCW      0x0873,0x019f
000204  001e0041          DCW      0x001e,0x0041
000208  00140000          DCW      0x0014,0x0000
                          DCD      0x00000000
                          DCD      0x00000000
                          DCD      TEXT_CreateIndirect
                          DCD      ||.conststring||+0xc
00021c  0874019f          DCW      0x0874,0x019f
000220  00370041          DCW      0x0037,0x0041
000224  00140000          DCW      0x0014,0x0000
                          DCD      0x00000000
                          DCD      0x00000000
                          DCD      TEXT_CreateIndirect
                          DCD      ||.conststring||+0xc
000238  0875019f          DCW      0x0875,0x019f
00023c  00820041          DCW      0x0082,0x0041
000240  00140000          DCW      0x0014,0x0000
                          DCD      0x00000000
                          DCD      0x00000000
                          DCD      TEXT_CreateIndirect
                          DCD      ||.conststring||+0xc
000254  0876019a          DCW      0x0876,0x019a
000258  00b40041          DCW      0x00b4,0x0041
00025c  00140000          DCW      0x0014,0x0000
                          DCD      0x00000000
                          DCD      0x00000000
                          DCD      TEXT_CreateIndirect
                          DCD      ||.conststring||+0xc
000270  087b019f          DCW      0x087b,0x019f
000274  00500041          DCW      0x0050,0x0041
000278  00140000          DCW      0x0014,0x0000
                          DCD      0x00000000
                          DCD      0x00000000
                          DCD      TEXT_CreateIndirect
                          DCD      ||.conststring||+0xc
00028c  087c019f          DCW      0x087c,0x019f
000290  00690041          DCW      0x0069,0x0041
000294  00140000          DCW      0x0014,0x0000
                          DCD      0x00000000
                          DCD      0x00000000
                          DCD      TEXT_CreateIndirect
                          DCD      ||.conststring||+0xc
0002a8  087d019f          DCW      0x087d,0x019f
0002ac  009b0041          DCW      0x009b,0x0041
0002b0  00140000          DCW      0x0014,0x0000
                          DCD      0x00000000
                          DCD      0x00000000
                          DCD      TEXT_CreateIndirect
                          DCD      ||.conststring||+0xc
0002c4  0944019f          DCW      0x0944,0x019f
0002c8  00cd0041          DCW      0x00cd,0x0041
0002cc  00140000          DCW      0x0014,0x0000
                          DCD      0x00000000
                          DCD      0x00000000
                          DCD      TEXT_CreateIndirect
                          DCD      ||.conststring||+0xc
0002e0  087f005f          DCW      0x087f,0x005f
0002e4  00300096          DCW      0x0030,0x0096
0002e8  00280000          DCW      0x0028,0x0000
                          DCD      0x00000000
                          DCD      0x00000000
                          DCD      TEXT_CreateIndirect
                          DCD      ||.conststring||+0xc
0002fc  0880005f          DCW      0x0880,0x005f
000300  00740096          DCW      0x0074,0x0096
000304  00280000          DCW      0x0028,0x0000
                          DCD      0x00000000
                          DCD      0x00000000
                          DCD      TEXT_CreateIndirect
                          DCD      ||.conststring||+0xc
000318  0881005f          DCW      0x0881,0x005f
00031c  00b80096          DCW      0x00b8,0x0096
000320  00280000          DCW      0x0028,0x0000
                          DCD      0x00000000
                          DCD      0x00000000
                          DCD      TEXT_CreateIndirect
                          DCD      ||.conststring||+0xc
000334  0882010e          DCW      0x0882,0x010e
000338  00200021          DCW      0x0020,0x0021
00033c  00140000          DCW      0x0014,0x0000
                          DCD      0x00000000
                          DCD      0x00000000
                          DCD      TEXT_CreateIndirect
                          DCD      ||.conststring||+0xc
000350  09130104          DCW      0x0913,0x0104
000354  00380032          DCW      0x0038,0x0032
000358  00140000          DCW      0x0014,0x0000
                          DCD      0x00000000
                          DCD      0x00000000
                          DCD      TEXT_CreateIndirect
                          DCD      ||.conststring||+0xc
00036c  0883010e          DCW      0x0883,0x010e
000370  008e0021          DCW      0x008e,0x0021
000374  00140000          DCW      0x0014,0x0000
                          DCD      0x00000000
                          DCD      0x00000000
                          DCD      TEXT_CreateIndirect
                          DCD      ||.conststring||+0xc
000388  08850127          DCW      0x0885,0x0127
00038c  00040021          DCW      0x0004,0x0021
000390  00140000          DCW      0x0014,0x0000
                          DCD      0x00000000
                          DCD      0x00000000
                          DCD      TEXT_CreateIndirect
                          DCD      ||.conststring||+0xc
0003a4  08860145          DCW      0x0886,0x0145
0003a8  00040021          DCW      0x0004,0x0021
0003ac  00140000          DCW      0x0014,0x0000
                          DCD      0x00000000
                          DCD      0x00000000
                          DCD      TEXT_CreateIndirect
                          DCD      ||.conststring||+0xc
0003c0  09240163          DCW      0x0924,0x0163
0003c4  00040021          DCW      0x0004,0x0021
0003c8  00140000          DCW      0x0014,0x0000
                          DCD      0x00000000
                          DCD      0x00000000
                          DCD      TEXT_CreateIndirect
                          DCD      ||.conststring||+0xc
0003dc  0887009b          DCW      0x0887,0x009b
0003e0  00040021          DCW      0x0004,0x0021
0003e4  00140000          DCW      0x0014,0x0000
                          DCD      0x00000000
                          DCD      0x00000000
                          DCD      TEXT_CreateIndirect
                          DCD      ||.conststring||+0xc
0003f8  088800b9          DCW      0x0888,0x00b9
0003fc  00040021          DCW      0x0004,0x0021
000400  00140000          DCW      0x0014,0x0000
                          DCD      0x00000000
                          DCD      0x00000000
                          DCD      TEXT_CreateIndirect
                          DCD      ||.conststring||+0xc
000414  088900d7          DCW      0x0889,0x00d7
000418  00040021          DCW      0x0004,0x0021
00041c  00140000          DCW      0x0014,0x0000
                          DCD      0x00000000
                          DCD      0x00000000
                          DCD      TEXT_CreateIndirect
                          DCD      ||.conststring||+0xc
000430  088a010e          DCW      0x088a,0x010e
000434  00690041          DCW      0x0069,0x0041
000438  00140000          DCW      0x0014,0x0000
                          DCD      0x00000000
                          DCD      0x00000000
                          DCD      TEXT_CreateIndirect
                          DCD      ||.conststring||+0xc
00044c  088b010e          DCW      0x088b,0x010e
000450  00570021          DCW      0x0057,0x0021
000454  00140000          DCW      0x0014,0x0000
                          DCD      0x00000000
                          DCD      0x00000000
                          DCD      TEXT_CreateIndirect
                          DCD      ||.conststring||+0xc
000468  088c000a          DCW      0x088c,0x000a
00046c  00f50028          DCW      0x00f5,0x0028
000470  00140000          DCW      0x0014,0x0000
                          DCD      0x00000000
                          DCD      0x00000000
                          DCD      TEXT_CreateIndirect
                          DCD      ||.conststring||+0xc
000484  09140186          DCW      0x0914,0x0186
000488  00040050          DCW      0x0004,0x0050
00048c  00140000          DCW      0x0014,0x0000
                          DCD      0x00000000
                          DCD      0x00000000
                          DCD      TEXT_CreateIndirect
                          DCD      ||.conststring||+0xc
0004a0  09200005          DCW      0x0920,0x0005
0004a4  00e10050          DCW      0x00e1,0x0050
0004a8  001e0000          DCW      0x001e,0x0000
                          DCD      0x00000000
                          DCD      0x00000000
                          DCD      TEXT_CreateIndirect
                          DCD      ||.conststring||+0xc
0004bc  093e01cc          DCW      0x093e,0x01cc
0004c0  00080014          DCW      0x0008,0x0014
0004c4  000f0000          DCW      0x000f,0x0000
                          DCD      0x00000000
                          DCD      0x00000000

                          AREA ||.conststring||, DATA, READONLY, MERGE=1, STRINGS, ALIGN=2

000000  4700              DCB      "G",0
000002  00                DCB      0
000003  00                DCB      0
000004  42757474          DCB      "Button",0
000008  6f6e00  
00000b  00                DCB      0
00000c  54657874          DCB      "Text",0
000010  00      

                          AREA ||.data||, DATA, ALIGN=0

                  set_loop_count
000000  01                DCB      0x01

                          AREA ||area_number.18||, DATA, ALIGN=2

                          EXPORTAS ||area_number.18||, ||.data||
                  second
000000  00                DCB      0x00
                  minute
000001  00                DCB      0x00
                  hour
000002  00                DCB      0x00
                  second1
000003  00                DCB      0x00
                  minute1
000004  00                DCB      0x00
                  hour1
000005  00                DCB      0x00
                  cutoff_flag
000006  00                DCB      0x00
                  cdc_sw
000007  00                DCB      0x00
                  status_flash
000008  00                DCB      0x00
                  pause_flag
000009  00                DCB      0x00
                  paused
00000a  00                DCB      0x00
                  gapmode
00000b  00                DCB      0x00
                  coffv_step
00000c  00                DCB      0x00
                  coffc_step
00000d  00                DCB      0x00
                  charge_step
00000e  00                DCB      0x00
                  sendmodeflag
00000f  00                DCB      0x00
                  count
000010  0001              DCW      0x0001
                  cutoff_time
000012  0000              DCB      0x00,0x00
                  pause_time
000014  00000000          DCB      0x00,0x00,0x00,0x00
                  hWincdc
                          DCD      0x00000000

                          AREA ||area_number.19||, DATA, ALIGN=0

                          EXPORTAS ||area_number.19||, ||.data||
                  c_sw
000000  01                DCB      0x01

                          AREA ||area_number.20||, DATA, ALIGN=0

                          EXPORTAS ||area_number.20||, ||.data||
                  timer_sw
000000  01                DCB      0x01

                          AREA ||area_number.21||, DATA, ALIGN=1

                          EXPORTAS ||area_number.21||, ||.data||
                  restart_time
000000  0000              DCB      0x00,0x00

                          AREA ||area_number.22||, DATA, ALIGN=0

                          EXPORTAS ||area_number.22||, ||.data||
                  cur_step
000000  00                DCB      0x00

;*** Start embedded assembler ***

#line 1 "..\\APP\\c_dc.c"
	AREA ||.rev16_text||, CODE
	THUMB
	EXPORT |__asm___6_c_dc_c_8be2d497____REV16|
#line 129 "E:\\Keil_v5\\ARM\\CMSIS\\Include\\core_cmInstr.h"
|__asm___6_c_dc_c_8be2d497____REV16| PROC
#line 130

 rev16 r0, r0
 bx lr
	ENDP
	AREA ||.revsh_text||, CODE
	THUMB
	EXPORT |__asm___6_c_dc_c_8be2d497____REVSH|
#line 144
|__asm___6_c_dc_c_8be2d497____REVSH| PROC
#line 145

 revsh r0, r0
 bx lr
	ENDP

;*** End   embedded assembler ***
