; generated by Component: ARM Compiler 5.06 update 6 (build 750) Tool: ArmCC [4d3637]
; commandline ArmCC [--list --split_sections --debug -c --asm --interleave -o..\output\load_face.o --asm_dir=..\Listing\ --list_dir=..\Listing\ --depend=..\output\load_face.d --cpu=Cortex-M4.fp --apcs=interwork -O1 --diag_suppress=9931,870 -I..\APP -I..\drive -I..\Include -I..\Libraries\CMSIS\inc -I..\Libraries\CMSIS\src -I..\Libraries\FWlib\inc -I..\Libraries\FWlib\src -I..\Listing -I..\Output -I..\Project -I..\STemWinLibrary522\Config -I..\STemWinLibrary522\emWinTask -I..\STemWinLibrary522\GUILib -I..\STemWinLibrary522\inc -I..\User -I..\USB\STM32_USB_HOST_Library\Class\HID\inc -I..\USB\STM32_USB_HOST_Library\Class\MSC\src -I..\USB\STM32_USB_HOST_Library\Core\src -I..\USB\USB_APP -I..\USB\STM32_USB_HOST_Library\Class\HID\src -I..\USB\STM32_USB_HOST_Library\Class\MSC\inc -I..\USB\STM32_USB_HOST_Library\Core\inc -I..\USB\STM32_USB_OTG_Driver\inc -I..\FATFS\exfuns -I..\FATFS\src\option -I..\FATFS\src -I..\MALLOC -I..\FATFS -I..\IAP -IE:\Keil_v5\ARM\RV31\INC -IE:\Keil_v5\ARM\CMSIS\Include -IE:\Keil_v5\ARM\INC\ST\STM32F4xx -D__UVISION_VERSION=525 -DUSE_STDPERIPH_DRIVER -DSTM32F40XX -DUSE_USB_OTG_FS -DUSE_EMBEDDED_PHY -DUSE_USB_OTG_HS -DSTM32F40XX --omf_browse=..\output\load_face.crf --no_multibyte_chars ..\APP\load_Face.c]
                          THUMB

                          AREA ||i.CreateWindow2||, CODE, READONLY, ALIGN=2

                  CreateWindow2 PROC
;;;717    
;;;718    WM_HWIN CreateWindow2(void) {
000000  b57c              PUSH     {r2-r6,lr}
;;;719      if(page_sw == face_graph)
000002  4c1f              LDR      r4,|L1.128|
000004  7820              LDRB     r0,[r4,#0]  ; page_sw
000006  2800              CMP      r0,#0
000008  d001              BEQ      |L1.14|
;;;720      {      
;;;721      }else{
;;;722          IO_OFF();
00000a  f7fffffe          BL       IO_OFF
                  |L1.14|
;;;723      }
;;;724      page_sw = face_load;
00000e  2004              MOVS     r0,#4
000010  7020              STRB     r0,[r4,#0]
;;;725      track = face_load;
000012  491c              LDR      r1,|L1.132|
000014  7008              STRB     r0,[r1,#0]
;;;726      set_sw = set_24;
000016  491c              LDR      r1,|L1.136|
000018  2017              MOVS     r0,#0x17
00001a  7008              STRB     r0,[r1,#0]
;;;727      load_cutoffv = (float)set_load_cutoffv/1000;
00001c  481b              LDR      r0,|L1.140|
00001e  eddf0a1c          VLDR     s1,|L1.144|
000022  4e1c              LDR      r6,|L1.148|
000024  ed900a04          VLDR     s0,[r0,#0x10]
000028  eeb80ac0          VCVT.F32.S32 s0,s0
00002c  ee801a20          VDIV.F32 s2,s0,s1
000030  ed861a03          VSTR     s2,[r6,#0xc]
;;;728      SET_Current_Laod = load_c;
000034  4c18              LDR      r4,|L1.152|
000036  f8d40094          LDR      r0,[r4,#0x94]  ; Run_Control
00003a  6120              STR      r0,[r4,#0x10]  ; Run_Control
;;;729       C_SW(0);
00003c  2000              MOVS     r0,#0
00003e  f7fffffe          BL       C_SW
;;;730    //  if(SET_Current_Laod > 2500)
;;;731    //  {
;;;732    //	  C_SW(1);
;;;733    //  }else{
;;;734    //	  C_SW(0);
;;;735    //  }
;;;736      pass = 0;  
000042  4816              LDR      r0,|L1.156|
000044  2500              MOVS     r5,#0
000046  7005              STRB     r5,[r0,#0]
;;;737      mode_sw = mode_load;
000048  4915              LDR      r1,|L1.160|
00004a  2002              MOVS     r0,#2
00004c  7008              STRB     r0,[r1,#0]
;;;738      SET_Voltage_Laod = load_v; 
00004e  f8d400a4          LDR      r0,[r4,#0xa4]  ; Run_Control
000052  60e0              STR      r0,[r4,#0xc]  ; Run_Control
;;;739    //   GPIO_SetBits(GPIOA,GPIO_Pin_15);//电子负载OFF
;;;740    //   GPIO_ResetBits(GPIOC,GPIO_Pin_1);//关闭电源输出
;;;741    //   GPIO_SetBits(GPIOC,GPIO_Pin_13);//关闭电源输出继电器
;;;742      TM1650_SET_LED(0x68,0x70);
000054  2170              MOVS     r1,#0x70
000056  2068              MOVS     r0,#0x68
000058  f7fffffe          BL       TM1650_SET_LED
;;;743      GPIO_ResetBits(GPIOD,GPIO_Pin_12);//灭灯
00005c  f44f5180          MOV      r1,#0x1000
000060  4810              LDR      r0,|L1.164|
000062  f7fffffe          BL       GPIO_ResetBits
;;;744      load_wind = GUI_CreateDialogBox(_aDialogCreate2, GUI_COUNTOF(_aDialogCreate2), _cbDialog2, WM_HBKWIN, 0, 0);
000066  f7fffffe          BL       WM_GetDesktopWindow
00006a  4603              MOV      r3,r0
00006c  9500              STR      r5,[sp,#0]
00006e  4a0e              LDR      r2,|L1.168|
000070  2118              MOVS     r1,#0x18
000072  480e              LDR      r0,|L1.172|
000074  9501              STR      r5,[sp,#4]
000076  f7fffffe          BL       GUI_CreateDialogBox
00007a  60b0              STR      r0,[r6,#8]  ; load_wind
;;;745      return load_wind;
;;;746    }
00007c  bd7c              POP      {r2-r6,pc}
;;;747    
                          ENDP

00007e  0000              DCW      0x0000
                  |L1.128|
                          DCD      page_sw
                  |L1.132|
                          DCD      track
                  |L1.136|
                          DCD      set_sw
                  |L1.140|
                          DCD      InFlashSave
                  |L1.144|
000090  447a0000          DCFS     0x447a0000 ; 1000
                  |L1.148|
                          DCD      ||.data||
                  |L1.152|
                          DCD      Run_Control
                  |L1.156|
                          DCD      pass
                  |L1.160|
                          DCD      mode_sw
                  |L1.164|
                          DCD      0x40020c00
                  |L1.168|
                          DCD      _cbDialog2
                  |L1.172|
                          DCD      ||.constdata||

                          AREA ||i.DEL_LOAD||, CODE, READONLY, ALIGN=2

                  DEL_LOAD PROC
;;;1048   }
;;;1049   void DEL_LOAD(void)
000000  e92d41f0          PUSH     {r4-r8,lr}
;;;1050   {
;;;1051   	switch(set_sw){
000004  4827              LDR      r0,|L2.164|
000006  7801              LDRB     r1,[r0,#0]  ; set_sw
;;;1052   		case set_25:
;;;1053           {
;;;1054   			WM_HWIN hItem;
;;;1055   //            WM_InvalidateWindow(hWinWind);
;;;1056               hItem = WM_GetDialogItem(load_wind, ID_TEXT_49);
000008  4827              LDR      r0,|L2.168|
;;;1057   			if(bit > 0)
;;;1058   			{
;;;1059   				bit --;
;;;1060   				set_limit[bit] = '\0';
00000a  4f28              LDR      r7,|L2.172|
00000c  2400              MOVS     r4,#0                 ;1056
00000e  6880              LDR      r0,[r0,#8]            ;1056
000010  4d27              LDR      r5,|L2.176|
;;;1061   			}
;;;1062   			if(bit == dot_flag)
000012  4e28              LDR      r6,|L2.180|
000014  2918              CMP      r1,#0x18              ;1051
000016  d018              BEQ      |L2.74|
000018  2943              CMP      r1,#0x43              ;1051
00001a  d02b              BEQ      |L2.116|
00001c  2956              CMP      r1,#0x56              ;1051
00001e  d13e              BNE      |L2.158|
;;;1063   			{
;;;1064   				dot_flag = 0;
;;;1065   			}
;;;1066   			TEXT_SetText(hItem,set_limit);
;;;1067   		}break;
;;;1068   		case set_68:
;;;1069           {
;;;1070   			WM_HWIN hItem;
;;;1071   //            WM_InvalidateWindow(hWinWind);
;;;1072               hItem = WM_GetDialogItem(load_wind, ID_TEXT_123);
;;;1073   			if(bit > 0)
;;;1074   			{
;;;1075   				bit --;
;;;1076   				set_limit[bit] = '\0';
;;;1077   			}
;;;1078   			if(bit == dot_flag)
;;;1079   			{
;;;1080   				dot_flag = 0;
;;;1081   			}
;;;1082   			TEXT_SetText(hItem,set_limit);
;;;1083   		}break;
;;;1084   		case set_87:
;;;1085           {
;;;1086               WM_HWIN hItem;
;;;1087   //            WM_InvalidateWindow(hWinWind);
;;;1088               hItem = WM_GetDialogItem(load_wind, ID_TEXT_143);
000020  f640112d          MOV      r1,#0x92d
000024  f7fffffe          BL       WM_GetDialogItem
;;;1089   			if(bit > 0)
000028  7829              LDRB     r1,[r5,#0]  ; bit
00002a  b121              CBZ      r1,|L2.54|
;;;1090   			{
;;;1091   				bit --;
00002c  7829              LDRB     r1,[r5,#0]  ; bit
00002e  1e49              SUBS     r1,r1,#1
000030  7029              STRB     r1,[r5,#0]
;;;1092   				set_limit[bit] = '\0';
000032  7829              LDRB     r1,[r5,#0]  ; bit
000034  547c              STRB     r4,[r7,r1]
                  |L2.54|
;;;1093   			}
;;;1094   			if(bit == dot_flag)
000036  7829              LDRB     r1,[r5,#0]  ; bit
000038  7832              LDRB     r2,[r6,#0]  ; dot_flag
00003a  4291              CMP      r1,r2
00003c  d100              BNE      |L2.64|
;;;1095   			{
;;;1096   				dot_flag = 0;
00003e  7034              STRB     r4,[r6,#0]
                  |L2.64|
;;;1097   			}
;;;1098   			TEXT_SetText(hItem,set_limit);
000040  e8bd41f0          POP      {r4-r8,lr}
000044  4919              LDR      r1,|L2.172|
000046  f7ffbffe          B.W      TEXT_SetText
                  |L2.74|
00004a  f640016e          MOV      r1,#0x86e             ;1056
00004e  f7fffffe          BL       WM_GetDialogItem
000052  7829              LDRB     r1,[r5,#0]            ;1057  ; bit
000054  b121              CBZ      r1,|L2.96|
000056  7829              LDRB     r1,[r5,#0]            ;1059  ; bit
000058  1e49              SUBS     r1,r1,#1              ;1059
00005a  7029              STRB     r1,[r5,#0]            ;1059
00005c  7829              LDRB     r1,[r5,#0]            ;1060  ; bit
00005e  547c              STRB     r4,[r7,r1]            ;1060
                  |L2.96|
000060  7829              LDRB     r1,[r5,#0]            ;1062  ; bit
000062  7832              LDRB     r2,[r6,#0]            ;1062  ; dot_flag
000064  4291              CMP      r1,r2                 ;1062
000066  d100              BNE      |L2.106|
000068  7034              STRB     r4,[r6,#0]            ;1064
                  |L2.106|
00006a  e8bd41f0          POP      {r4-r8,lr}            ;1066
00006e  490f              LDR      r1,|L2.172|
000070  f7ffbffe          B.W      TEXT_SetText
                  |L2.116|
000074  f6401111          MOV      r1,#0x911             ;1072
000078  f7fffffe          BL       WM_GetDialogItem
00007c  7829              LDRB     r1,[r5,#0]            ;1073  ; bit
00007e  b121              CBZ      r1,|L2.138|
000080  7829              LDRB     r1,[r5,#0]            ;1075  ; bit
000082  1e49              SUBS     r1,r1,#1              ;1075
000084  7029              STRB     r1,[r5,#0]            ;1075
000086  7829              LDRB     r1,[r5,#0]            ;1076  ; bit
000088  547c              STRB     r4,[r7,r1]            ;1076
                  |L2.138|
00008a  7829              LDRB     r1,[r5,#0]            ;1078  ; bit
00008c  7832              LDRB     r2,[r6,#0]            ;1078  ; dot_flag
00008e  4291              CMP      r1,r2                 ;1078
000090  d100              BNE      |L2.148|
000092  7034              STRB     r4,[r6,#0]            ;1080
                  |L2.148|
000094  e8bd41f0          POP      {r4-r8,lr}            ;1082
000098  4904              LDR      r1,|L2.172|
00009a  f7ffbffe          B.W      TEXT_SetText
                  |L2.158|
;;;1099   		}break;
;;;1100   	}
;;;1101   }
00009e  e8bd81f0          POP      {r4-r8,pc}
;;;1102   
                          ENDP

0000a2  0000              DCW      0x0000
                  |L2.164|
                          DCD      set_sw
                  |L2.168|
                          DCD      ||.data||
                  |L2.172|
                          DCD      set_limit
                  |L2.176|
                          DCD      bit
                  |L2.180|
                          DCD      dot_flag

                          AREA ||i.INPUT_LOAD||, CODE, READONLY, ALIGN=2

                  INPUT_LOAD PROC
;;;1103   void INPUT_LOAD(char* num);            
;;;1104   void INPUT_LOAD(char* num){
000000  e92d47f0          PUSH     {r4-r10,lr}
000004  4681              MOV      r9,r0
;;;1105   	u8 i;    
;;;1106       switch(set_sw)
000006  484f              LDR      r0,|L3.324|
000008  7801              LDRB     r1,[r0,#0]  ; set_sw
;;;1107       {
;;;1108           case set_25:
;;;1109           {
;;;1110               WM_HWIN hItem;
;;;1111    //           WM_InvalidateWindow(load_wind);
;;;1112               hItem = WM_GetDialogItem(load_wind, ID_TEXT_49);
00000a  484f              LDR      r0,|L3.328|
00000c  2400              MOVS     r4,#0
;;;1113   			if(bit < 6)
;;;1114   			{
;;;1115   				strcat(set_limit,num);
00000e  4d4f              LDR      r5,|L3.332|
000010  6880              LDR      r0,[r0,#8]            ;1112
;;;1116   				if(dot_flag != 0 && strcmp(num,".") == 0)
000012  f8df813c          LDR      r8,|L3.336|
000016  4f4f              LDR      r7,|L3.340|
000018  2918              CMP      r1,#0x18              ;1106
00001a  d01d              BEQ      |L3.88|
00001c  2943              CMP      r1,#0x43              ;1106
00001e  d04b              BEQ      |L3.184|
000020  2956              CMP      r1,#0x56              ;1106
000022  d17c              BNE      |L3.286|
;;;1117   				{
;;;1118   					
;;;1119   				}else{			
;;;1120   					
;;;1121   					if(dot_flag == 0 && strcmp(num,".") == 0)
;;;1122   					{
;;;1123   						dot_flag = bit;
;;;1124   					}
;;;1125   					bit ++;
;;;1126   				}
;;;1127   			}else{
;;;1128   				bit = 0;
;;;1129   				for(i=0;i<6;i++)
;;;1130   				{
;;;1131   					set_limit[i] = '\0';
;;;1132   				}
;;;1133   			}
;;;1134   			
;;;1135   			TEXT_SetText(hItem,set_limit);
;;;1136   //            switch(bit){
;;;1137   //                case 1:
;;;1138   //                {
;;;1139   //					for(i=0;i<6;i++)
;;;1140   //					{
;;;1141   //						set_limit[i] = '\0';
;;;1142   //					}
;;;1143   //                    load_c = atoi(num) * 1000;
;;;1144   //                    strcat(set_limit,num);            
;;;1145   //                    TEXT_SetText(hItem,set_limit);
;;;1146   //                    
;;;1147   //                    bit = 2;
;;;1148   //                    break;
;;;1149   //                }
;;;1150   //                case 2:
;;;1151   //                {
;;;1152   //                    strcat(set_limit,num);            
;;;1153   //                    TEXT_SetText(hItem,set_limit);
;;;1154   //                    if(set_limit[1] == 0x2e)//判断输入是否为小数点
;;;1155   //                    {
;;;1156   //                        dot_flag = 1;
;;;1157   //                    }else{
;;;1158   //                        load_c = load_c * 10 + atoi(num) * 1000;
;;;1159   //                    }
;;;1160   //                    bit = 3;
;;;1161   //                    break;
;;;1162   //                }
;;;1163   //                case 3:
;;;1164   //                {
;;;1165   //                    strcat(set_limit,num);
;;;1166   //                    TEXT_SetText(hItem,set_limit);
;;;1167   //                    if(dot_flag == 0)
;;;1168   //                    {
;;;1169   //                        if(set_limit[2] == 0x2e)//判断输入是否为小数点
;;;1170   //                        {                            
;;;1171   //                            dot_flag = 2;
;;;1172   //                        }else{
;;;1173   //                            load_c = 0;
;;;1174   //                        }
;;;1175   //                    }else{
;;;1176   //                        load_c = load_c + atoi(num) * 100;
;;;1177   //                    }                  
;;;1178   //                    bit = 4;
;;;1179   //                    break;
;;;1180   //                }
;;;1181   //                case 4:
;;;1182   //                {
;;;1183   //                    strcat(set_limit,num);
;;;1184   //                    TEXT_SetText(hItem,set_limit);
;;;1185   //                    if(dot_flag == 0)
;;;1186   //                    {
;;;1187   //                        load_c = 0;
;;;1188   //                    }else if(dot_flag == 2){
;;;1189   //                        load_c = load_c + atoi(num) * 100;
;;;1190   //                    }else{
;;;1191   //                        load_c = load_c + atoi(num) * 10;
;;;1192   //                    }                  
;;;1193   //                    bit = 5;
;;;1194   //                    break;
;;;1195   //                }
;;;1196   //                case 5:
;;;1197   //                {
;;;1198   //                    strcat(set_limit,num);
;;;1199   //                    TEXT_SetText(hItem,set_limit);
;;;1200   //                    if(dot_flag == 0)
;;;1201   //                    {
;;;1202   //                        load_c = 0;
;;;1203   //                    }else if(dot_flag == 1){
;;;1204   //                        load_c = load_c + atoi(num);
;;;1205   //                    }else{
;;;1206   //                        load_c = load_c + atoi(num) * 10;
;;;1207   //                    }                 
;;;1208   //                    bit = 6;
;;;1209   //                    break;
;;;1210   //                }
;;;1211   //                case 6:
;;;1212   //                {
;;;1213   //                    strcat(set_limit,num);
;;;1214   //                    TEXT_SetText(hItem,set_limit);
;;;1215   //                    if(dot_flag == 0)
;;;1216   //                    {
;;;1217   //                        load_c = 0;
;;;1218   //                    }else if(dot_flag == 2){
;;;1219   //                        load_c = load_c + atoi(num);
;;;1220   //                    }                 
;;;1221   //                    bit = 0;
;;;1222   //                    break;
;;;1223   //                }
;;;1224   //            }
;;;1225               break;
;;;1226               
;;;1227           }
;;;1228           case set_68:
;;;1229           {
;;;1230               WM_HWIN hItem;
;;;1231    //           WM_InvalidateWindow(load_wind);
;;;1232               hItem = WM_GetDialogItem(load_wind, ID_TEXT_123);
;;;1233   			if(bit < 6)
;;;1234   			{
;;;1235   				strcat(set_limit,num);
;;;1236   				if(dot_flag != 0 && strcmp(num,".") == 0)
;;;1237   				{
;;;1238   					
;;;1239   				}else{			
;;;1240   					
;;;1241   					if(dot_flag == 0 && strcmp(num,".") == 0)
;;;1242   					{
;;;1243   						dot_flag = bit;
;;;1244   					}
;;;1245   					bit ++;
;;;1246   				}
;;;1247   			}else{
;;;1248   				bit = 0;
;;;1249   				for(i=0;i<6;i++)
;;;1250   				{
;;;1251   					set_limit[i] = '\0';
;;;1252   				}
;;;1253   			}
;;;1254   			
;;;1255   			TEXT_SetText(hItem,set_limit);
;;;1256   //            switch(bit){
;;;1257   //                case 1:
;;;1258   //                {
;;;1259   //					for(i=0;i<6;i++)
;;;1260   //					{
;;;1261   //						set_limit[i] = '\0';
;;;1262   //					}
;;;1263   //                    load_v = atoi(num) * 1000;
;;;1264   //                    strcat(set_limit,num);            
;;;1265   //                    TEXT_SetText(hItem,set_limit);
;;;1266   //                    
;;;1267   //                    bit = 2;
;;;1268   //                    break;
;;;1269   //                }
;;;1270   //                case 2:
;;;1271   //                {
;;;1272   //                    strcat(set_limit,num);            
;;;1273   //                    TEXT_SetText(hItem,set_limit);
;;;1274   //                    if(set_limit[1] == 0x2e)//判断输入是否为小数点
;;;1275   //                    {
;;;1276   //                        dot_flag = 1;
;;;1277   //                    }else{
;;;1278   //                        load_v = load_v * 10 + atoi(num) * 1000;
;;;1279   //                    }
;;;1280   //                    bit = 3;
;;;1281   //                    break;
;;;1282   //                }
;;;1283   //                case 3:
;;;1284   //                {
;;;1285   //                    strcat(set_limit,num);
;;;1286   //                    TEXT_SetText(hItem,set_limit);
;;;1287   //                    if(dot_flag == 0)
;;;1288   //                    {
;;;1289   //                        if(set_limit[2] == 0x2e)//判断输入是否为小数点
;;;1290   //                        {                            
;;;1291   //                            dot_flag = 2;
;;;1292   //                        }else{
;;;1293   //                            load_v = 0;
;;;1294   //                        }
;;;1295   //                    }else{
;;;1296   //                        load_v = load_v + atoi(num) * 100;
;;;1297   //                    }                  
;;;1298   //                    bit = 4;
;;;1299   //                    break;
;;;1300   //                }
;;;1301   //                case 4:
;;;1302   //                {
;;;1303   //                    strcat(set_limit,num);
;;;1304   //                    TEXT_SetText(hItem,set_limit);
;;;1305   //                    if(dot_flag == 0)
;;;1306   //                    {
;;;1307   //                        load_v = 0;
;;;1308   //                    }else if(dot_flag == 2){
;;;1309   //                        load_v = load_v + atoi(num) * 100;
;;;1310   //                    }else{
;;;1311   //                        load_v = load_v + atoi(num) * 10;
;;;1312   //                    }                  
;;;1313   //                    bit = 5;
;;;1314   //                    break;
;;;1315   //                }
;;;1316   //                case 5:
;;;1317   //                {
;;;1318   //                    strcat(set_limit,num);
;;;1319   //                    TEXT_SetText(hItem,set_limit);
;;;1320   //                    if(dot_flag == 0)
;;;1321   //                    {
;;;1322   //                        load_v = 0;
;;;1323   //                    }else if(dot_flag == 1){
;;;1324   //                        load_v = load_v + atoi(num);
;;;1325   //                    }else{
;;;1326   //                        load_v = load_v + atoi(num) * 10;
;;;1327   //                    }                 
;;;1328   //                    bit = 6;
;;;1329   //                    break;
;;;1330   //                }
;;;1331   //                case 6:
;;;1332   //                {
;;;1333   //                    strcat(set_limit,num);
;;;1334   //                    TEXT_SetText(hItem,set_limit);
;;;1335   //                    if(dot_flag == 0)
;;;1336   //                    {
;;;1337   //                        load_v = 0;
;;;1338   //                    }else if(dot_flag == 2){
;;;1339   //                        load_v = load_v + atoi(num);
;;;1340   //                    }                 
;;;1341   //                    bit = 0;
;;;1342   //                    break;
;;;1343   //                }
;;;1344   //            }
;;;1345               break;
;;;1346               
;;;1347           }
;;;1348   		case set_87:
;;;1349           {
;;;1350               WM_HWIN hItem;
;;;1351    //           WM_InvalidateWindow(load_wind);
;;;1352               hItem = WM_GetDialogItem(load_wind, ID_TEXT_143);
000024  f640112d          MOV      r1,#0x92d
000028  f7fffffe          BL       WM_GetDialogItem
00002c  4604              MOV      r4,r0
;;;1353   			if(bit < 7)
00002e  7838              LDRB     r0,[r7,#0]  ; bit
000030  2807              CMP      r0,#7
000032  d203              BCS      |L3.60|
;;;1354   			{
;;;1355   				strcat(set_limit,num);
000034  4649              MOV      r1,r9
000036  4628              MOV      r0,r5
000038  f7fffffe          BL       strcat
                  |L3.60|
;;;1356   			}
;;;1357   			if(dot_flag != 0 && strcmp(num,".") == 0)
00003c  f8980000          LDRB     r0,[r8,#0]  ; dot_flag
000040  b128              CBZ      r0,|L3.78|
000042  a145              ADR      r1,|L3.344|
000044  4648              MOV      r0,r9
000046  f7fffffe          BL       strcmp
00004a  2800              CMP      r0,#0
00004c  d072              BEQ      |L3.308|
                  |L3.78|
;;;1358   			{
;;;1359   				
;;;1360   			}else{			
;;;1361   				
;;;1362   				if(dot_flag == 0 && strcmp(num,".") == 0)
00004e  f8980000          LDRB     r0,[r8,#0]  ; dot_flag
000052  2800              CMP      r0,#0
000054  d060              BEQ      |L3.280|
000056  e06a              B        |L3.302|
                  |L3.88|
000058  f640016e          MOV      r1,#0x86e             ;1112
00005c  f7fffffe          BL       WM_GetDialogItem
000060  4606              MOV      r6,r0                 ;1112
000062  7838              LDRB     r0,[r7,#0]            ;1113  ; bit
000064  2806              CMP      r0,#6                 ;1113
000066  d21a              BCS      |L3.158|
000068  4649              MOV      r1,r9                 ;1115
00006a  4838              LDR      r0,|L3.332|
00006c  f7fffffe          BL       strcat
000070  f8980000          LDRB     r0,[r8,#0]            ;1116  ; dot_flag
000074  b120              CBZ      r0,|L3.128|
000076  a138              ADR      r1,|L3.344|
000078  4648              MOV      r0,r9                 ;1116
00007a  f7fffffe          BL       strcmp
00007e  b1a8              CBZ      r0,|L3.172|
                  |L3.128|
000080  f8980000          LDRB     r0,[r8,#0]            ;1121  ; dot_flag
000084  b938              CBNZ     r0,|L3.150|
000086  a134              ADR      r1,|L3.344|
000088  4648              MOV      r0,r9                 ;1121
00008a  f7fffffe          BL       strcmp
00008e  b910              CBNZ     r0,|L3.150|
000090  7838              LDRB     r0,[r7,#0]            ;1123  ; bit
000092  f8880000          STRB     r0,[r8,#0]            ;1123
                  |L3.150|
000096  7838              LDRB     r0,[r7,#0]            ;1125  ; bit
000098  1c40              ADDS     r0,r0,#1              ;1125
00009a  7038              STRB     r0,[r7,#0]            ;1125
00009c  e006              B        |L3.172|
                  |L3.158|
00009e  703c              STRB     r4,[r7,#0]            ;1128
0000a0  2000              MOVS     r0,#0                 ;1129
                  |L3.162|
0000a2  542c              STRB     r4,[r5,r0]            ;1131
0000a4  1c40              ADDS     r0,r0,#1              ;1129
0000a6  b2c0              UXTB     r0,r0                 ;1129
0000a8  2806              CMP      r0,#6                 ;1129
0000aa  d3fa              BCC      |L3.162|
                  |L3.172|
0000ac  4630              MOV      r0,r6                 ;1135
0000ae  e8bd47f0          POP      {r4-r10,lr}           ;1135
0000b2  4926              LDR      r1,|L3.332|
0000b4  f7ffbffe          B.W      TEXT_SetText
                  |L3.184|
0000b8  f6401111          MOV      r1,#0x911             ;1232
0000bc  f7fffffe          BL       WM_GetDialogItem
0000c0  4606              MOV      r6,r0                 ;1232
0000c2  7838              LDRB     r0,[r7,#0]            ;1233  ; bit
0000c4  2806              CMP      r0,#6                 ;1233
0000c6  d21a              BCS      |L3.254|
0000c8  4649              MOV      r1,r9                 ;1235
0000ca  4820              LDR      r0,|L3.332|
0000cc  f7fffffe          BL       strcat
0000d0  f8980000          LDRB     r0,[r8,#0]            ;1236  ; dot_flag
0000d4  b120              CBZ      r0,|L3.224|
0000d6  a120              ADR      r1,|L3.344|
0000d8  4648              MOV      r0,r9                 ;1236
0000da  f7fffffe          BL       strcmp
0000de  b1a8              CBZ      r0,|L3.268|
                  |L3.224|
0000e0  f8980000          LDRB     r0,[r8,#0]            ;1241  ; dot_flag
0000e4  b938              CBNZ     r0,|L3.246|
0000e6  a11c              ADR      r1,|L3.344|
0000e8  4648              MOV      r0,r9                 ;1241
0000ea  f7fffffe          BL       strcmp
0000ee  b910              CBNZ     r0,|L3.246|
0000f0  7838              LDRB     r0,[r7,#0]            ;1243  ; bit
0000f2  f8880000          STRB     r0,[r8,#0]            ;1243
                  |L3.246|
0000f6  7838              LDRB     r0,[r7,#0]            ;1245  ; bit
0000f8  1c40              ADDS     r0,r0,#1              ;1245
0000fa  7038              STRB     r0,[r7,#0]            ;1245
0000fc  e006              B        |L3.268|
                  |L3.254|
0000fe  703c              STRB     r4,[r7,#0]            ;1248
000100  2000              MOVS     r0,#0                 ;1249
                  |L3.258|
000102  542c              STRB     r4,[r5,r0]            ;1251
000104  1c40              ADDS     r0,r0,#1              ;1249
000106  b2c0              UXTB     r0,r0                 ;1249
000108  2806              CMP      r0,#6                 ;1249
00010a  d3fa              BCC      |L3.258|
                  |L3.268|
00010c  4630              MOV      r0,r6                 ;1255
00010e  e8bd47f0          POP      {r4-r10,lr}           ;1255
000112  490e              LDR      r1,|L3.332|
000114  f7ffbffe          B.W      TEXT_SetText
                  |L3.280|
000118  a10f              ADR      r1,|L3.344|
00011a  4648              MOV      r0,r9
00011c  e001              B        |L3.290|
                  |L3.286|
00011e  e00f              B        |L3.320|
000120  e008              B        |L3.308|
                  |L3.290|
000122  f7fffffe          BL       strcmp
000126  b910              CBNZ     r0,|L3.302|
;;;1363   				{
;;;1364   					dot_flag = bit;
000128  7838              LDRB     r0,[r7,#0]  ; bit
00012a  f8880000          STRB     r0,[r8,#0]
                  |L3.302|
;;;1365   				}
;;;1366   				bit ++;
00012e  7838              LDRB     r0,[r7,#0]  ; bit
000130  1c40              ADDS     r0,r0,#1
000132  7038              STRB     r0,[r7,#0]
                  |L3.308|
;;;1367   			}
;;;1368   			TEXT_SetText(hItem,set_limit);
000134  4620              MOV      r0,r4
000136  e8bd47f0          POP      {r4-r10,lr}
00013a  4904              LDR      r1,|L3.332|
00013c  f7ffbffe          B.W      TEXT_SetText
                  |L3.320|
;;;1369   //            switch(bit){
;;;1370   //                case 1:
;;;1371   //                {
;;;1372   //					for(i=0;i<6;i++)
;;;1373   //					{
;;;1374   //						set_limit[i] = '\0';
;;;1375   //					}
;;;1376   //                    set_load_cutoffv = atoi(num) * 1000;
;;;1377   //                    strcat(set_limit,num);            
;;;1378   //                    TEXT_SetText(hItem,set_limit);
;;;1379   //                    
;;;1380   //                    bit = 2;
;;;1381   //                    break;
;;;1382   //                }
;;;1383   //                case 2:
;;;1384   //                {
;;;1385   //                    strcat(set_limit,num);            
;;;1386   //                    TEXT_SetText(hItem,set_limit);
;;;1387   //                    if(set_limit[1] == 0x2e)//判断输入是否为小数点
;;;1388   //                    {
;;;1389   //                        dot_flag = 1;
;;;1390   //                    }else{
;;;1391   //                        set_load_cutoffv = set_load_cutoffv * 10 + atoi(num) * 1000;
;;;1392   //                    }
;;;1393   //                    bit = 3;
;;;1394   //                    break;
;;;1395   //                }
;;;1396   //                case 3:
;;;1397   //                {
;;;1398   //                    strcat(set_limit,num);
;;;1399   //                    TEXT_SetText(hItem,set_limit);
;;;1400   //                    if(dot_flag == 0)
;;;1401   //                    {
;;;1402   //                        if(set_limit[2] == 0x2e)//判断输入是否为小数点
;;;1403   //                        {                            
;;;1404   //                            dot_flag = 2;
;;;1405   //                        }else{
;;;1406   //                            set_load_cutoffv = 0;
;;;1407   //                        }
;;;1408   //                    }else{
;;;1409   //                        set_load_cutoffv = set_load_cutoffv + atoi(num) * 100;
;;;1410   //                    }                  
;;;1411   //                    bit = 4;
;;;1412   //                    break;
;;;1413   //                }
;;;1414   //                case 4:
;;;1415   //                {
;;;1416   //                    strcat(set_limit,num);
;;;1417   //                    TEXT_SetText(hItem,set_limit);
;;;1418   //                    if(dot_flag == 0)
;;;1419   //                    {
;;;1420   //                        set_load_cutoffv = 0;
;;;1421   //                    }else if(dot_flag == 2){
;;;1422   //                        set_load_cutoffv = set_load_cutoffv + atoi(num) * 100;
;;;1423   //                    }else{
;;;1424   //                        set_load_cutoffv = set_load_cutoffv + atoi(num) * 10;
;;;1425   //                    }                  
;;;1426   //                    bit = 5;
;;;1427   //                    break;
;;;1428   //                }
;;;1429   //                case 5:
;;;1430   //                {
;;;1431   //                    strcat(set_limit,num);
;;;1432   //                    TEXT_SetText(hItem,set_limit);
;;;1433   //                    if(dot_flag == 0)
;;;1434   //                    {
;;;1435   //                        set_load_cutoffv = 0;
;;;1436   //                    }else if(dot_flag == 1){
;;;1437   //                        set_load_cutoffv = set_load_cutoffv + atoi(num);
;;;1438   //                    }else{
;;;1439   //                        set_load_cutoffv = set_load_cutoffv + atoi(num) * 10;
;;;1440   //                    }                 
;;;1441   //                    bit = 6;
;;;1442   //                    break;
;;;1443   //                }
;;;1444   //                case 6:
;;;1445   //                {
;;;1446   //                    strcat(set_limit,num);
;;;1447   //                    TEXT_SetText(hItem,set_limit);
;;;1448   //                    if(dot_flag == 0)
;;;1449   //                    {
;;;1450   //                        set_load_cutoffv = 0;
;;;1451   //                    }else if(dot_flag == 2){
;;;1452   //                        set_load_cutoffv = set_load_cutoffv + atoi(num);
;;;1453   //                    }                 
;;;1454   //                    bit = 0;
;;;1455   //                    break;
;;;1456   //                }
;;;1457   //            }
;;;1458               break;
;;;1459               
;;;1460           }
;;;1461           default:break;
;;;1462       }
;;;1463   }
000140  e8bd87f0          POP      {r4-r10,pc}
;;;1464   
                          ENDP

                  |L3.324|
                          DCD      set_sw
                  |L3.328|
                          DCD      ||.data||
                  |L3.332|
                          DCD      set_limit
                  |L3.336|
                          DCD      dot_flag
                  |L3.340|
                          DCD      bit
                  |L3.344|
000158  2e00              DCB      ".",0
00015a  00                DCB      0
00015b  00                DCB      0

                          AREA ||i.LOAD_OP_DOWN||, CODE, READONLY, ALIGN=2

                  LOAD_OP_DOWN PROC
;;;753    void LOAD_OP_DOWN(void);
;;;754    void LOAD_OP_DOWN(void)
000000  e92d47f0          PUSH     {r4-r10,lr}
;;;755    {
;;;756        switch(set_sw)
000004  4d34              LDR      r5,|L4.216|
000006  7829              LDRB     r1,[r5,#0]  ; set_sw
;;;757        {
;;;758            case set_24:
;;;759            {
;;;760                WM_HWIN hItem;
;;;761                hItem = WM_GetDialogItem(load_wind, ID_TEXT_48);
000008  4c34              LDR      r4,|L4.220|
;;;762                TEXT_SetBkColor(hItem,GUI_INVALID_COLOR);//选项背景色设为透明
00000a  f06f4670          MVN      r6,#0xf0000000
;;;763                TEXT_SetTextColor(hItem, GUI_WHITE);
00000e  1137              ASRS     r7,r6,#4
;;;764                
;;;765                hItem = WM_GetDialogItem(load_wind, ID_TEXT_122);
;;;766                TEXT_SetBkColor(hItem,0x00BFFFFF);//选项背景色设为米色
000010  f8df90cc          LDR      r9,|L4.224|
000014  68a0              LDR      r0,[r4,#8]            ;756
000016  f44f6811          MOV      r8,#0x910             ;765
00001a  2917              CMP      r1,#0x17              ;756
00001c  d023              BEQ      |L4.102|
;;;767                TEXT_SetTextColor(hItem, GUI_BLACK);
;;;768    
;;;769                set_sw = set_66;
;;;770                break;
;;;771            }
;;;772            case set_66:
;;;773            {
;;;774                WM_HWIN hItem;
;;;775                hItem = WM_GetDialogItem(load_wind, ID_TEXT_122);
;;;776                TEXT_SetBkColor(hItem,GUI_INVALID_COLOR);//选项背景色设为透明
;;;777                TEXT_SetTextColor(hItem, GUI_WHITE);
;;;778                
;;;779                hItem = WM_GetDialogItem(load_wind, ID_TEXT_120);
00001e  f6401a0e          MOV      r10,#0x90e
000022  2941              CMP      r1,#0x41              ;756
000024  d03c              BEQ      |L4.160|
000026  2942              CMP      r1,#0x42              ;756
000028  d11b              BNE      |L4.98|
;;;780                TEXT_SetBkColor(hItem,0x00BFFFFF);//选项背景色设为米色
;;;781                TEXT_SetTextColor(hItem, GUI_BLACK);
;;;782    
;;;783                set_sw = set_67;
;;;784                break;
;;;785            }
;;;786    		 case set_67:
;;;787            {
;;;788                WM_HWIN hItem;
;;;789                hItem = WM_GetDialogItem(load_wind, ID_TEXT_120);
00002a  4651              MOV      r1,r10
00002c  f7fffffe          BL       WM_GetDialogItem
000030  4680              MOV      r8,r0
;;;790                TEXT_SetBkColor(hItem,GUI_INVALID_COLOR);//选项背景色设为透明
000032  4631              MOV      r1,r6
000034  4640              MOV      r0,r8
000036  f7fffffe          BL       TEXT_SetBkColor
;;;791                TEXT_SetTextColor(hItem, GUI_WHITE);
00003a  4639              MOV      r1,r7
00003c  4640              MOV      r0,r8
00003e  f7fffffe          BL       TEXT_SetTextColor
;;;792                
;;;793                hItem = WM_GetDialogItem(load_wind, ID_TEXT_158);
000042  f6401139          MOV      r1,#0x939
000046  68a0              LDR      r0,[r4,#8]  ; load_wind
000048  f7fffffe          BL       WM_GetDialogItem
00004c  4604              MOV      r4,r0
;;;794                TEXT_SetBkColor(hItem,0x00BFFFFF);//选项背景色设为米色
00004e  4649              MOV      r1,r9
000050  4620              MOV      r0,r4
000052  f7fffffe          BL       TEXT_SetBkColor
;;;795                TEXT_SetTextColor(hItem, GUI_BLACK);
000056  2100              MOVS     r1,#0
000058  4620              MOV      r0,r4
00005a  f7fffffe          BL       TEXT_SetTextColor
;;;796    
;;;797                set_sw = set_86;
00005e  2055              MOVS     r0,#0x55
000060  7028              STRB     r0,[r5,#0]
                  |L4.98|
;;;798                break;
;;;799            }
;;;800        }   
;;;801    }
000062  e8bd87f0          POP      {r4-r10,pc}
                  |L4.102|
000066  f640016d          MOV      r1,#0x86d             ;761
00006a  f7fffffe          BL       WM_GetDialogItem
00006e  4682              MOV      r10,r0                ;761
000070  4631              MOV      r1,r6                 ;762
000072  4650              MOV      r0,r10                ;762
000074  f7fffffe          BL       TEXT_SetBkColor
000078  4639              MOV      r1,r7                 ;763
00007a  4650              MOV      r0,r10                ;763
00007c  f7fffffe          BL       TEXT_SetTextColor
000080  4641              MOV      r1,r8                 ;765
000082  68a0              LDR      r0,[r4,#8]            ;765  ; load_wind
000084  f7fffffe          BL       WM_GetDialogItem
000088  4604              MOV      r4,r0                 ;765
00008a  4649              MOV      r1,r9                 ;766
00008c  4620              MOV      r0,r4                 ;766
00008e  f7fffffe          BL       TEXT_SetBkColor
000092  2100              MOVS     r1,#0                 ;767
000094  4620              MOV      r0,r4                 ;767
000096  f7fffffe          BL       TEXT_SetTextColor
00009a  2041              MOVS     r0,#0x41              ;769
00009c  7028              STRB     r0,[r5,#0]            ;769
00009e  e7e0              B        |L4.98|
                  |L4.160|
0000a0  4641              MOV      r1,r8                 ;775
0000a2  f7fffffe          BL       WM_GetDialogItem
0000a6  4680              MOV      r8,r0                 ;775
0000a8  4631              MOV      r1,r6                 ;776
0000aa  4640              MOV      r0,r8                 ;776
0000ac  f7fffffe          BL       TEXT_SetBkColor
0000b0  4639              MOV      r1,r7                 ;777
0000b2  4640              MOV      r0,r8                 ;777
0000b4  f7fffffe          BL       TEXT_SetTextColor
0000b8  4651              MOV      r1,r10                ;779
0000ba  68a0              LDR      r0,[r4,#8]            ;779  ; load_wind
0000bc  f7fffffe          BL       WM_GetDialogItem
0000c0  4604              MOV      r4,r0                 ;779
0000c2  4649              MOV      r1,r9                 ;780
0000c4  4620              MOV      r0,r4                 ;780
0000c6  f7fffffe          BL       TEXT_SetBkColor
0000ca  2100              MOVS     r1,#0                 ;781
0000cc  4620              MOV      r0,r4                 ;781
0000ce  f7fffffe          BL       TEXT_SetTextColor
0000d2  2042              MOVS     r0,#0x42              ;783
0000d4  7028              STRB     r0,[r5,#0]            ;783
0000d6  e7c4              B        |L4.98|
;;;802    
                          ENDP

                  |L4.216|
                          DCD      set_sw
                  |L4.220|
                          DCD      ||.data||
                  |L4.224|
                          DCD      0x00bfffff

                          AREA ||i.LOAD_OP_UP||, CODE, READONLY, ALIGN=2

                  LOAD_OP_UP PROC
;;;803    void LOAD_OP_UP(void);
;;;804    void LOAD_OP_UP(void)
000000  e92d47f0          PUSH     {r4-r10,lr}
;;;805    {
;;;806        switch(set_sw)
000004  4d34              LDR      r5,|L5.216|
000006  7829              LDRB     r1,[r5,#0]  ; set_sw
;;;807        {
;;;808            case set_66:
;;;809            {
;;;810                WM_HWIN hItem;
;;;811                hItem = WM_GetDialogItem(load_wind, ID_TEXT_122);
000008  4c34              LDR      r4,|L5.220|
;;;812                TEXT_SetBkColor(hItem,GUI_INVALID_COLOR);//选项背景色设为透明
;;;813                TEXT_SetTextColor(hItem, GUI_WHITE);
;;;814                
;;;815                hItem = WM_GetDialogItem(load_wind, ID_TEXT_48);
;;;816                TEXT_SetBkColor(hItem,0x00BFFFFF);//选项背景色设为米色
00000a  f8dfa0d4          LDR      r10,|L5.224|
00000e  f44f6611          MOV      r6,#0x910             ;811
000012  68a0              LDR      r0,[r4,#8]            ;806
000014  f06f4870          MVN      r8,#0xf0000000        ;812
000018  f06f497f          MVN      r9,#0xff000000        ;813
00001c  2941              CMP      r1,#0x41              ;806
00001e  d022              BEQ      |L5.102|
;;;817                TEXT_SetTextColor(hItem, GUI_BLACK);
;;;818    
;;;819                set_sw = set_24;
;;;820                break;
;;;821            }
;;;822            case set_67:
;;;823            {
;;;824                WM_HWIN hItem;
;;;825                hItem = WM_GetDialogItem(load_wind, ID_TEXT_120);
000020  1eb7              SUBS     r7,r6,#2
000022  2942              CMP      r1,#0x42              ;806
000024  d03c              BEQ      |L5.160|
000026  2955              CMP      r1,#0x55              ;806
000028  d11b              BNE      |L5.98|
;;;826                TEXT_SetBkColor(hItem,GUI_INVALID_COLOR);//选项背景色设为透明
;;;827                TEXT_SetTextColor(hItem, GUI_WHITE);
;;;828                
;;;829                hItem = WM_GetDialogItem(load_wind, ID_TEXT_122);
;;;830                TEXT_SetBkColor(hItem,0x00BFFFFF);//选项背景色设为米色
;;;831                TEXT_SetTextColor(hItem, GUI_BLACK);
;;;832    
;;;833                set_sw = set_66;
;;;834                break;
;;;835            }
;;;836    		case set_86:
;;;837            {
;;;838                WM_HWIN hItem;
;;;839                hItem = WM_GetDialogItem(load_wind, ID_TEXT_158);
00002a  f6401139          MOV      r1,#0x939
00002e  f7fffffe          BL       WM_GetDialogItem
000032  4606              MOV      r6,r0
;;;840                TEXT_SetBkColor(hItem,GUI_INVALID_COLOR);//选项背景色设为透明
000034  4641              MOV      r1,r8
000036  4630              MOV      r0,r6
000038  f7fffffe          BL       TEXT_SetBkColor
;;;841                TEXT_SetTextColor(hItem, GUI_WHITE);
00003c  4649              MOV      r1,r9
00003e  4630              MOV      r0,r6
000040  f7fffffe          BL       TEXT_SetTextColor
;;;842                
;;;843                hItem = WM_GetDialogItem(load_wind, ID_TEXT_120);
000044  4639              MOV      r1,r7
000046  68a0              LDR      r0,[r4,#8]  ; load_wind
000048  f7fffffe          BL       WM_GetDialogItem
00004c  4604              MOV      r4,r0
;;;844                TEXT_SetBkColor(hItem,0x00BFFFFF);//选项背景色设为米色
00004e  4651              MOV      r1,r10
000050  4620              MOV      r0,r4
000052  f7fffffe          BL       TEXT_SetBkColor
;;;845                TEXT_SetTextColor(hItem, GUI_BLACK);
000056  2100              MOVS     r1,#0
000058  4620              MOV      r0,r4
00005a  f7fffffe          BL       TEXT_SetTextColor
;;;846    
;;;847                set_sw = set_67;
00005e  2042              MOVS     r0,#0x42
000060  7028              STRB     r0,[r5,#0]
                  |L5.98|
;;;848                break;
;;;849            }
;;;850        }   
;;;851    }
000062  e8bd87f0          POP      {r4-r10,pc}
                  |L5.102|
000066  4631              MOV      r1,r6                 ;811
000068  f7fffffe          BL       WM_GetDialogItem
00006c  4606              MOV      r6,r0                 ;811
00006e  4641              MOV      r1,r8                 ;812
000070  4630              MOV      r0,r6                 ;812
000072  f7fffffe          BL       TEXT_SetBkColor
000076  4649              MOV      r1,r9                 ;813
000078  4630              MOV      r0,r6                 ;813
00007a  f7fffffe          BL       TEXT_SetTextColor
00007e  f640016d          MOV      r1,#0x86d             ;815
000082  68a0              LDR      r0,[r4,#8]            ;815  ; load_wind
000084  f7fffffe          BL       WM_GetDialogItem
000088  4604              MOV      r4,r0                 ;815
00008a  4651              MOV      r1,r10                ;816
00008c  4620              MOV      r0,r4                 ;816
00008e  f7fffffe          BL       TEXT_SetBkColor
000092  2100              MOVS     r1,#0                 ;817
000094  4620              MOV      r0,r4                 ;817
000096  f7fffffe          BL       TEXT_SetTextColor
00009a  2017              MOVS     r0,#0x17              ;819
00009c  7028              STRB     r0,[r5,#0]            ;819
00009e  e7e0              B        |L5.98|
                  |L5.160|
0000a0  4639              MOV      r1,r7                 ;825
0000a2  f7fffffe          BL       WM_GetDialogItem
0000a6  4607              MOV      r7,r0                 ;825
0000a8  4641              MOV      r1,r8                 ;826
0000aa  4638              MOV      r0,r7                 ;826
0000ac  f7fffffe          BL       TEXT_SetBkColor
0000b0  4649              MOV      r1,r9                 ;827
0000b2  4638              MOV      r0,r7                 ;827
0000b4  f7fffffe          BL       TEXT_SetTextColor
0000b8  4631              MOV      r1,r6                 ;829
0000ba  68a0              LDR      r0,[r4,#8]            ;829  ; load_wind
0000bc  f7fffffe          BL       WM_GetDialogItem
0000c0  4604              MOV      r4,r0                 ;829
0000c2  4651              MOV      r1,r10                ;830
0000c4  4620              MOV      r0,r4                 ;830
0000c6  f7fffffe          BL       TEXT_SetBkColor
0000ca  2100              MOVS     r1,#0                 ;831
0000cc  4620              MOV      r0,r4                 ;831
0000ce  f7fffffe          BL       TEXT_SetTextColor
0000d2  2041              MOVS     r0,#0x41              ;833
0000d4  7028              STRB     r0,[r5,#0]            ;833
0000d6  e7c4              B        |L5.98|
;;;852    
                          ENDP

                  |L5.216|
                          DCD      set_sw
                  |L5.220|
                          DCD      ||.data||
                  |L5.224|
                          DCD      0x00bfffff

                          AREA ||i.LOAD_SET||, CODE, READONLY, ALIGN=2

                          REQUIRE _printf_percent
                          REQUIRE _printf_widthprec
                          REQUIRE _printf_f
                          REQUIRE _printf_fp_dec
                  LOAD_SET PROC
;;;854    void LOAD_SET(void);
;;;855    void LOAD_SET(void) {
000000  e92d4ff0          PUSH     {r4-r11,lr}
000004  ed2d8b04          VPUSH    {d8-d9}
000008  b083              SUB      sp,sp,#0xc
;;;856        char    buf[6];
;;;857        float   dis_load_c;
;;;858        float   dis_load_v;
;;;859        vu8 i;
;;;860        switch(set_sw)
00000a  4dfd              LDR      r5,|L6.1024|
00000c  7829              LDRB     r1,[r5,#0]  ; set_sw
;;;861        {
;;;862            case set_24:
;;;863            {
;;;864                WM_HWIN hItem;
;;;865    //            WM_InvalidateWindow(load_wind);
;;;866                hItem = WM_GetDialogItem(load_wind, ID_TEXT_48);
;;;867                TEXT_SetBkColor(hItem,GUI_INVALID_COLOR);//选项背景色设为透明
;;;868                TEXT_SetTextColor(hItem, GUI_WHITE);
;;;869                       
;;;870                hItem = WM_GetDialogItem(load_wind, ID_TEXT_49);
;;;871                TEXT_SetBkColor(hItem,0x00BFFFFF);//选项背景色设为米色
;;;872                TEXT_SetTextColor(hItem, GUI_BLACK);
;;;873                for(i=0;i<6;i++)
;;;874                {
;;;875                    set_limit[i] = '\0';
;;;876                }
;;;877                set_sw = set_25;
;;;878                break;
;;;879            }
;;;880            case set_25:
;;;881            {
;;;882                WM_HWIN hItem;
;;;883    //            WM_InvalidateWindow(lo\\JK_BTSET\../drive/AD7689.c\AD7689_Bufferad_wind);
;;;884                hItem = WM_GetDialogItem(load_wind, ID_TEXT_49);
;;;885                TEXT_SetBkColor(hItem,GUI_INVALID_COLOR);//选项背景色设为透明
;;;886                TEXT_SetTextColor(hItem, GUI_WHITE);  
;;;887    			if(dot_flag == 0){
;;;888    				load_c = atoi(set_limit)*1000;					
;;;889    			}else if(dot_flag != 0){
;;;890    				memset(buf, '\0', sizeof(buf));
;;;891    				strncpy(buf,set_limit,dot_flag + 4);
;;;892    				load_c = atof(buf)*1000;
00000e  ed9f8bfd          VLDR     d8,|L6.1028|
;;;893    			}
;;;894    			if(load_c > 30000 || (float)load_c/1000 * DISS_Voltage > 200){
000012  f8df93f8          LDR      r9,|L6.1036|
;;;895                    load_c = 0;
;;;896                }
;;;897    //			if(load_c > 2500)
;;;898    //			{
;;;899    //				C_SW(1);
;;;900    //			}else{
;;;901    //				C_SW(0);
;;;902    //			}
;;;903                SET_Current_Laod = load_c;            
;;;904    //            if(load_c > 3000)
;;;905    //			{
;;;906    //				C_SW(1);
;;;907    //			}else{
;;;908    //				C_SW(0);
;;;909    //			}
;;;910                dis_load_c = (float)SET_Current_Laod/1000;
;;;911                sprintf(buf,"%.3f",dis_load_c);
;;;912                TEXT_SetText(hItem,buf);
;;;913                
;;;914                hItem = WM_GetDialogItem(load_wind, ID_TEXT_48);
;;;915                TEXT_SetBkColor(hItem,0x00BFFFFF);//选项背景色设为米色
;;;916                TEXT_SetTextColor(hItem, GUI_BLACK);
;;;917                Write_Limits();
;;;918                
;;;919                set_sw = set_24;
;;;920                bit = 0;
000016  f8df83f8          LDR      r8,|L6.1040|
00001a  4afe              LDR      r2,|L6.1044|
00001c  ed9f9afe          VLDR     s18,|L6.1048|
000020  4efe              LDR      r6,|L6.1052|
000022  f8dfb3fc          LDR      r11,|L6.1056|
000026  2400              MOVS     r4,#0                 ;875
000028  4ffe              LDR      r7,|L6.1060|
00002a  6890              LDR      r0,[r2,#8]            ;860
00002c  2942              CMP      r1,#0x42              ;860
00002e  d07c              BEQ      |L6.298|
000030  dc27              BGT      |L6.130|
000032  f6400a6e          MOV      r10,#0x86e            ;870
000036  2917              CMP      r1,#0x17              ;860
000038  d078              BEQ      |L6.300|
00003a  2918              CMP      r1,#0x18              ;860
00003c  d077              BEQ      |L6.302|
00003e  2941              CMP      r1,#0x41              ;860
000040  d176              BNE      |L6.304|
;;;921                dot_flag = 0;
;;;922                break;
;;;923            }
;;;924            case set_66:
;;;925            {
;;;926                WM_HWIN hItem;
;;;927    //            WM_InvalidateWindow(load_wind);
;;;928                hItem = WM_GetDialogItem(load_wind, ID_TEXT_122);
000042  f44f6111          MOV      r1,#0x910
000046  4616              MOV      r6,r2
000048  f7fffffe          BL       WM_GetDialogItem
00004c  4607              MOV      r7,r0
;;;929                TEXT_SetBkColor(hItem,GUI_INVALID_COLOR);//选项背景色设为透明
00004e  f06f4170          MVN      r1,#0xf0000000
000052  4638              MOV      r0,r7
000054  f7fffffe          BL       TEXT_SetBkColor
;;;930                TEXT_SetTextColor(hItem, GUI_WHITE);
000058  f06f417f          MVN      r1,#0xff000000
00005c  4638              MOV      r0,r7
00005e  f7fffffe          BL       TEXT_SetTextColor
;;;931                       
;;;932                hItem = WM_GetDialogItem(load_wind, ID_TEXT_123);
000062  f6401111          MOV      r1,#0x911
000066  68b0              LDR      r0,[r6,#8]  ; load_wind
000068  f7fffffe          BL       WM_GetDialogItem
00006c  4606              MOV      r6,r0
;;;933                TEXT_SetBkColor(hItem,0x00BFFFFF);//选项背景色设为米色
00006e  49ee              LDR      r1,|L6.1064|
000070  4630              MOV      r0,r6
000072  f7fffffe          BL       TEXT_SetBkColor
;;;934                TEXT_SetTextColor(hItem, GUI_BLACK);
000076  2100              MOVS     r1,#0
000078  4630              MOV      r0,r6
00007a  f7fffffe          BL       TEXT_SetTextColor
;;;935                for(i=0;i<6;i++)
00007e  9400              STR      r4,[sp,#0]
000080  e123              B        |L6.714|
                  |L6.130|
000082  2943              CMP      r1,#0x43              ;860
000084  d07d              BEQ      |L6.386|
;;;936                {
;;;937                    set_limit[i] = '\0';
;;;938                }
;;;939                set_sw = set_68;
;;;940                break;
;;;941            }
;;;942            case set_68:
;;;943            {
;;;944                WM_HWIN hItem;
;;;945                hItem = WM_GetDialogItem(load_wind, ID_TEXT_123);
;;;946                TEXT_SetBkColor(hItem,GUI_INVALID_COLOR);//选项背景色设为透明
;;;947                TEXT_SetTextColor(hItem, GUI_WHITE); 
;;;948    			if(dot_flag == 0){
;;;949    				load_v = atoi(set_limit)*1000;					
;;;950    			}else if(dot_flag != 0){
;;;951    				memset(buf, '\0', sizeof(buf));
;;;952    				strncpy(buf,set_limit,dot_flag + 4);
;;;953    				load_v = atof(buf)*1000;
;;;954    			}
;;;955    			if(load_v > 80000 || (float)load_v/1000 * DISS_Current > 200){
;;;956                    load_v = 0;
;;;957                }
;;;958                SET_Voltage_Laod = load_v;          
;;;959                
;;;960                dis_load_v = (float)SET_Voltage_Laod/1000;
;;;961                sprintf(buf,"%.3f",dis_load_v);
;;;962                TEXT_SetText(hItem,buf);
;;;963                
;;;964                hItem = WM_GetDialogItem(load_wind, ID_TEXT_122);
;;;965                TEXT_SetBkColor(hItem,0x00BFFFFF);//选项背景色设为米色
;;;966                TEXT_SetTextColor(hItem, GUI_BLACK);
;;;967                Write_Limits();
;;;968                
;;;969                set_sw = set_66;
;;;970                bit = 0;
;;;971                dot_flag = 0;
;;;972                break;
;;;973            }
;;;974            case set_67:
;;;975            {
;;;976                switch(flag_Load_CC)
;;;977                {
;;;978                    case 1:
;;;979                    {
;;;980                        WM_HWIN hItem;
;;;981                        hItem = WM_GetDialogItem(load_wind, ID_TEXT_121);
;;;982                        TEXT_SetText(hItem,"CV");
;;;983    					flag_Load_CC = 0;
;;;984                        GPIO_ResetBits(GPIOC,GPIO_Pin_10);//CV                  
;;;985                        load_mode = 0;
;;;986                        Write_LOAD();
;;;987                        break;
;;;988                    }
;;;989                    case 0:
;;;990                    {
;;;991                         WM_HWIN hItem;
;;;992                         hItem = WM_GetDialogItem(load_wind, ID_TEXT_121);
;;;993                         TEXT_SetText(hItem,"CC");
;;;994    					 flag_Load_CC = 1;
;;;995                         GPIO_SetBits(GPIOC,GPIO_Pin_10);//CC                   
;;;996                         load_mode =1;
;;;997                         Write_LOAD();
;;;998                         break;
;;;999                    }
;;;1000               }   
;;;1001           }break;
;;;1002   		case set_86:
;;;1003           {
;;;1004               WM_HWIN hItem;
;;;1005   //            WM_InvalidateWindow(load_wind);
;;;1006               hItem = WM_GetDialogItem(load_wind, ID_TEXT_158);
000086  f6401939          MOV      r9,#0x939
;;;1007               TEXT_SetBkColor(hItem,GUI_INVALID_COLOR);//选项背景色设为透明
;;;1008               TEXT_SetTextColor(hItem, GUI_WHITE);
;;;1009                      
;;;1010               hItem = WM_GetDialogItem(load_wind, ID_TEXT_143);
00008a  f640162d          MOV      r6,#0x92d
00008e  2955              CMP      r1,#0x55              ;860
000090  d078              BEQ      |L6.388|
000092  2956              CMP      r1,#0x56              ;860
000094  d15d              BNE      |L6.338|
;;;1011               TEXT_SetBkColor(hItem,0x00BFFFFF);//选项背景色设为米色
;;;1012               TEXT_SetTextColor(hItem, GUI_BLACK);
;;;1013               for(i=0;i<6;i++)
;;;1014               {
;;;1015                   set_limit[i] = '\0';
;;;1016               }
;;;1017               set_sw = set_87;
;;;1018               break;
;;;1019           }
;;;1020           case set_87:
;;;1021           {
;;;1022               WM_HWIN hItem;
;;;1023               hItem = WM_GetDialogItem(load_wind, ID_TEXT_143);
000096  4631              MOV      r1,r6
000098  4692              MOV      r10,r2
00009a  f7fffffe          BL       WM_GetDialogItem
00009e  4683              MOV      r11,r0
;;;1024               TEXT_SetBkColor(hItem,GUI_INVALID_COLOR);//选项背景色设为透明
0000a0  f06f4170          MVN      r1,#0xf0000000
0000a4  4658              MOV      r0,r11
0000a6  f7fffffe          BL       TEXT_SetBkColor
;;;1025               TEXT_SetTextColor(hItem, GUI_WHITE); 
0000aa  f06f417f          MVN      r1,#0xff000000
0000ae  4658              MOV      r0,r11
0000b0  f7fffffe          BL       TEXT_SetTextColor
;;;1026   			if(dot_flag == 0){
0000b4  7838              LDRB     r0,[r7,#0]  ; dot_flag
;;;1027   				set_load_cutoffv = atoi(set_limit)*1000;					
0000b6  4edd              LDR      r6,|L6.1068|
0000b8  2800              CMP      r0,#0                 ;1026
0000ba  d071              BEQ      |L6.416|
;;;1028   			}else if(dot_flag != 0){
0000bc  7838              LDRB     r0,[r7,#0]  ; dot_flag
0000be  b198              CBZ      r0,|L6.232|
;;;1029   				memset(buf, '\0', sizeof(buf));
0000c0  9401              STR      r4,[sp,#4]
0000c2  9402              STR      r4,[sp,#8]
;;;1030   				strncpy(buf,set_limit,dot_flag + 4);
0000c4  783a              LDRB     r2,[r7,#0]  ; dot_flag
0000c6  49d6              LDR      r1,|L6.1056|
0000c8  1d12              ADDS     r2,r2,#4
0000ca  a801              ADD      r0,sp,#4
0000cc  f7fffffe          BL       strncpy
;;;1031   				set_load_cutoffv = atof(buf)*1000;
0000d0  a801              ADD      r0,sp,#4
0000d2  f7fffffe          BL       __hardfp_atof
0000d6  ec532b18          VMOV     r2,r3,d8
0000da  ec510b10          VMOV     r0,r1,d0
0000de  f7fffffe          BL       __aeabi_dmul
0000e2  f7fffffe          BL       __aeabi_d2iz
0000e6  6130              STR      r0,[r6,#0x10]  ; InFlashSave
                  |L6.232|
;;;1032   			}
;;;1033               load_cutoffv = (float)set_load_cutoffv/1000;
0000e8  ed960a04          VLDR     s0,[r6,#0x10]
0000ec  eef80ac0          VCVT.F32.S32 s1,s0
0000f0  ee800a89          VDIV.F32 s0,s1,s18
0000f4  ed8a0a03          VSTR     s0,[r10,#0xc]
;;;1034               sprintf(buf,"%.3f",load_cutoffv);
0000f8  ee100a10          VMOV     r0,s0
0000fc  f7fffffe          BL       __aeabi_f2d
000100  ec410b10          VMOV     d0,r0,r1
000104  a1ca              ADR      r1,|L6.1072|
000106  ec532b10          VMOV     r2,r3,d0
00010a  a801              ADD      r0,sp,#4
00010c  f7fffffe          BL       __2sprintf
;;;1035               TEXT_SetText(hItem,buf);
000110  a901              ADD      r1,sp,#4
000112  4658              MOV      r0,r11
000114  f7fffffe          BL       TEXT_SetText
;;;1036               
;;;1037               hItem = WM_GetDialogItem(load_wind, ID_TEXT_158);
000118  4649              MOV      r1,r9
00011a  f8da0008          LDR      r0,[r10,#8]  ; load_wind
00011e  f7fffffe          BL       WM_GetDialogItem
000122  4606              MOV      r6,r0
;;;1038               TEXT_SetBkColor(hItem,0x00BFFFFF);//选项背景色设为米色
000124  49c0              LDR      r1,|L6.1064|
000126  4630              MOV      r0,r6
000128  e003              B        |L6.306|
                  |L6.298|
00012a  e152              B        |L6.978|
                  |L6.300|
00012c  e016              B        |L6.348|
                  |L6.302|
00012e  e047              B        |L6.448|
                  |L6.304|
000130  e00f              B        |L6.338|
                  |L6.306|
000132  f7fffffe          BL       TEXT_SetBkColor
;;;1039               TEXT_SetTextColor(hItem, GUI_BLACK);
000136  2100              MOVS     r1,#0
000138  4630              MOV      r0,r6
00013a  f7fffffe          BL       TEXT_SetTextColor
;;;1040               Flash_Write32BitDatas(FLASH_USER_START_ADDR,43, InFlashSave);
00013e  4abb              LDR      r2,|L6.1068|
000140  212b              MOVS     r1,#0x2b
000142  48bd              LDR      r0,|L6.1080|
000144  f7fffffe          BL       Flash_Write32BitDatas
;;;1041               
;;;1042               set_sw = set_86;
000148  2055              MOVS     r0,#0x55
00014a  7028              STRB     r0,[r5,#0]
;;;1043               bit = 0;
00014c  f8884000          STRB     r4,[r8,#0]
;;;1044               dot_flag = 0;
000150  703c              STRB     r4,[r7,#0]
                  |L6.338|
;;;1045               break;
;;;1046           }
;;;1047       }
;;;1048   }
000152  b003              ADD      sp,sp,#0xc
000154  ecbd8b04          VPOP     {d8-d9}
000158  e8bd8ff0          POP      {r4-r11,pc}
                  |L6.348|
00015c  f640016d          MOV      r1,#0x86d             ;866
000160  4616              MOV      r6,r2                 ;866
000162  f7fffffe          BL       WM_GetDialogItem
000166  4607              MOV      r7,r0                 ;866
000168  f06f4170          MVN      r1,#0xf0000000        ;867
00016c  4638              MOV      r0,r7                 ;867
00016e  f7fffffe          BL       TEXT_SetBkColor
000172  f06f417f          MVN      r1,#0xff000000        ;868
000176  4638              MOV      r0,r7                 ;868
000178  f7fffffe          BL       TEXT_SetTextColor
00017c  4651              MOV      r1,r10                ;870
00017e  68b0              LDR      r0,[r6,#8]            ;870  ; load_wind
000180  e001              B        |L6.390|
                  |L6.386|
000182  e0a9              B        |L6.728|
                  |L6.388|
000184  e183              B        |L6.1166|
                  |L6.390|
000186  f7fffffe          BL       WM_GetDialogItem
00018a  4606              MOV      r6,r0                 ;870
00018c  49a6              LDR      r1,|L6.1064|
00018e  4630              MOV      r0,r6                 ;871
000190  f7fffffe          BL       TEXT_SetBkColor
000194  2100              MOVS     r1,#0                 ;872
000196  4630              MOV      r0,r6                 ;872
000198  f7fffffe          BL       TEXT_SetTextColor
00019c  9400              STR      r4,[sp,#0]            ;873
00019e  e008              B        |L6.434|
                  |L6.416|
0001a0  e1a2              B        |L6.1256|
                  |L6.418|
0001a2  f89d0000          LDRB     r0,[sp,#0]            ;875
0001a6  f80b4000          STRB     r4,[r11,r0]           ;875
0001aa  f89d0000          LDRB     r0,[sp,#0]            ;873
0001ae  1c40              ADDS     r0,r0,#1              ;873
0001b0  9000              STR      r0,[sp,#0]            ;873
                  |L6.434|
0001b2  f89d0000          LDRB     r0,[sp,#0]            ;873
0001b6  2806              CMP      r0,#6                 ;873
0001b8  d3f3              BCC      |L6.418|
0001ba  2018              MOVS     r0,#0x18              ;877
0001bc  7028              STRB     r0,[r5,#0]            ;877
0001be  e7c8              B        |L6.338|
                  |L6.448|
0001c0  4651              MOV      r1,r10                ;884
0001c2  4692              MOV      r10,r2                ;884
0001c4  f7fffffe          BL       WM_GetDialogItem
0001c8  4683              MOV      r11,r0                ;884
0001ca  f06f4170          MVN      r1,#0xf0000000        ;885
0001ce  4658              MOV      r0,r11                ;885
0001d0  f7fffffe          BL       TEXT_SetBkColor
0001d4  f06f417f          MVN      r1,#0xff000000        ;886
0001d8  4658              MOV      r0,r11                ;886
0001da  f7fffffe          BL       TEXT_SetTextColor
0001de  7838              LDRB     r0,[r7,#0]            ;887  ; dot_flag
0001e0  b3f0              CBZ      r0,|L6.608|
0001e2  7838              LDRB     r0,[r7,#0]            ;889  ; dot_flag
0001e4  b1a0              CBZ      r0,|L6.528|
0001e6  9401              STR      r4,[sp,#4]            ;890
0001e8  9402              STR      r4,[sp,#8]            ;890
0001ea  783a              LDRB     r2,[r7,#0]            ;891  ; dot_flag
0001ec  498c              LDR      r1,|L6.1056|
0001ee  1d12              ADDS     r2,r2,#4              ;891
0001f0  a801              ADD      r0,sp,#4              ;891
0001f2  f7fffffe          BL       strncpy
0001f6  a801              ADD      r0,sp,#4              ;892
0001f8  f7fffffe          BL       __hardfp_atof
0001fc  ec532b18          VMOV     r2,r3,d8              ;892
000200  ec510b10          VMOV     r0,r1,d0              ;892
000204  f7fffffe          BL       __aeabi_dmul
000208  f7fffffe          BL       __aeabi_d2uiz
00020c  f8c60094          STR      r0,[r6,#0x94]         ;892  ; Run_Control
                  |L6.528|
000210  f8d60094          LDR      r0,[r6,#0x94]         ;894  ; Run_Control
000214  f2475130          MOV      r1,#0x7530            ;894
000218  4288              CMP      r0,r1                 ;894
00021a  d810              BHI      |L6.574|
00021c  f8d60094          LDR      r0,[r6,#0x94]         ;894  ; Run_Control
000220  ee000a10          VMOV     s0,r0                 ;894
000224  4885              LDR      r0,|L6.1084|
000226  eef80a40          VCVT.F32.U32 s1,s0                 ;894
00022a  ee800a89          VDIV.F32 s0,s1,s18             ;894
00022e  edd00a00          VLDR     s1,[r0,#0]            ;894
000232  ee200a20          VMUL.F32 s0,s0,s1              ;894
000236  ee100a10          VMOV     r0,s0                 ;894
00023a  4548              CMP      r0,r9                 ;894
00023c  dd01              BLE      |L6.578|
                  |L6.574|
00023e  f8c64094          STR      r4,[r6,#0x94]         ;895  ; Run_Control
                  |L6.578|
000242  f8d60094          LDR      r0,[r6,#0x94]         ;903  ; Run_Control
000246  6130              STR      r0,[r6,#0x10]         ;903  ; Run_Control
000248  6930              LDR      r0,[r6,#0x10]         ;910  ; Run_Control
00024a  ee000a10          VMOV     s0,r0                 ;910
00024e  eef80a40          VCVT.F32.U32 s1,s0                 ;910
000252  ee800a89          VDIV.F32 s0,s1,s18             ;910
000256  ee100a10          VMOV     r0,s0                 ;911
00025a  f7fffffe          BL       __aeabi_f2d
00025e  e000              B        |L6.610|
                  |L6.608|
000260  e022              B        |L6.680|
                  |L6.610|
000262  ec410b10          VMOV     d0,r0,r1              ;911
000266  a172              ADR      r1,|L6.1072|
000268  ec532b10          VMOV     r2,r3,d0              ;911
00026c  a801              ADD      r0,sp,#4              ;911
00026e  f7fffffe          BL       __2sprintf
000272  a901              ADD      r1,sp,#4              ;912
000274  4658              MOV      r0,r11                ;912
000276  f7fffffe          BL       TEXT_SetText
00027a  f640016d          MOV      r1,#0x86d             ;914
00027e  f8da0008          LDR      r0,[r10,#8]           ;914  ; load_wind
000282  f7fffffe          BL       WM_GetDialogItem
000286  4606              MOV      r6,r0                 ;914
000288  4967              LDR      r1,|L6.1064|
00028a  4630              MOV      r0,r6                 ;915
00028c  f7fffffe          BL       TEXT_SetBkColor
000290  2100              MOVS     r1,#0                 ;916
000292  4630              MOV      r0,r6                 ;916
000294  f7fffffe          BL       TEXT_SetTextColor
000298  f7fffffe          BL       Write_Limits
00029c  2017              MOVS     r0,#0x17              ;919
00029e  7028              STRB     r0,[r5,#0]            ;919
0002a0  f8884000          STRB     r4,[r8,#0]            ;920
0002a4  703c              STRB     r4,[r7,#0]            ;921
0002a6  e754              B        |L6.338|
                  |L6.680|
0002a8  485d              LDR      r0,|L6.1056|
0002aa  f7fffffe          BL       atoi
0002ae  f44f717a          MOV      r1,#0x3e8             ;888
0002b2  4348              MULS     r0,r1,r0              ;888
0002b4  f8c60094          STR      r0,[r6,#0x94]         ;888  ; Run_Control
0002b8  e7aa              B        |L6.528|
                  |L6.698|
0002ba  f89d0000          LDRB     r0,[sp,#0]            ;937
0002be  f80b4000          STRB     r4,[r11,r0]           ;937
0002c2  f89d0000          LDRB     r0,[sp,#0]            ;935
0002c6  1c40              ADDS     r0,r0,#1              ;935
0002c8  9000              STR      r0,[sp,#0]            ;935
                  |L6.714|
0002ca  f89d0000          LDRB     r0,[sp,#0]            ;935
0002ce  2806              CMP      r0,#6                 ;935
0002d0  d3f3              BCC      |L6.698|
0002d2  2043              MOVS     r0,#0x43              ;939
0002d4  7028              STRB     r0,[r5,#0]            ;939
0002d6  e73c              B        |L6.338|
                  |L6.728|
0002d8  f6401111          MOV      r1,#0x911             ;945
0002dc  4692              MOV      r10,r2                ;945
0002de  f7fffffe          BL       WM_GetDialogItem
0002e2  4683              MOV      r11,r0                ;945
0002e4  f06f4170          MVN      r1,#0xf0000000        ;946
0002e8  4658              MOV      r0,r11                ;946
0002ea  f7fffffe          BL       TEXT_SetBkColor
0002ee  f06f417f          MVN      r1,#0xff000000        ;947
0002f2  4658              MOV      r0,r11                ;947
0002f4  f7fffffe          BL       TEXT_SetTextColor
0002f8  7838              LDRB     r0,[r7,#0]            ;948  ; dot_flag
0002fa  b3e8              CBZ      r0,|L6.888|
0002fc  7838              LDRB     r0,[r7,#0]            ;950  ; dot_flag
0002fe  b1a0              CBZ      r0,|L6.810|
000300  9401              STR      r4,[sp,#4]            ;951
000302  9402              STR      r4,[sp,#8]            ;951
000304  783a              LDRB     r2,[r7,#0]            ;952  ; dot_flag
000306  4946              LDR      r1,|L6.1056|
000308  1d12              ADDS     r2,r2,#4              ;952
00030a  a801              ADD      r0,sp,#4              ;952
00030c  f7fffffe          BL       strncpy
000310  a801              ADD      r0,sp,#4              ;953
000312  f7fffffe          BL       __hardfp_atof
000316  ec532b18          VMOV     r2,r3,d8              ;953
00031a  ec510b10          VMOV     r0,r1,d0              ;953
00031e  f7fffffe          BL       __aeabi_dmul
000322  f7fffffe          BL       __aeabi_d2uiz
000326  f8c600a4          STR      r0,[r6,#0xa4]         ;953  ; Run_Control
                  |L6.810|
00032a  f8d600a4          LDR      r0,[r6,#0xa4]         ;955  ; Run_Control
00032e  4944              LDR      r1,|L6.1088|
000330  4288              CMP      r0,r1                 ;955
000332  d810              BHI      |L6.854|
000334  f8d600a4          LDR      r0,[r6,#0xa4]         ;955  ; Run_Control
000338  ee000a10          VMOV     s0,r0                 ;955
00033c  4841              LDR      r0,|L6.1092|
00033e  eef80a40          VCVT.F32.U32 s1,s0                 ;955
000342  ee800a89          VDIV.F32 s0,s1,s18             ;955
000346  edd00a00          VLDR     s1,[r0,#0]            ;955
00034a  ee200a20          VMUL.F32 s0,s0,s1              ;955
00034e  ee100a10          VMOV     r0,s0                 ;955
000352  4548              CMP      r0,r9                 ;955
000354  dd01              BLE      |L6.858|
                  |L6.854|
000356  f8c640a4          STR      r4,[r6,#0xa4]         ;956  ; Run_Control
                  |L6.858|
00035a  f8d600a4          LDR      r0,[r6,#0xa4]         ;958  ; Run_Control
00035e  60f0              STR      r0,[r6,#0xc]          ;958  ; Run_Control
000360  68f0              LDR      r0,[r6,#0xc]          ;960  ; Run_Control
000362  ee000a10          VMOV     s0,r0                 ;960
000366  eef80a40          VCVT.F32.U32 s1,s0                 ;960
00036a  ee800a89          VDIV.F32 s0,s1,s18             ;960
00036e  ee100a10          VMOV     r0,s0                 ;961
000372  f7fffffe          BL       __aeabi_f2d
000376  e000              B        |L6.890|
                  |L6.888|
000378  e022              B        |L6.960|
                  |L6.890|
00037a  ec410b10          VMOV     d0,r0,r1              ;961
00037e  a12c              ADR      r1,|L6.1072|
000380  ec532b10          VMOV     r2,r3,d0              ;961
000384  a801              ADD      r0,sp,#4              ;961
000386  f7fffffe          BL       __2sprintf
00038a  a901              ADD      r1,sp,#4              ;962
00038c  4658              MOV      r0,r11                ;962
00038e  f7fffffe          BL       TEXT_SetText
000392  f44f6111          MOV      r1,#0x910             ;964
000396  f8da0008          LDR      r0,[r10,#8]           ;964  ; load_wind
00039a  f7fffffe          BL       WM_GetDialogItem
00039e  4606              MOV      r6,r0                 ;964
0003a0  4921              LDR      r1,|L6.1064|
0003a2  4630              MOV      r0,r6                 ;965
0003a4  f7fffffe          BL       TEXT_SetBkColor
0003a8  2100              MOVS     r1,#0                 ;966
0003aa  4630              MOV      r0,r6                 ;966
0003ac  f7fffffe          BL       TEXT_SetTextColor
0003b0  f7fffffe          BL       Write_Limits
0003b4  2041              MOVS     r0,#0x41              ;969
0003b6  7028              STRB     r0,[r5,#0]            ;969
0003b8  f8884000          STRB     r4,[r8,#0]            ;970
0003bc  703c              STRB     r4,[r7,#0]            ;971
                  |L6.958|
0003be  e6c8              B        |L6.338|
                  |L6.960|
0003c0  4817              LDR      r0,|L6.1056|
0003c2  f7fffffe          BL       atoi
0003c6  f44f717a          MOV      r1,#0x3e8             ;949
0003ca  4348              MULS     r0,r1,r0              ;949
0003cc  f8c600a4          STR      r0,[r6,#0xa4]         ;949  ; Run_Control
0003d0  e7ab              B        |L6.810|
                  |L6.978|
0003d2  4d1d              LDR      r5,|L6.1096|
0003d4  4f1d              LDR      r7,|L6.1100|
0003d6  f44f6680          MOV      r6,#0x400             ;984
0003da  7829              LDRB     r1,[r5,#0]            ;976  ; flagD
0003dc  f3c113c0          UBFX     r3,r1,#7,#1           ;976
0003e0  f640110f          MOV      r1,#0x90f             ;981
0003e4  b3b3              CBZ      r3,|L6.1108|
0003e6  2b01              CMP      r3,#1                 ;976
0003e8  d1e9              BNE      |L6.958|
0003ea  4690              MOV      r8,r2                 ;981
0003ec  f7fffffe          BL       WM_GetDialogItem
0003f0  a117              ADR      r1,|L6.1104|
0003f2  f7fffffe          BL       TEXT_SetText
0003f6  6828              LDR      r0,[r5,#0]            ;983  ; flagD
0003f8  f0200080          BIC      r0,r0,#0x80           ;983
0003fc  6028              STR      r0,[r5,#0]            ;983  ; flagD
0003fe  e02a              B        |L6.1110|
                  |L6.1024|
                          DCD      set_sw
                  |L6.1028|
000404  00000000          DCFD     0x408f400000000000 ; 1000
000408  408f4000
                  |L6.1036|
                          DCD      0x43480000
                  |L6.1040|
                          DCD      bit
                  |L6.1044|
                          DCD      ||.data||
                  |L6.1048|
000418  447a0000          DCFS     0x447a0000 ; 1000
                  |L6.1052|
                          DCD      Run_Control
                  |L6.1056|
                          DCD      set_limit
                  |L6.1060|
                          DCD      dot_flag
                  |L6.1064|
                          DCD      0x00bfffff
                  |L6.1068|
                          DCD      InFlashSave
                  |L6.1072|
000430  252e3366          DCB      "%.3f",0
000434  00      
000435  00                DCB      0
000436  00                DCB      0
000437  00                DCB      0
                  |L6.1080|
                          DCD      0x080e0000
                  |L6.1084|
                          DCD      DISS_Voltage
                  |L6.1088|
                          DCD      0x00013880
                  |L6.1092|
                          DCD      DISS_Current
                  |L6.1096|
                          DCD      flagD
                  |L6.1100|
                          DCD      0x40020800
                  |L6.1104|
000450  435600            DCB      "CV",0
000453  00                DCB      0
                  |L6.1108|
000454  e008              B        |L6.1128|
                  |L6.1110|
000456  4631              MOV      r1,r6                 ;984
000458  4638              MOV      r0,r7                 ;984
00045a  f7fffffe          BL       GPIO_ResetBits
00045e  f8884002          STRB     r4,[r8,#2]            ;985
000462  f7fffffe          BL       Write_LOAD
000466  e674              B        |L6.338|
                  |L6.1128|
000468  4614              MOV      r4,r2                 ;992
00046a  f7fffffe          BL       WM_GetDialogItem
00046e  a122              ADR      r1,|L6.1272|
000470  f7fffffe          BL       TEXT_SetText
000474  6828              LDR      r0,[r5,#0]            ;994  ; flagD
000476  f0400080          ORR      r0,r0,#0x80           ;994
00047a  6028              STR      r0,[r5,#0]            ;994  ; flagD
00047c  4631              MOV      r1,r6                 ;995
00047e  4638              MOV      r0,r7                 ;995
000480  f7fffffe          BL       GPIO_SetBits
000484  2001              MOVS     r0,#1                 ;996
000486  70a0              STRB     r0,[r4,#2]            ;996
000488  f7fffffe          BL       Write_LOAD
00048c  e661              B        |L6.338|
                  |L6.1166|
00048e  4649              MOV      r1,r9                 ;1006
000490  4617              MOV      r7,r2                 ;1006
000492  f7fffffe          BL       WM_GetDialogItem
000496  4680              MOV      r8,r0                 ;1006
000498  f06f4170          MVN      r1,#0xf0000000        ;1007
00049c  4640              MOV      r0,r8                 ;1007
00049e  f7fffffe          BL       TEXT_SetBkColor
0004a2  f06f417f          MVN      r1,#0xff000000        ;1008
0004a6  4640              MOV      r0,r8                 ;1008
0004a8  f7fffffe          BL       TEXT_SetTextColor
0004ac  4631              MOV      r1,r6                 ;1010
0004ae  68b8              LDR      r0,[r7,#8]            ;1010  ; load_wind
0004b0  f7fffffe          BL       WM_GetDialogItem
0004b4  4606              MOV      r6,r0                 ;1010
0004b6  4911              LDR      r1,|L6.1276|
0004b8  4630              MOV      r0,r6                 ;1011
0004ba  f7fffffe          BL       TEXT_SetBkColor
0004be  2100              MOVS     r1,#0                 ;1012
0004c0  4630              MOV      r0,r6                 ;1012
0004c2  f7fffffe          BL       TEXT_SetTextColor
0004c6  9400              STR      r4,[sp,#0]            ;1013
0004c8  e007              B        |L6.1242|
                  |L6.1226|
0004ca  f89d0000          LDRB     r0,[sp,#0]            ;1015
0004ce  f80b4000          STRB     r4,[r11,r0]           ;1015
0004d2  f89d0000          LDRB     r0,[sp,#0]            ;1013
0004d6  1c40              ADDS     r0,r0,#1              ;1013
0004d8  9000              STR      r0,[sp,#0]            ;1013
                  |L6.1242|
0004da  f89d0000          LDRB     r0,[sp,#0]            ;1013
0004de  2806              CMP      r0,#6                 ;1013
0004e0  d3f3              BCC      |L6.1226|
0004e2  2056              MOVS     r0,#0x56              ;1017
0004e4  7028              STRB     r0,[r5,#0]            ;1017
0004e6  e634              B        |L6.338|
                  |L6.1256|
0004e8  4805              LDR      r0,|L6.1280|
0004ea  f7fffffe          BL       atoi
0004ee  f44f717a          MOV      r1,#0x3e8             ;1027
0004f2  4348              MULS     r0,r1,r0              ;1027
0004f4  6130              STR      r0,[r6,#0x10]         ;1027  ; InFlashSave
0004f6  e5f7              B        |L6.232|
;;;1049   void DEL_LOAD(void)
                          ENDP

                  |L6.1272|
0004f8  434300            DCB      "CC",0
0004fb  00                DCB      0
                  |L6.1276|
                          DCD      0x00bfffff
                  |L6.1280|
                          DCD      set_limit

                          AREA ||i.ResetLoad||, CODE, READONLY, ALIGN=2

                  ResetLoad PROC
;;;747    
;;;748    WM_HWIN ResetLoad(void) {
000000  b51c              PUSH     {r2-r4,lr}
;;;749      load_wind = GUI_CreateDialogBox(_aDialogCreate2, GUI_COUNTOF(_aDialogCreate2), _cbDialog2, WM_HBKWIN, 0, 0);
000002  f7fffffe          BL       WM_GetDesktopWindow
000006  4603              MOV      r3,r0
000008  2000              MOVS     r0,#0
00000a  9000              STR      r0,[sp,#0]
00000c  9001              STR      r0,[sp,#4]
00000e  4a04              LDR      r2,|L7.32|
000010  2118              MOVS     r1,#0x18
000012  4804              LDR      r0,|L7.36|
000014  f7fffffe          BL       GUI_CreateDialogBox
000018  4903              LDR      r1,|L7.40|
00001a  6088              STR      r0,[r1,#8]  ; load_wind
;;;750      return load_wind;
;;;751    }
00001c  bd1c              POP      {r2-r4,pc}
;;;752    
                          ENDP

00001e  0000              DCW      0x0000
                  |L7.32|
                          DCD      _cbDialog2
                  |L7.36|
                          DCD      ||.constdata||
                  |L7.40|
                          DCD      ||.data||

                          AREA ||i._cbDialog2||, CODE, READONLY, ALIGN=2

                          REQUIRE _printf_percent
                          REQUIRE _printf_widthprec
                          REQUIRE _printf_f
                          REQUIRE _printf_fp_dec
                          REQUIRE _printf_pre_padding
                          REQUIRE _printf_flags
                          REQUIRE _printf_d
                          REQUIRE _printf_int_dec
                  _cbDialog2 PROC
;;;102    
;;;103    static void _cbDialog2(WM_MESSAGE * pMsg) {
000000  e92d4ff0          PUSH     {r4-r11,lr}
000004  ed2d8b06          VPUSH    {d8-d10}
000008  b083              SUB      sp,sp,#0xc
00000a  4604              MOV      r4,r0
;;;104      WM_HWIN hItem;
;;;105      int     NCode;
;;;106      int     Id;
;;;107      char    buf[6];
;;;108      static vu8 status_flash;
;;;109      static u16 swcount;
;;;110      float   dis_load_c = (float)SET_Current_Laod/1000;
00000c  f8df9400          LDR      r9,|L8.1040|
000010  f8d90010          LDR      r0,[r9,#0x10]  ; Run_Control
000014  ee000a10          VMOV     s0,r0
000018  eeb80a40          VCVT.F32.U32 s0,s0
00001c  eddf9afd          VLDR     s19,|L8.1044|
000020  ee80aa29          VDIV.F32 s20,s0,s19
;;;111      float   dis_load_v = (float)SET_Voltage_Laod/1000;
000024  4648              MOV      r0,r9
000026  68c0              LDR      r0,[r0,#0xc]  ; Run_Control
000028  ee000a10          VMOV     s0,r0
00002c  eeb80a40          VCVT.F32.U32 s0,s0
000030  ee809a29          VDIV.F32 s18,s0,s19
;;;112      static float olvbuff,oldv;
;;;113      static float testc1,testc2,testres;
;;;114      static vu8 testflag;
;;;115      // USER START (Optionally insert additional variables)
;;;116      // USER END
;;;117    
;;;118      switch (pMsg->MsgId) {
;;;119    
;;;120    	case WM_PAINT://无效化重绘
;;;121    		GUI_SetColor(GUI_WHITE);//设置画笔颜色
;;;122            GUI_FillRect(0,25,480,26);//画一条实线
;;;123            GUI_SetColor(GUI_ORANGE);
;;;124            GUI_SetFont(&GUI_Fontsymbol);
;;;125            GUI_UC_SetEncodeUTF8();
;;;126            GUI_SetTextMode(GUI_TM_TRANS);//设置文本模式为底色透明
;;;127            if(jkflag == 1)
;;;128    		{
;;;129    			GUI_DispStringAt("Jinko", 5, 1);//SET
;;;130    		}
;;;131            if(lang == 0)
;;;132    		{
;;;133    			GUI_SetColor(GUI_WHITE);
;;;134    			GUI_SetFont(&GUI_FontHZ20S);
;;;135    			GUI_UC_SetEncodeUTF8();
;;;136    			GUI_SetTextMode(GUI_TM_TRANS);//设置文本模式为底色透明
;;;137    			GUI_DispStringAt("测量显示", 130, 3);//SET
;;;138    		}else{
;;;139    			GUI_SetColor(GUI_WHITE);
;;;140    			GUI_SetFont(&GUI_Font20_ASCII);
;;;141    			GUI_DispStringAt("DISPLAY", 130, 3);
;;;142    		}
;;;143    //         GUI_SetFont(&GUI_FontD24x32);//
;;;144    // 		GUI_GotoXY(95,72);//设置显示坐标
;;;145    // 		GUI_DispFloatFix(DISS_Voltage,5,2);//显示电压值
;;;146    // 		GUI_GotoXY(95,140);//设置显示坐标
;;;147    // 		GUI_DispFloatFix(DISS_Current,5,2);//显示电流值
;;;148            GUI_SetFont(&GUI_Font24_1);
;;;149            GUI_DispStringAt("A",450,75);
;;;150            GUI_DispStringAt("V",450,100.);
;;;151            GUI_DispStringAt("V",450,150);
;;;152        
;;;153            GUI_SetFont(&GUI_FontEN40);
;;;154            GUI_SetColor(GUI_LIGHTGRAY);
000034  4ef8              LDR      r6,|L8.1048|
;;;155            GUI_DispStringAt("C:", 28, 190);
;;;156            GUI_SetColor(GUI_LIGHTGRAY);
;;;157            GUI_DispStringAt("m", 217+24, 196);
;;;158            GUI_DispStringAt("AH", 238+24, 187);
;;;159            
;;;160            GUI_SetColor(GUI_GREEN);
;;;161            GUI_SetFont(&GUI_Fontunit);
;;;162            GUI_DispStringAt("°",342, 2);
;;;163            GUI_SetFont(&GUI_Font24_1);
;;;164            GUI_DispStringAt("C",350, 2);
;;;165    //        DrawLock();
;;;166    //        GUI_SetColor(GUI_WHITE);
;;;167    //        GUI_SetFont(&GUI_Fontset_font);
;;;168    //        GUI_DispStringAt("过放电压",290, 150);
;;;169    		break;
;;;170    	case WM_KEY://接受按键消息来处理按键功能
;;;171    		switch (((WM_KEY_INFO*)(pMsg->Data.p))->Key) 
;;;172    		{ 
;;;173    			case GUI_KEY_TAB:
;;;174    
;;;175    			break;
;;;176    			
;;;177    			case GUI_KEY_ENTER:
;;;178    			break;
;;;179    		}
;;;180    	break;
;;;181    		
;;;182    	case WM_TIMER://定时模块消息
;;;183    	if(WM_GetTimerId(pMsg->Data.v) == ID_TimerTime1)
;;;184    	{
;;;185    //        lockstat2 = lockstat1;
;;;186    //        lockstat1 = lock;
;;;187    //        
;;;188    ////        if((vu32)(DISS_Current*1000) > SET_Current_Laod)
;;;189    ////        {
;;;190    ////            testflag = 1;
;;;191    ////        }else{
;;;192    ////            testflag = 0;
;;;193    ////            testc1 = testc2 = 0;
;;;194    ////        }
;;;195    ////        if(testflag == 1)
;;;196    ////        {
;;;197    ////            testc2 = testc1;
;;;198    ////            testc1 = DISS_Current;
;;;199    ////            if(testc1 < testc2)
;;;200    ////            {
;;;201    ////                testres = testc2;
;;;202    ////                testflag = 0;
;;;203    ////                testc1 = testc2 = 0;
;;;204    ////            }
;;;205    ////        }
;;;206    //        
;;;207    //        
;;;208    //        if(lockstat1 != lockstat2)
;;;209    //        {
;;;210    //            WM_InvalidateWindow(load_wind);
;;;211    //        }
;;;212    //         if(clear_flag3 == 1)
;;;213    //         {
;;;214    //		if(cswflag == 1)
;;;215    //		{
;;;216    //			swcount ++;
;;;217    //			if(swcount == 1)
;;;218    //			{
;;;219    //				GPIO_ResetBits(GPIOA,GPIO_Pin_11);//电流切换为低档
;;;220    //			}else if(swcount == 30){
;;;221    //				GPIO_SetBits(GPIOA,GPIO_Pin_11);//电流切换为高档
;;;222    //			}else if(swcount == 60){
;;;223    //				cswflag = 0;
;;;224    //				swcount = 0;
;;;225    //			}
;;;226    //		}
;;;227    		if(lock == 1)
;;;228    		{
;;;229    			hItem = WM_GetDialogItem(pMsg->hWin, ID_TEXT_162);
000036  f6401a3d          MOV      r10,#0x93d
;;;230    			TEXT_SetText(hItem,"锁");
;;;231    		}else{
;;;232    			hItem = WM_GetDialogItem(pMsg->hWin, ID_TEXT_162);
;;;233    			TEXT_SetText(hItem,"");
;;;234    		}
;;;235    		
;;;236                if(DISS_Voltage < 0.3)
;;;237                {
;;;238                    hItem = WM_GetDialogItem(pMsg->hWin, ID_TEXT_84);
;;;239                    sprintf(buf,"%.3f",0.000);       
00003a  ed9f8bf8          VLDR     d8,|L8.1052|
00003e  6820              LDR      r0,[r4,#0]            ;118
000040  f8df83e0          LDR      r8,|L8.1060|
;;;240                    TEXT_SetText(hItem,buf);
;;;241                }else{                                                                                                                                                                                                                                                                                                                                                                                                                                                                                                                                                                                                                                                                                                                                                                                                                                                                                                                                                                                                                                                                                                                                                                                                                                                                                                                                                                                                                                                                                                                                                                                                                                                                                                                                                                                                                                                                                                                                                                                                                                                                                                                                                                                                                                                                                                                                                                                                                                                                                                                                                                                                                                                                                                                                                                                                                                                                                                                                                                                                                                                                                                                                                                                                                                                                                                                                                                                                                                                                                                                                                                                                                                                                                                                                                                                                                                                                                                                                                                                                                                                                                                                                                                                                                                             ;;;242                    hItem = WM_GetDialogItem(pMsg->hWin, ID_TEXT_84);
;;;243                    sprintf(buf,"%.3f",disloadv);       
;;;244                    TEXT_SetText(hItem,buf);
;;;245                } 
;;;246    //         }else{
;;;247    //             hItem = WM_GetDialogItem(pMsg->hWin, ID_TEXT_84);
;;;248    //             sprintf(buf,"%.3f",DISS_Voltage);       
;;;249    //             TEXT_SetText(hItem,buf);
;;;250    //         }
;;;251            if((float)SET_Current_Laod/1000 * DISS_Voltage > 200){
;;;252                SET_Current_Laod = 0;
;;;253                hItem = WM_GetDialogItem(load_wind, ID_TEXT_49);
000044  4ff8              LDR      r7,|L8.1064|
000046  f44f457f          MOV      r5,#0xff00            ;160
00004a  f06f4b7f          MVN      r11,#0xff000000       ;121
00004e  281d              CMP      r0,#0x1d              ;118
000050  d07e              BEQ      |L8.336|
000052  dc04              BGT      |L8.94|
000054  280e              CMP      r0,#0xe               ;118
000056  d00b              BEQ      |L8.112|
000058  280f              CMP      r0,#0xf               ;118
00005a  d106              BNE      |L8.106|
00005c  e00d              B        |L8.122|
                  |L8.94|
00005e  2826              CMP      r0,#0x26              ;118
000060  d077              BEQ      |L8.338|
000062  f5a07080          SUB      r0,r0,#0x100          ;118
000066  3813              SUBS     r0,r0,#0x13           ;118
000068  d074              BEQ      |L8.340|
                  |L8.106|
;;;254                TEXT_SetBkColor(hItem,GUI_INVALID_COLOR);//选项背景色设为透明
;;;255                TEXT_SetTextColor(hItem, GUI_WHITE);            
;;;256                if(SET_Current_Laod > 55000 || (float)SET_Current_Laod/1000 * DISS_Voltage > 200){
;;;257                    SET_Current_Laod = 0;
;;;258                }
;;;259                dis_load_c = (float)SET_Current_Laod/1000;
;;;260                sprintf(buf,"%.3f",dis_load_c);
;;;261                TEXT_SetText(hItem,buf);
;;;262            }
;;;263            
;;;264                
;;;265            
;;;266    //        test_load();
;;;267            
;;;268            if(load_sw == load_on)
;;;269            {
;;;270                if(/*DISS_Current >= 30*/SET_Current_Laod >= 25000)
;;;271                {
;;;272                    alert_flag = 1;
;;;273                }else{
;;;274                    alert_flag = 0;
;;;275                }
;;;276                battery_c = (int)bc_raw;
;;;277                hItem = WM_GetDialogItem(pMsg->hWin, ID_TEXT_116);
;;;278                sprintf(buf,"%06d",battery_c);    
;;;279                TEXT_SetText(hItem,buf);
;;;280                
;;;281                hItem = WM_GetDialogItem(pMsg->hWin, ID_TEXT_85);
;;;282    			if(DISS_Current < 10)
;;;283    			{
;;;284    				sprintf(buf,"%.3f",DISS_Current);  
;;;285    			}else{
;;;286    				sprintf(buf,"%.2f",DISS_Current);  
;;;287    			}				
;;;288                TEXT_SetText(hItem,buf);
;;;289                if(status_flash == 0){
;;;290                    hItem = WM_GetDialogItem(pMsg->hWin, ID_TEXT_89);
;;;291                    TEXT_SetTextColor(hItem, GUI_RED);//设置字体颜色
;;;292                    if(lang == 0)
;;;293                    {
;;;294                        TEXT_SetFont(hItem,&GUI_FontHZ16);//设定文本字体
;;;295                        GUI_UC_SetEncodeUTF8();        
;;;296                        TEXT_SetText(hItem,"放电中");
;;;297                    }else{
;;;298                        TEXT_SetFont(hItem,&GUI_Font20_ASCII);//设定文本字体
;;;299                        GUI_UC_SetEncodeUTF8();        
;;;300                        TEXT_SetText(hItem,"Discharging");
;;;301                    }
;;;302                    status_flash = 1;
;;;303                }else{
;;;304                    hItem = WM_GetDialogItem(pMsg->hWin, ID_TEXT_89);
;;;305                    TEXT_SetText(hItem,"");
;;;306                    status_flash = 0;
;;;307                }
;;;308    			if(loaddelay != 0)
;;;309    			{
;;;310    				loaddelay --;
;;;311    			}
;;;312                if(load_cutoffv != 0 && DISS_Voltage < load_cutoffv && loaddelay == 0)
;;;313    			{
;;;314    				Flag_Swtich_ON=0;
;;;315                    GPIO_SetBits(GPIOA,GPIO_Pin_15);
;;;316                    mode_sw = 0;
;;;317                    load_sw = load_off;
;;;318    			}
;;;319                if(DISS_Voltage * DISS_Current > 200 || DISS_Voltage * DISS_POW_Current > 200)
;;;320    			{
;;;321    				Flag_Swtich_ON=0;
;;;322                    GPIO_SetBits(GPIOA,GPIO_Pin_15);
;;;323                    mode_sw = 0;
;;;324                    load_sw = load_off;
;;;325    				
;;;326    			}
;;;327    //            if(olvbuff != 0 && olvbuff - DISS_Voltage > 0.3)
;;;328    //            {
;;;329    //                Flag_Swtich_ON=0;
;;;330    //                GPIO_SetBits(GPIOA,GPIO_Pin_15);
;;;331    //                mode_sw = 0;
;;;332    //                load_sw = load_off;
;;;333    //                overloadv = olvbuff;
;;;334    //                olvbuff= 0;
;;;335    //            }else{
;;;336    //                olvbuff = DISS_Voltage;
;;;337    //                overloadv = 0;
;;;338    //            }
;;;339                
;;;340            }else{
;;;341                hItem = WM_GetDialogItem(pMsg->hWin, ID_TEXT_89);
;;;342                TEXT_SetText(hItem,"");
;;;343                
;;;344                hItem = WM_GetDialogItem(pMsg->hWin, ID_TEXT_85);
;;;345                sprintf(buf,"%.3f",0.000);        
;;;346                TEXT_SetText(hItem,buf);
;;;347    			loaddelay = 50;
;;;348            }
;;;349    //        hItem = WM_GetDialogItem(pMsg->hWin, ID_TEXT_143);       
;;;350    //        sprintf(buf,"%.3f",overloadv);
;;;351    //        TEXT_SetText(hItem,buf);
;;;352            
;;;353            hItem = WM_GetDialogItem(pMsg->hWin, ID_TEXT_126);       
;;;354            sprintf(buf,"%.1f",temp);
;;;355            TEXT_SetText(hItem,buf);
;;;356            
;;;357    		WM_RestartTimer(pMsg->Data.v, 50);
;;;358    	}
;;;359    	break;
;;;360    	
;;;361        case WM_INIT_DIALOG://重绘外观
;;;362        //
;;;363        // Initialization of 'Window'
;;;364        //
;;;365            hItem = pMsg->hWin;
;;;366            WINDOW_SetBkColor(hItem, GUI_BLACK);
;;;367    		WM_CreateTimer(hItem,ID_TimerTime1,500,0);//创建本窗口定时器
;;;368        //
;;;369        // Initialization of 'Button'
;;;370        //
;;;371    //         hItem = WM_GetDialogItem(pMsg->hWin, ID_BUTTON_6);
;;;372    // 		BUTTON_SetTextColor(hItem,0,GUI_BLACK);//设置字体颜色为黑色
;;;373    // 		BUTTON_SetFont      (hItem,    &GUI_FontHZ16);//设定按钮文本字体
;;;374    // 		GUI_UC_SetEncodeUTF8();
;;;375    // 		BUTTON_SetText(hItem,"充放电");
;;;376        //
;;;377        // Initialization of 'Button'
;;;378        //
;;;379    		hItem = WM_GetDialogItem(pMsg->hWin, ID_TEXT_162);
;;;380    		TEXT_SetTextColor(hItem, GUI_RED);//设置字体颜色
;;;381    		TEXT_SetFont(hItem,&GUI_FontHZ14);
;;;382    		TEXT_SetText(hItem,"");
;;;383    		
;;;384    		
;;;385           if(lang == 0)
;;;386            {
;;;387                hItem = WM_GetDialogItem(pMsg->hWin, ID_BUTTON_7);
;;;388                BUTTON_SetTextColor(hItem,0,GUI_BLACK);//设置字体颜色为黑色
;;;389                BUTTON_SetFont      (hItem,    &GUI_FontHZ16);//设定按钮文本字体
;;;390                GUI_UC_SetEncodeUTF8();
;;;391                BUTTON_SetText(hItem, "内阻测试");
;;;392            //
;;;393            // Initialization of 'Button'
;;;394            //
;;;395                hItem = WM_GetDialogItem(pMsg->hWin, ID_BUTTON_8);
;;;396                BUTTON_SetPressed(hItem,1);
;;;397                BUTTON_SetTextColor(hItem,0,GUI_BLACK);//设置字体颜色为黑色
;;;398                BUTTON_SetFont      (hItem,    &GUI_FontHZ16);//设定按钮文本字体
;;;399                GUI_UC_SetEncodeUTF8();
;;;400                BUTTON_SetText(hItem, "程控负载");
;;;401            //
;;;402            // Initialization of 'Button'
;;;403            //
;;;404                hItem = WM_GetDialogItem(pMsg->hWin, ID_BUTTON_9);
;;;405                BUTTON_SetTextColor(hItem,0,GUI_BLACK);//设置字体颜色为黑色
;;;406                BUTTON_SetFont      (hItem,    &GUI_FontHZ16);//设定按钮文本字体
;;;407                GUI_UC_SetEncodeUTF8();
;;;408                BUTTON_SetText(hItem, "程控电源");
;;;409            //
;;;410            // Initialization of 'Button'
;;;411            //
;;;412                hItem = WM_GetDialogItem(pMsg->hWin, ID_BUTTON_10);
;;;413                BUTTON_SetTextColor(hItem,0,GUI_BLACK);//设置字体颜色为黑色
;;;414                BUTTON_SetFont      (hItem,    &GUI_FontHZ16);//设定按钮文本字体
;;;415                GUI_UC_SetEncodeUTF8();
;;;416                BUTTON_SetText(hItem, "充放电");
;;;417            //
;;;418            // Initialization of 'Button'
;;;419            //
;;;420                hItem = WM_GetDialogItem(pMsg->hWin, ID_BUTTON_11);
;;;421                BUTTON_SetTextColor(hItem,0,GUI_BLACK);//设置字体颜色为黑色
;;;422                BUTTON_SetFont      (hItem,    &GUI_FontHZ16);//设定按钮文本字体
;;;423                GUI_UC_SetEncodeUTF8();
;;;424                BUTTON_SetText(hItem, "曲线");
;;;425            }else{
;;;426                hItem = WM_GetDialogItem(pMsg->hWin, ID_BUTTON_7);
;;;427                BUTTON_SetTextColor(hItem,0,GUI_BLACK);//设置字体颜色为黑色
;;;428                BUTTON_SetFont      (hItem,    &GUI_Font16B_ASCII);//设定按钮文本字体
;;;429                GUI_UC_SetEncodeUTF8();
;;;430                BUTTON_SetText(hItem, "I.R. TEST");
;;;431            //
;;;432            // Initialization of 'Button'
;;;433            //
;;;434                hItem = WM_GetDialogItem(pMsg->hWin, ID_BUTTON_8);
;;;435                BUTTON_SetPressed(hItem,1);
;;;436                BUTTON_SetTextColor(hItem,0,GUI_BLACK);//设置字体颜色为黑色
;;;437                BUTTON_SetFont      (hItem,    &GUI_Font16B_ASCII);//设定按钮文本字体
;;;438                GUI_UC_SetEncodeUTF8();
;;;439                BUTTON_SetText(hItem, "LOAD");
;;;440            //
;;;441            // Initialization of 'Button'
;;;442            //
;;;443                hItem = WM_GetDialogItem(pMsg->hWin, ID_BUTTON_9);
;;;444                BUTTON_SetTextColor(hItem,0,GUI_BLACK);//设置字体颜色为黑色
;;;445                BUTTON_SetFont      (hItem,    &GUI_Font16B_ASCII);//设定按钮文本字体
;;;446                GUI_UC_SetEncodeUTF8();
;;;447                BUTTON_SetText(hItem, "POWER");
;;;448            //
;;;449            // Initialization of 'Button'
;;;450            //
;;;451                hItem = WM_GetDialogItem(pMsg->hWin, ID_BUTTON_10);
;;;452                BUTTON_SetTextColor(hItem,0,GUI_BLACK);//设置字体颜色为黑色
;;;453                BUTTON_SetFont      (hItem,    &GUI_Font16B_ASCII);//设定按钮文本字体
;;;454                GUI_UC_SetEncodeUTF8();
;;;455                BUTTON_SetText(hItem, "C&DC");
;;;456            //
;;;457            // Initialization of 'Button'
;;;458            //
;;;459                hItem = WM_GetDialogItem(pMsg->hWin, ID_BUTTON_11);
;;;460                BUTTON_SetTextColor(hItem,0,GUI_BLACK);//设置字体颜色为黑色
;;;461                BUTTON_SetFont      (hItem,    &GUI_Font16B_ASCII);//设定按钮文本字体
;;;462                GUI_UC_SetEncodeUTF8();
;;;463                BUTTON_SetText(hItem, "GRAPH");
;;;464            }
;;;465    		
;;;466    		
;;;467    		hItem = WM_GetDialogItem(pMsg->hWin, ID_TEXT_11);
;;;468    		TEXT_SetTextColor(hItem, GUI_LIGHTGRAY);//设置字体颜色
;;;469            TEXT_SetFont(hItem,&GUI_FontEN40);//设定文本字体
;;;470    		GUI_UC_SetEncodeUTF8();
;;;471    		TEXT_SetText(hItem,"V:");
;;;472    		
;;;473    		hItem = WM_GetDialogItem(pMsg->hWin, ID_TEXT_12);
;;;474    		TEXT_SetTextColor(hItem, GUI_LIGHTGRAY);//设置字体颜色
;;;475            TEXT_SetFont(hItem,&GUI_FontEN40);//设定文本字体
;;;476    		GUI_UC_SetEncodeUTF8();
;;;477    		TEXT_SetText(hItem,"I:");
;;;478            
;;;479            hItem = WM_GetDialogItem(pMsg->hWin, ID_TEXT_13);
;;;480    		TEXT_SetTextColor(hItem, GUI_LIGHTGRAY);//设置字体颜色
;;;481            TEXT_SetFont(hItem,&GUI_FontEN40);//设定文本字体
;;;482    		GUI_UC_SetEncodeUTF8();
;;;483    		TEXT_SetText(hItem,"V");
;;;484    		
;;;485    		hItem = WM_GetDialogItem(pMsg->hWin, ID_TEXT_14);
;;;486    		TEXT_SetTextColor(hItem, GUI_LIGHTGRAY);//设置字体颜色
;;;487            TEXT_SetFont(hItem,&GUI_FontEN40);//设定文本字体
;;;488    		GUI_UC_SetEncodeUTF8();
;;;489    		TEXT_SetText(hItem,"A");
;;;490            
;;;491            hItem = WM_GetDialogItem(pMsg->hWin, ID_TEXT_48);
;;;492    		TEXT_SetTextColor(hItem, GUI_BLACK);//设置字体颜色
;;;493            TEXT_SetBkColor(hItem,0x00BFFFFF);
;;;494            if(lang == 0)
;;;495            {
;;;496                TEXT_SetFont(hItem,&GUI_Fontset_font);//设定文本字体
;;;497                GUI_UC_SetEncodeUTF8();
;;;498                TEXT_SetText(hItem,"负载电流");
;;;499            }else{
;;;500                TEXT_SetFont(hItem,&GUI_Font20_ASCII);//设定文本字体
;;;501                GUI_UC_SetEncodeUTF8();
;;;502                TEXT_SetText(hItem,"Load C");
;;;503            }
;;;504            
;;;505            hItem = WM_GetDialogItem(pMsg->hWin, ID_TEXT_49);
;;;506            sprintf(buf,"%.3f",dis_load_c);
;;;507    		TEXT_SetTextColor(hItem, GUI_WHITE);//设置字体颜色
;;;508            TEXT_SetFont(hItem,&GUI_Font24_1);//设定文本字体
;;;509    		GUI_UC_SetEncodeUTF8();     
;;;510    		TEXT_SetText(hItem,buf);
;;;511            
;;;512            hItem = WM_GetDialogItem(pMsg->hWin, ID_TEXT_143);
;;;513            sprintf(buf,"%.3f",load_cutoffv);
;;;514    		TEXT_SetTextColor(hItem, GUI_WHITE);//设置字体颜色
;;;515            TEXT_SetFont(hItem,&GUI_Font24_1);//设定文本字体
;;;516    		GUI_UC_SetEncodeUTF8();     
;;;517    		TEXT_SetText(hItem,buf);
;;;518            
;;;519            hItem = WM_GetDialogItem(pMsg->hWin, ID_TEXT_84);
;;;520            sprintf(buf,"%.3f",0.000);
;;;521    		TEXT_SetTextColor(hItem, GUI_GREEN);//设置字体颜色
;;;522            TEXT_SetFont(hItem,&GUI_FontD24x32);//设定文本字体
;;;523    		GUI_UC_SetEncodeUTF8();        
;;;524    		TEXT_SetText(hItem,buf);
;;;525            
;;;526            hItem = WM_GetDialogItem(pMsg->hWin, ID_TEXT_85);
;;;527            sprintf(buf,"%.3f",0.000);
;;;528    		TEXT_SetTextColor(hItem, GUI_GREEN);//设置字体颜色
;;;529            TEXT_SetFont(hItem,&GUI_FontD24x32);//设定文本字体
;;;530    		GUI_UC_SetEncodeUTF8();        
;;;531    		TEXT_SetText(hItem,buf);
;;;532            
;;;533            hItem = WM_GetDialogItem(pMsg->hWin, ID_TEXT_116);
;;;534            sprintf(buf,"%05d",0);
;;;535            TEXT_SetTextColor(hItem, GUI_GREEN);//设置字体颜色
;;;536            TEXT_SetFont(hItem,&GUI_FontD24x32);//设定文本字体
;;;537            GUI_UC_SetEncodeUTF8();        
;;;538            TEXT_SetText(hItem,buf);
;;;539            if(lang == 0)
;;;540            {
;;;541    			hItem = WM_GetDialogItem(pMsg->hWin, ID_TEXT_120);
;;;542    			TEXT_SetTextColor(hItem, GUI_WHITE);//设置字体颜色
;;;543    			TEXT_SetFont(hItem,&GUI_Fontset_font);//设定文本字体
;;;544    			GUI_UC_SetEncodeUTF8();        
;;;545    			TEXT_SetText(hItem,"负载模式");
;;;546    			
;;;547    			hItem = WM_GetDialogItem(pMsg->hWin, ID_TEXT_158);
;;;548    			TEXT_SetTextColor(hItem, GUI_WHITE);//设置字体颜色
;;;549    			TEXT_SetFont(hItem,&GUI_Fontset_font);//设定文本字体
;;;550    			GUI_UC_SetEncodeUTF8();        
;;;551    			TEXT_SetText(hItem,"截止电压");
;;;552    		}else{
;;;553    			hItem = WM_GetDialogItem(pMsg->hWin, ID_TEXT_120);
;;;554    			TEXT_SetTextColor(hItem, GUI_WHITE);//设置字体颜色
;;;555    			TEXT_SetFont(hItem,&GUI_Font20_ASCII);//设定文本字体
;;;556    			GUI_UC_SetEncodeUTF8();        
;;;557    			TEXT_SetText(hItem,"Mode");
;;;558    			
;;;559    			hItem = WM_GetDialogItem(pMsg->hWin, ID_TEXT_158);
;;;560    			TEXT_SetTextColor(hItem, GUI_WHITE);//设置字体颜色
;;;561    			TEXT_SetFont(hItem,&GUI_Font20_ASCII);//设定文本字体
;;;562    			GUI_UC_SetEncodeUTF8();        
;;;563    			TEXT_SetText(hItem,"Cutoff V");
;;;564    		}
;;;565            
;;;566            if(load_mode == 1)
;;;567            {
;;;568                hItem = WM_GetDialogItem(pMsg->hWin, ID_TEXT_121);
;;;569                TEXT_SetTextColor(hItem, GUI_WHITE);//设置字体颜色
;;;570                TEXT_SetFont(hItem,&GUI_Font24_1);//设定文本字体
;;;571                GUI_UC_SetEncodeUTF8();
;;;572                GPIO_SetBits(GPIOC,GPIO_Pin_10);//CC
;;;573                TEXT_SetText(hItem,"CC");
;;;574                flag_Load_CC = 1;
;;;575            }else if(load_mode == 0){
;;;576                hItem = WM_GetDialogItem(pMsg->hWin, ID_TEXT_121);
;;;577                TEXT_SetTextColor(hItem, GUI_WHITE);//设置字体颜色
;;;578                TEXT_SetFont(hItem,&GUI_Font24_1);//设定文本字体
;;;579                GUI_UC_SetEncodeUTF8();  
;;;580                GPIO_ResetBits(GPIOC,GPIO_Pin_10);//CV            
;;;581                TEXT_SetText(hItem,"CV");
;;;582                flag_Load_CC = 0;
;;;583            }
;;;584            
;;;585    		if(lang == 0)
;;;586            {
;;;587    			hItem = WM_GetDialogItem(pMsg->hWin, ID_TEXT_122);
;;;588    			TEXT_SetTextColor(hItem, GUI_WHITE);//设置字体颜色
;;;589    			TEXT_SetFont(hItem,&GUI_Fontset_font);//设定文本字体
;;;590    			GUI_UC_SetEncodeUTF8();
;;;591    			TEXT_SetText(hItem,"负载电压");
;;;592    		}else{
;;;593    			hItem = WM_GetDialogItem(pMsg->hWin, ID_TEXT_122);
;;;594    			TEXT_SetTextColor(hItem, GUI_WHITE);//设置字体颜色
;;;595    			TEXT_SetFont(hItem,&GUI_Font20_ASCII);//设定文本字体
;;;596    			GUI_UC_SetEncodeUTF8();
;;;597    			TEXT_SetText(hItem,"Load V");
;;;598    		}
;;;599            
;;;600            hItem = WM_GetDialogItem(pMsg->hWin, ID_TEXT_123);
;;;601            sprintf(buf,"%.3f",dis_load_v);
;;;602    		TEXT_SetTextColor(hItem, GUI_WHITE);//设置字体颜色
;;;603            TEXT_SetFont(hItem,&GUI_Font24_1);//设定文本字体
;;;604    		GUI_UC_SetEncodeUTF8();     
;;;605    		TEXT_SetText(hItem,buf);
;;;606            
;;;607            hItem = WM_GetDialogItem(pMsg->hWin, ID_TEXT_126);
;;;608            TEXT_SetTextColor(hItem, GUI_GREEN);//设置字体颜色
;;;609            TEXT_SetFont(hItem,&GUI_Font24_1);//设定文本字体       
;;;610            sprintf(buf,"%.1f",temp);
;;;611            TEXT_SetText(hItem,buf);
;;;612            
;;;613    
;;;614        // USER START (Optionally insert additional code for further widget initialization)
;;;615        // USER END
;;;616        break;
;;;617      case WM_NOTIFY_PARENT:
;;;618        Id    = WM_GetId(pMsg->hWinSrc);
;;;619        NCode = pMsg->Data.v;
;;;620        switch(Id) {
;;;621        case ID_BUTTON_6: // Notifications sent by 'Button'
;;;622          switch(NCode) {
;;;623          case WM_NOTIFICATION_CLICKED:
;;;624            // USER START (Optionally insert code for reacting on notification message)
;;;625            // USER END
;;;626            break;
;;;627          case WM_NOTIFICATION_RELEASED:
;;;628            // USER START (Optionally insert code for reacting on notification message)
;;;629            // USER END
;;;630            break;
;;;631          // USER START (Optionally insert additional code for further notification handling)
;;;632          // USER END
;;;633          }
;;;634          break;
;;;635        case ID_BUTTON_7: // Notifications sent by 'Button'
;;;636          switch(NCode) {
;;;637          case WM_NOTIFICATION_CLICKED:
;;;638            // USER START (Optionally insert code for reacting on notification message)
;;;639            // USER END
;;;640            break;
;;;641          case WM_NOTIFICATION_RELEASED:
;;;642    				
;;;643            // USER START (Optionally insert code for reacting on notification message)
;;;644            // USER END
;;;645            break;
;;;646          // USER START (Optionally insert additional code for further notification handling)
;;;647          // USER END
;;;648          }
;;;649          break;
;;;650        case ID_BUTTON_8: // Notifications sent by 'Button'
;;;651          switch(NCode) {
;;;652          case WM_NOTIFICATION_CLICKED:
;;;653            // USER START (Optionally insert code for reacting on notification message)
;;;654            // USER END
;;;655            break;
;;;656          case WM_NOTIFICATION_RELEASED:
;;;657            // USER START (Optionally insert code for reacting on notification message)
;;;658            // USER END
;;;659            break;
;;;660          // USER START (Optionally insert additional code for further notification handling)
;;;661          // USER END
;;;662          }
;;;663          break;
;;;664        case ID_BUTTON_9: // Notifications sent by 'Button'
;;;665          switch(NCode) {
;;;666          case WM_NOTIFICATION_CLICKED:
;;;667            // USER START (Optionally insert code for reacting on notification message)
;;;668            // USER END
;;;669            break;
;;;670          case WM_NOTIFICATION_RELEASED:
;;;671            // USER START (Optionally insert code for reacting on notification message)
;;;672            // USER END
;;;673            break;
;;;674          // USER START (Optionally insert additional code for further notification handling)
;;;675          // USER END
;;;676          }
;;;677          break;
;;;678        case ID_BUTTON_10: // Notifications sent by 'Button'
;;;679          switch(NCode) {
;;;680          case WM_NOTIFICATION_CLICKED:
;;;681            // USER START (Optionally insert code for reacting on notification message)
;;;682            // USER END
;;;683            break;
;;;684          case WM_NOTIFICATION_RELEASED:
;;;685            // USER START (Optionally insert code for reacting on notification message)
;;;686            // USER END
;;;687            break;
;;;688          // USER START (Optionally insert additional code for further notification handling)
;;;689          // USER END
;;;690          }
;;;691          break;
;;;692        case ID_BUTTON_11: // Notifications sent by 'Button'
;;;693          switch(NCode) {
;;;694          case WM_NOTIFICATION_CLICKED:
;;;695            // USER START (Optionally insert code for reacting on notification message)
;;;696            // USER END
;;;697            break;
;;;698          case WM_NOTIFICATION_RELEASED:
;;;699            // USER START (Optionally insert code for reacting on notification message)
;;;700            // USER END
;;;701            break;
;;;702          // USER START (Optionally insert additional code for further notification handling)
;;;703          // USER END
;;;704          }
;;;705          break;
;;;706        // USER START (Optionally insert additional code for further Ids)
;;;707        // USER END
;;;708        }
;;;709        break;
;;;710      // USER START (Optionally insert additional message handling)
;;;711      // USER END
;;;712      default:
;;;713        WM_DefaultProc(pMsg);
00006a  4620              MOV      r0,r4
00006c  f7fffffe          BL       WM_DefaultProc
                  |L8.112|
;;;714        break;
;;;715      }
;;;716    }
000070  b003              ADD      sp,sp,#0xc
000072  ecbd8b06          VPOP     {d8-d10}
000076  e8bd8ff0          POP      {r4-r11,pc}
                  |L8.122|
00007a  4658              MOV      r0,r11                ;121
00007c  f7fffffe          BL       GUI_SetColor
000080  231a              MOVS     r3,#0x1a              ;122
000082  f44f72f0          MOV      r2,#0x1e0             ;122
000086  2119              MOVS     r1,#0x19              ;122
000088  2000              MOVS     r0,#0                 ;122
00008a  f7fffffe          BL       GUI_FillRect
00008e  f24a50ff          MOV      r0,#0xa5ff            ;123
000092  f7fffffe          BL       GUI_SetColor
000096  48e5              LDR      r0,|L8.1068|
000098  f7fffffe          BL       GUI_SetFont
00009c  f7fffffe          BL       GUI_UC_SetEncodeUTF8
0000a0  2002              MOVS     r0,#2                 ;126
0000a2  f7fffffe          BL       GUI_SetTextMode
0000a6  48e2              LDR      r0,|L8.1072|
0000a8  7800              LDRB     r0,[r0,#0]            ;127  ; jkflag
0000aa  2801              CMP      r0,#1                 ;127
0000ac  d104              BNE      |L8.184|
0000ae  2201              MOVS     r2,#1                 ;129
0000b0  2105              MOVS     r1,#5                 ;129
0000b2  a0e0              ADR      r0,|L8.1076|
0000b4  f7fffffe          BL       GUI_DispStringAt
                  |L8.184|
0000b8  f8980000          LDRB     r0,[r8,#0]            ;131  ; lang
0000bc  2800              CMP      r0,#0                 ;131
0000be  d051              BEQ      |L8.356|
0000c0  4658              MOV      r0,r11                ;139
0000c2  f7fffffe          BL       GUI_SetColor
0000c6  48dd              LDR      r0,|L8.1084|
0000c8  f7fffffe          BL       GUI_SetFont
0000cc  2203              MOVS     r2,#3                 ;141
0000ce  2182              MOVS     r1,#0x82              ;141
0000d0  a0db              ADR      r0,|L8.1088|
0000d2  f7fffffe          BL       GUI_DispStringAt
                  |L8.214|
0000d6  48dc              LDR      r0,|L8.1096|
0000d8  f7fffffe          BL       GUI_SetFont
0000dc  f44f74e1          MOV      r4,#0x1c2             ;149
0000e0  224b              MOVS     r2,#0x4b              ;149
0000e2  4621              MOV      r1,r4                 ;149
0000e4  a0d9              ADR      r0,|L8.1100|
0000e6  f7fffffe          BL       GUI_DispStringAt
0000ea  2264              MOVS     r2,#0x64              ;150
0000ec  4621              MOV      r1,r4                 ;150
0000ee  a0d8              ADR      r0,|L8.1104|
0000f0  f7fffffe          BL       GUI_DispStringAt
0000f4  2296              MOVS     r2,#0x96              ;151
0000f6  4621              MOV      r1,r4                 ;151
0000f8  a0d5              ADR      r0,|L8.1104|
0000fa  f7fffffe          BL       GUI_DispStringAt
0000fe  48d5              LDR      r0,|L8.1108|
000100  f7fffffe          BL       GUI_SetFont
000104  4630              MOV      r0,r6                 ;154
000106  f7fffffe          BL       GUI_SetColor
00010a  22be              MOVS     r2,#0xbe              ;155
00010c  211c              MOVS     r1,#0x1c              ;155
00010e  a0d2              ADR      r0,|L8.1112|
000110  f7fffffe          BL       GUI_DispStringAt
000114  4630              MOV      r0,r6                 ;156
000116  f7fffffe          BL       GUI_SetColor
00011a  22c4              MOVS     r2,#0xc4              ;157
00011c  21f1              MOVS     r1,#0xf1              ;157
00011e  a0cf              ADR      r0,|L8.1116|
000120  f7fffffe          BL       GUI_DispStringAt
000124  22bb              MOVS     r2,#0xbb              ;158
000126  f44f7183          MOV      r1,#0x106             ;158
00012a  a0cd              ADR      r0,|L8.1120|
00012c  f7fffffe          BL       GUI_DispStringAt
000130  4628              MOV      r0,r5                 ;160
000132  f7fffffe          BL       GUI_SetColor
000136  48cb              LDR      r0,|L8.1124|
000138  f7fffffe          BL       GUI_SetFont
00013c  2202              MOVS     r2,#2                 ;162
00013e  f44f71ab          MOV      r1,#0x156             ;162
000142  a0c9              ADR      r0,|L8.1128|
000144  f7fffffe          BL       GUI_DispStringAt
000148  48bf              LDR      r0,|L8.1096|
00014a  f7fffffe          BL       GUI_SetFont
00014e  e002              B        |L8.342|
                  |L8.336|
000150  e21a              B        |L8.1416|
                  |L8.338|
000152  e3ca              B        |L8.2282|
                  |L8.340|
000154  e017              B        |L8.390|
                  |L8.342|
000156  2202              MOVS     r2,#2                 ;164
000158  f44f71af          MOV      r1,#0x15e             ;164
00015c  a0c3              ADR      r0,|L8.1132|
00015e  f7fffffe          BL       GUI_DispStringAt
                  |L8.354|
000162  e785              B        |L8.112|
                  |L8.356|
000164  4658              MOV      r0,r11                ;133
000166  f7fffffe          BL       GUI_SetColor
00016a  48c1              LDR      r0,|L8.1136|
00016c  f7fffffe          BL       GUI_SetFont
000170  f7fffffe          BL       GUI_UC_SetEncodeUTF8
000174  2002              MOVS     r0,#2                 ;136
000176  f7fffffe          BL       GUI_SetTextMode
00017a  2203              MOVS     r2,#3                 ;137
00017c  2182              MOVS     r1,#0x82              ;137
00017e  a0bd              ADR      r0,|L8.1140|
000180  f7fffffe          BL       GUI_DispStringAt
000184  e7a7              B        |L8.214|
                  |L8.390|
000186  68e0              LDR      r0,[r4,#0xc]          ;183
000188  f7fffffe          BL       WM_GetTimerId
00018c  2802              CMP      r0,#2                 ;183
00018e  d1e8              BNE      |L8.354|
000190  48bc              LDR      r0,|L8.1156|
000192  7800              LDRB     r0,[r0,#0]            ;227  ; lock
000194  2801              CMP      r0,#1                 ;227
000196  d01c              BEQ      |L8.466|
000198  4651              MOV      r1,r10                ;232
00019a  6860              LDR      r0,[r4,#4]            ;232
00019c  f7fffffe          BL       WM_GetDialogItem
0001a0  a1b7              ADR      r1,|L8.1152|
0001a2  f7fffffe          BL       TEXT_SetText
                  |L8.422|
0001a6  4eb8              LDR      r6,|L8.1160|
0001a8  49b8              LDR      r1,|L8.1164|
0001aa  6830              LDR      r0,[r6,#0]            ;236  ; DISS_Voltage
0001ac  4288              CMP      r0,r1                 ;236
0001ae  da18              BGE      |L8.482|
0001b0  f6400191          MOV      r1,#0x891             ;238
0001b4  6860              LDR      r0,[r4,#4]            ;238
0001b6  f7fffffe          BL       WM_GetDialogItem
0001ba  4605              MOV      r5,r0                 ;238
0001bc  ec532b18          VMOV     r2,r3,d8              ;239
0001c0  a1b3              ADR      r1,|L8.1168|
0001c2  4668              MOV      r0,sp                 ;239
0001c4  f7fffffe          BL       __2sprintf
0001c8  4669              MOV      r1,sp                 ;240
0001ca  4628              MOV      r0,r5                 ;240
0001cc  f7fffffe          BL       TEXT_SetText
0001d0  e01d              B        |L8.526|
                  |L8.466|
0001d2  4651              MOV      r1,r10                ;229
0001d4  6860              LDR      r0,[r4,#4]            ;229
0001d6  f7fffffe          BL       WM_GetDialogItem
0001da  a1af              ADR      r1,|L8.1176|
0001dc  f7fffffe          BL       TEXT_SetText
0001e0  e7e1              B        |L8.422|
                  |L8.482|
0001e2  f6400191          MOV      r1,#0x891             ;242
0001e6  6860              LDR      r0,[r4,#4]            ;242
0001e8  f7fffffe          BL       WM_GetDialogItem
0001ec  4605              MOV      r5,r0                 ;242
0001ee  48ab              LDR      r0,|L8.1180|
0001f0  6800              LDR      r0,[r0,#0]            ;243  ; disloadv
0001f2  f7fffffe          BL       __aeabi_f2d
0001f6  ec410b10          VMOV     d0,r0,r1              ;243
0001fa  a1a5              ADR      r1,|L8.1168|
0001fc  ec532b10          VMOV     r2,r3,d0              ;243
000200  4668              MOV      r0,sp                 ;243
000202  f7fffffe          BL       __2sprintf
000206  4669              MOV      r1,sp                 ;244
000208  4628              MOV      r0,r5                 ;244
00020a  f7fffffe          BL       TEXT_SetText
                  |L8.526|
00020e  f8d90010          LDR      r0,[r9,#0x10]         ;251  ; Run_Control
000212  f8dfa28c          LDR      r10,|L8.1184|
000216  ee000a10          VMOV     s0,r0                 ;251
00021a  2500              MOVS     r5,#0                 ;251
00021c  eeb80a40          VCVT.F32.U32 s0,s0                 ;251
000220  eec00a29          VDIV.F32 s1,s0,s19             ;251
000224  ed960a00          VLDR     s0,[r6,#0]            ;251
000228  ee200a80          VMUL.F32 s0,s1,s0              ;251
00022c  ee100a10          VMOV     r0,s0                 ;251
000230  4550              CMP      r0,r10                ;251
000232  dd40              BLE      |L8.694|
000234  f8c95010          STR      r5,[r9,#0x10]         ;252  ; Run_Control
000238  f640016e          MOV      r1,#0x86e             ;253
00023c  68b8              LDR      r0,[r7,#8]            ;253  ; load_wind
00023e  f7fffffe          BL       WM_GetDialogItem
000242  9002              STR      r0,[sp,#8]            ;253
000244  f06f4170          MVN      r1,#0xf0000000        ;254
000248  9802              LDR      r0,[sp,#8]            ;254
00024a  f7fffffe          BL       TEXT_SetBkColor
00024e  4659              MOV      r1,r11                ;255
000250  9802              LDR      r0,[sp,#8]            ;255
000252  f7fffffe          BL       TEXT_SetTextColor
000256  f8d90010          LDR      r0,[r9,#0x10]         ;256  ; Run_Control
00025a  f24d61d8          MOV      r1,#0xd6d8            ;256
00025e  4288              CMP      r0,r1                 ;256
000260  d80f              BHI      |L8.642|
000262  f8d90010          LDR      r0,[r9,#0x10]         ;256  ; Run_Control
000266  ee000a10          VMOV     s0,r0                 ;256
00026a  eeb80a40          VCVT.F32.U32 s0,s0                 ;256
00026e  eec00a29          VDIV.F32 s1,s0,s19             ;256
000272  ed960a00          VLDR     s0,[r6,#0]            ;256
000276  ee200a80          VMUL.F32 s0,s1,s0              ;256
00027a  ee100a10          VMOV     r0,s0                 ;256
00027e  4550              CMP      r0,r10                ;256
000280  dd01              BLE      |L8.646|
                  |L8.642|
000282  f8c95010          STR      r5,[r9,#0x10]         ;257  ; Run_Control
                  |L8.646|
000286  f8d90010          LDR      r0,[r9,#0x10]         ;259  ; Run_Control
00028a  ee000a10          VMOV     s0,r0                 ;259
00028e  eef80a40          VCVT.F32.U32 s1,s0                 ;259
000292  ee800aa9          VDIV.F32 s0,s1,s19             ;259
000296  ee100a10          VMOV     r0,s0                 ;260
00029a  f7fffffe          BL       __aeabi_f2d
00029e  ec410b10          VMOV     d0,r0,r1              ;260
0002a2  a17b              ADR      r1,|L8.1168|
0002a4  ec532b10          VMOV     r2,r3,d0              ;260
0002a8  4668              MOV      r0,sp                 ;260
0002aa  f7fffffe          BL       __2sprintf
0002ae  4669              MOV      r1,sp                 ;261
0002b0  9802              LDR      r0,[sp,#8]            ;261
0002b2  f7fffffe          BL       TEXT_SetText
                  |L8.694|
0002b6  7838              LDRB     r0,[r7,#0]            ;268  ; load_sw
0002b8  2801              CMP      r0,#1                 ;268
0002ba  d034              BEQ      |L8.806|
0002bc  f6400196          MOV      r1,#0x896             ;341
0002c0  6860              LDR      r0,[r4,#4]            ;341
0002c2  f7fffffe          BL       WM_GetDialogItem
0002c6  a16e              ADR      r1,|L8.1152|
0002c8  f7fffffe          BL       TEXT_SetText
0002cc  f6400192          MOV      r1,#0x892             ;344
0002d0  6860              LDR      r0,[r4,#4]            ;344
0002d2  f7fffffe          BL       WM_GetDialogItem
0002d6  4605              MOV      r5,r0                 ;344
0002d8  ec532b18          VMOV     r2,r3,d8              ;345
0002dc  a16c              ADR      r1,|L8.1168|
0002de  4668              MOV      r0,sp                 ;345
0002e0  f7fffffe          BL       __2sprintf
0002e4  4669              MOV      r1,sp                 ;346
0002e6  4628              MOV      r0,r5                 ;346
0002e8  f7fffffe          BL       TEXT_SetText
0002ec  2032              MOVS     r0,#0x32              ;347
0002ee  80b8              STRH     r0,[r7,#4]            ;347
                  |L8.752|
0002f0  f6401112          MOV      r1,#0x912             ;353
0002f4  6860              LDR      r0,[r4,#4]            ;353
0002f6  f7fffffe          BL       WM_GetDialogItem
0002fa  4605              MOV      r5,r0                 ;353
0002fc  4869              LDR      r0,|L8.1188|
0002fe  6800              LDR      r0,[r0,#0]            ;354  ; temp
000300  f7fffffe          BL       __aeabi_f2d
000304  ec410b10          VMOV     d0,r0,r1              ;354
000308  a167              ADR      r1,|L8.1192|
00030a  ec532b10          VMOV     r2,r3,d0              ;354
00030e  4668              MOV      r0,sp                 ;354
000310  f7fffffe          BL       __2sprintf
000314  4669              MOV      r1,sp                 ;355
000316  4628              MOV      r0,r5                 ;355
000318  f7fffffe          BL       TEXT_SetText
00031c  2132              MOVS     r1,#0x32              ;357
00031e  68e0              LDR      r0,[r4,#0xc]          ;357
000320  f7fffffe          BL       WM_RestartTimer
000324  e6a4              B        |L8.112|
                  |L8.806|
000326  f8d91010          LDR      r1,[r9,#0x10]         ;270  ; Run_Control
00032a  f24612a8          MOV      r2,#0x61a8            ;270
00032e  4860              LDR      r0,|L8.1200|
000330  f04f0901          MOV      r9,#1                 ;129
000334  4291              CMP      r1,r2                 ;270
000336  d302              BCC      |L8.830|
000338  f8809000          STRB     r9,[r0,#0]            ;272
00033c  e000              B        |L8.832|
                  |L8.830|
00033e  7005              STRB     r5,[r0,#0]            ;274
                  |L8.832|
000340  485c              LDR      r0,|L8.1204|
000342  f8dfb174          LDR      r11,|L8.1208|
000346  ed900a00          VLDR     s0,[r0,#0]            ;276
00034a  eebd0ac0          VCVT.S32.F32 s0,s0                 ;276
00034e  ee100a10          VMOV     r0,s0                 ;276
000352  f8cb0000          STR      r0,[r11,#0]           ;276  ; battery_c
000356  f640110d          MOV      r1,#0x90d             ;277
00035a  6860              LDR      r0,[r4,#4]            ;277
00035c  f7fffffe          BL       WM_GetDialogItem
000360  9002              STR      r0,[sp,#8]            ;277
000362  f8db2000          LDR      r2,[r11,#0]           ;278  ; battery_c
000366  a155              ADR      r1,|L8.1212|
000368  4668              MOV      r0,sp                 ;278
00036a  f7fffffe          BL       __2sprintf
00036e  4669              MOV      r1,sp                 ;279
000370  9802              LDR      r0,[sp,#8]            ;279
000372  f7fffffe          BL       TEXT_SetText
000376  f6400192          MOV      r1,#0x892             ;281
00037a  6860              LDR      r0,[r4,#4]            ;281
00037c  f7fffffe          BL       WM_GetDialogItem
000380  9002              STR      r0,[sp,#8]            ;281
000382  f8dfb140          LDR      r11,|L8.1220|
000386  4950              LDR      r1,|L8.1224|
000388  f8db0000          LDR      r0,[r11,#0]           ;282  ; DISS_Current
00038c  4288              CMP      r0,r1                 ;282
00038e  da0a              BGE      |L8.934|
000390  f7fffffe          BL       __aeabi_f2d
000394  ec410b10          VMOV     d0,r0,r1              ;284
000398  a13d              ADR      r1,|L8.1168|
00039a  ec532b10          VMOV     r2,r3,d0              ;284
00039e  4668              MOV      r0,sp                 ;284
0003a0  f7fffffe          BL       __2sprintf
0003a4  e009              B        |L8.954|
                  |L8.934|
0003a6  f7fffffe          BL       __aeabi_f2d
0003aa  ec410b10          VMOV     d0,r0,r1              ;286
0003ae  a147              ADR      r1,|L8.1228|
0003b0  ec532b10          VMOV     r2,r3,d0              ;286
0003b4  4668              MOV      r0,sp                 ;286
0003b6  f7fffffe          BL       __2sprintf
                  |L8.954|
0003ba  4669              MOV      r1,sp                 ;288
0003bc  9802              LDR      r0,[sp,#8]            ;288
0003be  f7fffffe          BL       TEXT_SetText
0003c2  7878              LDRB     r0,[r7,#1]            ;289  ; status_flash
0003c4  b310              CBZ      r0,|L8.1036|
0003c6  f6400196          MOV      r1,#0x896             ;304
0003ca  6860              LDR      r0,[r4,#4]            ;304
0003cc  f7fffffe          BL       WM_GetDialogItem
0003d0  a12b              ADR      r1,|L8.1152|
0003d2  f7fffffe          BL       TEXT_SetText
0003d6  707d              STRB     r5,[r7,#1]            ;306
                  |L8.984|
0003d8  88b8              LDRH     r0,[r7,#4]            ;308  ; loaddelay
0003da  b110              CBZ      r0,|L8.994|
0003dc  88b8              LDRH     r0,[r7,#4]            ;310  ; loaddelay
0003de  1e40              SUBS     r0,r0,#1              ;310
0003e0  80b8              STRH     r0,[r7,#4]            ;310
                  |L8.994|
0003e2  ed970a03          VLDR     s0,[r7,#0xc]          ;312
0003e6  f8df80ec          LDR      r8,|L8.1236|
0003ea  f8df90ec          LDR      r9,|L8.1240|
0003ee  eeb50ac0          VCMPE.F32 s0,#0.0               ;312
0003f2  eef1fa10          VMRS     APSR_nzcv,FPSCR       ;312
0003f6  d008              BEQ      |L8.1034|
0003f8  edd60a00          VLDR     s1,[r6,#0]            ;312
0003fc  eef40ac0          VCMPE.F32 s1,s0                 ;312
000400  eef1fa10          VMRS     APSR_nzcv,FPSCR       ;312
000404  d201              BCS      |L8.1034|
000406  88b8              LDRH     r0,[r7,#4]            ;312  ; loaddelay
000408  b108              CBZ      r0,|L8.1038|
                  |L8.1034|
00040a  e09a              B        |L8.1346|
                  |L8.1036|
00040c  e066              B        |L8.1244|
                  |L8.1038|
00040e  e08a              B        |L8.1318|
                  |L8.1040|
                          DCD      Run_Control
                  |L8.1044|
000414  447a0000          DCFS     0x447a0000 ; 1000
                  |L8.1048|
                          DCD      0x00d3d3d3
                  |L8.1052|
00041c  00000000          DCFD     0x0000000000000000 ; 0
000420  00000000
                  |L8.1060|
                          DCD      lang
                  |L8.1064|
                          DCD      ||.data||
                  |L8.1068|
                          DCD      GUI_Fontsymbol
                  |L8.1072|
                          DCD      jkflag
                  |L8.1076|
000434  4a696e6b          DCB      "Jinko",0
000438  6f00    
00043a  00                DCB      0
00043b  00                DCB      0
                  |L8.1084|
                          DCD      GUI_Font20_ASCII
                  |L8.1088|
000440  44495350          DCB      "DISPLAY",0
000444  4c415900
                  |L8.1096|
                          DCD      GUI_Font24_1
                  |L8.1100|
00044c  4100              DCB      "A",0
00044e  00                DCB      0
00044f  00                DCB      0
                  |L8.1104|
000450  5600              DCB      "V",0
000452  00                DCB      0
000453  00                DCB      0
                  |L8.1108|
                          DCD      GUI_FontEN40
                  |L8.1112|
000458  433a00            DCB      "C:",0
00045b  00                DCB      0
                  |L8.1116|
00045c  6d00              DCB      "m",0
00045e  00                DCB      0
00045f  00                DCB      0
                  |L8.1120|
000460  414800            DCB      "AH",0
000463  00                DCB      0
                  |L8.1124|
                          DCD      GUI_Fontunit
                  |L8.1128|
000468  c2b000            DCB      194,176,0
00046b  00                DCB      0
                  |L8.1132|
00046c  4300              DCB      "C",0
00046e  00                DCB      0
00046f  00                DCB      0
                  |L8.1136|
                          DCD      GUI_FontHZ20S
                  |L8.1140|
000474  e6b58be9          DCB      230,181,139,233,135,143,230,152,190,231,164,186
000478  878fe698
00047c  bee7a4ba
                  |L8.1152|
000480  00                DCB      0
000481  00                DCB      0
000482  00                DCB      0
000483  00                DCB      0
                  |L8.1156|
                          DCD      lock
                  |L8.1160|
                          DCD      DISS_Voltage
                  |L8.1164|
                          DCD      0x3e99999a
                  |L8.1168|
000490  252e3366          DCB      "%.3f",0
000494  00      
000495  00                DCB      0
000496  00                DCB      0
000497  00                DCB      0
                  |L8.1176|
000498  e9948100          DCB      233,148,129,0
                  |L8.1180|
                          DCD      disloadv
                  |L8.1184|
                          DCD      0x43480000
                  |L8.1188|
                          DCD      temp
                  |L8.1192|
0004a8  252e3166          DCB      "%.1f",0
0004ac  00      
0004ad  00                DCB      0
0004ae  00                DCB      0
0004af  00                DCB      0
                  |L8.1200|
                          DCD      alert_flag
                  |L8.1204|
                          DCD      bc_raw
                  |L8.1208|
                          DCD      battery_c
                  |L8.1212|
0004bc  25303664          DCB      "%06d",0
0004c0  00      
0004c1  00                DCB      0
0004c2  00                DCB      0
0004c3  00                DCB      0
                  |L8.1220|
                          DCD      DISS_Current
                  |L8.1224|
                          DCD      0x41200000
                  |L8.1228|
0004cc  252e3266          DCB      "%.2f",0
0004d0  00      
0004d1  00                DCB      0
0004d2  00                DCB      0
0004d3  00                DCB      0
                  |L8.1236|
                          DCD      flagA
                  |L8.1240|
                          DCD      mode_sw
                  |L8.1244|
0004dc  f6400196          MOV      r1,#0x896             ;290
0004e0  6860              LDR      r0,[r4,#4]            ;290
0004e2  f7fffffe          BL       WM_GetDialogItem
0004e6  9002              STR      r0,[sp,#8]            ;290
0004e8  21ff              MOVS     r1,#0xff              ;291
0004ea  9802              LDR      r0,[sp,#8]            ;291
0004ec  f7fffffe          BL       TEXT_SetTextColor
0004f0  f8980000          LDRB     r0,[r8,#0]            ;292  ; lang
0004f4  b160              CBZ      r0,|L8.1296|
0004f6  49fd              LDR      r1,|L8.2284|
0004f8  9802              LDR      r0,[sp,#8]            ;298
0004fa  f7fffffe          BL       TEXT_SetFont
0004fe  f7fffffe          BL       GUI_UC_SetEncodeUTF8
000502  a1fb              ADR      r1,|L8.2288|
000504  9802              LDR      r0,[sp,#8]            ;300
000506  f7fffffe          BL       TEXT_SetText
                  |L8.1290|
00050a  f8879001          STRB     r9,[r7,#1]            ;302
00050e  e763              B        |L8.984|
                  |L8.1296|
000510  49fa              LDR      r1,|L8.2300|
000512  9802              LDR      r0,[sp,#8]            ;294
000514  f7fffffe          BL       TEXT_SetFont
000518  f7fffffe          BL       GUI_UC_SetEncodeUTF8
00051c  a1f8              ADR      r1,|L8.2304|
00051e  9802              LDR      r0,[sp,#8]            ;296
000520  f7fffffe          BL       TEXT_SetText
000524  e7f1              B        |L8.1290|
                  |L8.1318|
000526  f8d80000          LDR      r0,[r8,#0]            ;314  ; flagA
00052a  f0200040          BIC      r0,r0,#0x40           ;314
00052e  f8c80000          STR      r0,[r8,#0]            ;314  ; flagA
000532  f44f4100          MOV      r1,#0x8000            ;315
000536  48f5              LDR      r0,|L8.2316|
000538  f7fffffe          BL       GPIO_SetBits
00053c  f8895000          STRB     r5,[r9,#0]            ;316
000540  703d              STRB     r5,[r7,#0]            ;317
                  |L8.1346|
000542  ed960a00          VLDR     s0,[r6,#0]            ;319
000546  eddb0a00          VLDR     s1,[r11,#0]           ;319
00054a  ee600a20          VMUL.F32 s1,s0,s1              ;319
00054e  ee100a90          VMOV     r0,s1                 ;319
000552  4550              CMP      r0,r10                ;319
000554  dc09              BGT      |L8.1386|
000556  48ee              LDR      r0,|L8.2320|
000558  edd00a00          VLDR     s1,[r0,#0]            ;319
00055c  ee200a20          VMUL.F32 s0,s0,s1              ;319
000560  ee100a10          VMOV     r0,s0                 ;319
000564  4550              CMP      r0,r10                ;319
000566  f77faec3          BLE      |L8.752|
                  |L8.1386|
00056a  f8d80000          LDR      r0,[r8,#0]            ;321  ; flagA
00056e  f0200040          BIC      r0,r0,#0x40           ;321
000572  f8c80000          STR      r0,[r8,#0]            ;321  ; flagA
000576  f44f4100          MOV      r1,#0x8000            ;322
00057a  48e4              LDR      r0,|L8.2316|
00057c  f7fffffe          BL       GPIO_SetBits
000580  f8895000          STRB     r5,[r9,#0]            ;323
000584  703d              STRB     r5,[r7,#0]            ;324
000586  e6b3              B        |L8.752|
                  |L8.1416|
000588  f8d49004          LDR      r9,[r4,#4]            ;365
00058c  2100              MOVS     r1,#0                 ;366
00058e  4648              MOV      r0,r9                 ;366
000590  f7fffffe          BL       WINDOW_SetBkColor
000594  2300              MOVS     r3,#0                 ;367
000596  f44f72fa          MOV      r2,#0x1f4             ;367
00059a  2102              MOVS     r1,#2                 ;367
00059c  4648              MOV      r0,r9                 ;367
00059e  f7fffffe          BL       WM_CreateTimer
0005a2  4651              MOV      r1,r10                ;379
0005a4  6860              LDR      r0,[r4,#4]            ;379
0005a6  f7fffffe          BL       WM_GetDialogItem
0005aa  4681              MOV      r9,r0                 ;379
0005ac  21ff              MOVS     r1,#0xff              ;380
0005ae  4648              MOV      r0,r9                 ;380
0005b0  f7fffffe          BL       TEXT_SetTextColor
0005b4  49d7              LDR      r1,|L8.2324|
0005b6  4648              MOV      r0,r9                 ;381
0005b8  f7fffffe          BL       TEXT_SetFont
0005bc  f2af1140          ADR      r1,|L8.1152|
0005c0  4648              MOV      r0,r9                 ;382
0005c2  f7fffffe          BL       TEXT_SetText
0005c6  f8980000          LDRB     r0,[r8,#0]            ;385  ; lang
0005ca  f640010b          MOV      r1,#0x80b             ;387
0005ce  f640090c          MOV      r9,#0x80c             ;395
0005d2  f6400a0d          MOV      r10,#0x80d            ;404
0005d6  2800              CMP      r0,#0                 ;385
0005d8  d07d              BEQ      |L8.1750|
0005da  6860              LDR      r0,[r4,#4]            ;426
0005dc  f7fffffe          BL       WM_GetDialogItem
0005e0  9002              STR      r0,[sp,#8]            ;426
0005e2  2200              MOVS     r2,#0                 ;427
0005e4  4611              MOV      r1,r2                 ;427
0005e6  9802              LDR      r0,[sp,#8]            ;427
0005e8  f7fffffe          BL       BUTTON_SetTextColor
0005ec  49ca              LDR      r1,|L8.2328|
0005ee  9802              LDR      r0,[sp,#8]            ;428
0005f0  f7fffffe          BL       BUTTON_SetFont
0005f4  f7fffffe          BL       GUI_UC_SetEncodeUTF8
0005f8  a1c8              ADR      r1,|L8.2332|
0005fa  9802              LDR      r0,[sp,#8]            ;430
0005fc  f7fffffe          BL       BUTTON_SetText
000600  4649              MOV      r1,r9                 ;434
000602  6860              LDR      r0,[r4,#4]            ;434
000604  f7fffffe          BL       WM_GetDialogItem
000608  4681              MOV      r9,r0                 ;434
00060a  2101              MOVS     r1,#1                 ;435
00060c  4648              MOV      r0,r9                 ;435
00060e  f7fffffe          BL       BUTTON_SetPressed
000612  2200              MOVS     r2,#0                 ;436
000614  4611              MOV      r1,r2                 ;436
000616  4648              MOV      r0,r9                 ;436
000618  f7fffffe          BL       BUTTON_SetTextColor
00061c  49be              LDR      r1,|L8.2328|
00061e  4648              MOV      r0,r9                 ;437
000620  f7fffffe          BL       BUTTON_SetFont
000624  f7fffffe          BL       GUI_UC_SetEncodeUTF8
000628  a1bf              ADR      r1,|L8.2344|
00062a  4648              MOV      r0,r9                 ;439
00062c  f7fffffe          BL       BUTTON_SetText
000630  4651              MOV      r1,r10                ;443
000632  6860              LDR      r0,[r4,#4]            ;443
000634  f7fffffe          BL       WM_GetDialogItem
000638  4681              MOV      r9,r0                 ;443
00063a  2200              MOVS     r2,#0                 ;444
00063c  4611              MOV      r1,r2                 ;444
00063e  4648              MOV      r0,r9                 ;444
000640  f7fffffe          BL       BUTTON_SetTextColor
000644  49b4              LDR      r1,|L8.2328|
000646  4648              MOV      r0,r9                 ;445
000648  f7fffffe          BL       BUTTON_SetFont
00064c  f7fffffe          BL       GUI_UC_SetEncodeUTF8
000650  a1b7              ADR      r1,|L8.2352|
000652  4648              MOV      r0,r9                 ;447
000654  f7fffffe          BL       BUTTON_SetText
000658  f640010e          MOV      r1,#0x80e             ;451
00065c  6860              LDR      r0,[r4,#4]            ;451
00065e  f7fffffe          BL       WM_GetDialogItem
000662  4681              MOV      r9,r0                 ;451
000664  2200              MOVS     r2,#0                 ;452
000666  4611              MOV      r1,r2                 ;452
000668  4648              MOV      r0,r9                 ;452
00066a  f7fffffe          BL       BUTTON_SetTextColor
00066e  49aa              LDR      r1,|L8.2328|
000670  4648              MOV      r0,r9                 ;453
000672  f7fffffe          BL       BUTTON_SetFont
000676  f7fffffe          BL       GUI_UC_SetEncodeUTF8
00067a  a1af              ADR      r1,|L8.2360|
00067c  4648              MOV      r0,r9                 ;455
00067e  f7fffffe          BL       BUTTON_SetText
000682  f640010f          MOV      r1,#0x80f             ;459
000686  6860              LDR      r0,[r4,#4]            ;459
000688  f7fffffe          BL       WM_GetDialogItem
00068c  4681              MOV      r9,r0                 ;459
00068e  2200              MOVS     r2,#0                 ;460
000690  4611              MOV      r1,r2                 ;460
000692  4648              MOV      r0,r9                 ;460
000694  f7fffffe          BL       BUTTON_SetTextColor
000698  499f              LDR      r1,|L8.2328|
00069a  4648              MOV      r0,r9                 ;461
00069c  f7fffffe          BL       BUTTON_SetFont
0006a0  f7fffffe          BL       GUI_UC_SetEncodeUTF8
0006a4  a1a6              ADR      r1,|L8.2368|
0006a6  4648              MOV      r0,r9                 ;463
0006a8  f7fffffe          BL       BUTTON_SetText
                  |L8.1708|
0006ac  f44f6101          MOV      r1,#0x810             ;467
0006b0  6860              LDR      r0,[r4,#4]            ;467
0006b2  f7fffffe          BL       WM_GetDialogItem
0006b6  4681              MOV      r9,r0                 ;467
0006b8  4631              MOV      r1,r6                 ;468
0006ba  4648              MOV      r0,r9                 ;468
0006bc  f7fffffe          BL       TEXT_SetTextColor
0006c0  49a1              LDR      r1,|L8.2376|
0006c2  4648              MOV      r0,r9                 ;469
0006c4  f7fffffe          BL       TEXT_SetFont
0006c8  f7fffffe          BL       GUI_UC_SetEncodeUTF8
0006cc  a19f              ADR      r1,|L8.2380|
0006ce  4648              MOV      r0,r9                 ;471
0006d0  f7fffffe          BL       TEXT_SetText
0006d4  e000              B        |L8.1752|
                  |L8.1750|
0006d6  e16e              B        |L8.2486|
                  |L8.1752|
0006d8  f6400111          MOV      r1,#0x811             ;473
0006dc  6860              LDR      r0,[r4,#4]            ;473
0006de  f7fffffe          BL       WM_GetDialogItem
0006e2  4681              MOV      r9,r0                 ;473
0006e4  4631              MOV      r1,r6                 ;474
0006e6  4648              MOV      r0,r9                 ;474
0006e8  f7fffffe          BL       TEXT_SetTextColor
0006ec  4996              LDR      r1,|L8.2376|
0006ee  4648              MOV      r0,r9                 ;475
0006f0  f7fffffe          BL       TEXT_SetFont
0006f4  f7fffffe          BL       GUI_UC_SetEncodeUTF8
0006f8  a195              ADR      r1,|L8.2384|
0006fa  4648              MOV      r0,r9                 ;477
0006fc  f7fffffe          BL       TEXT_SetText
000700  f640011e          MOV      r1,#0x81e             ;479
000704  6860              LDR      r0,[r4,#4]            ;479
000706  f7fffffe          BL       WM_GetDialogItem
00070a  4681              MOV      r9,r0                 ;479
00070c  4631              MOV      r1,r6                 ;480
00070e  4648              MOV      r0,r9                 ;480
000710  f7fffffe          BL       TEXT_SetTextColor
000714  498c              LDR      r1,|L8.2376|
000716  4648              MOV      r0,r9                 ;481
000718  f7fffffe          BL       TEXT_SetFont
00071c  f7fffffe          BL       GUI_UC_SetEncodeUTF8
000720  f2af21d4          ADR      r1,|L8.1104|
000724  4648              MOV      r0,r9                 ;483
000726  f7fffffe          BL       TEXT_SetText
00072a  f640011f          MOV      r1,#0x81f             ;485
00072e  6860              LDR      r0,[r4,#4]            ;485
000730  f7fffffe          BL       WM_GetDialogItem
000734  4681              MOV      r9,r0                 ;485
000736  4631              MOV      r1,r6                 ;486
000738  4648              MOV      r0,r9                 ;486
00073a  f7fffffe          BL       TEXT_SetTextColor
00073e  4982              LDR      r1,|L8.2376|
000740  4648              MOV      r0,r9                 ;487
000742  f7fffffe          BL       TEXT_SetFont
000746  f7fffffe          BL       GUI_UC_SetEncodeUTF8
00074a  f2af3100          ADR      r1,|L8.1100|
00074e  4648              MOV      r0,r9                 ;489
000750  f7fffffe          BL       TEXT_SetText
000754  f640016d          MOV      r1,#0x86d             ;491
000758  6860              LDR      r0,[r4,#4]            ;491
00075a  f7fffffe          BL       WM_GetDialogItem
00075e  4606              MOV      r6,r0                 ;491
000760  2100              MOVS     r1,#0                 ;492
000762  4630              MOV      r0,r6                 ;492
000764  f7fffffe          BL       TEXT_SetTextColor
000768  497a              LDR      r1,|L8.2388|
00076a  4630              MOV      r0,r6                 ;493
00076c  f7fffffe          BL       TEXT_SetBkColor
000770  f8980000          LDRB     r0,[r8,#0]            ;494  ; lang
000774  2800              CMP      r0,#0                 ;494
000776  d07d              BEQ      |L8.2164|
000778  495c              LDR      r1,|L8.2284|
00077a  4630              MOV      r0,r6                 ;500
00077c  f7fffffe          BL       TEXT_SetFont
000780  f7fffffe          BL       GUI_UC_SetEncodeUTF8
000784  a174              ADR      r1,|L8.2392|
000786  4630              MOV      r0,r6                 ;502
000788  f7fffffe          BL       TEXT_SetText
                  |L8.1932|
00078c  f640016e          MOV      r1,#0x86e             ;505
000790  6860              LDR      r0,[r4,#4]            ;505
000792  f7fffffe          BL       WM_GetDialogItem
000796  4606              MOV      r6,r0                 ;505
000798  ee1a0a10          VMOV     r0,s20                ;506
00079c  f7fffffe          BL       __aeabi_f2d
0007a0  ec410b10          VMOV     d0,r0,r1              ;506
0007a4  ec532b10          VMOV     r2,r3,d0              ;506
0007a8  f2af311c          ADR      r1,|L8.1168|
0007ac  4668              MOV      r0,sp                 ;506
0007ae  f7fffffe          BL       __2sprintf
0007b2  4659              MOV      r1,r11                ;507
0007b4  4630              MOV      r0,r6                 ;507
0007b6  f7fffffe          BL       TEXT_SetTextColor
0007ba  4969              LDR      r1,|L8.2400|
0007bc  4630              MOV      r0,r6                 ;508
0007be  f7fffffe          BL       TEXT_SetFont
0007c2  f7fffffe          BL       GUI_UC_SetEncodeUTF8
0007c6  4669              MOV      r1,sp                 ;510
0007c8  4630              MOV      r0,r6                 ;510
0007ca  f7fffffe          BL       TEXT_SetText
0007ce  f640112d          MOV      r1,#0x92d             ;512
0007d2  6860              LDR      r0,[r4,#4]            ;512
0007d4  f7fffffe          BL       WM_GetDialogItem
0007d8  4606              MOV      r6,r0                 ;512
0007da  68f8              LDR      r0,[r7,#0xc]          ;513  ; load_cutoffv
0007dc  f7fffffe          BL       __aeabi_f2d
0007e0  ec410b10          VMOV     d0,r0,r1              ;513
0007e4  ec532b10          VMOV     r2,r3,d0              ;513
0007e8  f2af315c          ADR      r1,|L8.1168|
0007ec  4668              MOV      r0,sp                 ;513
0007ee  f7fffffe          BL       __2sprintf
0007f2  4659              MOV      r1,r11                ;514
0007f4  4630              MOV      r0,r6                 ;514
0007f6  f7fffffe          BL       TEXT_SetTextColor
0007fa  4959              LDR      r1,|L8.2400|
0007fc  4630              MOV      r0,r6                 ;515
0007fe  f7fffffe          BL       TEXT_SetFont
000802  f7fffffe          BL       GUI_UC_SetEncodeUTF8
000806  4669              MOV      r1,sp                 ;517
000808  4630              MOV      r0,r6                 ;517
00080a  f7fffffe          BL       TEXT_SetText
00080e  f6400191          MOV      r1,#0x891             ;519
000812  6860              LDR      r0,[r4,#4]            ;519
000814  f7fffffe          BL       WM_GetDialogItem
000818  4606              MOV      r6,r0                 ;519
00081a  ec532b18          VMOV     r2,r3,d8              ;520
00081e  f2af3190          ADR      r1,|L8.1168|
000822  4668              MOV      r0,sp                 ;520
000824  f7fffffe          BL       __2sprintf
000828  4629              MOV      r1,r5                 ;521
00082a  4630              MOV      r0,r6                 ;521
00082c  f7fffffe          BL       TEXT_SetTextColor
000830  494c              LDR      r1,|L8.2404|
000832  4630              MOV      r0,r6                 ;522
000834  f7fffffe          BL       TEXT_SetFont
000838  f7fffffe          BL       GUI_UC_SetEncodeUTF8
00083c  4669              MOV      r1,sp                 ;524
00083e  4630              MOV      r0,r6                 ;524
000840  f7fffffe          BL       TEXT_SetText
000844  f6400192          MOV      r1,#0x892             ;526
000848  6860              LDR      r0,[r4,#4]            ;526
00084a  f7fffffe          BL       WM_GetDialogItem
00084e  4606              MOV      r6,r0                 ;526
000850  ec532b18          VMOV     r2,r3,d8              ;527
000854  f2af31c8          ADR      r1,|L8.1168|
000858  4668              MOV      r0,sp                 ;527
00085a  f7fffffe          BL       __2sprintf
00085e  4629              MOV      r1,r5                 ;528
000860  4630              MOV      r0,r6                 ;528
000862  f7fffffe          BL       TEXT_SetTextColor
000866  493f              LDR      r1,|L8.2404|
000868  4630              MOV      r0,r6                 ;529
00086a  f7fffffe          BL       TEXT_SetFont
00086e  f7fffffe          BL       GUI_UC_SetEncodeUTF8
000872  e000              B        |L8.2166|
                  |L8.2164|
000874  e109              B        |L8.2698|
                  |L8.2166|
000876  4669              MOV      r1,sp                 ;531
000878  4630              MOV      r0,r6                 ;531
00087a  f7fffffe          BL       TEXT_SetText
00087e  f640110d          MOV      r1,#0x90d             ;533
000882  6860              LDR      r0,[r4,#4]            ;533
000884  f7fffffe          BL       WM_GetDialogItem
000888  4606              MOV      r6,r0                 ;533
00088a  2200              MOVS     r2,#0                 ;534
00088c  a136              ADR      r1,|L8.2408|
00088e  4668              MOV      r0,sp                 ;534
000890  f7fffffe          BL       __2sprintf
000894  4629              MOV      r1,r5                 ;535
000896  4630              MOV      r0,r6                 ;535
000898  f7fffffe          BL       TEXT_SetTextColor
00089c  4931              LDR      r1,|L8.2404|
00089e  4630              MOV      r0,r6                 ;536
0008a0  f7fffffe          BL       TEXT_SetFont
0008a4  f7fffffe          BL       GUI_UC_SetEncodeUTF8
0008a8  4669              MOV      r1,sp                 ;538
0008aa  4630              MOV      r0,r6                 ;538
0008ac  f7fffffe          BL       TEXT_SetText
0008b0  f8980000          LDRB     r0,[r8,#0]            ;539  ; lang
0008b4  f640110e          MOV      r1,#0x90e             ;541
0008b8  f6401639          MOV      r6,#0x939             ;547
0008bc  2800              CMP      r0,#0                 ;539
0008be  d079              BEQ      |L8.2484|
0008c0  6860              LDR      r0,[r4,#4]            ;553
0008c2  f7fffffe          BL       WM_GetDialogItem
0008c6  4681              MOV      r9,r0                 ;553
0008c8  4659              MOV      r1,r11                ;554
0008ca  4648              MOV      r0,r9                 ;554
0008cc  f7fffffe          BL       TEXT_SetTextColor
0008d0  4906              LDR      r1,|L8.2284|
0008d2  4648              MOV      r0,r9                 ;555
0008d4  f7fffffe          BL       TEXT_SetFont
0008d8  f7fffffe          BL       GUI_UC_SetEncodeUTF8
0008dc  a124              ADR      r1,|L8.2416|
0008de  4648              MOV      r0,r9                 ;557
0008e0  f7fffffe          BL       TEXT_SetText
0008e4  4631              MOV      r1,r6                 ;559
0008e6  6860              LDR      r0,[r4,#4]            ;559
0008e8  e046              B        |L8.2424|
                  |L8.2282|
0008ea  e1a7              B        |L8.3132|
                  |L8.2284|
                          DCD      GUI_Font20_ASCII
                  |L8.2288|
0008f0  44697363          DCB      "Discharging",0
0008f4  68617267
0008f8  696e6700
                  |L8.2300|
                          DCD      GUI_FontHZ16
                  |L8.2304|
000900  e694bee7          DCB      230,148,190,231,148,181,228,184,173,0
000904  94b5e4b8
000908  ad00    
00090a  00                DCB      0
00090b  00                DCB      0
                  |L8.2316|
                          DCD      0x40020000
                  |L8.2320|
                          DCD      DISS_POW_Current
                  |L8.2324|
                          DCD      GUI_FontHZ14
                  |L8.2328|
                          DCD      GUI_Font16B_ASCII
                  |L8.2332|
00091c  492e522e          DCB      "I.R. TEST",0
000920  20544553
000924  5400    
000926  00                DCB      0
000927  00                DCB      0
                  |L8.2344|
000928  4c4f4144          DCB      "LOAD",0
00092c  00      
00092d  00                DCB      0
00092e  00                DCB      0
00092f  00                DCB      0
                  |L8.2352|
000930  504f5745          DCB      "POWER",0
000934  5200    
000936  00                DCB      0
000937  00                DCB      0
                  |L8.2360|
000938  43264443          DCB      "C&DC",0
00093c  00      
00093d  00                DCB      0
00093e  00                DCB      0
00093f  00                DCB      0
                  |L8.2368|
000940  47524150          DCB      "GRAPH",0
000944  4800    
000946  00                DCB      0
000947  00                DCB      0
                  |L8.2376|
                          DCD      GUI_FontEN40
                  |L8.2380|
00094c  563a00            DCB      "V:",0
00094f  00                DCB      0
                  |L8.2384|
000950  493a00            DCB      "I:",0
000953  00                DCB      0
                  |L8.2388|
                          DCD      0x00bfffff
                  |L8.2392|
000958  4c6f6164          DCB      "Load C",0
00095c  204300  
00095f  00                DCB      0
                  |L8.2400|
                          DCD      GUI_Font24_1
                  |L8.2404|
                          DCD      GUI_FontD24x32
                  |L8.2408|
000968  25303564          DCB      "%05d",0
00096c  00      
00096d  00                DCB      0
00096e  00                DCB      0
00096f  00                DCB      0
                  |L8.2416|
000970  4d6f6465          DCB      "Mode",0
000974  00      
000975  00                DCB      0
000976  00                DCB      0
000977  00                DCB      0
                  |L8.2424|
000978  f7fffffe          BL       WM_GetDialogItem
00097c  4606              MOV      r6,r0                 ;559
00097e  4659              MOV      r1,r11                ;560
000980  4630              MOV      r0,r6                 ;560
000982  f7fffffe          BL       TEXT_SetTextColor
000986  49af              LDR      r1,|L8.3140|
000988  4630              MOV      r0,r6                 ;561
00098a  f7fffffe          BL       TEXT_SetFont
00098e  f7fffffe          BL       GUI_UC_SetEncodeUTF8
000992  a1ad              ADR      r1,|L8.3144|
000994  4630              MOV      r0,r6                 ;563
000996  f7fffffe          BL       TEXT_SetText
                  |L8.2458|
00099a  78b8              LDRB     r0,[r7,#2]            ;566  ; load_mode
00099c  f8df92b4          LDR      r9,|L8.3156|
0009a0  4ead              LDR      r6,|L8.3160|
0009a2  f640110f          MOV      r1,#0x90f             ;568
0009a6  f44f6780          MOV      r7,#0x400             ;572
0009aa  2801              CMP      r0,#1                 ;566
0009ac  d078              BEQ      |L8.2720|
0009ae  2800              CMP      r0,#0                 ;575
0009b0  d077              BEQ      |L8.2722|
0009b2  e0d2              B        |L8.2906|
                  |L8.2484|
0009b4  e076              B        |L8.2724|
                  |L8.2486|
0009b6  6860              LDR      r0,[r4,#4]            ;387
0009b8  f7fffffe          BL       WM_GetDialogItem
0009bc  9002              STR      r0,[sp,#8]            ;387
0009be  2200              MOVS     r2,#0                 ;388
0009c0  4611              MOV      r1,r2                 ;388
0009c2  9802              LDR      r0,[sp,#8]            ;388
0009c4  f7fffffe          BL       BUTTON_SetTextColor
0009c8  49a4              LDR      r1,|L8.3164|
0009ca  9802              LDR      r0,[sp,#8]            ;389
0009cc  f7fffffe          BL       BUTTON_SetFont
0009d0  f7fffffe          BL       GUI_UC_SetEncodeUTF8
0009d4  a1a2              ADR      r1,|L8.3168|
0009d6  9802              LDR      r0,[sp,#8]            ;391
0009d8  f7fffffe          BL       BUTTON_SetText
0009dc  4649              MOV      r1,r9                 ;395
0009de  6860              LDR      r0,[r4,#4]            ;395
0009e0  f7fffffe          BL       WM_GetDialogItem
0009e4  4681              MOV      r9,r0                 ;395
0009e6  2101              MOVS     r1,#1                 ;396
0009e8  4648              MOV      r0,r9                 ;396
0009ea  f7fffffe          BL       BUTTON_SetPressed
0009ee  2200              MOVS     r2,#0                 ;397
0009f0  4611              MOV      r1,r2                 ;397
0009f2  4648              MOV      r0,r9                 ;397
0009f4  f7fffffe          BL       BUTTON_SetTextColor
0009f8  4998              LDR      r1,|L8.3164|
0009fa  4648              MOV      r0,r9                 ;398
0009fc  f7fffffe          BL       BUTTON_SetFont
000a00  f7fffffe          BL       GUI_UC_SetEncodeUTF8
000a04  a19a              ADR      r1,|L8.3184|
000a06  4648              MOV      r0,r9                 ;400
000a08  f7fffffe          BL       BUTTON_SetText
000a0c  4651              MOV      r1,r10                ;404
000a0e  6860              LDR      r0,[r4,#4]            ;404
000a10  f7fffffe          BL       WM_GetDialogItem
000a14  4681              MOV      r9,r0                 ;404
000a16  2200              MOVS     r2,#0                 ;405
000a18  4611              MOV      r1,r2                 ;405
000a1a  4648              MOV      r0,r9                 ;405
000a1c  f7fffffe          BL       BUTTON_SetTextColor
000a20  498e              LDR      r1,|L8.3164|
000a22  4648              MOV      r0,r9                 ;406
000a24  f7fffffe          BL       BUTTON_SetFont
000a28  f7fffffe          BL       GUI_UC_SetEncodeUTF8
000a2c  a194              ADR      r1,|L8.3200|
000a2e  4648              MOV      r0,r9                 ;408
000a30  f7fffffe          BL       BUTTON_SetText
000a34  f640010e          MOV      r1,#0x80e             ;412
000a38  6860              LDR      r0,[r4,#4]            ;412
000a3a  f7fffffe          BL       WM_GetDialogItem
000a3e  4681              MOV      r9,r0                 ;412
000a40  2200              MOVS     r2,#0                 ;413
000a42  4611              MOV      r1,r2                 ;413
000a44  4648              MOV      r0,r9                 ;413
000a46  f7fffffe          BL       BUTTON_SetTextColor
000a4a  4984              LDR      r1,|L8.3164|
000a4c  4648              MOV      r0,r9                 ;414
000a4e  f7fffffe          BL       BUTTON_SetFont
000a52  f7fffffe          BL       GUI_UC_SetEncodeUTF8
000a56  a18e              ADR      r1,|L8.3216|
000a58  4648              MOV      r0,r9                 ;416
000a5a  f7fffffe          BL       BUTTON_SetText
000a5e  f640010f          MOV      r1,#0x80f             ;420
000a62  6860              LDR      r0,[r4,#4]            ;420
000a64  f7fffffe          BL       WM_GetDialogItem
000a68  4681              MOV      r9,r0                 ;420
000a6a  2200              MOVS     r2,#0                 ;421
000a6c  4611              MOV      r1,r2                 ;421
000a6e  4648              MOV      r0,r9                 ;421
000a70  f7fffffe          BL       BUTTON_SetTextColor
000a74  4979              LDR      r1,|L8.3164|
000a76  4648              MOV      r0,r9                 ;422
000a78  f7fffffe          BL       BUTTON_SetFont
000a7c  f7fffffe          BL       GUI_UC_SetEncodeUTF8
000a80  a186              ADR      r1,|L8.3228|
000a82  4648              MOV      r0,r9                 ;424
000a84  f7fffffe          BL       BUTTON_SetText
000a88  e610              B        |L8.1708|
                  |L8.2698|
000a8a  4986              LDR      r1,|L8.3236|
000a8c  4630              MOV      r0,r6                 ;496
000a8e  f7fffffe          BL       TEXT_SetFont
000a92  f7fffffe          BL       GUI_UC_SetEncodeUTF8
000a96  a184              ADR      r1,|L8.3240|
000a98  4630              MOV      r0,r6                 ;498
000a9a  f7fffffe          BL       TEXT_SetText
000a9e  e675              B        |L8.1932|
                  |L8.2720|
000aa0  e026              B        |L8.2800|
                  |L8.2722|
000aa2  e040              B        |L8.2854|
                  |L8.2724|
000aa4  6860              LDR      r0,[r4,#4]            ;541
000aa6  f7fffffe          BL       WM_GetDialogItem
000aaa  4681              MOV      r9,r0                 ;541
000aac  4659              MOV      r1,r11                ;542
000aae  4648              MOV      r0,r9                 ;542
000ab0  f7fffffe          BL       TEXT_SetTextColor
000ab4  497b              LDR      r1,|L8.3236|
000ab6  4648              MOV      r0,r9                 ;543
000ab8  f7fffffe          BL       TEXT_SetFont
000abc  f7fffffe          BL       GUI_UC_SetEncodeUTF8
000ac0  a17d              ADR      r1,|L8.3256|
000ac2  4648              MOV      r0,r9                 ;545
000ac4  f7fffffe          BL       TEXT_SetText
000ac8  4631              MOV      r1,r6                 ;547
000aca  6860              LDR      r0,[r4,#4]            ;547
000acc  f7fffffe          BL       WM_GetDialogItem
000ad0  4606              MOV      r6,r0                 ;547
000ad2  4659              MOV      r1,r11                ;548
000ad4  4630              MOV      r0,r6                 ;548
000ad6  f7fffffe          BL       TEXT_SetTextColor
000ada  4972              LDR      r1,|L8.3236|
000adc  4630              MOV      r0,r6                 ;549
000ade  f7fffffe          BL       TEXT_SetFont
000ae2  f7fffffe          BL       GUI_UC_SetEncodeUTF8
000ae6  a178              ADR      r1,|L8.3272|
000ae8  4630              MOV      r0,r6                 ;551
000aea  f7fffffe          BL       TEXT_SetText
000aee  e754              B        |L8.2458|
                  |L8.2800|
000af0  6860              LDR      r0,[r4,#4]            ;568
000af2  f7fffffe          BL       WM_GetDialogItem
000af6  4682              MOV      r10,r0                ;568
000af8  4659              MOV      r1,r11                ;569
000afa  4650              MOV      r0,r10                ;569
000afc  f7fffffe          BL       TEXT_SetTextColor
000b00  4975              LDR      r1,|L8.3288|
000b02  4650              MOV      r0,r10                ;570
000b04  f7fffffe          BL       TEXT_SetFont
000b08  f7fffffe          BL       GUI_UC_SetEncodeUTF8
000b0c  4639              MOV      r1,r7                 ;572
000b0e  4648              MOV      r0,r9                 ;572
000b10  f7fffffe          BL       GPIO_SetBits
000b14  a171              ADR      r1,|L8.3292|
000b16  4650              MOV      r0,r10                ;573
000b18  f7fffffe          BL       TEXT_SetText
000b1c  6830              LDR      r0,[r6,#0]            ;574  ; flagD
000b1e  f0400080          ORR      r0,r0,#0x80           ;574
000b22  6030              STR      r0,[r6,#0]            ;574  ; flagD
000b24  e019              B        |L8.2906|
                  |L8.2854|
000b26  6860              LDR      r0,[r4,#4]            ;576
000b28  f7fffffe          BL       WM_GetDialogItem
000b2c  4682              MOV      r10,r0                ;576
000b2e  4659              MOV      r1,r11                ;577
000b30  4650              MOV      r0,r10                ;577
000b32  f7fffffe          BL       TEXT_SetTextColor
000b36  4968              LDR      r1,|L8.3288|
000b38  4650              MOV      r0,r10                ;578
000b3a  f7fffffe          BL       TEXT_SetFont
000b3e  f7fffffe          BL       GUI_UC_SetEncodeUTF8
000b42  4639              MOV      r1,r7                 ;580
000b44  4648              MOV      r0,r9                 ;580
000b46  f7fffffe          BL       GPIO_ResetBits
000b4a  a165              ADR      r1,|L8.3296|
000b4c  4650              MOV      r0,r10                ;581
000b4e  f7fffffe          BL       TEXT_SetText
000b52  6830              LDR      r0,[r6,#0]            ;582  ; flagD
000b54  f0200080          BIC      r0,r0,#0x80           ;582
000b58  6030              STR      r0,[r6,#0]            ;582  ; flagD
                  |L8.2906|
000b5a  f8980000          LDRB     r0,[r8,#0]            ;585  ; lang
000b5e  f44f6111          MOV      r1,#0x910             ;587
000b62  b3e8              CBZ      r0,|L8.3040|
000b64  6860              LDR      r0,[r4,#4]            ;593
000b66  f7fffffe          BL       WM_GetDialogItem
000b6a  4606              MOV      r6,r0                 ;593
000b6c  4659              MOV      r1,r11                ;594
000b6e  4630              MOV      r0,r6                 ;594
000b70  f7fffffe          BL       TEXT_SetTextColor
000b74  4933              LDR      r1,|L8.3140|
000b76  4630              MOV      r0,r6                 ;595
000b78  f7fffffe          BL       TEXT_SetFont
000b7c  f7fffffe          BL       GUI_UC_SetEncodeUTF8
000b80  a158              ADR      r1,|L8.3300|
000b82  4630              MOV      r0,r6                 ;597
000b84  f7fffffe          BL       TEXT_SetText
                  |L8.2952|
000b88  f6401111          MOV      r1,#0x911             ;600
000b8c  6860              LDR      r0,[r4,#4]            ;600
000b8e  f7fffffe          BL       WM_GetDialogItem
000b92  4606              MOV      r6,r0                 ;600
000b94  ee190a10          VMOV     r0,s18                ;601
000b98  f7fffffe          BL       __aeabi_f2d
000b9c  ec410b10          VMOV     d0,r0,r1              ;601
000ba0  ec532b10          VMOV     r2,r3,d0              ;601
000ba4  f2af7118          ADR      r1,|L8.1168|
000ba8  4668              MOV      r0,sp                 ;601
000baa  f7fffffe          BL       __2sprintf
000bae  4659              MOV      r1,r11                ;602
000bb0  4630              MOV      r0,r6                 ;602
000bb2  f7fffffe          BL       TEXT_SetTextColor
000bb6  4948              LDR      r1,|L8.3288|
000bb8  4630              MOV      r0,r6                 ;603
000bba  f7fffffe          BL       TEXT_SetFont
000bbe  f7fffffe          BL       GUI_UC_SetEncodeUTF8
000bc2  4669              MOV      r1,sp                 ;605
000bc4  4630              MOV      r0,r6                 ;605
000bc6  f7fffffe          BL       TEXT_SetText
000bca  f6401112          MOV      r1,#0x912             ;607
000bce  6860              LDR      r0,[r4,#4]            ;607
000bd0  f7fffffe          BL       WM_GetDialogItem
000bd4  4604              MOV      r4,r0                 ;607
000bd6  4629              MOV      r1,r5                 ;608
000bd8  4620              MOV      r0,r4                 ;608
000bda  f7fffffe          BL       TEXT_SetTextColor
000bde  e000              B        |L8.3042|
                  |L8.3040|
000be0  e019              B        |L8.3094|
                  |L8.3042|
000be2  493d              LDR      r1,|L8.3288|
000be4  4620              MOV      r0,r4                 ;609
000be6  f7fffffe          BL       TEXT_SetFont
000bea  4840              LDR      r0,|L8.3308|
000bec  6800              LDR      r0,[r0,#0]            ;610  ; temp
000bee  f7fffffe          BL       __aeabi_f2d
000bf2  ec410b10          VMOV     d0,r0,r1              ;610
000bf6  ec532b10          VMOV     r2,r3,d0              ;610
000bfa  f2af7154          ADR      r1,|L8.1192|
000bfe  4668              MOV      r0,sp                 ;610
000c00  f7fffffe          BL       __2sprintf
000c04  4669              MOV      r1,sp                 ;611
000c06  4620              MOV      r0,r4                 ;611
000c08  f7fffffe          BL       TEXT_SetText
                  |L8.3084|
000c0c  b003              ADD      sp,sp,#0xc
000c0e  ecbd8b06          VPOP     {d8-d10}
000c12  e8bd8ff0          POP      {r4-r11,pc}
                  |L8.3094|
000c16  6860              LDR      r0,[r4,#4]            ;587
000c18  f7fffffe          BL       WM_GetDialogItem
000c1c  4606              MOV      r6,r0                 ;587
000c1e  4659              MOV      r1,r11                ;588
000c20  4630              MOV      r0,r6                 ;588
000c22  f7fffffe          BL       TEXT_SetTextColor
000c26  491f              LDR      r1,|L8.3236|
000c28  4630              MOV      r0,r6                 ;589
000c2a  f7fffffe          BL       TEXT_SetFont
000c2e  f7fffffe          BL       GUI_UC_SetEncodeUTF8
000c32  a12f              ADR      r1,|L8.3312|
000c34  4630              MOV      r0,r6                 ;591
000c36  f7fffffe          BL       TEXT_SetText
000c3a  e7a5              B        |L8.2952|
                  |L8.3132|
000c3c  68a0              LDR      r0,[r4,#8]            ;618
000c3e  f7fffffe          BL       WM_GetId
000c42  e7e3              B        |L8.3084|
;;;717    
                          ENDP

                  |L8.3140|
                          DCD      GUI_Font20_ASCII
                  |L8.3144|
000c48  4375746f          DCB      "Cutoff V",0
000c4c  66662056
000c50  00      
000c51  00                DCB      0
000c52  00                DCB      0
000c53  00                DCB      0
                  |L8.3156|
                          DCD      0x40020800
                  |L8.3160|
                          DCD      flagD
                  |L8.3164|
                          DCD      GUI_FontHZ16
                  |L8.3168|
000c60  e58685e9          DCB      229,134,133,233,152,187,230,181,139,232,175,149,0
000c64  98bbe6b5
000c68  8be8af95
000c6c  00      
000c6d  00                DCB      0
000c6e  00                DCB      0
000c6f  00                DCB      0
                  |L8.3184|
000c70  e7a88be6          DCB      231,168,139,230,142,167,232,180,159,232,189,189,0
000c74  8ea7e8b4
000c78  9fe8bdbd
000c7c  00      
000c7d  00                DCB      0
000c7e  00                DCB      0
000c7f  00                DCB      0
                  |L8.3200|
000c80  e7a88be6          DCB      231,168,139,230,142,167,231,148,181,230,186,144,0
000c84  8ea7e794
000c88  b5e6ba90
000c8c  00      
000c8d  00                DCB      0
000c8e  00                DCB      0
000c8f  00                DCB      0
                  |L8.3216|
000c90  e58585e6          DCB      229,133,133,230,148,190,231,148,181,0
000c94  94bee794
000c98  b500    
000c9a  00                DCB      0
000c9b  00                DCB      0
                  |L8.3228|
000c9c  e69bb2e7          DCB      230,155,178,231,186,191,0
000ca0  babf00  
000ca3  00                DCB      0
                  |L8.3236|
                          DCD      GUI_Fontset_font
                  |L8.3240|
000ca8  e8b49fe8          DCB      232,180,159,232,189,189,231,148,181,230,181,129,0
000cac  bdbde794
000cb0  b5e6b581
000cb4  00      
000cb5  00                DCB      0
000cb6  00                DCB      0
000cb7  00                DCB      0
                  |L8.3256|
000cb8  e8b49fe8          DCB      232,180,159,232,189,189,230,168,161,229,188,143,0
000cbc  bdbde6a8
000cc0  a1e5bc8f
000cc4  00      
000cc5  00                DCB      0
000cc6  00                DCB      0
000cc7  00                DCB      0
                  |L8.3272|
000cc8  e688aae6          DCB      230,136,170,230,173,162,231,148,181,229,142,139,0
000ccc  ada2e794
000cd0  b5e58e8b
000cd4  00      
000cd5  00                DCB      0
000cd6  00                DCB      0
000cd7  00                DCB      0
                  |L8.3288|
                          DCD      GUI_Font24_1
                  |L8.3292|
000cdc  434300            DCB      "CC",0
000cdf  00                DCB      0
                  |L8.3296|
000ce0  435600            DCB      "CV",0
000ce3  00                DCB      0
                  |L8.3300|
000ce4  4c6f6164          DCB      "Load V",0
000ce8  205600  
000ceb  00                DCB      0
                  |L8.3308|
                          DCD      temp
                  |L8.3312|
000cf0  e8b49fe8          DCB      232,180,159,232,189,189,231,148,181,229,142,139,0
000cf4  bdbde794
000cf8  b5e58e8b
000cfc  00      
000cfd  00                DCB      0
000cfe  00                DCB      0
000cff  00                DCB      0

                          AREA ||i.test_load||, CODE, READONLY, ALIGN=2

                  test_load PROC
;;;1464   
;;;1465   void test_load(void)
000000  b570              PUSH     {r4-r6,lr}
;;;1466   {
;;;1467   
;;;1468       if(load_sw == load_on && para_set1 == set_1_on)
000002  4827              LDR      r0,|L9.160|
000004  7802              LDRB     r2,[r0,#0]  ; load_sw
;;;1469       {
;;;1470           if(DISS_Voltage*100 > set_max_v || DISS_Voltage*100 < set_min_v)
;;;1471           {
;;;1472              if(para_set4 == set_4_on){
;;;1473                   BEEP_Tiggr();
;;;1474               }
;;;1475               TM1650_SET_LED(0x68,0x70);//FAIL灯
;;;1476               GPIO_SetBits(GPIOD,GPIO_Pin_12);//            
000006  4d27              LDR      r5,|L9.164|
000008  f44f5480          MOV      r4,#0x1000
00000c  2a01              CMP      r2,#1                 ;1468
00000e  d103              BNE      |L9.24|
000010  4825              LDR      r0,|L9.168|
000012  7800              LDRB     r0,[r0,#0]            ;1468  ; para_set1
000014  28ff              CMP      r0,#0xff              ;1468
000016  d009              BEQ      |L9.44|
                  |L9.24|
;;;1477           }else{
;;;1478               GPIO_ResetBits(GPIOD,GPIO_Pin_12);
;;;1479               TM1650_SET_LED(0x48,0x71);
;;;1480               TM1650_SET_LED(0x68,0xF2);//PASS灯
;;;1481           }        
;;;1482       }else
;;;1483       {
;;;1484           TM1650_SET_LED(0x68,0x70);
000018  2170              MOVS     r1,#0x70
00001a  2068              MOVS     r0,#0x68
00001c  f7fffffe          BL       TM1650_SET_LED
;;;1485           GPIO_ResetBits(GPIOD,GPIO_Pin_12);//灭灯
000020  4621              MOV      r1,r4
000022  4628              MOV      r0,r5
000024  e8bd4070          POP      {r4-r6,lr}
000028  f7ffbffe          B.W      GPIO_ResetBits
                  |L9.44|
00002c  4a1f              LDR      r2,|L9.172|
00002e  ed9f0a20          VLDR     s0,|L9.176|
000032  edd20a00          VLDR     s1,[r2,#0]            ;1470
000036  4a1f              LDR      r2,|L9.180|
000038  ee200a80          VMUL.F32 s0,s1,s0              ;1470
00003c  6b93              LDR      r3,[r2,#0x38]         ;1470  ; Run_Control
00003e  ee003a90          VMOV     s1,r3                 ;1470
000042  eef80a60          VCVT.F32.U32 s1,s1                 ;1470
000046  eeb40ae0          VCMPE.F32 s0,s1                 ;1470
00004a  eef1fa10          VMRS     APSR_nzcv,FPSCR       ;1470
00004e  dc09              BGT      |L9.100|
000050  6bd2              LDR      r2,[r2,#0x3c]         ;1470  ; Run_Control
000052  ee002a90          VMOV     s1,r2                 ;1470
000056  eef80a60          VCVT.F32.U32 s1,s1                 ;1470
00005a  eeb40ae0          VCMPE.F32 s0,s1                 ;1470
00005e  eef1fa10          VMRS     APSR_nzcv,FPSCR       ;1470
000062  d20f              BCS      |L9.132|
                  |L9.100|
000064  4814              LDR      r0,|L9.184|
000066  7800              LDRB     r0,[r0,#0]            ;1472  ; para_set4
000068  28ff              CMP      r0,#0xff              ;1472
00006a  d101              BNE      |L9.112|
00006c  f7fffffe          BL       BEEP_Tiggr
                  |L9.112|
000070  2170              MOVS     r1,#0x70              ;1475
000072  2068              MOVS     r0,#0x68              ;1475
000074  f7fffffe          BL       TM1650_SET_LED
000078  4621              MOV      r1,r4                 ;1476
00007a  4628              MOV      r0,r5                 ;1476
00007c  e8bd4070          POP      {r4-r6,lr}            ;1476
000080  f7ffbffe          B.W      GPIO_SetBits
                  |L9.132|
000084  4621              MOV      r1,r4                 ;1478
000086  4628              MOV      r0,r5                 ;1478
000088  f7fffffe          BL       GPIO_ResetBits
00008c  2171              MOVS     r1,#0x71              ;1479
00008e  2048              MOVS     r0,#0x48              ;1479
000090  f7fffffe          BL       TM1650_SET_LED
000094  e8bd4070          POP      {r4-r6,lr}            ;1480
000098  21f2              MOVS     r1,#0xf2              ;1480
00009a  2068              MOVS     r0,#0x68              ;1480
00009c  f7ffbffe          B.W      TM1650_SET_LED
;;;1486       }
;;;1487   }
                          ENDP

                  |L9.160|
                          DCD      ||.data||
                  |L9.164|
                          DCD      0x40020c00
                  |L9.168|
                          DCD      para_set1
                  |L9.172|
                          DCD      DISS_Voltage
                  |L9.176|
0000b0  42c80000          DCFS     0x42c80000 ; 100
                  |L9.180|
                          DCD      Run_Control
                  |L9.184|
                          DCD      para_set4

                          AREA ||.constdata||, DATA, READONLY, ALIGN=2

                  _aDialogCreate2
                          DCD      WINDOW_CreateIndirect
                          DCD      ||.conststring||
000008  08090000          DCW      0x0809,0x0000
00000c  000001e0          DCW      0x0000,0x01e0
000010  01100000          DCW      0x0110,0x0000
                          DCD      0x00000000
                          DCD      0x00000000
                          DCD      BUTTON_CreateIndirect
                          DCD      ||.conststring||+0x8
000024  080b0053          DCW      0x080b,0x0053
000028  00e2004d          DCW      0x00e2,0x004d
00002c  002d0000          DCW      0x002d,0x0000
                          DCD      0x00000000
                          DCD      0x00000000
                          DCD      BUTTON_CreateIndirect
                          DCD      ||.conststring||+0x8
000040  080c00a3          DCW      0x080c,0x00a3
000044  00e2004d          DCW      0x00e2,0x004d
000048  002d0000          DCW      0x002d,0x0000
                          DCD      0x00000000
                          DCD      0x00000000
                          DCD      BUTTON_CreateIndirect
                          DCD      ||.conststring||+0x8
00005c  080d00f3          DCW      0x080d,0x00f3
000060  00e2004d          DCW      0x00e2,0x004d
000064  002d0000          DCW      0x002d,0x0000
                          DCD      0x00000000
                          DCD      0x00000000
                          DCD      BUTTON_CreateIndirect
                          DCD      ||.conststring||+0x8
000078  080e0143          DCW      0x080e,0x0143
00007c  00e2004d          DCW      0x00e2,0x004d
000080  002d0000          DCW      0x002d,0x0000
                          DCD      0x00000000
                          DCD      0x00000000
                          DCD      BUTTON_CreateIndirect
                          DCD      ||.conststring||+0x8
000094  080f0193          DCW      0x080f,0x0193
000098  00e2004d          DCW      0x00e2,0x004d
00009c  002d0000          DCW      0x002d,0x0000
                          DCD      0x00000000
                          DCD      0x00000000
                          DCD      TEXT_CreateIndirect
                          DCD      ||.conststring||+0x10
0000b0  0810001c          DCW      0x0810,0x001c
0000b4  00320040          DCW      0x0032,0x0040
0000b8  00200000          DCW      0x0020,0x0000
                          DCD      0x00000064
                          DCD      0x00000000
                          DCD      TEXT_CreateIndirect
                          DCD      ||.conststring||+0x10
0000cc  0811001c          DCW      0x0811,0x001c
0000d0  00780040          DCW      0x0078,0x0040
0000d4  00200000          DCW      0x0020,0x0000
                          DCD      0x00000064
                          DCD      0x00000000
                          DCD      TEXT_CreateIndirect
                          DCD      ||.conststring||+0x10
0000e8  081e00f0          DCW      0x081e,0x00f0
0000ec  00320020          DCW      0x0032,0x0020
0000f0  001e0000          DCW      0x001e,0x0000
                          DCD      0x00000000
                          DCD      0x00000000
                          DCD      TEXT_CreateIndirect
                          DCD      ||.conststring||+0x10
000104  081f00f0          DCW      0x081f,0x00f0
000108  00790020          DCW      0x0079,0x0020
00010c  001e0000          DCW      0x001e,0x0000
                          DCD      0x00000000
                          DCD      0x00000000
                          DCD      TEXT_CreateIndirect
                          DCD      ||.conststring||+0x10
000120  086d0122          DCW      0x086d,0x0122
000124  004b0050          DCW      0x004b,0x0050
000128  00140000          DCW      0x0014,0x0000
                          DCD      0x00000000
                          DCD      0x00000000
                          DCD      TEXT_CreateIndirect
                          DCD      ||.conststring||+0x10
00013c  086e017c          DCW      0x086e,0x017c
000140  004b0041          DCW      0x004b,0x0041
000144  00140000          DCW      0x0014,0x0000
                          DCD      0x00000000
                          DCD      0x00000000
                          DCD      TEXT_CreateIndirect
                          DCD      ||.conststring||+0x10
000158  090e0122          DCW      0x090e,0x0122
00015c  007d0050          DCW      0x007d,0x0050
000160  00140000          DCW      0x0014,0x0000
                          DCD      0x00000000
                          DCD      0x00000000
                          DCD      TEXT_CreateIndirect
                          DCD      ||.conststring||+0x10
000174  09390122          DCW      0x0939,0x0122
000178  00960050          DCW      0x0096,0x0050
00017c  00140000          DCW      0x0014,0x0000
                          DCD      0x00000000
                          DCD      0x00000000
                          DCD      TEXT_CreateIndirect
                          DCD      ||.conststring||+0x10
000190  090f017c          DCW      0x090f,0x017c
000194  007d0041          DCW      0x007d,0x0041
000198  00140000          DCW      0x0014,0x0000
                          DCD      0x00000000
                          DCD      0x00000000
                          DCD      TEXT_CreateIndirect
                          DCD      ||.conststring||+0x10
0001ac  09100122          DCW      0x0910,0x0122
0001b0  00640050          DCW      0x0064,0x0050
0001b4  00140000          DCW      0x0014,0x0000
                          DCD      0x00000000
                          DCD      0x00000000
                          DCD      TEXT_CreateIndirect
                          DCD      ||.conststring||+0x10
0001c8  0911017c          DCW      0x0911,0x017c
0001cc  00640041          DCW      0x0064,0x0041
0001d0  00140000          DCW      0x0014,0x0000
                          DCD      0x00000000
                          DCD      0x00000000
                          DCD      TEXT_CreateIndirect
                          DCD      ||.conststring||+0x10
0001e4  0891005f          DCW      0x0891,0x005f
0001e8  00300096          DCW      0x0030,0x0096
0001ec  00280000          DCW      0x0028,0x0000
                          DCD      0x00000000
                          DCD      0x00000000
                          DCD      TEXT_CreateIndirect
                          DCD      ||.conststring||+0x10
000200  0892005f          DCW      0x0892,0x005f
000204  00740096          DCW      0x0074,0x0096
000208  00280000          DCW      0x0028,0x0000
                          DCD      0x00000000
                          DCD      0x00000000
                          DCD      TEXT_CreateIndirect
                          DCD      ||.conststring||+0x10
00021c  08960190          DCW      0x0896,0x0190
000220  00040050          DCW      0x0004,0x0050
000224  00140000          DCW      0x0014,0x0000
                          DCD      0x00000000
                          DCD      0x00000000
                          DCD      TEXT_CreateIndirect
                          DCD      ||.conststring||+0x10
000238  090d005f          DCW      0x090d,0x005f
00023c  00b80096          DCW      0x00b8,0x0096
000240  00280000          DCW      0x0028,0x0000
                          DCD      0x00000000
                          DCD      0x00000000
                          DCD      TEXT_CreateIndirect
                          DCD      ||.conststring||+0x10
000254  0912012c          DCW      0x0912,0x012c
000258  00020050          DCW      0x0002,0x0050
00025c  00140000          DCW      0x0014,0x0000
                          DCD      0x00000000
                          DCD      0x00000000
                          DCD      TEXT_CreateIndirect
                          DCD      ||.conststring||+0x10
000270  092d017c          DCW      0x092d,0x017c
000274  00960041          DCW      0x0096,0x0041
000278  00140000          DCW      0x0014,0x0000
                          DCD      0x00000000
                          DCD      0x00000000
                          DCD      TEXT_CreateIndirect
                          DCD      ||.conststring||+0x10
00028c  093d017c          DCW      0x093d,0x017c
000290  00080014          DCW      0x0008,0x0014
000294  000f0000          DCW      0x000f,0x0000
                          DCD      0x00000000
                          DCD      0x00000000

                          AREA ||.conststring||, DATA, READONLY, MERGE=1, STRINGS, ALIGN=2

000000  57696e64          DCB      "Window",0
000004  6f7700  
000007  00                DCB      0
000008  42757474          DCB      "Button",0
00000c  6f6e00  
00000f  00                DCB      0
000010  54657874          DCB      "Text",0
000014  00      

                          AREA ||.data||, DATA, ALIGN=2

                  load_sw
000000  00                DCB      0x00
                  status_flash
000001  00                DCB      0x00
                  load_mode
000002  0000              DCB      0x00,0x00
                  loaddelay
000004  00000000          DCB      0x00,0x00,0x00,0x00
                  load_wind
                          DCD      0x00000000
                  load_cutoffv
                          DCD      0x00000000

;*** Start embedded assembler ***

#line 1 "..\\APP\\load_Face.c"
	AREA ||.rev16_text||, CODE
	THUMB
	EXPORT |__asm___11_load_Face_c_load_sw____REV16|
#line 129 "E:\\Keil_v5\\ARM\\CMSIS\\Include\\core_cmInstr.h"
|__asm___11_load_Face_c_load_sw____REV16| PROC
#line 130

 rev16 r0, r0
 bx lr
	ENDP
	AREA ||.revsh_text||, CODE
	THUMB
	EXPORT |__asm___11_load_Face_c_load_sw____REVSH|
#line 144
|__asm___11_load_Face_c_load_sw____REVSH| PROC
#line 145

 revsh r0, r0
 bx lr
	ENDP

;*** End   embedded assembler ***
