; generated by Component: ARM Compiler 5.06 update 6 (build 750) Tool: ArmCC [4d3637]
; commandline ArmCC [--list --split_sections --debug -c --asm --interleave -o..\output\menu.o --asm_dir=..\Listing\ --list_dir=..\Listing\ --depend=..\output\menu.d --cpu=Cortex-M4.fp --apcs=interwork -O1 --diag_suppress=9931,870 -I..\APP -I..\drive -I..\Include -I..\Libraries\CMSIS\inc -I..\Libraries\CMSIS\src -I..\Libraries\FWlib\inc -I..\Libraries\FWlib\src -I..\Listing -I..\Output -I..\Project -I..\STemWinLibrary522\Config -I..\STemWinLibrary522\emWinTask -I..\STemWinLibrary522\GUILib -I..\STemWinLibrary522\inc -I..\User -I..\USB\STM32_USB_HOST_Library\Class\HID\inc -I..\USB\STM32_USB_HOST_Library\Class\MSC\src -I..\USB\STM32_USB_HOST_Library\Core\src -I..\USB\USB_APP -I..\USB\STM32_USB_HOST_Library\Class\HID\src -I..\USB\STM32_USB_HOST_Library\Class\MSC\inc -I..\USB\STM32_USB_HOST_Library\Core\inc -I..\USB\STM32_USB_OTG_Driver\inc -I..\FATFS\exfuns -I..\FATFS\src\option -I..\FATFS\src -I..\MALLOC -I..\FATFS -I..\IAP -IE:\Keil_v5\ARM\RV31\INC -IE:\Keil_v5\ARM\CMSIS\Include -IE:\Keil_v5\ARM\INC\ST\STM32F4xx -D__UVISION_VERSION=525 -DUSE_STDPERIPH_DRIVER -DSTM32F40XX -DUSE_USB_OTG_FS -DUSE_EMBEDDED_PHY -DUSE_USB_OTG_HS -DSTM32F40XX --omf_browse=..\output\menu.crf --no_multibyte_chars ..\APP\menu.c]
                          THUMB

                          AREA ||i.CreateWindow||, CODE, READONLY, ALIGN=2

                  CreateWindow PROC
;;;587    
;;;588    WM_HWIN CreateWindow(void) {
000000  b57c              PUSH     {r2-r6,lr}
;;;589      if(page_sw == face_graph || page_sw == face_menu)
000002  4c27              LDR      r4,|L1.160|
000004  7820              LDRB     r0,[r4,#0]  ; page_sw
000006  2800              CMP      r0,#0
000008  d015              BEQ      |L1.54|
00000a  7820              LDRB     r0,[r4,#0]  ; page_sw
00000c  2802              CMP      r0,#2
00000e  d012              BEQ      |L1.54|
;;;590      {      
;;;591      }else{
;;;592    	  GPIO_SetBits(GPIOA,GPIO_Pin_15);//µç×Ó¸ºÔØOFF
000010  f44f4100          MOV      r1,#0x8000
000014  4823              LDR      r0,|L1.164|
000016  f7fffffe          BL       GPIO_SetBits
;;;593    	  GPIO_ResetBits(GPIOC,GPIO_Pin_1);//¹Ø±ÕµçÔ´Êä³ö
00001a  4d23              LDR      r5,|L1.168|
00001c  2102              MOVS     r1,#2
00001e  4628              MOV      r0,r5
000020  f7fffffe          BL       GPIO_ResetBits
;;;594    	  Delay_ms(500);
000024  f44f70fa          MOV      r0,#0x1f4
000028  f7fffffe          BL       Delay_ms
;;;595    	  GPIO_SetBits(GPIOC,GPIO_Pin_13);//¹Ø±ÕµçÔ´Êä³ö¼ÌµçÆ
00002c  f44f5100          MOV      r1,#0x2000
000030  4628              MOV      r0,r5
000032  f7fffffe          BL       GPIO_SetBits
                  |L1.54|
;;;596    //      IO_OFF();
;;;597    	  
;;;598      }
;;;599      page_sw = face_menu;
000036  2002              MOVS     r0,#2
000038  7020              STRB     r0,[r4,#0]
;;;600      track = face_menu;
00003a  491c              LDR      r1,|L1.172|
00003c  7008              STRB     r0,[r1,#0]
;;;601      set_sw = set_10;
00003e  491c              LDR      r1,|L1.176|
000040  2009              MOVS     r0,#9
000042  7008              STRB     r0,[r1,#0]
;;;602    //  SET_Voltage = pow_v-12;
;;;603      SET_Voltage = pow_v;
000044  481b              LDR      r0,|L1.180|
000046  f8d01098          LDR      r1,[r0,#0x98]  ; Run_Control
00004a  6041              STR      r1,[r0,#4]  ; Run_Control
;;;604      SET_Current = pow_c;
00004c  f8d010a0          LDR      r1,[r0,#0xa0]  ; Run_Control
000050  6081              STR      r1,[r0,#8]  ; Run_Control
;;;605      pow_cutoffc = (float)set_pow_cutoffc/1000;
000052  4819              LDR      r0,|L1.184|
000054  eddf0a19          VLDR     s1,|L1.188|
000058  4d19              LDR      r5,|L1.192|
00005a  ed900a05          VLDR     s0,[r0,#0x14]
00005e  eeb80ac0          VCVT.F32.S32 s0,s0
000062  ee801a20          VDIV.F32 s2,s0,s1
000066  ed851a02          VSTR     s2,[r5,#8]
;;;606      pass = 0;
00006a  4816              LDR      r0,|L1.196|
00006c  2400              MOVS     r4,#0
00006e  7004              STRB     r4,[r0,#0]
;;;607      mode_sw = mode_pow;
000070  4915              LDR      r1,|L1.200|
000072  2003              MOVS     r0,#3
000074  7008              STRB     r0,[r1,#0]
;;;608    //  USART_SendData(USART3,1);//连接电源
;;;609      TM1650_SET_LED(0x68,0x70);
000076  2170              MOVS     r1,#0x70
000078  2068              MOVS     r0,#0x68
00007a  f7fffffe          BL       TM1650_SET_LED
;;;610      GPIO_ResetBits(GPIOD,GPIO_Pin_12);//灭灯
00007e  f44f5180          MOV      r1,#0x1000
000082  4812              LDR      r0,|L1.204|
000084  f7fffffe          BL       GPIO_ResetBits
;;;611      hWinWind = GUI_CreateDialogBox(_aDialogCreate1, GUI_COUNTOF(_aDialogCreate1), _cbDialog, WM_HBKWIN, 0, 0);
000088  f7fffffe          BL       WM_GetDesktopWindow
00008c  4603              MOV      r3,r0
00008e  9400              STR      r4,[sp,#0]
000090  4a0f              LDR      r2,|L1.208|
000092  2116              MOVS     r1,#0x16
000094  480f              LDR      r0,|L1.212|
000096  9401              STR      r4,[sp,#4]
000098  f7fffffe          BL       GUI_CreateDialogBox
00009c  6068              STR      r0,[r5,#4]  ; hWinWind
;;;612      return hWinWind;
;;;613    }
00009e  bd7c              POP      {r2-r6,pc}
;;;614    
                          ENDP

                  |L1.160|
                          DCD      page_sw
                  |L1.164|
                          DCD      0x40020000
                  |L1.168|
                          DCD      0x40020800
                  |L1.172|
                          DCD      track
                  |L1.176|
                          DCD      set_sw
                  |L1.180|
                          DCD      Run_Control
                  |L1.184|
                          DCD      InFlashSave
                  |L1.188|
0000bc  447a0000          DCFS     0x447a0000 ; 1000
                  |L1.192|
                          DCD      ||.data||
                  |L1.196|
                          DCD      pass
                  |L1.200|
                          DCD      mode_sw
                  |L1.204|
                          DCD      0x40020c00
                  |L1.208|
                          DCD      _cbDialog
                  |L1.212|
                          DCD      ||.constdata||

                          AREA ||i.DEL_POW||, CODE, READONLY, ALIGN=2

                  DEL_POW PROC
;;;889    }
;;;890    void DEL_POW(void)
000000  e92d41f0          PUSH     {r4-r8,lr}
;;;891    {
;;;892    	switch(set_sw){
000004  4828              LDR      r0,|L2.168|
000006  7800              LDRB     r0,[r0,#0]  ; set_sw
;;;893    		case set_18:
;;;894            {
;;;895    			WM_HWIN hItem;
;;;896    //            WM_InvalidateWindow(hWinWind);
;;;897                hItem = WM_GetDialogItem(hWinWind, ID_TEXT_41);
000008  4a28              LDR      r2,|L2.172|
;;;898    			if(bit > 0)
;;;899    			{
;;;900    				bit --;
;;;901    				set_limit[bit] = '\0';
00000a  4f29              LDR      r7,|L2.176|
00000c  2400              MOVS     r4,#0
00000e  4d29              LDR      r5,|L2.180|
;;;902    			}
;;;903    			if(bit == dot_flag)
000010  4e29              LDR      r6,|L2.184|
000012  2811              CMP      r0,#0x11              ;892
000014  d019              BEQ      |L2.74|
000016  2812              CMP      r0,#0x12              ;892
000018  d02d              BEQ      |L2.118|
00001a  2858              CMP      r0,#0x58              ;892
00001c  d141              BNE      |L2.162|
;;;904    			{
;;;905    				dot_flag = 0;
;;;906    			}
;;;907    			TEXT_SetText(hItem,set_limit);
;;;908    		}break;
;;;909    		case set_19:
;;;910            {
;;;911    			WM_HWIN hItem;
;;;912    //            WM_InvalidateWindow(hWinWind);
;;;913                hItem = WM_GetDialogItem(hWinWind, ID_TEXT_42);
;;;914    			if(bit > 0)
;;;915    			{
;;;916    				bit --;
;;;917    				set_limit[bit] = '\0';
;;;918    			}
;;;919    			if(bit == dot_flag)
;;;920    			{
;;;921    				dot_flag = 0;
;;;922    			}
;;;923    			TEXT_SetText(hItem,set_limit);
;;;924    		}break;
;;;925    		case set_89:
;;;926            {
;;;927                WM_HWIN hItem;
;;;928    //            WM_InvalidateWindow(hWinWind);
;;;929                hItem = WM_GetDialogItem(hWinWind, ID_TEXT_144);
00001e  f640112e          MOV      r1,#0x92e
000022  6850              LDR      r0,[r2,#4]  ; hWinWind
000024  f7fffffe          BL       WM_GetDialogItem
;;;930    			if(bit > 0)
000028  7829              LDRB     r1,[r5,#0]  ; bit
00002a  b121              CBZ      r1,|L2.54|
;;;931    			{
;;;932    				bit --;
00002c  7829              LDRB     r1,[r5,#0]  ; bit
00002e  1e49              SUBS     r1,r1,#1
000030  7029              STRB     r1,[r5,#0]
;;;933    				set_limit[bit] = '\0';
000032  7829              LDRB     r1,[r5,#0]  ; bit
000034  547c              STRB     r4,[r7,r1]
                  |L2.54|
;;;934    			}
;;;935    			if(bit == dot_flag)
000036  7829              LDRB     r1,[r5,#0]  ; bit
000038  7832              LDRB     r2,[r6,#0]  ; dot_flag
00003a  4291              CMP      r1,r2
00003c  d100              BNE      |L2.64|
;;;936    			{
;;;937    				dot_flag = 0;
00003e  7034              STRB     r4,[r6,#0]
                  |L2.64|
;;;938    			}
;;;939    			TEXT_SetText(hItem,set_limit);
000040  e8bd41f0          POP      {r4-r8,lr}
000044  491a              LDR      r1,|L2.176|
000046  f7ffbffe          B.W      TEXT_SetText
                  |L2.74|
00004a  f6400166          MOV      r1,#0x866             ;897
00004e  6850              LDR      r0,[r2,#4]            ;897  ; hWinWind
000050  f7fffffe          BL       WM_GetDialogItem
000054  7829              LDRB     r1,[r5,#0]            ;898  ; bit
000056  b121              CBZ      r1,|L2.98|
000058  7829              LDRB     r1,[r5,#0]            ;900  ; bit
00005a  1e49              SUBS     r1,r1,#1              ;900
00005c  7029              STRB     r1,[r5,#0]            ;900
00005e  7829              LDRB     r1,[r5,#0]            ;901  ; bit
000060  547c              STRB     r4,[r7,r1]            ;901
                  |L2.98|
000062  7829              LDRB     r1,[r5,#0]            ;903  ; bit
000064  7832              LDRB     r2,[r6,#0]            ;903  ; dot_flag
000066  4291              CMP      r1,r2                 ;903
000068  d100              BNE      |L2.108|
00006a  7034              STRB     r4,[r6,#0]            ;905
                  |L2.108|
00006c  e8bd41f0          POP      {r4-r8,lr}            ;907
000070  490f              LDR      r1,|L2.176|
000072  f7ffbffe          B.W      TEXT_SetText
                  |L2.118|
000076  f6400167          MOV      r1,#0x867             ;913
00007a  6850              LDR      r0,[r2,#4]            ;913  ; hWinWind
00007c  f7fffffe          BL       WM_GetDialogItem
000080  7829              LDRB     r1,[r5,#0]            ;914  ; bit
000082  b121              CBZ      r1,|L2.142|
000084  7829              LDRB     r1,[r5,#0]            ;916  ; bit
000086  1e49              SUBS     r1,r1,#1              ;916
000088  7029              STRB     r1,[r5,#0]            ;916
00008a  7829              LDRB     r1,[r5,#0]            ;917  ; bit
00008c  547c              STRB     r4,[r7,r1]            ;917
                  |L2.142|
00008e  7829              LDRB     r1,[r5,#0]            ;919  ; bit
000090  7832              LDRB     r2,[r6,#0]            ;919  ; dot_flag
000092  4291              CMP      r1,r2                 ;919
000094  d100              BNE      |L2.152|
000096  7034              STRB     r4,[r6,#0]            ;921
                  |L2.152|
000098  e8bd41f0          POP      {r4-r8,lr}            ;923
00009c  4904              LDR      r1,|L2.176|
00009e  f7ffbffe          B.W      TEXT_SetText
                  |L2.162|
;;;940    		}break;
;;;941    	}
;;;942    }
0000a2  e8bd81f0          POP      {r4-r8,pc}
;;;943    
                          ENDP

0000a6  0000              DCW      0x0000
                  |L2.168|
                          DCD      set_sw
                  |L2.172|
                          DCD      ||.data||
                  |L2.176|
                          DCD      set_limit
                  |L2.180|
                          DCD      bit
                  |L2.184|
                          DCD      dot_flag

                          AREA ||i.INPUT_POW||, CODE, READONLY, ALIGN=2

                  INPUT_POW PROC
;;;946    void INPUT_POW(char* num);            
;;;947    void INPUT_POW(char* num){ 
000000  e92d47f0          PUSH     {r4-r10,lr}
000004  4681              MOV      r9,r0
;;;948    	u8 i;
;;;949        switch(set_sw){
000006  4854              LDR      r0,|L3.344|
000008  7800              LDRB     r0,[r0,#0]  ; set_sw
;;;950    		case set_18:
;;;951            {
;;;952                WM_HWIN hItem;
;;;953    //            WM_InvalidateWindow(hWinWind);
;;;954                hItem = WM_GetDialogItem(hWinWind, ID_TEXT_41);
00000a  4a54              LDR      r2,|L3.348|
;;;955    			if(bit < 6)
;;;956    			{
;;;957    				strcat(set_limit,num);
;;;958    				if(dot_flag != 0 && strcmp(num,".") == 0)
00000c  f8df8150          LDR      r8,|L3.352|
000010  4f54              LDR      r7,|L3.356|
000012  2400              MOVS     r4,#0                 ;955
000014  4d54              LDR      r5,|L3.360|
000016  2811              CMP      r0,#0x11              ;949
000018  d01e              BEQ      |L3.88|
00001a  2812              CMP      r0,#0x12              ;949
00001c  d04d              BEQ      |L3.186|
00001e  2858              CMP      r0,#0x58              ;949
000020  d16f              BNE      |L3.258|
;;;959    				{
;;;960    					
;;;961    				}else{			
;;;962    					
;;;963    					if(dot_flag == 0 && strcmp(num,".") == 0)
;;;964    					{
;;;965    						dot_flag = bit;
;;;966    					}
;;;967    					bit ++;
;;;968    				}
;;;969    			}else{
;;;970    				bit = 0;
;;;971    				for(i=0;i<6;i++)
;;;972    				{
;;;973    					set_limit[i] = '\0';
;;;974    				}
;;;975    			}
;;;976    			
;;;977    			TEXT_SetText(hItem,set_limit);
;;;978    //            switch(bit){
;;;979    //                case 1:
;;;980    //                {
;;;981    //					for(i=0;i<6;i++)
;;;982    //					{
;;;983    //						set_limit[i] = '\0';
;;;984    //					}
;;;985    //                    pow_v = atoi(num) * 100;
;;;986    //                    strcat(set_limit,num);            
;;;987    //                    TEXT_SetText(hItem,set_limit);
;;;988    //                    bit = 2;
;;;989    //                    break;
;;;990    //                }
;;;991    //                case 2:
;;;992    //                {
;;;993    //                    strcat(set_limit,num);
;;;994    //					if(set_limit[bit-1] == 0x62){
;;;995    //						set_limit[bit-1] = '\0';
;;;996    //						set_limit[bit-2] = '\0';
;;;997    //						bit -= 1;
;;;998    //						pow_v = pow_v - atoi(num) * 100;
;;;999    //						TEXT_SetText(hItem,set_limit);
;;;1000   //						break;
;;;1001   //					}
;;;1002   //                    if(set_limit[1] == 0x2e)//判断输入是否为小数点
;;;1003   //                    {
;;;1004   //                        dot_flag = 1;
;;;1005   //                    }else{
;;;1006   //                        pow_v = pow_v * 10 + atoi(num) * 100;
;;;1007   //                    }           
;;;1008   //                    TEXT_SetText(hItem,set_limit);
;;;1009   //                    bit = 3;
;;;1010   //                    break;
;;;1011   //                }
;;;1012   //                case 3:
;;;1013   //                {
;;;1014   //                    strcat(set_limit,num);
;;;1015   //					if(set_limit[bit-1] == 0x62){
;;;1016   //						set_limit[bit-1] = '\0';
;;;1017   //						set_limit[bit-2] = '\0';
;;;1018   //						bit -= 1;
;;;1019   //						TEXT_SetText(hItem,set_limit);
;;;1020   //						break;
;;;1021   //					}
;;;1022   //                    if(dot_flag == 0)
;;;1023   //                    {
;;;1024   //                        if(set_limit[2] == 0x2e)//判断输入是否为小数点
;;;1025   //                        {                            
;;;1026   //                            dot_flag = 2;
;;;1027   //                        }else{
;;;1028   //                            pow_v = /*3000*/ 6200;
;;;1029   //                        }
;;;1030   //                    }else{
;;;1031   //						pow_v = pow_v + atoi(num) * 10;
;;;1032   //                    }
;;;1033   //                    TEXT_SetText(hItem,set_limit);                  
;;;1034   //                    bit = 4;
;;;1035   //                    break;
;;;1036   //                }
;;;1037   //                case 4:
;;;1038   //                {
;;;1039   //                    strcat(set_limit,num);
;;;1040   //					if(set_limit[bit-1] == 0x62){
;;;1041   //						set_limit[bit-1] = '\0';
;;;1042   //						set_limit[bit-2] = '\0';
;;;1043   //						bit -= 1;
;;;1044   //						TEXT_SetText(hItem,set_limit);
;;;1045   //						pow_v = pow_v - atoi(num) * 10;
;;;1046   //						break;
;;;1047   //					}
;;;1048   //                    if(dot_flag == 0)
;;;1049   //                    {
;;;1050   //                        pow_v = /*3000*/ 6200;
;;;1051   //                    }else if(dot_flag == 2){
;;;1052   //                        pow_v = pow_v + atoi(num) * 10;
;;;1053   //                    }else{
;;;1054   //                        pow_v = pow_v + atoi(num);
;;;1055   //                    }
;;;1056   //                    TEXT_SetText(hItem,set_limit);                   
;;;1057   //                    bit = 5;
;;;1058   //                    break;
;;;1059   //                }
;;;1060   //                case 5:
;;;1061   //                {
;;;1062   //                    strcat(set_limit,num);
;;;1063   //					if(set_limit[bit-1] == 0x62){
;;;1064   //						set_limit[bit-1] = '\0';
;;;1065   //						set_limit[bit-2] = '\0';
;;;1066   //						bit -= 1;
;;;1067   //						TEXT_SetText(hItem,set_limit);
;;;1068   //						break;
;;;1069   //					}
;;;1070   //                    if(dot_flag == 0)
;;;1071   //                    {
;;;1072   //                        pow_v = /*3000*/ 6200;
;;;1073   //                    }else if(dot_flag == 1){
;;;1074   //                        pow_v = pow_v;
;;;1075   //                    }else{
;;;1076   //                        pow_v = pow_v + atoi(num);
;;;1077   //                    }
;;;1078   //                    TEXT_SetText(hItem,set_limit);                   
;;;1079   //                    bit = 0;
;;;1080   //                    break;
;;;1081   //                }
;;;1082   //            }
;;;1083               break;
;;;1084           }
;;;1085           case set_19:
;;;1086           {
;;;1087               WM_HWIN hItem;
;;;1088   //            WM_InvalidateWindow(hWinWind);
;;;1089               hItem = WM_GetDialogItem(hWinWind, ID_TEXT_42);
;;;1090   			if(bit < 6)
;;;1091   			{
;;;1092   				strcat(set_limit,num);
;;;1093   				if(dot_flag != 0 && strcmp(num,".") == 0)
;;;1094   				{
;;;1095   					
;;;1096   				}else{			
;;;1097   					
;;;1098   					if(dot_flag == 0 && strcmp(num,".") == 0)
;;;1099   					{
;;;1100   						dot_flag = bit;
;;;1101   					}
;;;1102   					bit ++;
;;;1103   				}
;;;1104   			}else{
;;;1105   				bit = 0;
;;;1106   				for(i=0;i<6;i++)
;;;1107   				{
;;;1108   					set_limit[i] = '\0';
;;;1109   				}
;;;1110   			}
;;;1111   			TEXT_SetText(hItem,set_limit);
;;;1112   //            switch(bit){
;;;1113   //                case 1:
;;;1114   //                {
;;;1115   //					for(i=0;i<6;i++)
;;;1116   //					{
;;;1117   //						set_limit[i] = '\0';
;;;1118   //					}
;;;1119   //                    pow_c = atoi(num) * 1000;
;;;1120   //                    strcat(set_limit,num);            
;;;1121   //                    TEXT_SetText(hItem,set_limit);
;;;1122   //                    bit = 2;
;;;1123   //                    break;
;;;1124   //                }
;;;1125   //                case 2:
;;;1126   //                {
;;;1127   //                    strcat(set_limit,num);            
;;;1128   //                    TEXT_SetText(hItem,set_limit);
;;;1129   //                    if(set_limit[1] == 0x2e)//判断输入是否为小数点
;;;1130   //                    {
;;;1131   //                        dot_flag = 1;
;;;1132   //                    }else{
;;;1133   //                        pow_c = pow_c * 10 + atoi(num) * 1000;
;;;1134   //                    }
;;;1135   //                    bit = 3;
;;;1136   //                    break;
;;;1137   //                }
;;;1138   //                case 3:
;;;1139   //                {
;;;1140   //                    strcat(set_limit,num);
;;;1141   //                    TEXT_SetText(hItem,set_limit);
;;;1142   //                    if(dot_flag == 0)
;;;1143   //                    {
;;;1144   //                        if(set_limit[2] == 0x2e)//判断输入是否为小数点
;;;1145   //                        {                            
;;;1146   //                            dot_flag = 2;
;;;1147   //                        }else{
;;;1148   //                            pow_c = 5000;
;;;1149   //                        }
;;;1150   //                    }else{
;;;1151   //                        pow_c = pow_c + atoi(num) * 100;
;;;1152   //                    }
;;;1153   //                                       
;;;1154   //                    bit = 4;
;;;1155   //                    break;
;;;1156   //                }
;;;1157   //                case 4:
;;;1158   //                {
;;;1159   //                    strcat(set_limit,num);
;;;1160   //                    TEXT_SetText(hItem,set_limit);
;;;1161   //                    if(dot_flag == 0)
;;;1162   //                    {
;;;1163   //                        pow_c = 5000;
;;;1164   //                    }else if(dot_flag == 2){
;;;1165   //                        pow_c = pow_c + atoi(num) * 100;
;;;1166   //                    }else{
;;;1167   //                        pow_c = pow_c + atoi(num) * 10;
;;;1168   //                    }
;;;1169   //                                       
;;;1170   //                    bit = 5;
;;;1171   //                    break;
;;;1172   //                }
;;;1173   //                case 5:
;;;1174   //                {
;;;1175   //                    strcat(set_limit,num);
;;;1176   //                    TEXT_SetText(hItem,set_limit);
;;;1177   //                    if(dot_flag == 0)
;;;1178   //                    {
;;;1179   //                        pow_c = 5000;
;;;1180   //                    }else if(dot_flag == 1){
;;;1181   //                        pow_c = pow_c + atoi(num);
;;;1182   //                    }else{
;;;1183   //                        pow_c = pow_c + atoi(num) * 10;
;;;1184   //                    }
;;;1185   //                                       
;;;1186   //                    bit = 6;
;;;1187   //                    break;
;;;1188   //                }
;;;1189   //                case 6:
;;;1190   //                {
;;;1191   //                    strcat(set_limit,num);
;;;1192   //                    TEXT_SetText(hItem,set_limit);
;;;1193   //                    if(dot_flag == 0)
;;;1194   //                    {
;;;1195   //                        pow_c = 0;
;;;1196   //                    }else if(dot_flag == 2){
;;;1197   //                        pow_c = pow_c + atoi(num);
;;;1198   //                    }                 
;;;1199   //                    bit = 0;
;;;1200   //                    break;
;;;1201   //                }
;;;1202   //            }
;;;1203           }
;;;1204           break;
;;;1205   		case set_89:
;;;1206           {
;;;1207               WM_HWIN hItem;
;;;1208   //            WM_InvalidateWindow(hWinWind);
;;;1209               hItem = WM_GetDialogItem(hWinWind, ID_TEXT_144);
000022  f640112e          MOV      r1,#0x92e
000026  6850              LDR      r0,[r2,#4]  ; hWinWind
000028  f7fffffe          BL       WM_GetDialogItem
00002c  4606              MOV      r6,r0
;;;1210   			if(bit < 7)
00002e  7838              LDRB     r0,[r7,#0]  ; bit
000030  2807              CMP      r0,#7
000032  d267              BCS      |L3.260|
;;;1211   			{
;;;1212   				strcat(set_limit,num);
000034  4649              MOV      r1,r9
000036  4628              MOV      r0,r5
000038  f7fffffe          BL       strcat
;;;1213   				if(dot_flag != 0 && strcmp(num,".") == 0)
00003c  f8980000          LDRB     r0,[r8,#0]  ; dot_flag
000040  b128              CBZ      r0,|L3.78|
000042  a14a              ADR      r1,|L3.364|
000044  4648              MOV      r0,r9
000046  f7fffffe          BL       strcmp
00004a  2800              CMP      r0,#0
00004c  d07b              BEQ      |L3.326|
                  |L3.78|
;;;1214   				{
;;;1215   					
;;;1216   				}else{			
;;;1217   					
;;;1218   					if(dot_flag == 0 && strcmp(num,".") == 0)
00004e  f8980000          LDRB     r0,[r8,#0]  ; dot_flag
000052  2800              CMP      r0,#0
000054  d064              BEQ      |L3.288|
000056  e06b              B        |L3.304|
                  |L3.88|
000058  f6400166          MOV      r1,#0x866             ;954
00005c  6850              LDR      r0,[r2,#4]            ;954  ; hWinWind
00005e  f7fffffe          BL       WM_GetDialogItem
000062  4606              MOV      r6,r0                 ;954
000064  7838              LDRB     r0,[r7,#0]            ;955  ; bit
000066  2806              CMP      r0,#6                 ;955
000068  d21a              BCS      |L3.160|
00006a  4649              MOV      r1,r9                 ;957
00006c  483e              LDR      r0,|L3.360|
00006e  f7fffffe          BL       strcat
000072  f8980000          LDRB     r0,[r8,#0]            ;958  ; dot_flag
000076  b120              CBZ      r0,|L3.130|
000078  a13c              ADR      r1,|L3.364|
00007a  4648              MOV      r0,r9                 ;958
00007c  f7fffffe          BL       strcmp
000080  b1a8              CBZ      r0,|L3.174|
                  |L3.130|
000082  f8980000          LDRB     r0,[r8,#0]            ;963  ; dot_flag
000086  b938              CBNZ     r0,|L3.152|
000088  a138              ADR      r1,|L3.364|
00008a  4648              MOV      r0,r9                 ;963
00008c  f7fffffe          BL       strcmp
000090  b910              CBNZ     r0,|L3.152|
000092  7838              LDRB     r0,[r7,#0]            ;965  ; bit
000094  f8880000          STRB     r0,[r8,#0]            ;965
                  |L3.152|
000098  7838              LDRB     r0,[r7,#0]            ;967  ; bit
00009a  1c40              ADDS     r0,r0,#1              ;967
00009c  7038              STRB     r0,[r7,#0]            ;967
00009e  e006              B        |L3.174|
                  |L3.160|
0000a0  703c              STRB     r4,[r7,#0]            ;970
0000a2  2000              MOVS     r0,#0                 ;971
                  |L3.164|
0000a4  542c              STRB     r4,[r5,r0]            ;973
0000a6  1c40              ADDS     r0,r0,#1              ;971
0000a8  b2c0              UXTB     r0,r0                 ;971
0000aa  2806              CMP      r0,#6                 ;971
0000ac  d3fa              BCC      |L3.164|
                  |L3.174|
0000ae  4630              MOV      r0,r6                 ;977
0000b0  e8bd47f0          POP      {r4-r10,lr}           ;977
0000b4  492c              LDR      r1,|L3.360|
0000b6  f7ffbffe          B.W      TEXT_SetText
                  |L3.186|
0000ba  f6400167          MOV      r1,#0x867             ;1089
0000be  6850              LDR      r0,[r2,#4]            ;1089  ; hWinWind
0000c0  f7fffffe          BL       WM_GetDialogItem
0000c4  4606              MOV      r6,r0                 ;1089
0000c6  7838              LDRB     r0,[r7,#0]            ;1090  ; bit
0000c8  2806              CMP      r0,#6                 ;1090
0000ca  d21c              BCS      |L3.262|
0000cc  4649              MOV      r1,r9                 ;1092
0000ce  4826              LDR      r0,|L3.360|
0000d0  f7fffffe          BL       strcat
0000d4  f8980000          LDRB     r0,[r8,#0]            ;1093  ; dot_flag
0000d8  b120              CBZ      r0,|L3.228|
0000da  a124              ADR      r1,|L3.364|
0000dc  4648              MOV      r0,r9                 ;1093
0000de  f7fffffe          BL       strcmp
0000e2  b1b8              CBZ      r0,|L3.276|
                  |L3.228|
0000e4  f8980000          LDRB     r0,[r8,#0]            ;1098  ; dot_flag
0000e8  b938              CBNZ     r0,|L3.250|
0000ea  a120              ADR      r1,|L3.364|
0000ec  4648              MOV      r0,r9                 ;1098
0000ee  f7fffffe          BL       strcmp
0000f2  b910              CBNZ     r0,|L3.250|
0000f4  7838              LDRB     r0,[r7,#0]            ;1100  ; bit
0000f6  f8880000          STRB     r0,[r8,#0]            ;1100
                  |L3.250|
0000fa  7838              LDRB     r0,[r7,#0]            ;1102  ; bit
0000fc  1c40              ADDS     r0,r0,#1              ;1102
0000fe  7038              STRB     r0,[r7,#0]            ;1102
000100  e008              B        |L3.276|
                  |L3.258|
000102  e026              B        |L3.338|
                  |L3.260|
000104  e018              B        |L3.312|
                  |L3.262|
000106  703c              STRB     r4,[r7,#0]            ;1105
000108  2000              MOVS     r0,#0                 ;1106
                  |L3.266|
00010a  542c              STRB     r4,[r5,r0]            ;1108
00010c  1c40              ADDS     r0,r0,#1              ;1106
00010e  b2c0              UXTB     r0,r0                 ;1106
000110  2806              CMP      r0,#6                 ;1106
000112  d3fa              BCC      |L3.266|
                  |L3.276|
000114  4630              MOV      r0,r6                 ;1111
000116  e8bd47f0          POP      {r4-r10,lr}           ;1111
00011a  4913              LDR      r1,|L3.360|
00011c  f7ffbffe          B.W      TEXT_SetText
                  |L3.288|
000120  a112              ADR      r1,|L3.364|
000122  4648              MOV      r0,r9
000124  f7fffffe          BL       strcmp
000128  b910              CBNZ     r0,|L3.304|
;;;1219   					{
;;;1220   						dot_flag = bit;
00012a  7838              LDRB     r0,[r7,#0]  ; bit
00012c  f8880000          STRB     r0,[r8,#0]
                  |L3.304|
;;;1221   					}
;;;1222   					bit ++;
000130  7838              LDRB     r0,[r7,#0]  ; bit
000132  1c40              ADDS     r0,r0,#1
000134  7038              STRB     r0,[r7,#0]
000136  e006              B        |L3.326|
                  |L3.312|
;;;1223   				}
;;;1224   			}else{
;;;1225   				bit = 0;
000138  703c              STRB     r4,[r7,#0]
;;;1226   				for(i=0;i<6;i++)
00013a  2000              MOVS     r0,#0
                  |L3.316|
;;;1227   				{
;;;1228   					set_limit[i] = '\0';
00013c  542c              STRB     r4,[r5,r0]
00013e  1c40              ADDS     r0,r0,#1              ;1226
000140  b2c0              UXTB     r0,r0                 ;1226
000142  2806              CMP      r0,#6                 ;1226
000144  d3fa              BCC      |L3.316|
                  |L3.326|
;;;1229   				}
;;;1230   			}
;;;1231   			TEXT_SetText(hItem,set_limit);
000146  4630              MOV      r0,r6
000148  e8bd47f0          POP      {r4-r10,lr}
00014c  4906              LDR      r1,|L3.360|
00014e  f7ffbffe          B.W      TEXT_SetText
                  |L3.338|
;;;1232   //            switch(bit){
;;;1233   //                case 1:
;;;1234   //                {
;;;1235   //					for(i=0;i<6;i++)
;;;1236   //					{
;;;1237   //						set_limit[i] = '\0';
;;;1238   //					}
;;;1239   //                    set_pow_cutoffc = atoi(num) * 1000;
;;;1240   //                    strcat(set_limit,num);            
;;;1241   //                    TEXT_SetText(hItem,set_limit);
;;;1242   //                    bit = 2;
;;;1243   //                    break;
;;;1244   //                }
;;;1245   //                case 2:
;;;1246   //                {
;;;1247   //                    strcat(set_limit,num);            
;;;1248   //                    TEXT_SetText(hItem,set_limit);
;;;1249   //                    if(set_limit[1] == 0x2e)//判断输入是否为小数点
;;;1250   //                    {
;;;1251   //                        dot_flag = 1;
;;;1252   //                    }else{
;;;1253   //                        set_pow_cutoffc = set_pow_cutoffc * 10 + atoi(num) * 1000;
;;;1254   //                    }
;;;1255   //                    bit = 3;
;;;1256   //                    break;
;;;1257   //                }
;;;1258   //                case 3:
;;;1259   //                {
;;;1260   //                    strcat(set_limit,num);
;;;1261   //                    TEXT_SetText(hItem,set_limit);
;;;1262   //                    if(dot_flag == 0)
;;;1263   //                    {
;;;1264   //                        if(set_limit[2] == 0x2e)//判断输入是否为小数点
;;;1265   //                        {                            
;;;1266   //                            dot_flag = 2;
;;;1267   //                        }else{
;;;1268   //                            set_pow_cutoffc = 5000;
;;;1269   //                        }
;;;1270   //                    }else{
;;;1271   //                        set_pow_cutoffc = set_pow_cutoffc + atoi(num) * 100;
;;;1272   //                    }
;;;1273   //                                       
;;;1274   //                    bit = 4;
;;;1275   //                    break;
;;;1276   //                }
;;;1277   //                case 4:
;;;1278   //                {
;;;1279   //                    strcat(set_limit,num);
;;;1280   //                    TEXT_SetText(hItem,set_limit);
;;;1281   //                    if(dot_flag == 0)
;;;1282   //                    {
;;;1283   //                        set_pow_cutoffc = 5000;
;;;1284   //                    }else if(dot_flag == 2){
;;;1285   //                        set_pow_cutoffc = set_pow_cutoffc + atoi(num) * 100;
;;;1286   //                    }else{
;;;1287   //                        set_pow_cutoffc = set_pow_cutoffc + atoi(num) * 10;
;;;1288   //                    }
;;;1289   //                                       
;;;1290   //                    bit = 5;
;;;1291   //                    break;
;;;1292   //                }
;;;1293   //                case 5:
;;;1294   //                {
;;;1295   //                    strcat(set_limit,num);
;;;1296   //                    TEXT_SetText(hItem,set_limit);
;;;1297   //                    if(dot_flag == 0)
;;;1298   //                    {
;;;1299   //                        set_pow_cutoffc = 5000;
;;;1300   //                    }else if(dot_flag == 1){
;;;1301   //                        set_pow_cutoffc = set_pow_cutoffc + atoi(num);
;;;1302   //                    }else{
;;;1303   //                        set_pow_cutoffc = set_pow_cutoffc + atoi(num) * 10;
;;;1304   //                    }
;;;1305   //                                       
;;;1306   //                    bit = 6;
;;;1307   //                    break;
;;;1308   //                }
;;;1309   //                case 6:
;;;1310   //                {
;;;1311   //                    strcat(set_limit,num);
;;;1312   //                    TEXT_SetText(hItem,set_limit);
;;;1313   //                    if(dot_flag == 0)
;;;1314   //                    {
;;;1315   //                        set_pow_cutoffc = 0;
;;;1316   //                    }else if(dot_flag == 2){
;;;1317   //                        set_pow_cutoffc = set_pow_cutoffc + atoi(num);
;;;1318   //                    }                 
;;;1319   //                    bit = 0;
;;;1320   //                    break;
;;;1321   //                }
;;;1322   //            }
;;;1323           }
;;;1324           break;
;;;1325       }    
;;;1326   }
000152  e8bd87f0          POP      {r4-r10,pc}
;;;1327   
                          ENDP

000156  0000              DCW      0x0000
                  |L3.344|
                          DCD      set_sw
                  |L3.348|
                          DCD      ||.data||
                  |L3.352|
                          DCD      dot_flag
                  |L3.356|
                          DCD      bit
                  |L3.360|
                          DCD      set_limit
                  |L3.364|
00016c  2e00              DCB      ".",0
00016e  00                DCB      0
00016f  00                DCB      0

                          AREA ||i.MENU_OP_DOWN||, CODE, READONLY, ALIGN=2

                  MENU_OP_DOWN PROC
;;;622    void MENU_OP_DOWN(void);
;;;623    void MENU_OP_DOWN(void)
000000  e92d47f0          PUSH     {r4-r10,lr}
;;;624    {
;;;625        switch(set_sw)
000004  4c25              LDR      r4,|L4.156|
000006  7820              LDRB     r0,[r4,#0]  ; set_sw
;;;626        {
;;;627            case set_10:
;;;628            {
;;;629                WM_HWIN hItem;
;;;630                hItem = WM_GetDialogItem(hWinWind, ID_TEXT_33);
000008  4d25              LDR      r5,|L4.160|
;;;631                TEXT_SetBkColor(hItem,GUI_INVALID_COLOR);//选项背景色设为透明
;;;632                TEXT_SetTextColor(hItem, GUI_WHITE);
;;;633                
;;;634                hItem = WM_GetDialogItem(hWinWind, ID_TEXT_34);
;;;635                TEXT_SetBkColor(hItem,0x00BFFFFF);//选项背景色设为米色
00000a  4e26              LDR      r6,|L4.164|
00000c  f06f4770          MVN      r7,#0xf0000000        ;631
000010  f06f487f          MVN      r8,#0xff000000        ;632
000014  f640093e          MOV      r9,#0x83e             ;634
000018  2809              CMP      r0,#9                 ;625
00001a  d020              BEQ      |L4.94|
00001c  280a              CMP      r0,#0xa               ;625
00001e  d11c              BNE      |L4.90|
;;;636                TEXT_SetTextColor(hItem, GUI_BLACK);
;;;637    
;;;638                set_sw = set_11;
;;;639                break;
;;;640            }
;;;641            case set_11:
;;;642            {
;;;643                WM_HWIN hItem;
;;;644    //            WM_InvalidateWindow(hWinWind);
;;;645                hItem = WM_GetDialogItem(hWinWind, ID_TEXT_34);
000020  4649              MOV      r1,r9
000022  6868              LDR      r0,[r5,#4]  ; hWinWind
000024  f7fffffe          BL       WM_GetDialogItem
000028  4681              MOV      r9,r0
;;;646                TEXT_SetBkColor(hItem,GUI_INVALID_COLOR);//选项背景色设为透明
00002a  4639              MOV      r1,r7
00002c  4648              MOV      r0,r9
00002e  f7fffffe          BL       TEXT_SetBkColor
;;;647                TEXT_SetTextColor(hItem, GUI_WHITE);
000032  4641              MOV      r1,r8
000034  4648              MOV      r0,r9
000036  f7fffffe          BL       TEXT_SetTextColor
;;;648                
;;;649                hItem = WM_GetDialogItem(hWinWind, ID_TEXT_159);
00003a  f640113a          MOV      r1,#0x93a
00003e  6868              LDR      r0,[r5,#4]  ; hWinWind
000040  f7fffffe          BL       WM_GetDialogItem
000044  4605              MOV      r5,r0
;;;650                TEXT_SetBkColor(hItem,0x00BFFFFF);//选项背景色设为米色
000046  4631              MOV      r1,r6
000048  4628              MOV      r0,r5
00004a  f7fffffe          BL       TEXT_SetBkColor
;;;651                TEXT_SetTextColor(hItem, GUI_BLACK);
00004e  2100              MOVS     r1,#0
000050  4628              MOV      r0,r5
000052  f7fffffe          BL       TEXT_SetTextColor
;;;652    
;;;653                set_sw = set_88;
000056  2057              MOVS     r0,#0x57
000058  7020              STRB     r0,[r4,#0]
                  |L4.90|
;;;654                break;
;;;655            }                     
;;;656            default: break;
;;;657        }
;;;658    }
00005a  e8bd87f0          POP      {r4-r10,pc}
                  |L4.94|
00005e  f640013d          MOV      r1,#0x83d             ;630
000062  6868              LDR      r0,[r5,#4]            ;630  ; hWinWind
000064  f7fffffe          BL       WM_GetDialogItem
000068  4682              MOV      r10,r0                ;630
00006a  4639              MOV      r1,r7                 ;631
00006c  4650              MOV      r0,r10                ;631
00006e  f7fffffe          BL       TEXT_SetBkColor
000072  4641              MOV      r1,r8                 ;632
000074  4650              MOV      r0,r10                ;632
000076  f7fffffe          BL       TEXT_SetTextColor
00007a  4649              MOV      r1,r9                 ;634
00007c  6868              LDR      r0,[r5,#4]            ;634  ; hWinWind
00007e  f7fffffe          BL       WM_GetDialogItem
000082  4605              MOV      r5,r0                 ;634
000084  4631              MOV      r1,r6                 ;635
000086  4628              MOV      r0,r5                 ;635
000088  f7fffffe          BL       TEXT_SetBkColor
00008c  2100              MOVS     r1,#0                 ;636
00008e  4628              MOV      r0,r5                 ;636
000090  f7fffffe          BL       TEXT_SetTextColor
000094  200a              MOVS     r0,#0xa               ;638
000096  7020              STRB     r0,[r4,#0]            ;638
000098  e7df              B        |L4.90|
;;;659    
                          ENDP

00009a  0000              DCW      0x0000
                  |L4.156|
                          DCD      set_sw
                  |L4.160|
                          DCD      ||.data||
                  |L4.164|
                          DCD      0x00bfffff

                          AREA ||i.MENU_OP_UP||, CODE, READONLY, ALIGN=2

                  MENU_OP_UP PROC
;;;660    void MENU_OP_UP(void);
;;;661    void MENU_OP_UP(void)
000000  e92d47f0          PUSH     {r4-r10,lr}
;;;662    {
;;;663        switch(set_sw)
000004  4c25              LDR      r4,|L5.156|
000006  7820              LDRB     r0,[r4,#0]  ; set_sw
;;;664        {
;;;665            case set_11:
;;;666    		{
;;;667    			 WM_HWIN hItem;
;;;668    //                 WM_InvalidateWindow(hWinWind);
;;;669    			 hItem = WM_GetDialogItem(hWinWind, ID_TEXT_34);
000008  4d25              LDR      r5,|L5.160|
;;;670    			 TEXT_SetBkColor(hItem,GUI_INVALID_COLOR);//选项背景色设为透明
;;;671    			 TEXT_SetTextColor(hItem, GUI_WHITE);
;;;672    		   
;;;673    			 hItem = WM_GetDialogItem(hWinWind, ID_TEXT_33);
;;;674    			 TEXT_SetBkColor(hItem,0x00BFFFFF);//选项背景色设为米色
00000a  4e26              LDR      r6,|L5.164|
00000c  f640093e          MOV      r9,#0x83e             ;669
000010  f06f4770          MVN      r7,#0xf0000000        ;670
000014  f06f487f          MVN      r8,#0xff000000        ;671
000018  280a              CMP      r0,#0xa               ;663
00001a  d020              BEQ      |L5.94|
00001c  2857              CMP      r0,#0x57              ;663
00001e  d11c              BNE      |L5.90|
;;;675    			 TEXT_SetTextColor(hItem, GUI_BLACK);
;;;676    
;;;677    			 set_sw = set_10;
;;;678    			 break;
;;;679    		 } 
;;;680    		case set_88:
;;;681    		{
;;;682    			 WM_HWIN hItem;
;;;683    //                 WM_InvalidateWindow(hWinWind);
;;;684    			 hItem = WM_GetDialogItem(hWinWind, ID_TEXT_159);
000020  f640113a          MOV      r1,#0x93a
000024  6868              LDR      r0,[r5,#4]  ; hWinWind
000026  f7fffffe          BL       WM_GetDialogItem
00002a  4682              MOV      r10,r0
;;;685    			 TEXT_SetBkColor(hItem,GUI_INVALID_COLOR);//选项背景色设为透明
00002c  4639              MOV      r1,r7
00002e  4650              MOV      r0,r10
000030  f7fffffe          BL       TEXT_SetBkColor
;;;686    			 TEXT_SetTextColor(hItem, GUI_WHITE);
000034  4641              MOV      r1,r8
000036  4650              MOV      r0,r10
000038  f7fffffe          BL       TEXT_SetTextColor
;;;687    		   
;;;688    			 hItem = WM_GetDialogItem(hWinWind, ID_TEXT_34);
00003c  4649              MOV      r1,r9
00003e  6868              LDR      r0,[r5,#4]  ; hWinWind
000040  f7fffffe          BL       WM_GetDialogItem
000044  4605              MOV      r5,r0
;;;689    			 TEXT_SetBkColor(hItem,0x00BFFFFF);//选项背景色设为米色
000046  4631              MOV      r1,r6
000048  4628              MOV      r0,r5
00004a  f7fffffe          BL       TEXT_SetBkColor
;;;690    			 TEXT_SetTextColor(hItem, GUI_BLACK);
00004e  2100              MOVS     r1,#0
000050  4628              MOV      r0,r5
000052  f7fffffe          BL       TEXT_SetTextColor
;;;691    
;;;692    			 set_sw = set_11;
000056  200a              MOVS     r0,#0xa
000058  7020              STRB     r0,[r4,#0]
                  |L5.90|
;;;693    			 break;
;;;694    		 }                     
;;;695    		 default: break;
;;;696        }
;;;697    }
00005a  e8bd87f0          POP      {r4-r10,pc}
                  |L5.94|
00005e  4649              MOV      r1,r9                 ;669
000060  6868              LDR      r0,[r5,#4]            ;669  ; hWinWind
000062  f7fffffe          BL       WM_GetDialogItem
000066  4681              MOV      r9,r0                 ;669
000068  4639              MOV      r1,r7                 ;670
00006a  4648              MOV      r0,r9                 ;670
00006c  f7fffffe          BL       TEXT_SetBkColor
000070  4641              MOV      r1,r8                 ;671
000072  4648              MOV      r0,r9                 ;671
000074  f7fffffe          BL       TEXT_SetTextColor
000078  f640013d          MOV      r1,#0x83d             ;673
00007c  6868              LDR      r0,[r5,#4]            ;673  ; hWinWind
00007e  f7fffffe          BL       WM_GetDialogItem
000082  4605              MOV      r5,r0                 ;673
000084  4631              MOV      r1,r6                 ;674
000086  4628              MOV      r0,r5                 ;674
000088  f7fffffe          BL       TEXT_SetBkColor
00008c  2100              MOVS     r1,#0                 ;675
00008e  4628              MOV      r0,r5                 ;675
000090  f7fffffe          BL       TEXT_SetTextColor
000094  2009              MOVS     r0,#9                 ;677
000096  7020              STRB     r0,[r4,#0]            ;677
000098  e7df              B        |L5.90|
;;;698    
                          ENDP

00009a  0000              DCW      0x0000
                  |L5.156|
                          DCD      set_sw
                  |L5.160|
                          DCD      ||.data||
                  |L5.164|
                          DCD      0x00bfffff

                          AREA ||i.MENU_SET||, CODE, READONLY, ALIGN=2

                          REQUIRE _printf_percent
                          REQUIRE _printf_widthprec
                          REQUIRE _printf_f
                          REQUIRE _printf_fp_dec
                  MENU_SET PROC
;;;700    void MENU_SET(void);
;;;701    void MENU_SET(void)
000000  e92d4ff0          PUSH     {r4-r11,lr}
;;;702    {
000004  ed2d8b04          VPUSH    {d8-d9}
000008  b085              SUB      sp,sp,#0x14
;;;703        vu8 i;
;;;704        char buf[6];    
;;;705    
;;;706        float dis_output_v;
;;;707        float dis_output_c; 
;;;708        
;;;709        if(SET_Voltage > /*3000*/ 6200)
00000a  f8df8414          LDR      r8,|L6.1056|
00000e  f8d80004          LDR      r0,[r8,#4]  ; Run_Control
000012  f6410b38          MOV      r11,#0x1838
000016  4558              CMP      r0,r11
000018  d901              BLS      |L6.30|
;;;710        {
;;;711          SET_Voltage = /*3000*/ 6200;
00001a  f8c8b004          STR      r11,[r8,#4]  ; Run_Control
                  |L6.30|
;;;712        }
;;;713        if(SET_Current > 10000)
00001e  f8d80008          LDR      r0,[r8,#8]  ; Run_Control
000022  f2427610          MOV      r6,#0x2710
000026  42b0              CMP      r0,r6
000028  d901              BLS      |L6.46|
;;;714        {
;;;715          SET_Current = 10000;
00002a  f8c86008          STR      r6,[r8,#8]  ; Run_Control
                  |L6.46|
;;;716        }
;;;717        switch(set_sw){
00002e  4dfd              LDR      r5,|L6.1060|
000030  7829              LDRB     r1,[r5,#0]  ; set_sw
;;;718            case set_10:
;;;719            {
;;;720                WM_HWIN hItem;
;;;721    //            WM_InvalidateWindow(hWinWind);
;;;722                hItem = WM_GetDialogItem(hWinWind, ID_TEXT_33);
;;;723                TEXT_SetBkColor(hItem,GUI_INVALID_COLOR);//选项背景色设为透明
;;;724                TEXT_SetTextColor(hItem, GUI_WHITE);
;;;725                       
;;;726                hItem = WM_GetDialogItem(hWinWind, ID_TEXT_41);
;;;727                TEXT_SetBkColor(hItem,0x00BFFFFF);//选项背景色设为米色
;;;728                TEXT_SetTextColor(hItem, GUI_BLACK);
;;;729                for(i=0;i<6;i++)
;;;730                {
;;;731                    set_limit[i] = '\0';
;;;732                }
;;;733    
;;;734                set_sw = set_18;
;;;735                break;                        
;;;736            }
;;;737            case set_18:
;;;738            {           
;;;739                WM_HWIN hItem;
;;;740    //            WM_InvalidateWindow(hWinWind);
;;;741                hItem = WM_GetDialogItem(hWinWind, ID_TEXT_41);
;;;742                TEXT_SetBkColor(hItem,GUI_INVALID_COLOR);//选项背景色设为透明
;;;743                TEXT_SetTextColor(hItem, GUI_WHITE);
;;;744    			if(dot_flag == 0){
;;;745    				pow_v = atoi(set_limit)*100;					
;;;746    			}else if(dot_flag != 0){
;;;747    				memset(buf, '\0', sizeof(buf));
;;;748    				strncpy(buf,set_limit,dot_flag + 3);
;;;749    				pow_v = atof(buf)*100;
;;;750    			}
;;;751    			if(pow_v > 6200)
;;;752    			{
;;;753    				pow_v = 6200;
;;;754    			}
;;;755    			if(pow_v/100 * SET_Current/1000 > 200)
;;;756                {
;;;757                    pow_v = 0;
;;;758                }
;;;759    //            SET_Voltage = pow_v - 12;
;;;760    			SET_Voltage = pow_v;
;;;761                
;;;762                dis_output_v = (float)pow_v/100;
;;;763                
;;;764                sprintf(buf,"%.2f",dis_output_v);
;;;765                TEXT_SetText(hItem,buf);
;;;766                
;;;767                                                                         
;;;768                hItem = WM_GetDialogItem(hWinWind, ID_TEXT_33);
;;;769                TEXT_SetBkColor(hItem,0x00BFFFFF);//选项背景色设为米色
;;;770                TEXT_SetTextColor(hItem, GUI_BLACK);
;;;771                                
;;;772                Write_Limits();
;;;773                set_sw = set_10;
;;;774                bit = 0;
000032  f8df93f4          LDR      r9,|L6.1064|
;;;775                dot_flag = 0;
;;;776                break; 
;;;777             }
;;;778             case set_11:
;;;779             {
;;;780                WM_HWIN hItem;
;;;781    //            WM_InvalidateWindow(hWinWind);
;;;782                hItem = WM_GetDialogItem(hWinWind, ID_TEXT_34);
;;;783                TEXT_SetBkColor(hItem,GUI_INVALID_COLOR);//选项背景色设为透明
;;;784                TEXT_SetTextColor(hItem, GUI_WHITE);
;;;785                                    
;;;786                hItem = WM_GetDialogItem(hWinWind, ID_TEXT_42);
;;;787                TEXT_SetBkColor(hItem,0x00BFFFFF);//选项背景色设为米色
;;;788                TEXT_SetTextColor(hItem, GUI_BLACK);
;;;789                for(i=0;i<6;i++)
;;;790                {
;;;791                    set_limit[i] = '\0';
;;;792                }
;;;793    
;;;794                set_sw = set_19;
;;;795                break;                        
;;;796             }
;;;797             case set_19:
;;;798             {           
;;;799                WM_HWIN hItem;
;;;800    //            WM_InvalidateWindow(hWinWind);
;;;801                hItem = WM_GetDialogItem(hWinWind, ID_TEXT_42);
;;;802                TEXT_SetBkColor(hItem,GUI_INVALID_COLOR);//选项背景色设为透明
;;;803                TEXT_SetTextColor(hItem, GUI_WHITE);
;;;804    			if(dot_flag == 0){
;;;805    				pow_c = atoi(set_limit)*1000;					
;;;806    			}else if(dot_flag != 0){
;;;807    				memset(buf, '\0', sizeof(buf));
;;;808    				strncpy(buf,set_limit,dot_flag + 4);
;;;809    				pow_c = atof(buf)*1000;
000036  ed9f8bfd          VLDR     d8,|L6.1068|
;;;810    			}
;;;811                  
;;;812                if(pow_c > 10000)
;;;813                {
;;;814                    pow_c = 10000;               
;;;815                }
;;;816    			if(pow_v/100 * pow_c/1000 > 200)
;;;817                {
;;;818                    pow_c = 0;
;;;819                }
;;;820    			SET_Current = pow_c;
;;;821                
;;;822                dis_output_c = (float)SET_Current/1000;
00003a  ed9f9afe          VLDR     s18,|L6.1076|
00003e  f8dfa3f8          LDR      r10,|L6.1080|
000042  48fe              LDR      r0,|L6.1084|
000044  2400              MOVS     r4,#0                 ;722
000046  4ffe              LDR      r7,|L6.1088|
000048  2912              CMP      r1,#0x12              ;717
00004a  d07d              BEQ      |L6.328|
00004c  dc7d              BGT      |L6.330|
00004e  f6400666          MOV      r6,#0x866             ;726
000052  2909              CMP      r1,#9                 ;717
000054  d07a              BEQ      |L6.332|
000056  290a              CMP      r1,#0xa               ;717
000058  d079              BEQ      |L6.334|
00005a  2911              CMP      r1,#0x11              ;717
00005c  d172              BNE      |L6.324|
00005e  4682              MOV      r10,r0                ;741
000060  4631              MOV      r1,r6                 ;741
000062  6840              LDR      r0,[r0,#4]            ;741  ; hWinWind
000064  f7fffffe          BL       WM_GetDialogItem
000068  4606              MOV      r6,r0                 ;741
00006a  f06f4170          MVN      r1,#0xf0000000        ;742
00006e  4630              MOV      r0,r6                 ;742
000070  f7fffffe          BL       TEXT_SetBkColor
000074  f06f417f          MVN      r1,#0xff000000        ;743
000078  4630              MOV      r0,r6                 ;743
00007a  f7fffffe          BL       TEXT_SetTextColor
00007e  7838              LDRB     r0,[r7,#0]            ;744  ; dot_flag
000080  2800              CMP      r0,#0                 ;744
000082  d065              BEQ      |L6.336|
000084  7838              LDRB     r0,[r7,#0]            ;746  ; dot_flag
000086  b1b0              CBZ      r0,|L6.182|
000088  9402              STR      r4,[sp,#8]            ;747
00008a  9403              STR      r4,[sp,#0xc]          ;747
00008c  783a              LDRB     r2,[r7,#0]            ;748  ; dot_flag
00008e  49ea              LDR      r1,|L6.1080|
000090  1cd2              ADDS     r2,r2,#3              ;748
000092  a802              ADD      r0,sp,#8              ;748
000094  f7fffffe          BL       strncpy
000098  a802              ADD      r0,sp,#8              ;749
00009a  f7fffffe          BL       __hardfp_atof
00009e  ed9f1be9          VLDR     d1,|L6.1092|
0000a2  ec510b10          VMOV     r0,r1,d0              ;749
0000a6  ec532b11          VMOV     r2,r3,d1              ;749
0000aa  f7fffffe          BL       __aeabi_dmul
0000ae  f7fffffe          BL       __aeabi_d2uiz
0000b2  f8c80098          STR      r0,[r8,#0x98]         ;749  ; Run_Control
                  |L6.182|
0000b6  f8d80098          LDR      r0,[r8,#0x98]         ;751  ; Run_Control
0000ba  4558              CMP      r0,r11                ;751
0000bc  d901              BLS      |L6.194|
0000be  f8c8b098          STR      r11,[r8,#0x98]        ;753  ; Run_Control
                  |L6.194|
0000c2  f8d81098          LDR      r1,[r8,#0x98]         ;755  ; Run_Control
0000c6  2064              MOVS     r0,#0x64              ;755
0000c8  fbb1f1f0          UDIV     r1,r1,r0              ;755
0000cc  f8d80008          LDR      r0,[r8,#8]            ;755  ; Run_Control
0000d0  4341              MULS     r1,r0,r1              ;755
0000d2  48de              LDR      r0,|L6.1100|
0000d4  4281              CMP      r1,r0                 ;755
0000d6  d901              BLS      |L6.220|
0000d8  f8c84098          STR      r4,[r8,#0x98]         ;757  ; Run_Control
                  |L6.220|
0000dc  f8d80098          LDR      r0,[r8,#0x98]         ;760  ; Run_Control
0000e0  f8c80004          STR      r0,[r8,#4]            ;760  ; Run_Control
0000e4  f8d80098          LDR      r0,[r8,#0x98]         ;762  ; Run_Control
0000e8  ee000a10          VMOV     s0,r0                 ;762
0000ec  eef80a40          VCVT.F32.U32 s1,s0                 ;762
0000f0  ed9f1ad7          VLDR     s2,|L6.1104|
0000f4  ee800a81          VDIV.F32 s0,s1,s2              ;762
0000f8  ee100a10          VMOV     r0,s0                 ;764
0000fc  f7fffffe          BL       __aeabi_f2d
000100  ec410b10          VMOV     d0,r0,r1              ;764
000104  a1d3              ADR      r1,|L6.1108|
000106  ec532b10          VMOV     r2,r3,d0              ;764
00010a  a802              ADD      r0,sp,#8              ;764
00010c  f7fffffe          BL       __2sprintf
000110  a902              ADD      r1,sp,#8              ;765
000112  4630              MOV      r0,r6                 ;765
000114  f7fffffe          BL       TEXT_SetText
000118  f640013d          MOV      r1,#0x83d             ;768
00011c  f8da0004          LDR      r0,[r10,#4]           ;768  ; hWinWind
000120  f7fffffe          BL       WM_GetDialogItem
000124  4606              MOV      r6,r0                 ;768
000126  49cd              LDR      r1,|L6.1116|
000128  4630              MOV      r0,r6                 ;769
00012a  f7fffffe          BL       TEXT_SetBkColor
00012e  2100              MOVS     r1,#0                 ;770
000130  4630              MOV      r0,r6                 ;770
000132  f7fffffe          BL       TEXT_SetTextColor
000136  f7fffffe          BL       Write_Limits
00013a  2009              MOVS     r0,#9                 ;773
00013c  7028              STRB     r0,[r5,#0]            ;773
00013e  f8894000          STRB     r4,[r9,#0]            ;774
000142  703c              STRB     r4,[r7,#0]            ;775
                  |L6.324|
;;;823                sprintf(buf,"%.3f",dis_output_c);
;;;824                TEXT_SetText(hItem,buf);            
;;;825                       
;;;826                hItem = WM_GetDialogItem(hWinWind, ID_TEXT_34);
;;;827                TEXT_SetBkColor(hItem,0x00BFFFFF);//选项背景色设为米色
;;;828                TEXT_SetTextColor(hItem, GUI_BLACK);
;;;829                                                     
;;;830                Write_Limits();
;;;831                set_sw = set_11;
;;;832                bit = 0;
;;;833                dot_flag = 0;
;;;834                break; 
;;;835             }
;;;836    		 case set_88:
;;;837             {
;;;838                WM_HWIN hItem;
;;;839    //            WM_InvalidateWindow(hWinWind);
;;;840                hItem = WM_GetDialogItem(hWinWind, ID_TEXT_159);
;;;841                TEXT_SetBkColor(hItem,GUI_INVALID_COLOR);//选项背景色设为透明
;;;842                TEXT_SetTextColor(hItem, GUI_WHITE);
;;;843                                    
;;;844                hItem = WM_GetDialogItem(hWinWind, ID_TEXT_144);
;;;845                TEXT_SetBkColor(hItem,0x00BFFFFF);//选项背景色设为米色
;;;846                TEXT_SetTextColor(hItem, GUI_BLACK);
;;;847                for(i=0;i<6;i++)
;;;848                {
;;;849                    set_limit[i] = '\0';
;;;850                }
;;;851    
;;;852                set_sw = set_89;
;;;853                break;                        
;;;854             }
;;;855             case set_89:
;;;856             {           
;;;857                WM_HWIN hItem;
;;;858    //            WM_InvalidateWindow(hWinWind);
;;;859                hItem = WM_GetDialogItem(hWinWind, ID_TEXT_144);
;;;860                TEXT_SetBkColor(hItem,GUI_INVALID_COLOR);//选项背景色设为透明
;;;861                TEXT_SetTextColor(hItem, GUI_WHITE);
;;;862    			if(dot_flag == 0){
;;;863    				set_pow_cutoffc = atoi(set_limit)*1000;					
;;;864    			}else if(dot_flag != 0){
;;;865    				memset(buf, '\0', sizeof(buf));
;;;866    				strncpy(buf,set_limit,dot_flag + 4);
;;;867    				set_pow_cutoffc = atof(buf)*1000;
;;;868    			}
;;;869                if(set_pow_cutoffc > 10000)
;;;870                {
;;;871                    set_pow_cutoffc = 10000;               
;;;872                }
;;;873                pow_cutoffc = (float)set_pow_cutoffc/1000;
;;;874                sprintf(buf,"%.3f",pow_cutoffc);
;;;875                TEXT_SetText(hItem,buf);            
;;;876                       
;;;877                hItem = WM_GetDialogItem(hWinWind, ID_TEXT_159);
;;;878                TEXT_SetBkColor(hItem,0x00BFFFFF);//选项背景色设为米色
;;;879                TEXT_SetTextColor(hItem, GUI_BLACK);
;;;880                                                     
;;;881                Flash_Write32BitDatas(FLASH_USER_START_ADDR,40, InFlashSave);
;;;882                set_sw = set_88;
;;;883                bit = 0;
;;;884                dot_flag = 0;
;;;885                break; 
;;;886             }
;;;887             default:break;
;;;888         }
;;;889    }
000144  b005              ADD      sp,sp,#0x14
000146  e004              B        |L6.338|
                  |L6.328|
000148  e0dc              B        |L6.772|
                  |L6.330|
00014a  e006              B        |L6.346|
                  |L6.332|
00014c  e070              B        |L6.560|
                  |L6.334|
00014e  e0a9              B        |L6.676|
                  |L6.336|
000150  e0a0              B        |L6.660|
                  |L6.338|
000152  ecbd8b04          VPOP     {d8-d9}
000156  e8bd8ff0          POP      {r4-r11,pc}
                  |L6.346|
00015a  f6401b3a          MOV      r11,#0x93a            ;840
00015e  f640182e          MOV      r8,#0x92e             ;844
000162  2957              CMP      r1,#0x57              ;717
000164  d07d              BEQ      |L6.610|
000166  2958              CMP      r1,#0x58              ;717
000168  d1ec              BNE      |L6.324|
00016a  4682              MOV      r10,r0                ;859
00016c  4641              MOV      r1,r8                 ;859
00016e  6840              LDR      r0,[r0,#4]            ;859  ; hWinWind
000170  f7fffffe          BL       WM_GetDialogItem
000174  9001              STR      r0,[sp,#4]            ;859
000176  f06f4170          MVN      r1,#0xf0000000        ;860
00017a  9801              LDR      r0,[sp,#4]            ;860
00017c  f7fffffe          BL       TEXT_SetBkColor
000180  f06f417f          MVN      r1,#0xff000000        ;861
000184  9801              LDR      r0,[sp,#4]            ;861
000186  f7fffffe          BL       TEXT_SetTextColor
00018a  7838              LDRB     r0,[r7,#0]            ;862  ; dot_flag
00018c  f8df82d0          LDR      r8,|L6.1120|
000190  2800              CMP      r0,#0                 ;862
000192  d067              BEQ      |L6.612|
000194  7838              LDRB     r0,[r7,#0]            ;864  ; dot_flag
000196  b1a0              CBZ      r0,|L6.450|
000198  9402              STR      r4,[sp,#8]            ;865
00019a  9403              STR      r4,[sp,#0xc]          ;865
00019c  783a              LDRB     r2,[r7,#0]            ;866  ; dot_flag
00019e  49a6              LDR      r1,|L6.1080|
0001a0  1d12              ADDS     r2,r2,#4              ;866
0001a2  a802              ADD      r0,sp,#8              ;866
0001a4  f7fffffe          BL       strncpy
0001a8  a802              ADD      r0,sp,#8              ;867
0001aa  f7fffffe          BL       __hardfp_atof
0001ae  ec532b18          VMOV     r2,r3,d8              ;867
0001b2  ec510b10          VMOV     r0,r1,d0              ;867
0001b6  f7fffffe          BL       __aeabi_dmul
0001ba  f7fffffe          BL       __aeabi_d2iz
0001be  f8c80014          STR      r0,[r8,#0x14]         ;867  ; InFlashSave
                  |L6.450|
0001c2  f8d80014          LDR      r0,[r8,#0x14]         ;869  ; InFlashSave
0001c6  42b0              CMP      r0,r6                 ;869
0001c8  dd01              BLE      |L6.462|
0001ca  f8c86014          STR      r6,[r8,#0x14]         ;871  ; InFlashSave
                  |L6.462|
0001ce  ed980a05          VLDR     s0,[r8,#0x14]         ;873
0001d2  eef80ac0          VCVT.F32.S32 s1,s0                 ;873
0001d6  ee800a89          VDIV.F32 s0,s1,s18             ;873
0001da  ed8a0a02          VSTR     s0,[r10,#8]           ;873
0001de  ee100a10          VMOV     r0,s0                 ;874
0001e2  f7fffffe          BL       __aeabi_f2d
0001e6  ec410b10          VMOV     d0,r0,r1              ;874
0001ea  a19e              ADR      r1,|L6.1124|
0001ec  ec532b10          VMOV     r2,r3,d0              ;874
0001f0  a802              ADD      r0,sp,#8              ;874
0001f2  f7fffffe          BL       __2sprintf
0001f6  a902              ADD      r1,sp,#8              ;875
0001f8  9801              LDR      r0,[sp,#4]            ;875
0001fa  f7fffffe          BL       TEXT_SetText
0001fe  4659              MOV      r1,r11                ;877
000200  f8da0004          LDR      r0,[r10,#4]           ;877  ; hWinWind
000204  f7fffffe          BL       WM_GetDialogItem
000208  4606              MOV      r6,r0                 ;877
00020a  4994              LDR      r1,|L6.1116|
00020c  4630              MOV      r0,r6                 ;878
00020e  f7fffffe          BL       TEXT_SetBkColor
000212  2100              MOVS     r1,#0                 ;879
000214  4630              MOV      r0,r6                 ;879
000216  f7fffffe          BL       TEXT_SetTextColor
00021a  4a91              LDR      r2,|L6.1120|
00021c  2128              MOVS     r1,#0x28              ;881
00021e  4893              LDR      r0,|L6.1132|
000220  f7fffffe          BL       Flash_Write32BitDatas
000224  2057              MOVS     r0,#0x57              ;882
000226  7028              STRB     r0,[r5,#0]            ;882
000228  f8894000          STRB     r4,[r9,#0]            ;883
00022c  703c              STRB     r4,[r7,#0]            ;884
00022e  e789              B        |L6.324|
                  |L6.560|
000230  4607              MOV      r7,r0                 ;722
000232  f640013d          MOV      r1,#0x83d             ;722
000236  6840              LDR      r0,[r0,#4]            ;722  ; hWinWind
000238  f7fffffe          BL       WM_GetDialogItem
00023c  4680              MOV      r8,r0                 ;722
00023e  f06f4170          MVN      r1,#0xf0000000        ;723
000242  4640              MOV      r0,r8                 ;723
000244  f7fffffe          BL       TEXT_SetBkColor
000248  f06f417f          MVN      r1,#0xff000000        ;724
00024c  4640              MOV      r0,r8                 ;724
00024e  f7fffffe          BL       TEXT_SetTextColor
000252  4631              MOV      r1,r6                 ;726
000254  6878              LDR      r0,[r7,#4]            ;726  ; hWinWind
000256  f7fffffe          BL       WM_GetDialogItem
00025a  4606              MOV      r6,r0                 ;726
00025c  497f              LDR      r1,|L6.1116|
00025e  4630              MOV      r0,r6                 ;727
000260  e001              B        |L6.614|
                  |L6.610|
000262  e0ca              B        |L6.1018|
                  |L6.612|
000264  e120              B        |L6.1192|
                  |L6.614|
000266  f7fffffe          BL       TEXT_SetBkColor
00026a  2100              MOVS     r1,#0                 ;728
00026c  4630              MOV      r0,r6                 ;728
00026e  f7fffffe          BL       TEXT_SetTextColor
000272  9404              STR      r4,[sp,#0x10]         ;729
000274  e007              B        |L6.646|
                  |L6.630|
000276  f89d0010          LDRB     r0,[sp,#0x10]         ;731
00027a  f80a4000          STRB     r4,[r10,r0]           ;731
00027e  f89d0010          LDRB     r0,[sp,#0x10]         ;729
000282  1c40              ADDS     r0,r0,#1              ;729
000284  9004              STR      r0,[sp,#0x10]         ;729
                  |L6.646|
000286  f89d0010          LDRB     r0,[sp,#0x10]         ;729
00028a  2806              CMP      r0,#6                 ;729
00028c  d3f3              BCC      |L6.630|
00028e  2011              MOVS     r0,#0x11              ;734
000290  7028              STRB     r0,[r5,#0]            ;734
000292  e757              B        |L6.324|
                  |L6.660|
000294  4868              LDR      r0,|L6.1080|
000296  f7fffffe          BL       atoi
00029a  2164              MOVS     r1,#0x64              ;745
00029c  4348              MULS     r0,r1,r0              ;745
00029e  f8c80098          STR      r0,[r8,#0x98]         ;745  ; Run_Control
0002a2  e708              B        |L6.182|
                  |L6.676|
0002a4  4606              MOV      r6,r0                 ;782
0002a6  f640013e          MOV      r1,#0x83e             ;782
0002aa  6840              LDR      r0,[r0,#4]            ;782  ; hWinWind
0002ac  f7fffffe          BL       WM_GetDialogItem
0002b0  4607              MOV      r7,r0                 ;782
0002b2  f06f4170          MVN      r1,#0xf0000000        ;783
0002b6  4638              MOV      r0,r7                 ;783
0002b8  f7fffffe          BL       TEXT_SetBkColor
0002bc  f06f417f          MVN      r1,#0xff000000        ;784
0002c0  4638              MOV      r0,r7                 ;784
0002c2  f7fffffe          BL       TEXT_SetTextColor
0002c6  f6400167          MOV      r1,#0x867             ;786
0002ca  6870              LDR      r0,[r6,#4]            ;786  ; hWinWind
0002cc  f7fffffe          BL       WM_GetDialogItem
0002d0  4606              MOV      r6,r0                 ;786
0002d2  4962              LDR      r1,|L6.1116|
0002d4  4630              MOV      r0,r6                 ;787
0002d6  f7fffffe          BL       TEXT_SetBkColor
0002da  2100              MOVS     r1,#0                 ;788
0002dc  4630              MOV      r0,r6                 ;788
0002de  f7fffffe          BL       TEXT_SetTextColor
0002e2  9404              STR      r4,[sp,#0x10]         ;789
0002e4  e007              B        |L6.758|
                  |L6.742|
0002e6  f89d0010          LDRB     r0,[sp,#0x10]         ;791
0002ea  f80a4000          STRB     r4,[r10,r0]           ;791
0002ee  f89d0010          LDRB     r0,[sp,#0x10]         ;789
0002f2  1c40              ADDS     r0,r0,#1              ;789
0002f4  9004              STR      r0,[sp,#0x10]         ;789
                  |L6.758|
0002f6  f89d0010          LDRB     r0,[sp,#0x10]         ;789
0002fa  2806              CMP      r0,#6                 ;789
0002fc  d3f3              BCC      |L6.742|
0002fe  2012              MOVS     r0,#0x12              ;794
000300  7028              STRB     r0,[r5,#0]            ;794
000302  e71f              B        |L6.324|
                  |L6.772|
000304  4682              MOV      r10,r0                ;801
000306  f6400167          MOV      r1,#0x867             ;801
00030a  6840              LDR      r0,[r0,#4]            ;801  ; hWinWind
00030c  f7fffffe          BL       WM_GetDialogItem
000310  4683              MOV      r11,r0                ;801
000312  f06f4170          MVN      r1,#0xf0000000        ;802
000316  4658              MOV      r0,r11                ;802
000318  f7fffffe          BL       TEXT_SetBkColor
00031c  f06f417f          MVN      r1,#0xff000000        ;803
000320  4658              MOV      r0,r11                ;803
000322  f7fffffe          BL       TEXT_SetTextColor
000326  7838              LDRB     r0,[r7,#0]            ;804  ; dot_flag
000328  b3f0              CBZ      r0,|L6.936|
00032a  7838              LDRB     r0,[r7,#0]            ;806  ; dot_flag
00032c  b1a0              CBZ      r0,|L6.856|
00032e  9402              STR      r4,[sp,#8]            ;807
000330  9403              STR      r4,[sp,#0xc]          ;807
000332  783a              LDRB     r2,[r7,#0]            ;808  ; dot_flag
000334  4940              LDR      r1,|L6.1080|
000336  1d12              ADDS     r2,r2,#4              ;808
000338  a802              ADD      r0,sp,#8              ;808
00033a  f7fffffe          BL       strncpy
00033e  a802              ADD      r0,sp,#8              ;809
000340  f7fffffe          BL       __hardfp_atof
000344  ec532b18          VMOV     r2,r3,d8              ;809
000348  ec510b10          VMOV     r0,r1,d0              ;809
00034c  f7fffffe          BL       __aeabi_dmul
000350  f7fffffe          BL       __aeabi_d2uiz
000354  f8c800a0          STR      r0,[r8,#0xa0]         ;809  ; Run_Control
                  |L6.856|
000358  f8d800a0          LDR      r0,[r8,#0xa0]         ;812  ; Run_Control
00035c  42b0              CMP      r0,r6                 ;812
00035e  d901              BLS      |L6.868|
000360  f8c860a0          STR      r6,[r8,#0xa0]         ;814  ; Run_Control
                  |L6.868|
000364  f8d81098          LDR      r1,[r8,#0x98]         ;816  ; Run_Control
000368  2064              MOVS     r0,#0x64              ;816
00036a  fbb1f0f0          UDIV     r0,r1,r0              ;816
00036e  f8d810a0          LDR      r1,[r8,#0xa0]         ;816  ; Run_Control
000372  4348              MULS     r0,r1,r0              ;816
000374  4935              LDR      r1,|L6.1100|
000376  4288              CMP      r0,r1                 ;816
000378  d901              BLS      |L6.894|
00037a  f8c840a0          STR      r4,[r8,#0xa0]         ;818  ; Run_Control
                  |L6.894|
00037e  f8d800a0          LDR      r0,[r8,#0xa0]         ;820  ; Run_Control
000382  f8c80008          STR      r0,[r8,#8]            ;820  ; Run_Control
000386  f8d80008          LDR      r0,[r8,#8]            ;822  ; Run_Control
00038a  ee000a10          VMOV     s0,r0                 ;822
00038e  eef80a40          VCVT.F32.U32 s1,s0                 ;822
000392  ee800a89          VDIV.F32 s0,s1,s18             ;822
000396  ee100a10          VMOV     r0,s0                 ;823
00039a  f7fffffe          BL       __aeabi_f2d
00039e  ec410b10          VMOV     d0,r0,r1              ;823
0003a2  ec532b10          VMOV     r2,r3,d0              ;823
0003a6  e000              B        |L6.938|
                  |L6.936|
0003a8  e01e              B        |L6.1000|
                  |L6.938|
0003aa  a12e              ADR      r1,|L6.1124|
0003ac  a802              ADD      r0,sp,#8              ;823
0003ae  f7fffffe          BL       __2sprintf
0003b2  a902              ADD      r1,sp,#8              ;824
0003b4  4658              MOV      r0,r11                ;824
0003b6  f7fffffe          BL       TEXT_SetText
0003ba  f640013e          MOV      r1,#0x83e             ;826
0003be  f8da0004          LDR      r0,[r10,#4]           ;826  ; hWinWind
0003c2  f7fffffe          BL       WM_GetDialogItem
0003c6  4606              MOV      r6,r0                 ;826
0003c8  4924              LDR      r1,|L6.1116|
0003ca  4630              MOV      r0,r6                 ;827
0003cc  f7fffffe          BL       TEXT_SetBkColor
0003d0  2100              MOVS     r1,#0                 ;828
0003d2  4630              MOV      r0,r6                 ;828
0003d4  f7fffffe          BL       TEXT_SetTextColor
0003d8  f7fffffe          BL       Write_Limits
0003dc  200a              MOVS     r0,#0xa               ;831
0003de  7028              STRB     r0,[r5,#0]            ;831
0003e0  f8894000          STRB     r4,[r9,#0]            ;832
0003e4  703c              STRB     r4,[r7,#0]            ;833
0003e6  e6ad              B        |L6.324|
                  |L6.1000|
0003e8  4813              LDR      r0,|L6.1080|
0003ea  f7fffffe          BL       atoi
0003ee  f44f717a          MOV      r1,#0x3e8             ;805
0003f2  4348              MULS     r0,r1,r0              ;805
0003f4  f8c800a0          STR      r0,[r8,#0xa0]         ;805  ; Run_Control
0003f8  e7ae              B        |L6.856|
                  |L6.1018|
0003fa  4606              MOV      r6,r0                 ;840
0003fc  4659              MOV      r1,r11                ;840
0003fe  6840              LDR      r0,[r0,#4]            ;840  ; hWinWind
000400  f7fffffe          BL       WM_GetDialogItem
000404  4607              MOV      r7,r0                 ;840
000406  f06f4170          MVN      r1,#0xf0000000        ;841
00040a  4638              MOV      r0,r7                 ;841
00040c  f7fffffe          BL       TEXT_SetBkColor
000410  f06f417f          MVN      r1,#0xff000000        ;842
000414  4638              MOV      r0,r7                 ;842
000416  f7fffffe          BL       TEXT_SetTextColor
00041a  4641              MOV      r1,r8                 ;844
00041c  6870              LDR      r0,[r6,#4]            ;844  ; hWinWind
00041e  e027              B        |L6.1136|
                  |L6.1056|
                          DCD      Run_Control
                  |L6.1060|
                          DCD      set_sw
                  |L6.1064|
                          DCD      bit
                  |L6.1068|
00042c  00000000          DCFD     0x408f400000000000 ; 1000
000430  408f4000
                  |L6.1076|
000434  447a0000          DCFS     0x447a0000 ; 1000
                  |L6.1080|
                          DCD      set_limit
                  |L6.1084|
                          DCD      ||.data||
                  |L6.1088|
                          DCD      dot_flag
                  |L6.1092|
000444  00000000          DCFD     0x4059000000000000 ; 100
000448  40590000
                  |L6.1100|
                          DCD      0x00031127
                  |L6.1104|
000450  42c80000          DCFS     0x42c80000 ; 100
                  |L6.1108|
000454  252e3266          DCB      "%.2f",0
000458  00      
000459  00                DCB      0
00045a  00                DCB      0
00045b  00                DCB      0
                  |L6.1116|
                          DCD      0x00bfffff
                  |L6.1120|
                          DCD      InFlashSave
                  |L6.1124|
000464  252e3366          DCB      "%.3f",0
000468  00      
000469  00                DCB      0
00046a  00                DCB      0
00046b  00                DCB      0
                  |L6.1132|
                          DCD      0x080e0000
                  |L6.1136|
000470  f7fffffe          BL       WM_GetDialogItem
000474  4606              MOV      r6,r0                 ;844
000476  4911              LDR      r1,|L6.1212|
000478  4630              MOV      r0,r6                 ;845
00047a  f7fffffe          BL       TEXT_SetBkColor
00047e  2100              MOVS     r1,#0                 ;846
000480  4630              MOV      r0,r6                 ;846
000482  f7fffffe          BL       TEXT_SetTextColor
000486  9404              STR      r4,[sp,#0x10]         ;847
000488  e007              B        |L6.1178|
                  |L6.1162|
00048a  f89d0010          LDRB     r0,[sp,#0x10]         ;849
00048e  f80a4000          STRB     r4,[r10,r0]           ;849
000492  f89d0010          LDRB     r0,[sp,#0x10]         ;847
000496  1c40              ADDS     r0,r0,#1              ;847
000498  9004              STR      r0,[sp,#0x10]         ;847
                  |L6.1178|
00049a  f89d0010          LDRB     r0,[sp,#0x10]         ;847
00049e  2806              CMP      r0,#6                 ;847
0004a0  d3f3              BCC      |L6.1162|
0004a2  2058              MOVS     r0,#0x58              ;852
0004a4  7028              STRB     r0,[r5,#0]            ;852
0004a6  e64d              B        |L6.324|
                  |L6.1192|
0004a8  4805              LDR      r0,|L6.1216|
0004aa  f7fffffe          BL       atoi
0004ae  f44f717a          MOV      r1,#0x3e8             ;863
0004b2  4348              MULS     r0,r1,r0              ;863
0004b4  f8c80014          STR      r0,[r8,#0x14]         ;863  ; InFlashSave
0004b8  e683              B        |L6.450|
;;;890    void DEL_POW(void)
                          ENDP

0004ba  0000              DCW      0x0000
                  |L6.1212|
                          DCD      0x00bfffff
                  |L6.1216|
                          DCD      set_limit

                          AREA ||i.ResetPow||, CODE, READONLY, ALIGN=2

                  ResetPow PROC
;;;614    
;;;615    WM_HWIN ResetPow(void) {
000000  b51c              PUSH     {r2-r4,lr}
;;;616        hWinWind = GUI_CreateDialogBox(_aDialogCreate1, GUI_COUNTOF(_aDialogCreate1), _cbDialog, WM_HBKWIN, 0, 0);
000002  f7fffffe          BL       WM_GetDesktopWindow
000006  4603              MOV      r3,r0
000008  2000              MOVS     r0,#0
00000a  9000              STR      r0,[sp,#0]
00000c  9001              STR      r0,[sp,#4]
00000e  4a04              LDR      r2,|L7.32|
000010  2116              MOVS     r1,#0x16
000012  4804              LDR      r0,|L7.36|
000014  f7fffffe          BL       GUI_CreateDialogBox
000018  4903              LDR      r1,|L7.40|
00001a  6048              STR      r0,[r1,#4]  ; hWinWind
;;;617    //    WM_InvalidateWindow(hWinWind);
;;;618        return hWinWind;
;;;619    }
00001c  bd1c              POP      {r2-r4,pc}
;;;620    
                          ENDP

00001e  0000              DCW      0x0000
                  |L7.32|
                          DCD      _cbDialog
                  |L7.36|
                          DCD      ||.constdata||
                  |L7.40|
                          DCD      ||.data||

                          AREA ||i._cbDialog||, CODE, READONLY, ALIGN=2

                          REQUIRE _printf_percent
                          REQUIRE _printf_widthprec
                          REQUIRE _printf_f
                          REQUIRE _printf_fp_dec
                          REQUIRE _printf_pre_padding
                          REQUIRE _printf_flags
                          REQUIRE _printf_d
                          REQUIRE _printf_int_dec
                  _cbDialog PROC
;;;82     
;;;83     static void _cbDialog(WM_MESSAGE * pMsg) {
000000  e92d4ff0          PUSH     {r4-r11,lr}
000004  ed2d8b04          VPUSH    {d8-d9}
000008  b083              SUB      sp,sp,#0xc
00000a  4604              MOV      r4,r0
;;;84       WM_HWIN hItem;
;;;85       int     NCode;
;;;86       int     Id;
;;;87       static vu8 status_flash;
;;;88       char buf[5];    
;;;89     
;;;90       float dis_output_v = (float)pow_v/100;
00000c  48fe              LDR      r0,|L8.1032|
00000e  f8d01098          LDR      r1,[r0,#0x98]  ; Run_Control
000012  ee001a10          VMOV     s0,r1
000016  eeb80a40          VCVT.F32.U32 s0,s0
00001a  eddf0afc          VLDR     s1,|L8.1036|
00001e  eec09a20          VDIV.F32 s19,s0,s1
;;;91       float dis_output_c = (float)SET_Current/1000;
000022  6880              LDR      r0,[r0,#8]  ; Run_Control
000024  ee000a10          VMOV     s0,r0
000028  eeb80a40          VCVT.F32.U32 s0,s0
00002c  eddf0af8          VLDR     s1,|L8.1040|
000030  ee809a20          VDIV.F32 s18,s0,s1
;;;92       static u8 cdelay,vdec;
;;;93       
;;;94       
;;;95       // USER START (Optionally insert additional variables)
;;;96       // USER END
;;;97     
;;;98       switch (pMsg->MsgId) {
000034  6820              LDR      r0,[r4,#0]
;;;99     
;;;100    	case WM_PAINT://无效化重绘
;;;101    		GUI_SetColor(GUI_WHITE);//设置画笔颜色
;;;102            GUI_FillRect(0,25,480,26);//画一条实线
;;;103            GUI_SetColor(GUI_ORANGE);
;;;104            GUI_SetFont(&GUI_Fontsymbol);
;;;105            GUI_UC_SetEncodeUTF8();
;;;106            GUI_SetTextMode(GUI_TM_TRANS);//设置文本模式为底色透明
;;;107    		if(jkflag == 1)
;;;108    		{
;;;109    			GUI_DispStringAt("Jinko", 5, 1);//SET
;;;110    		}
;;;111            if(lang == 0)
;;;112    		{
;;;113    			GUI_SetColor(GUI_WHITE);
;;;114    			GUI_SetFont(&GUI_FontHZ20S);
;;;115    			GUI_UC_SetEncodeUTF8();
;;;116    			GUI_SetTextMode(GUI_TM_TRANS);//设置文本模式为底色透明
;;;117    			GUI_DispStringAt("测量显示", 130, 3);//SET
;;;118    		}else{
;;;119    			GUI_SetColor(GUI_WHITE);
;;;120    			GUI_SetFont(&GUI_Font20_ASCII);
;;;121    			GUI_DispStringAt("DISPLAY", 130, 3);
;;;122    		}
;;;123    //      GUI_SetFont(&GUI_FontD24x32);//
;;;124    // 		GUI_GotoXY(95,72);//设置显示坐标
;;;125    // 		GUI_DispFloatFix(DISS_POW_Voltage,5,2);//显示电压值
;;;126    // 		GUI_GotoXY(95,140);//设置显示坐标
;;;127    // 		GUI_DispFloatFix(DISS_POW_Current,5,2);//显示电流值
;;;128            GUI_SetFont(&GUI_Font24_1);
;;;129            GUI_DispStringAt("V",435,75);
;;;130            GUI_DispStringAt("A",435,100);
;;;131            GUI_DispStringAt("A",435,150);
;;;132            
;;;133            GUI_SetFont(&GUI_FontEN40);
;;;134            GUI_SetColor(GUI_LIGHTGRAY);
000036  f8dfa3dc          LDR      r10,|L8.1044|
00003a  4ff7              LDR      r7,|L8.1048|
;;;135            GUI_DispStringAt("C:", 28, 190);
;;;136            GUI_SetColor(GUI_LIGHTGRAY);
;;;137            GUI_DispStringAt("m", 217+24, 196);
;;;138            GUI_DispStringAt("AH", 238+24, 187);
;;;139            
;;;140            GUI_SetColor(GUI_GREEN);
00003c  f44f487f          MOV      r8,#0xff00
000040  f06f457f          MVN      r5,#0xff000000        ;101
000044  280f              CMP      r0,#0xf               ;98
000046  d014              BEQ      |L8.114|
;;;141            GUI_SetFont(&GUI_Fontunit);
;;;142            GUI_DispStringAt("°",342, 2);
;;;143            GUI_SetFont(&GUI_Font24_1);
;;;144            GUI_DispStringAt("C",350, 2);
;;;145    //        DrawLock();
;;;146    //        GUI_SetColor(GUI_WHITE);
;;;147    //        GUI_SetFont(&GUI_Fontset_font);
;;;148    //        GUI_DispStringAt("过充电压",290, 150);
;;;149    		break;
;;;150        
;;;151    	case WM_TIMER://定时模块消息
;;;152    	if(WM_GetTimerId(pMsg->Data.v) == ID_TimerTime2)
;;;153    	{
;;;154    //        lockstat2 = lockstat1;
;;;155    //        lockstat1 = lock;
;;;156    //        if(lockstat1 != lockstat2)
;;;157    //        {
;;;158    //            WM_InvalidateWindow(hWinWind);
;;;159    //        }
;;;160    //         if(clear_flag2 == 1)
;;;161    //         {
;;;162    		if(lock == 1)
;;;163    		{
;;;164    			hItem = WM_GetDialogItem(pMsg->hWin, ID_TEXT_161);
;;;165    			TEXT_SetText(hItem,"锁");
;;;166    		}else{
;;;167    			hItem = WM_GetDialogItem(pMsg->hWin, ID_TEXT_161);
;;;168    			TEXT_SetText(hItem,"");
;;;169    		}
;;;170    		if(disloadv < 0.1)
;;;171    		{
;;;172    			hItem = WM_GetDialogItem(pMsg->hWin, ID_TEXT_86);
;;;173    			sprintf(buf,"%.3f",0.00);       
;;;174    			TEXT_SetText(hItem,buf);
;;;175    		}else{
;;;176    			hItem = WM_GetDialogItem(pMsg->hWin, ID_TEXT_86);
;;;177    			sprintf(buf,"%.3f",disloadv);       
;;;178    			TEXT_SetText(hItem,buf);
;;;179    		}
;;;180    //         }else{
;;;181    //             hItem = WM_GetDialogItem(pMsg->hWin, ID_TEXT_86);
;;;182    //             sprintf(buf,"%.2f",DISS_POW_Voltage);       
;;;183    //             TEXT_SetText(hItem,buf);
;;;184    //         }
;;;185            
;;;186            
;;;187           
;;;188            
;;;189    //        test_pow();
;;;190            if(pow_sw == pow_on)
;;;191            {
;;;192    //			if((int)(disloadv*1000) > SET_Voltage*10 && vdec > 30)
;;;193    //			{
;;;194    //				Contr_Voltage --;
;;;195    //				vdec = 0;
;;;196    //			}else{
;;;197    //				vdec ++;
;;;198    //			}
;;;199                battery_c = (int)bc_raw;
;;;200                hItem = WM_GetDialogItem(pMsg->hWin, ID_TEXT_115);
;;;201                sprintf(buf,"%06d",battery_c);      
;;;202                TEXT_SetText(hItem,buf);
;;;203                 hItem = WM_GetDialogItem(pMsg->hWin, ID_TEXT_87);
;;;204                sprintf(buf,"%.3f",DISS_POW_Current);        
;;;205                TEXT_SetText(hItem,buf);
;;;206                if(status_flash == 0){
;;;207                    hItem = WM_GetDialogItem(pMsg->hWin, ID_TEXT_88);
;;;208                    TEXT_SetTextColor(hItem, GUI_RED);//设置字体颜色
;;;209                     if(lang == 0)
;;;210                    {
;;;211                        TEXT_SetFont(hItem,&GUI_FontHZ16);//设定文本字体
;;;212                        GUI_UC_SetEncodeUTF8();        
;;;213                        TEXT_SetText(hItem,"充电中");
;;;214                    }else{
;;;215                        TEXT_SetFont(hItem,&GUI_Font20_ASCII);//设定文本字体
;;;216                        GUI_UC_SetEncodeUTF8();        
;;;217                        TEXT_SetText(hItem,"Charging");
;;;218                    }
;;;219                    status_flash = 1;
;;;220                }else{
;;;221                    hItem = WM_GetDialogItem(pMsg->hWin, ID_TEXT_88);
;;;222                    TEXT_SetText(hItem,"");
;;;223                    status_flash = 0;
;;;224               }
;;;225               if(pow_cutoffc != 0 && DISS_POW_Current < pow_cutoffc && cdelay > 20)
;;;226               {
;;;227                  GPIO_ResetBits(GPIOC,GPIO_Pin_1);
;;;228                  GPIO_SetBits(GPIOC,GPIO_Pin_13);
;;;229                  mode_sw = 0;
;;;230                  pow_sw = pow_off;
;;;231                  cdelay = 0;
;;;232               }else{
;;;233                   cdelay++;
;;;234               }
;;;235    		   if(DISS_Voltage * DISS_Current > 200 || DISS_Voltage * DISS_POW_Current > 200)
;;;236    			{
;;;237    				GPIO_ResetBits(GPIOC,GPIO_Pin_1);
;;;238    				  GPIO_SetBits(GPIOC,GPIO_Pin_13);
;;;239    				  mode_sw = 0;
;;;240    				  pow_sw = pow_off;
;;;241    				  cdelay = 0;
;;;242    				
;;;243    			}
;;;244            }else{
;;;245                hItem = WM_GetDialogItem(pMsg->hWin, ID_TEXT_88);
;;;246                TEXT_SetText(hItem,"");
;;;247                
;;;248                hItem = WM_GetDialogItem(pMsg->hWin, ID_TEXT_87);
;;;249                sprintf(buf,"%.3f",0.000);        
;;;250                TEXT_SetText(hItem,buf);
;;;251                
;;;252                cdelay = 0;
;;;253            }
;;;254    //        hItem = WM_GetDialogItem(pMsg->hWin, ID_TEXT_144);       
;;;255    //        sprintf(buf,"%.3f",overchargev);
;;;256    //        TEXT_SetText(hItem,buf);
;;;257            
;;;258            hItem = WM_GetDialogItem(pMsg->hWin, ID_TEXT_125);       
;;;259            sprintf(buf,"%.1f",temp);
000048  f8df93d0          LDR      r9,|L8.1052|
00004c  ed9f8bf4          VLDR     d8,|L8.1056|
000050  4ef5              LDR      r6,|L8.1064|
000052  281d              CMP      r0,#0x1d              ;98
000054  d07d              BEQ      |L8.338|
000056  2826              CMP      r0,#0x26              ;98
000058  d07c              BEQ      |L8.340|
00005a  f5a07080          SUB      r0,r0,#0x100          ;98
00005e  3813              SUBS     r0,r0,#0x13           ;98
000060  d079              BEQ      |L8.342|
;;;260            TEXT_SetText(hItem,buf);
;;;261            
;;;262    		WM_RestartTimer(pMsg->Data.v, 50);//复位定时器数值越大刷新时间越短
;;;263    	}
;;;264    	break;
;;;265      case WM_INIT_DIALOG://重绘外观
;;;266        //
;;;267        // Initialization of 'Window'
;;;268        //
;;;269            hItem = pMsg->hWin;
;;;270            WINDOW_SetBkColor(hItem, GUI_BLACK);
;;;271            WM_CreateTimer(hItem,ID_TimerTime2,1000,0);//创建本窗口定时器
;;;272        //
;;;273        // Initialization of 'Button'
;;;274        //
;;;275    //         hItem = WM_GetDialogItem(pMsg->hWin, ID_BUTTON_0);
;;;276    // 		BUTTON_SetTextColor(hItem,0,GUI_BLACK);//设置字体颜色为黑色
;;;277    // 		BUTTON_SetFont      (hItem,    &GUI_FontHZ16);//设定按钮文本字体
;;;278    // 		GUI_UC_SetEncodeUTF8();
;;;279    // 		BUTTON_SetText(hItem,"充放电");
;;;280        //
;;;281        // Initialization of 'Button'
;;;282        //
;;;283    		hItem = WM_GetDialogItem(pMsg->hWin, ID_TEXT_161);
;;;284    		TEXT_SetTextColor(hItem, GUI_RED);//设置字体颜色
;;;285    		TEXT_SetFont(hItem,&GUI_FontHZ14);
;;;286    		TEXT_SetText(hItem,"");
;;;287    		
;;;288    		
;;;289           if(lang == 0)
;;;290            {
;;;291                hItem = WM_GetDialogItem(pMsg->hWin, ID_BUTTON_1);
;;;292                BUTTON_SetTextColor(hItem,0,GUI_BLACK);//设置字体颜色为黑色
;;;293                BUTTON_SetFont      (hItem,    &GUI_FontHZ16);//设定按钮文本字体
;;;294                GUI_UC_SetEncodeUTF8();
;;;295                BUTTON_SetText(hItem, "内阻测试");
;;;296            //
;;;297            // Initialization of 'Button'
;;;298            //
;;;299                hItem = WM_GetDialogItem(pMsg->hWin, ID_BUTTON_2);
;;;300                BUTTON_SetTextColor(hItem,0,GUI_BLACK);//设置字体颜色为黑色
;;;301                BUTTON_SetFont      (hItem,    &GUI_FontHZ16);//设定按钮文本字体
;;;302                GUI_UC_SetEncodeUTF8();
;;;303                BUTTON_SetText(hItem, "程控负载");
;;;304            //
;;;305            // Initialization of 'Button'
;;;306            //
;;;307                hItem = WM_GetDialogItem(pMsg->hWin, ID_BUTTON_3);
;;;308                BUTTON_SetPressed(hItem,1);
;;;309                BUTTON_SetTextColor(hItem,0,GUI_BLACK);//设置字体颜色为黑色
;;;310                BUTTON_SetFont      (hItem,    &GUI_FontHZ16);//设定按钮文本字体
;;;311                GUI_UC_SetEncodeUTF8();
;;;312                BUTTON_SetText(hItem, "程控电源");
;;;313            //
;;;314            // Initialization of 'Button'
;;;315            //
;;;316                hItem = WM_GetDialogItem(pMsg->hWin, ID_BUTTON_4);
;;;317                BUTTON_SetTextColor(hItem,0,GUI_BLACK);//设置字体颜色为黑色
;;;318                BUTTON_SetFont      (hItem,    &GUI_FontHZ16);//设定按钮文本字体
;;;319                GUI_UC_SetEncodeUTF8();
;;;320                BUTTON_SetText(hItem, "充放电");
;;;321            //
;;;322            // Initialization of 'Button'
;;;323            //
;;;324                hItem = WM_GetDialogItem(pMsg->hWin, ID_BUTTON_5);
;;;325                BUTTON_SetTextColor(hItem,0,GUI_BLACK);//设置字体颜色为黑色
;;;326                BUTTON_SetFont      (hItem,    &GUI_FontHZ16);//设定按钮文本字体
;;;327                GUI_UC_SetEncodeUTF8();
;;;328                BUTTON_SetText(hItem, "曲线");
;;;329            }else{
;;;330                hItem = WM_GetDialogItem(pMsg->hWin, ID_BUTTON_1);
;;;331                BUTTON_SetTextColor(hItem,0,GUI_BLACK);//设置字体颜色为黑色
;;;332                BUTTON_SetFont      (hItem,    &GUI_Font16B_ASCII);//设定按钮文本字体
;;;333                GUI_UC_SetEncodeUTF8();
;;;334                BUTTON_SetText(hItem, "I.R. TEST");
;;;335            //
;;;336            // Initialization of 'Button'
;;;337            //
;;;338                hItem = WM_GetDialogItem(pMsg->hWin, ID_BUTTON_2);
;;;339                BUTTON_SetTextColor(hItem,0,GUI_BLACK);//设置字体颜色为黑色
;;;340                BUTTON_SetFont      (hItem,    &GUI_Font16B_ASCII);//设定按钮文本字体
;;;341                GUI_UC_SetEncodeUTF8();
;;;342                BUTTON_SetText(hItem, "LOAD");
;;;343            //
;;;344            // Initialization of 'Button'
;;;345            //
;;;346                hItem = WM_GetDialogItem(pMsg->hWin, ID_BUTTON_3);
;;;347                BUTTON_SetPressed(hItem,1);
;;;348                BUTTON_SetTextColor(hItem,0,GUI_BLACK);//设置字体颜色为黑色
;;;349                BUTTON_SetFont      (hItem,    &GUI_Font16B_ASCII);//设定按钮文本字体
;;;350                GUI_UC_SetEncodeUTF8();
;;;351                BUTTON_SetText(hItem, "POWER");
;;;352            //
;;;353            // Initialization of 'Button'
;;;354            //
;;;355                hItem = WM_GetDialogItem(pMsg->hWin, ID_BUTTON_4);
;;;356                BUTTON_SetTextColor(hItem,0,GUI_BLACK);//设置字体颜色为黑色
;;;357                BUTTON_SetFont      (hItem,    &GUI_Font16B_ASCII);//设定按钮文本字体
;;;358                GUI_UC_SetEncodeUTF8();
;;;359                BUTTON_SetText(hItem, "C&DC");
;;;360            //
;;;361            // Initialization of 'Button'
;;;362            //
;;;363                hItem = WM_GetDialogItem(pMsg->hWin, ID_BUTTON_5);
;;;364                BUTTON_SetTextColor(hItem,0,GUI_BLACK);//设置字体颜色为黑色
;;;365                BUTTON_SetFont      (hItem,    &GUI_Font16B_ASCII);//设定按钮文本字体
;;;366                GUI_UC_SetEncodeUTF8();
;;;367                BUTTON_SetText(hItem, "GRAPH");
;;;368            }
;;;369    		
;;;370    		
;;;371    		hItem = WM_GetDialogItem(pMsg->hWin, ID_TEXT_9);
;;;372    		TEXT_SetTextColor(hItem, GUI_LIGHTGRAY);//设置字体颜色
;;;373            TEXT_SetFont(hItem,&GUI_FontEN40);//设定文本字体
;;;374    		GUI_UC_SetEncodeUTF8();
;;;375    		TEXT_SetText(hItem,"V:");
;;;376    		
;;;377    		hItem = WM_GetDialogItem(pMsg->hWin, ID_TEXT_10);
;;;378    		TEXT_SetTextColor(hItem, GUI_LIGHTGRAY);//设置字体颜色
;;;379            TEXT_SetFont(hItem,&GUI_FontEN40);//设定文本字体
;;;380    		GUI_UC_SetEncodeUTF8();
;;;381    		TEXT_SetText(hItem,"I:");
;;;382            
;;;383            hItem = WM_GetDialogItem(pMsg->hWin, ID_TEXT_15);
;;;384    		TEXT_SetTextColor(hItem, GUI_LIGHTGRAY);//设置字体颜色
;;;385            TEXT_SetFont(hItem,&GUI_FontEN40);//设定文本字体
;;;386    		GUI_UC_SetEncodeUTF8();
;;;387    		TEXT_SetText(hItem,"V");
;;;388    		
;;;389    		hItem = WM_GetDialogItem(pMsg->hWin, ID_TEXT_16);
;;;390    		TEXT_SetTextColor(hItem, GUI_LIGHTGRAY);//设置字体颜色
;;;391            TEXT_SetFont(hItem,&GUI_FontEN40);//设定文本字体
;;;392    		GUI_UC_SetEncodeUTF8();
;;;393    		TEXT_SetText(hItem,"A");
;;;394            
;;;395    		if(lang == 0)
;;;396            {
;;;397    			hItem = WM_GetDialogItem(pMsg->hWin, ID_TEXT_33);
;;;398    			TEXT_SetTextColor(hItem, GUI_BLACK);//设置字体颜色
;;;399    			TEXT_SetBkColor(hItem,0x00BFFFFF);
;;;400    			TEXT_SetFont(hItem,&GUI_Fontset_font);//设定文本字体
;;;401    			GUI_UC_SetEncodeUTF8();
;;;402    			TEXT_SetText(hItem,"输出电压");        
;;;403    			
;;;404    			hItem = WM_GetDialogItem(pMsg->hWin, ID_TEXT_34);
;;;405    			TEXT_SetTextColor(hItem, GUI_WHITE);//设置字体颜色
;;;406    			TEXT_SetFont(hItem,&GUI_Fontset_font);//设定文本字体
;;;407    			GUI_UC_SetEncodeUTF8();
;;;408    			TEXT_SetText(hItem,"限制电流");
;;;409    			
;;;410    			hItem = WM_GetDialogItem(pMsg->hWin, ID_TEXT_159);
;;;411    			TEXT_SetTextColor(hItem, GUI_WHITE);//设置字体颜色
;;;412    			TEXT_SetFont(hItem,&GUI_Fontset_font);//设定文本字体
;;;413    			GUI_UC_SetEncodeUTF8();
;;;414    			TEXT_SetText(hItem,"截止电流");
;;;415    		}else{
;;;416    			 hItem = WM_GetDialogItem(pMsg->hWin, ID_TEXT_33);
;;;417                TEXT_SetTextColor(hItem, GUI_BLACK);//设置字体颜色
;;;418                TEXT_SetBkColor(hItem,0x00BFFFFF);
;;;419                TEXT_SetFont(hItem,&GUI_Font20_ASCII);//设定文本字体
;;;420                GUI_UC_SetEncodeUTF8();
;;;421                TEXT_SetText(hItem,"Output V");        
;;;422                
;;;423                hItem = WM_GetDialogItem(pMsg->hWin, ID_TEXT_34);
;;;424                TEXT_SetTextColor(hItem, GUI_WHITE);//设置字体颜色
;;;425                TEXT_SetFont(hItem,&GUI_Font20_ASCII);//设定文本字体
;;;426                GUI_UC_SetEncodeUTF8();
;;;427                TEXT_SetText(hItem,"Limiting C");
;;;428    			
;;;429    			hItem = WM_GetDialogItem(pMsg->hWin, ID_TEXT_159);
;;;430    			TEXT_SetTextColor(hItem, GUI_WHITE);//设置字体颜色
;;;431    			TEXT_SetFont(hItem,&GUI_Font20_ASCII);//设定文本字体
;;;432    			GUI_UC_SetEncodeUTF8();
;;;433    			TEXT_SetText(hItem,"Cutoff C");
;;;434    		}
;;;435            
;;;436            hItem = WM_GetDialogItem(pMsg->hWin, ID_TEXT_41);
;;;437            sprintf(buf,"%.2f",dis_output_v);
;;;438    		TEXT_SetTextColor(hItem, GUI_WHITE);//设置字体颜色
;;;439            TEXT_SetFont(hItem,&GUI_Font24_1);//设定文本字体
;;;440    		GUI_UC_SetEncodeUTF8();        
;;;441    		TEXT_SetText(hItem,buf);
;;;442            
;;;443            hItem = WM_GetDialogItem(pMsg->hWin, ID_TEXT_42);
;;;444            sprintf(buf,"%.3f",dis_output_c);
;;;445    		TEXT_SetTextColor(hItem, GUI_WHITE);//设置字体颜色
;;;446            TEXT_SetFont(hItem,&GUI_Font24_1);//设定文本字体
;;;447    		GUI_UC_SetEncodeUTF8();        
;;;448    		TEXT_SetText(hItem,buf);
;;;449            
;;;450            hItem = WM_GetDialogItem(pMsg->hWin, ID_TEXT_86);
;;;451            sprintf(buf,"%.3f",0.00);
;;;452    		TEXT_SetTextColor(hItem, GUI_GREEN);//设置字体颜色
;;;453            TEXT_SetFont(hItem,&GUI_FontD24x32);//设定文本字体
;;;454    		GUI_UC_SetEncodeUTF8();        
;;;455    		TEXT_SetText(hItem,buf);
;;;456            
;;;457            hItem = WM_GetDialogItem(pMsg->hWin, ID_TEXT_87);
;;;458            sprintf(buf,"%.3f",0.000);
;;;459    		TEXT_SetTextColor(hItem, GUI_GREEN);//设置字体颜色
;;;460            TEXT_SetFont(hItem,&GUI_FontD24x32);//设定文本字体
;;;461    		GUI_UC_SetEncodeUTF8();        
;;;462    		TEXT_SetText(hItem,buf);
;;;463            
;;;464            hItem = WM_GetDialogItem(pMsg->hWin, ID_TEXT_115);
;;;465            sprintf(buf,"%05d",0);
;;;466            TEXT_SetTextColor(hItem, GUI_GREEN);//设置字体颜色
;;;467            TEXT_SetFont(hItem,&GUI_FontD24x32);//设定文本字体
;;;468            GUI_UC_SetEncodeUTF8();        
;;;469            TEXT_SetText(hItem,buf);
;;;470            
;;;471            hItem = WM_GetDialogItem(pMsg->hWin, ID_TEXT_125);
;;;472            TEXT_SetTextColor(hItem, GUI_GREEN);//设置字体颜色
;;;473            TEXT_SetFont(hItem,&GUI_Font24_1);//设定文本字体       
;;;474            sprintf(buf,"%.1f",temp);
;;;475            TEXT_SetText(hItem,buf);
;;;476            
;;;477            hItem = WM_GetDialogItem(pMsg->hWin, ID_TEXT_144);
;;;478            sprintf(buf,"%.3f",pow_cutoffc);
;;;479    		TEXT_SetTextColor(hItem, GUI_WHITE);//设置字体颜色
;;;480            TEXT_SetFont(hItem,&GUI_Font24_1);//设定文本字体
;;;481    		GUI_UC_SetEncodeUTF8();     
;;;482    		TEXT_SetText(hItem,buf);
;;;483            
;;;484        // USER START (Optionally insert additional code for further widget initialization)
;;;485        // USER END
;;;486        break;
;;;487      case WM_NOTIFY_PARENT:
;;;488        Id    = WM_GetId(pMsg->hWinSrc);
;;;489        NCode = pMsg->Data.v;
;;;490        switch(Id) {
;;;491        case ID_BUTTON_0: // Notifications sent by 'Button'
;;;492          switch(NCode) {
;;;493          case WM_NOTIFICATION_CLICKED:
;;;494            // USER START (Optionally insert code for reacting on notification message)
;;;495            // USER END
;;;496            break;
;;;497          case WM_NOTIFICATION_RELEASED:
;;;498            // USER START (Optionally insert code for reacting on notification message)
;;;499            // USER END
;;;500            break;
;;;501          // USER START (Optionally insert additional code for further notification handling)
;;;502          // USER END
;;;503          }
;;;504          break;
;;;505        case ID_BUTTON_1: // Notifications sent by 'Button'
;;;506          switch(NCode) {
;;;507          case WM_NOTIFICATION_CLICKED:
;;;508            // USER START (Optionally insert code for reacting on notification message)
;;;509            // USER END
;;;510            break;
;;;511          case WM_NOTIFICATION_RELEASED:
;;;512    				
;;;513            // USER START (Optionally insert code for reacting on notification message)
;;;514            // USER END
;;;515            break;
;;;516          // USER START (Optionally insert additional code for further notification handling)
;;;517          // USER END
;;;518          }
;;;519          break;
;;;520        case ID_BUTTON_2: // Notifications sent by 'Button'
;;;521          switch(NCode) {
;;;522          case WM_NOTIFICATION_CLICKED:
;;;523            // USER START (Optionally insert code for reacting on notification message)
;;;524            // USER END
;;;525            break;
;;;526          case WM_NOTIFICATION_RELEASED:
;;;527            // USER START (Optionally insert code for reacting on notification message)
;;;528            // USER END
;;;529            break;
;;;530          // USER START (Optionally insert additional code for further notification handling)
;;;531          // USER END
;;;532          }
;;;533          break;
;;;534        case ID_BUTTON_3: // Notifications sent by 'Button'
;;;535          switch(NCode) {
;;;536          case WM_NOTIFICATION_CLICKED:
;;;537            // USER START (Optionally insert code for reacting on notification message)
;;;538            // USER END
;;;539            break;
;;;540          case WM_NOTIFICATION_RELEASED:
;;;541            // USER START (Optionally insert code for reacting on notification message)
;;;542            // USER END
;;;543            break;
;;;544          // USER START (Optionally insert additional code for further notification handling)
;;;545          // USER END
;;;546          }
;;;547          break;
;;;548        case ID_BUTTON_4: // Notifications sent by 'Button'
;;;549          switch(NCode) {
;;;550          case WM_NOTIFICATION_CLICKED:
;;;551            // USER START (Optionally insert code for reacting on notification message)
;;;552            // USER END
;;;553            break;
;;;554          case WM_NOTIFICATION_RELEASED:
;;;555            // USER START (Optionally insert code for reacting on notification message)
;;;556            // USER END
;;;557            break;
;;;558          // USER START (Optionally insert additional code for further notification handling)
;;;559          // USER END
;;;560          }
;;;561          break;
;;;562        case ID_BUTTON_5: // Notifications sent by 'Button'
;;;563          switch(NCode) {
;;;564          case WM_NOTIFICATION_CLICKED:
;;;565            // USER START (Optionally insert code for reacting on notification message)
;;;566            // USER END
;;;567            break;
;;;568          case WM_NOTIFICATION_RELEASED:
;;;569            // USER START (Optionally insert code for reacting on notification message)
;;;570            // USER END
;;;571            break;
;;;572          // USER START (Optionally insert additional code for further notification handling)
;;;573          // USER END
;;;574          }
;;;575          break;
;;;576        // USER START (Optionally insert additional code for further Ids)
;;;577        // USER END
;;;578        }
;;;579        break;
;;;580      // USER START (Optionally insert additional message handling)
;;;581      // USER END
;;;582      default:
;;;583        WM_DefaultProc(pMsg);
000062  4620              MOV      r0,r4
000064  f7fffffe          BL       WM_DefaultProc
                  |L8.104|
;;;584        break;
;;;585      }
;;;586    }
000068  b003              ADD      sp,sp,#0xc
00006a  ecbd8b04          VPOP     {d8-d9}
00006e  e8bd8ff0          POP      {r4-r11,pc}
                  |L8.114|
000072  4628              MOV      r0,r5                 ;101
000074  f7fffffe          BL       GUI_SetColor
000078  231a              MOVS     r3,#0x1a              ;102
00007a  f44f72f0          MOV      r2,#0x1e0             ;102
00007e  2119              MOVS     r1,#0x19              ;102
000080  2000              MOVS     r0,#0                 ;102
000082  f7fffffe          BL       GUI_FillRect
000086  f24a50ff          MOV      r0,#0xa5ff            ;103
00008a  f7fffffe          BL       GUI_SetColor
00008e  48e7              LDR      r0,|L8.1068|
000090  f7fffffe          BL       GUI_SetFont
000094  f7fffffe          BL       GUI_UC_SetEncodeUTF8
000098  2002              MOVS     r0,#2                 ;106
00009a  f7fffffe          BL       GUI_SetTextMode
00009e  48e4              LDR      r0,|L8.1072|
0000a0  7800              LDRB     r0,[r0,#0]            ;107  ; jkflag
0000a2  2801              CMP      r0,#1                 ;107
0000a4  d104              BNE      |L8.176|
0000a6  2201              MOVS     r2,#1                 ;109
0000a8  2105              MOVS     r1,#5                 ;109
0000aa  a0e2              ADR      r0,|L8.1076|
0000ac  f7fffffe          BL       GUI_DispStringAt
                  |L8.176|
0000b0  7838              LDRB     r0,[r7,#0]            ;111  ; lang
0000b2  2800              CMP      r0,#0                 ;111
0000b4  d050              BEQ      |L8.344|
0000b6  4628              MOV      r0,r5                 ;119
0000b8  f7fffffe          BL       GUI_SetColor
0000bc  48df              LDR      r0,|L8.1084|
0000be  f7fffffe          BL       GUI_SetFont
0000c2  2203              MOVS     r2,#3                 ;121
0000c4  2182              MOVS     r1,#0x82              ;121
0000c6  a0de              ADR      r0,|L8.1088|
0000c8  f7fffffe          BL       GUI_DispStringAt
                  |L8.204|
0000cc  48de              LDR      r0,|L8.1096|
0000ce  f7fffffe          BL       GUI_SetFont
0000d2  f24014b3          MOV      r4,#0x1b3             ;129
0000d6  224b              MOVS     r2,#0x4b              ;129
0000d8  4621              MOV      r1,r4                 ;129
0000da  a0dc              ADR      r0,|L8.1100|
0000dc  f7fffffe          BL       GUI_DispStringAt
0000e0  2264              MOVS     r2,#0x64              ;130
0000e2  4621              MOV      r1,r4                 ;130
0000e4  a0da              ADR      r0,|L8.1104|
0000e6  f7fffffe          BL       GUI_DispStringAt
0000ea  2296              MOVS     r2,#0x96              ;131
0000ec  4621              MOV      r1,r4                 ;131
0000ee  a0d8              ADR      r0,|L8.1104|
0000f0  f7fffffe          BL       GUI_DispStringAt
0000f4  48d7              LDR      r0,|L8.1108|
0000f6  f7fffffe          BL       GUI_SetFont
0000fa  4650              MOV      r0,r10                ;134
0000fc  f7fffffe          BL       GUI_SetColor
000100  22be              MOVS     r2,#0xbe              ;135
000102  211c              MOVS     r1,#0x1c              ;135
000104  a0d4              ADR      r0,|L8.1112|
000106  f7fffffe          BL       GUI_DispStringAt
00010a  4650              MOV      r0,r10                ;136
00010c  f7fffffe          BL       GUI_SetColor
000110  22c4              MOVS     r2,#0xc4              ;137
000112  21f1              MOVS     r1,#0xf1              ;137
000114  a0d1              ADR      r0,|L8.1116|
000116  f7fffffe          BL       GUI_DispStringAt
00011a  22bb              MOVS     r2,#0xbb              ;138
00011c  f44f7183          MOV      r1,#0x106             ;138
000120  a0cf              ADR      r0,|L8.1120|
000122  f7fffffe          BL       GUI_DispStringAt
000126  4640              MOV      r0,r8                 ;140
000128  f7fffffe          BL       GUI_SetColor
00012c  48cd              LDR      r0,|L8.1124|
00012e  f7fffffe          BL       GUI_SetFont
000132  2202              MOVS     r2,#2                 ;142
000134  f44f71ab          MOV      r1,#0x156             ;142
000138  a0cb              ADR      r0,|L8.1128|
00013a  f7fffffe          BL       GUI_DispStringAt
00013e  48c2              LDR      r0,|L8.1096|
000140  f7fffffe          BL       GUI_SetFont
000144  2202              MOVS     r2,#2                 ;144
000146  f44f71af          MOV      r1,#0x15e             ;144
00014a  a0c8              ADR      r0,|L8.1132|
00014c  f7fffffe          BL       GUI_DispStringAt
                  |L8.336|
000150  e78a              B        |L8.104|
                  |L8.338|
000152  e13c              B        |L8.974|
                  |L8.340|
000154  e3ce              B        |L8.2292|
                  |L8.342|
000156  e010              B        |L8.378|
                  |L8.344|
000158  4628              MOV      r0,r5                 ;113
00015a  f7fffffe          BL       GUI_SetColor
00015e  48c4              LDR      r0,|L8.1136|
000160  f7fffffe          BL       GUI_SetFont
000164  f7fffffe          BL       GUI_UC_SetEncodeUTF8
000168  2002              MOVS     r0,#2                 ;116
00016a  f7fffffe          BL       GUI_SetTextMode
00016e  2203              MOVS     r2,#3                 ;117
000170  2182              MOVS     r1,#0x82              ;117
000172  a0c0              ADR      r0,|L8.1140|
000174  f7fffffe          BL       GUI_DispStringAt
000178  e7a8              B        |L8.204|
                  |L8.378|
00017a  68e0              LDR      r0,[r4,#0xc]          ;152
00017c  f7fffffe          BL       WM_GetTimerId
000180  2803              CMP      r0,#3                 ;152
000182  d1e5              BNE      |L8.336|
000184  48bf              LDR      r0,|L8.1156|
000186  7800              LDRB     r0,[r0,#0]            ;162  ; lock
000188  2801              CMP      r0,#1                 ;162
00018a  d01f              BEQ      |L8.460|
00018c  f640113c          MOV      r1,#0x93c             ;167
000190  6860              LDR      r0,[r4,#4]            ;167
000192  f7fffffe          BL       WM_GetDialogItem
000196  a1ba              ADR      r1,|L8.1152|
000198  f7fffffe          BL       TEXT_SetText
                  |L8.412|
00019c  f8df82e8          LDR      r8,|L8.1160|
0001a0  49ba              LDR      r1,|L8.1164|
0001a2  f8d80000          LDR      r0,[r8,#0]            ;170  ; disloadv
0001a6  4288              CMP      r0,r1                 ;170
0001a8  da19              BGE      |L8.478|
0001aa  f6400193          MOV      r1,#0x893             ;172
0001ae  6860              LDR      r0,[r4,#4]            ;172
0001b0  f7fffffe          BL       WM_GetDialogItem
0001b4  4605              MOV      r5,r0                 ;172
0001b6  ec532b18          VMOV     r2,r3,d8              ;173
0001ba  a1b5              ADR      r1,|L8.1168|
0001bc  4668              MOV      r0,sp                 ;173
0001be  f7fffffe          BL       __2sprintf
0001c2  4669              MOV      r1,sp                 ;174
0001c4  4628              MOV      r0,r5                 ;174
0001c6  f7fffffe          BL       TEXT_SetText
0001ca  e01e              B        |L8.522|
                  |L8.460|
0001cc  f640113c          MOV      r1,#0x93c             ;164
0001d0  6860              LDR      r0,[r4,#4]            ;164
0001d2  f7fffffe          BL       WM_GetDialogItem
0001d6  a1b0              ADR      r1,|L8.1176|
0001d8  f7fffffe          BL       TEXT_SetText
0001dc  e7de              B        |L8.412|
                  |L8.478|
0001de  f6400193          MOV      r1,#0x893             ;176
0001e2  6860              LDR      r0,[r4,#4]            ;176
0001e4  f7fffffe          BL       WM_GetDialogItem
0001e8  4605              MOV      r5,r0                 ;176
0001ea  f8d80000          LDR      r0,[r8,#0]            ;177  ; disloadv
0001ee  f7fffffe          BL       __aeabi_f2d
0001f2  ec410b10          VMOV     d0,r0,r1              ;177
0001f6  a1a6              ADR      r1,|L8.1168|
0001f8  ec532b10          VMOV     r2,r3,d0              ;177
0001fc  4668              MOV      r0,sp                 ;177
0001fe  f7fffffe          BL       __2sprintf
000202  4669              MOV      r1,sp                 ;178
000204  4628              MOV      r0,r5                 ;178
000206  f7fffffe          BL       TEXT_SetText
                  |L8.522|
00020a  7830              LDRB     r0,[r6,#0]            ;190  ; pow_sw
00020c  2500              MOVS     r5,#0                 ;207
00020e  f6400b95          MOV      r11,#0x895            ;207
000212  2801              CMP      r0,#1                 ;190
000214  d032              BEQ      |L8.636|
000216  4659              MOV      r1,r11                ;245
000218  6860              LDR      r0,[r4,#4]            ;245
00021a  f7fffffe          BL       WM_GetDialogItem
00021e  a198              ADR      r1,|L8.1152|
000220  f7fffffe          BL       TEXT_SetText
000224  f6400194          MOV      r1,#0x894             ;248
000228  6860              LDR      r0,[r4,#4]            ;248
00022a  f7fffffe          BL       WM_GetDialogItem
00022e  4607              MOV      r7,r0                 ;248
000230  ec532b18          VMOV     r2,r3,d8              ;249
000234  a196              ADR      r1,|L8.1168|
000236  4668              MOV      r0,sp                 ;249
000238  f7fffffe          BL       __2sprintf
00023c  4669              MOV      r1,sp                 ;250
00023e  4638              MOV      r0,r7                 ;250
000240  f7fffffe          BL       TEXT_SetText
000244  70b5              STRB     r5,[r6,#2]            ;252
                  |L8.582|
000246  f640110c          MOV      r1,#0x90c             ;258
00024a  6860              LDR      r0,[r4,#4]            ;258
00024c  f7fffffe          BL       WM_GetDialogItem
000250  4605              MOV      r5,r0                 ;258
000252  f8d90000          LDR      r0,[r9,#0]            ;259  ; temp
000256  f7fffffe          BL       __aeabi_f2d
00025a  ec410b10          VMOV     d0,r0,r1              ;259
00025e  a18f              ADR      r1,|L8.1180|
000260  ec532b10          VMOV     r2,r3,d0              ;259
000264  4668              MOV      r0,sp                 ;259
000266  f7fffffe          BL       __2sprintf
00026a  4669              MOV      r1,sp                 ;260
00026c  4628              MOV      r0,r5                 ;260
00026e  f7fffffe          BL       TEXT_SetText
000272  2132              MOVS     r1,#0x32              ;262
000274  68e0              LDR      r0,[r4,#0xc]          ;262
000276  f7fffffe          BL       WM_RestartTimer
00027a  e6f5              B        |L8.104|
                  |L8.636|
00027c  4889              LDR      r0,|L8.1188|
00027e  f8df8228          LDR      r8,|L8.1192|
000282  ed900a00          VLDR     s0,[r0,#0]            ;199
000286  eebd0ac0          VCVT.S32.F32 s0,s0                 ;199
00028a  ee100a10          VMOV     r0,s0                 ;199
00028e  f8c80000          STR      r0,[r8,#0]            ;199  ; battery_c
000292  f640110b          MOV      r1,#0x90b             ;200
000296  6860              LDR      r0,[r4,#4]            ;200
000298  f7fffffe          BL       WM_GetDialogItem
00029c  4682              MOV      r10,r0                ;200
00029e  f8d82000          LDR      r2,[r8,#0]            ;201  ; battery_c
0002a2  a182              ADR      r1,|L8.1196|
0002a4  4668              MOV      r0,sp                 ;201
0002a6  f7fffffe          BL       __2sprintf
0002aa  4669              MOV      r1,sp                 ;202
0002ac  4650              MOV      r0,r10                ;202
0002ae  f7fffffe          BL       TEXT_SetText
0002b2  f6400194          MOV      r1,#0x894             ;203
0002b6  6860              LDR      r0,[r4,#4]            ;203
0002b8  f7fffffe          BL       WM_GetDialogItem
0002bc  4682              MOV      r10,r0                ;203
0002be  f8df81f4          LDR      r8,|L8.1204|
0002c2  f8d80000          LDR      r0,[r8,#0]            ;204  ; DISS_POW_Current
0002c6  f7fffffe          BL       __aeabi_f2d
0002ca  ec410b10          VMOV     d0,r0,r1              ;204
0002ce  a170              ADR      r1,|L8.1168|
0002d0  ec532b10          VMOV     r2,r3,d0              ;204
0002d4  4668              MOV      r0,sp                 ;204
0002d6  f7fffffe          BL       __2sprintf
0002da  4669              MOV      r1,sp                 ;205
0002dc  4650              MOV      r0,r10                ;205
0002de  f7fffffe          BL       TEXT_SetText
0002e2  7870              LDRB     r0,[r6,#1]            ;206  ; status_flash
0002e4  b350              CBZ      r0,|L8.828|
0002e6  4659              MOV      r1,r11                ;221
0002e8  6860              LDR      r0,[r4,#4]            ;221
0002ea  f7fffffe          BL       WM_GetDialogItem
0002ee  a164              ADR      r1,|L8.1152|
0002f0  f7fffffe          BL       TEXT_SetText
0002f4  7075              STRB     r5,[r6,#1]            ;223
                  |L8.758|
0002f6  ed960a02          VLDR     s0,[r6,#8]            ;225
0002fa  4f6f              LDR      r7,|L8.1208|
0002fc  f8dfa1bc          LDR      r10,|L8.1212|
000300  eeb50ac0          VCMPE.F32 s0,#0.0               ;225
000304  f44f5b00          MOV      r11,#0x2000           ;228
000308  eef1fa10          VMRS     APSR_nzcv,FPSCR       ;225
00030c  d039              BEQ      |L8.898|
00030e  edd80a00          VLDR     s1,[r8,#0]            ;225
000312  eef40ac0          VCMPE.F32 s1,s0                 ;225
000316  eef1fa10          VMRS     APSR_nzcv,FPSCR       ;225
00031a  d232              BCS      |L8.898|
00031c  78b0              LDRB     r0,[r6,#2]            ;225  ; cdelay
00031e  2814              CMP      r0,#0x14              ;225
000320  d92f              BLS      |L8.898|
000322  2102              MOVS     r1,#2                 ;227
000324  4638              MOV      r0,r7                 ;227
000326  f7fffffe          BL       GPIO_ResetBits
00032a  4659              MOV      r1,r11                ;228
00032c  4638              MOV      r0,r7                 ;228
00032e  f7fffffe          BL       GPIO_SetBits
000332  f88a5000          STRB     r5,[r10,#0]           ;229
000336  7035              STRB     r5,[r6,#0]            ;230
000338  70b5              STRB     r5,[r6,#2]            ;231
00033a  e025              B        |L8.904|
                  |L8.828|
00033c  4659              MOV      r1,r11                ;207
00033e  6860              LDR      r0,[r4,#4]            ;207
000340  f7fffffe          BL       WM_GetDialogItem
000344  4682              MOV      r10,r0                ;207
000346  21ff              MOVS     r1,#0xff              ;208
000348  4650              MOV      r0,r10                ;208
00034a  f7fffffe          BL       TEXT_SetTextColor
00034e  7838              LDRB     r0,[r7,#0]            ;209  ; lang
000350  b160              CBZ      r0,|L8.876|
000352  493a              LDR      r1,|L8.1084|
000354  4650              MOV      r0,r10                ;215
000356  f7fffffe          BL       TEXT_SetFont
00035a  f7fffffe          BL       GUI_UC_SetEncodeUTF8
00035e  a158              ADR      r1,|L8.1216|
000360  4650              MOV      r0,r10                ;217
000362  f7fffffe          BL       TEXT_SetText
                  |L8.870|
000366  2001              MOVS     r0,#1                 ;219
000368  7070              STRB     r0,[r6,#1]            ;219
00036a  e7c4              B        |L8.758|
                  |L8.876|
00036c  4957              LDR      r1,|L8.1228|
00036e  4650              MOV      r0,r10                ;211
000370  f7fffffe          BL       TEXT_SetFont
000374  f7fffffe          BL       GUI_UC_SetEncodeUTF8
000378  a155              ADR      r1,|L8.1232|
00037a  4650              MOV      r0,r10                ;213
00037c  f7fffffe          BL       TEXT_SetText
000380  e7f1              B        |L8.870|
                  |L8.898|
000382  78b0              LDRB     r0,[r6,#2]            ;233  ; cdelay
000384  1c40              ADDS     r0,r0,#1              ;233
000386  70b0              STRB     r0,[r6,#2]            ;233
                  |L8.904|
000388  4854              LDR      r0,|L8.1244|
00038a  ed900a00          VLDR     s0,[r0,#0]            ;235
00038e  4854              LDR      r0,|L8.1248|
000390  edd00a00          VLDR     s1,[r0,#0]            ;235
000394  4853              LDR      r0,|L8.1252|
000396  ee600a20          VMUL.F32 s1,s0,s1              ;235
00039a  ee101a90          VMOV     r1,s1                 ;235
00039e  4281              CMP      r1,r0                 ;235
0003a0  dc08              BGT      |L8.948|
0003a2  edd80a00          VLDR     s1,[r8,#0]            ;235
0003a6  ee200a20          VMUL.F32 s0,s0,s1              ;235
0003aa  ee101a10          VMOV     r1,s0                 ;235
0003ae  4281              CMP      r1,r0                 ;235
0003b0  f77faf49          BLE      |L8.582|
                  |L8.948|
0003b4  2102              MOVS     r1,#2                 ;237
0003b6  4638              MOV      r0,r7                 ;237
0003b8  f7fffffe          BL       GPIO_ResetBits
0003bc  4659              MOV      r1,r11                ;238
0003be  4638              MOV      r0,r7                 ;238
0003c0  f7fffffe          BL       GPIO_SetBits
0003c4  f88a5000          STRB     r5,[r10,#0]           ;239
0003c8  7035              STRB     r5,[r6,#0]            ;240
0003ca  70b5              STRB     r5,[r6,#2]            ;241
0003cc  e73b              B        |L8.582|
                  |L8.974|
0003ce  f8d4b004          LDR      r11,[r4,#4]           ;269
0003d2  2100              MOVS     r1,#0                 ;270
0003d4  4658              MOV      r0,r11                ;270
0003d6  f7fffffe          BL       WINDOW_SetBkColor
0003da  2300              MOVS     r3,#0                 ;271
0003dc  f44f727a          MOV      r2,#0x3e8             ;271
0003e0  2103              MOVS     r1,#3                 ;271
0003e2  4658              MOV      r0,r11                ;271
0003e4  f7fffffe          BL       WM_CreateTimer
0003e8  f640113c          MOV      r1,#0x93c             ;283
0003ec  6860              LDR      r0,[r4,#4]            ;283
0003ee  f7fffffe          BL       WM_GetDialogItem
0003f2  4683              MOV      r11,r0                ;283
0003f4  21ff              MOVS     r1,#0xff              ;284
0003f6  4658              MOV      r0,r11                ;284
0003f8  f7fffffe          BL       TEXT_SetTextColor
0003fc  493a              LDR      r1,|L8.1256|
0003fe  4658              MOV      r0,r11                ;285
000400  f7fffffe          BL       TEXT_SetFont
000404  a11e              ADR      r1,|L8.1152|
000406  e071              B        |L8.1260|
                  |L8.1032|
                          DCD      Run_Control
                  |L8.1036|
00040c  42c80000          DCFS     0x42c80000 ; 100
                  |L8.1040|
000410  447a0000          DCFS     0x447a0000 ; 1000
                  |L8.1044|
                          DCD      0x00d3d3d3
                  |L8.1048|
                          DCD      lang
                  |L8.1052|
                          DCD      temp
                  |L8.1056|
000420  00000000          DCFD     0x0000000000000000 ; 0
000424  00000000
                  |L8.1064|
                          DCD      ||.data||
                  |L8.1068|
                          DCD      GUI_Fontsymbol
                  |L8.1072|
                          DCD      jkflag
                  |L8.1076|
000434  4a696e6b          DCB      "Jinko",0
000438  6f00    
00043a  00                DCB      0
00043b  00                DCB      0
                  |L8.1084|
                          DCD      GUI_Font20_ASCII
                  |L8.1088|
000440  44495350          DCB      "DISPLAY",0
000444  4c415900
                  |L8.1096|
                          DCD      GUI_Font24_1
                  |L8.1100|
00044c  5600              DCB      "V",0
00044e  00                DCB      0
00044f  00                DCB      0
                  |L8.1104|
000450  4100              DCB      "A",0
000452  00                DCB      0
000453  00                DCB      0
                  |L8.1108|
                          DCD      GUI_FontEN40
                  |L8.1112|
000458  433a00            DCB      "C:",0
00045b  00                DCB      0
                  |L8.1116|
00045c  6d00              DCB      "m",0
00045e  00                DCB      0
00045f  00                DCB      0
                  |L8.1120|
000460  414800            DCB      "AH",0
000463  00                DCB      0
                  |L8.1124|
                          DCD      GUI_Fontunit
                  |L8.1128|
000468  c2b000            DCB      194,176,0
00046b  00                DCB      0
                  |L8.1132|
00046c  4300              DCB      "C",0
00046e  00                DCB      0
00046f  00                DCB      0
                  |L8.1136|
                          DCD      GUI_FontHZ20S
                  |L8.1140|
000474  e6b58be9          DCB      230,181,139,233,135,143,230,152,190,231,164,186
000478  878fe698
00047c  bee7a4ba
                  |L8.1152|
000480  00                DCB      0
000481  00                DCB      0
000482  00                DCB      0
000483  00                DCB      0
                  |L8.1156|
                          DCD      lock
                  |L8.1160|
                          DCD      disloadv
                  |L8.1164|
                          DCD      0x3dcccccd
                  |L8.1168|
000490  252e3366          DCB      "%.3f",0
000494  00      
000495  00                DCB      0
000496  00                DCB      0
000497  00                DCB      0
                  |L8.1176|
000498  e9948100          DCB      233,148,129,0
                  |L8.1180|
00049c  252e3166          DCB      "%.1f",0
0004a0  00      
0004a1  00                DCB      0
0004a2  00                DCB      0
0004a3  00                DCB      0
                  |L8.1188|
                          DCD      bc_raw
                  |L8.1192|
                          DCD      battery_c
                  |L8.1196|
0004ac  25303664          DCB      "%06d",0
0004b0  00      
0004b1  00                DCB      0
0004b2  00                DCB      0
0004b3  00                DCB      0
                  |L8.1204|
                          DCD      DISS_POW_Current
                  |L8.1208|
                          DCD      0x40020800
                  |L8.1212|
                          DCD      mode_sw
                  |L8.1216|
0004c0  43686172          DCB      "Charging",0
0004c4  67696e67
0004c8  00      
0004c9  00                DCB      0
0004ca  00                DCB      0
0004cb  00                DCB      0
                  |L8.1228|
                          DCD      GUI_FontHZ16
                  |L8.1232|
0004d0  e58585e7          DCB      229,133,133,231,148,181,228,184,173,0
0004d4  94b5e4b8
0004d8  ad00    
0004da  00                DCB      0
0004db  00                DCB      0
                  |L8.1244|
                          DCD      DISS_Voltage
                  |L8.1248|
                          DCD      DISS_Current
                  |L8.1252|
                          DCD      0x43480000
                  |L8.1256|
                          DCD      GUI_FontHZ14
                  |L8.1260|
0004ec  4658              MOV      r0,r11                ;286
0004ee  f7fffffe          BL       TEXT_SetText
0004f2  7838              LDRB     r0,[r7,#0]            ;289  ; lang
0004f4  f6400102          MOV      r1,#0x802             ;291
0004f8  f6400b03          MOV      r11,#0x803            ;299
0004fc  2800              CMP      r0,#0                 ;289
0004fe  d07c              BEQ      |L8.1530|
000500  6860              LDR      r0,[r4,#4]            ;330
000502  f7fffffe          BL       WM_GetDialogItem
000506  9002              STR      r0,[sp,#8]            ;330
000508  2200              MOVS     r2,#0                 ;331
00050a  4611              MOV      r1,r2                 ;331
00050c  9802              LDR      r0,[sp,#8]            ;331
00050e  f7fffffe          BL       BUTTON_SetTextColor
000512  49f9              LDR      r1,|L8.2296|
000514  9802              LDR      r0,[sp,#8]            ;332
000516  f7fffffe          BL       BUTTON_SetFont
00051a  f7fffffe          BL       GUI_UC_SetEncodeUTF8
00051e  a1f7              ADR      r1,|L8.2300|
000520  9802              LDR      r0,[sp,#8]            ;334
000522  f7fffffe          BL       BUTTON_SetText
000526  4659              MOV      r1,r11                ;338
000528  6860              LDR      r0,[r4,#4]            ;338
00052a  f7fffffe          BL       WM_GetDialogItem
00052e  4683              MOV      r11,r0                ;338
000530  2200              MOVS     r2,#0                 ;339
000532  4611              MOV      r1,r2                 ;339
000534  4658              MOV      r0,r11                ;339
000536  f7fffffe          BL       BUTTON_SetTextColor
00053a  49ef              LDR      r1,|L8.2296|
00053c  4658              MOV      r0,r11                ;340
00053e  f7fffffe          BL       BUTTON_SetFont
000542  f7fffffe          BL       GUI_UC_SetEncodeUTF8
000546  a1f0              ADR      r1,|L8.2312|
000548  4658              MOV      r0,r11                ;342
00054a  f7fffffe          BL       BUTTON_SetText
00054e  f6400104          MOV      r1,#0x804             ;346
000552  6860              LDR      r0,[r4,#4]            ;346
000554  f7fffffe          BL       WM_GetDialogItem
000558  4683              MOV      r11,r0                ;346
00055a  2101              MOVS     r1,#1                 ;347
00055c  4658              MOV      r0,r11                ;347
00055e  f7fffffe          BL       BUTTON_SetPressed
000562  2200              MOVS     r2,#0                 ;348
000564  4611              MOV      r1,r2                 ;348
000566  4658              MOV      r0,r11                ;348
000568  f7fffffe          BL       BUTTON_SetTextColor
00056c  49e2              LDR      r1,|L8.2296|
00056e  4658              MOV      r0,r11                ;349
000570  f7fffffe          BL       BUTTON_SetFont
000574  f7fffffe          BL       GUI_UC_SetEncodeUTF8
000578  a1e5              ADR      r1,|L8.2320|
00057a  4658              MOV      r0,r11                ;351
00057c  f7fffffe          BL       BUTTON_SetText
000580  f6400105          MOV      r1,#0x805             ;355
000584  6860              LDR      r0,[r4,#4]            ;355
000586  f7fffffe          BL       WM_GetDialogItem
00058a  4683              MOV      r11,r0                ;355
00058c  2200              MOVS     r2,#0                 ;356
00058e  4611              MOV      r1,r2                 ;356
000590  4658              MOV      r0,r11                ;356
000592  f7fffffe          BL       BUTTON_SetTextColor
000596  49d8              LDR      r1,|L8.2296|
000598  4658              MOV      r0,r11                ;357
00059a  f7fffffe          BL       BUTTON_SetFont
00059e  f7fffffe          BL       GUI_UC_SetEncodeUTF8
0005a2  a1dd              ADR      r1,|L8.2328|
0005a4  4658              MOV      r0,r11                ;359
0005a6  f7fffffe          BL       BUTTON_SetText
0005aa  f6400106          MOV      r1,#0x806             ;363
0005ae  6860              LDR      r0,[r4,#4]            ;363
0005b0  f7fffffe          BL       WM_GetDialogItem
0005b4  4683              MOV      r11,r0                ;363
0005b6  2200              MOVS     r2,#0                 ;364
0005b8  4611              MOV      r1,r2                 ;364
0005ba  4658              MOV      r0,r11                ;364
0005bc  f7fffffe          BL       BUTTON_SetTextColor
0005c0  49cd              LDR      r1,|L8.2296|
0005c2  4658              MOV      r0,r11                ;365
0005c4  f7fffffe          BL       BUTTON_SetFont
0005c8  f7fffffe          BL       GUI_UC_SetEncodeUTF8
0005cc  a1d4              ADR      r1,|L8.2336|
0005ce  4658              MOV      r0,r11                ;367
0005d0  f7fffffe          BL       BUTTON_SetText
                  |L8.1492|
0005d4  f6400107          MOV      r1,#0x807             ;371
0005d8  6860              LDR      r0,[r4,#4]            ;371
0005da  f7fffffe          BL       WM_GetDialogItem
0005de  4683              MOV      r11,r0                ;371
0005e0  4651              MOV      r1,r10                ;372
0005e2  4658              MOV      r0,r11                ;372
0005e4  f7fffffe          BL       TEXT_SetTextColor
0005e8  49cf              LDR      r1,|L8.2344|
0005ea  4658              MOV      r0,r11                ;373
0005ec  f7fffffe          BL       TEXT_SetFont
0005f0  f7fffffe          BL       GUI_UC_SetEncodeUTF8
0005f4  a1cd              ADR      r1,|L8.2348|
0005f6  4658              MOV      r0,r11                ;375
0005f8  e000              B        |L8.1532|
                  |L8.1530|
0005fa  e157              B        |L8.2220|
                  |L8.1532|
0005fc  f7fffffe          BL       TEXT_SetText
000600  f6400108          MOV      r1,#0x808             ;377
000604  6860              LDR      r0,[r4,#4]            ;377
000606  f7fffffe          BL       WM_GetDialogItem
00060a  4683              MOV      r11,r0                ;377
00060c  4651              MOV      r1,r10                ;378
00060e  4658              MOV      r0,r11                ;378
000610  f7fffffe          BL       TEXT_SetTextColor
000614  49c4              LDR      r1,|L8.2344|
000616  4658              MOV      r0,r11                ;379
000618  f7fffffe          BL       TEXT_SetFont
00061c  f7fffffe          BL       GUI_UC_SetEncodeUTF8
000620  a1c3              ADR      r1,|L8.2352|
000622  4658              MOV      r0,r11                ;381
000624  f7fffffe          BL       TEXT_SetText
000628  f44f6102          MOV      r1,#0x820             ;383
00062c  6860              LDR      r0,[r4,#4]            ;383
00062e  f7fffffe          BL       WM_GetDialogItem
000632  4683              MOV      r11,r0                ;383
000634  4651              MOV      r1,r10                ;384
000636  4658              MOV      r0,r11                ;384
000638  f7fffffe          BL       TEXT_SetTextColor
00063c  49ba              LDR      r1,|L8.2344|
00063e  4658              MOV      r0,r11                ;385
000640  f7fffffe          BL       TEXT_SetFont
000644  f7fffffe          BL       GUI_UC_SetEncodeUTF8
000648  f2af2100          ADR      r1,|L8.1100|
00064c  4658              MOV      r0,r11                ;387
00064e  f7fffffe          BL       TEXT_SetText
000652  f6400121          MOV      r1,#0x821             ;389
000656  6860              LDR      r0,[r4,#4]            ;389
000658  f7fffffe          BL       WM_GetDialogItem
00065c  4683              MOV      r11,r0                ;389
00065e  4651              MOV      r1,r10                ;390
000660  4658              MOV      r0,r11                ;390
000662  f7fffffe          BL       TEXT_SetTextColor
000666  49b0              LDR      r1,|L8.2344|
000668  4658              MOV      r0,r11                ;391
00066a  f7fffffe          BL       TEXT_SetFont
00066e  f7fffffe          BL       GUI_UC_SetEncodeUTF8
000672  f2af2124          ADR      r1,|L8.1104|
000676  4658              MOV      r0,r11                ;393
000678  f7fffffe          BL       TEXT_SetText
00067c  7838              LDRB     r0,[r7,#0]            ;395  ; lang
00067e  4fad              LDR      r7,|L8.2356|
000680  f640013d          MOV      r1,#0x83d             ;397
000684  f6400a3e          MOV      r10,#0x83e            ;404
000688  f6401b3a          MOV      r11,#0x93a            ;410
00068c  2800              CMP      r0,#0                 ;395
00068e  d07d              BEQ      |L8.1932|
000690  6860              LDR      r0,[r4,#4]            ;416
000692  f7fffffe          BL       WM_GetDialogItem
000696  9002              STR      r0,[sp,#8]            ;416
000698  2100              MOVS     r1,#0                 ;417
00069a  9802              LDR      r0,[sp,#8]            ;417
00069c  f7fffffe          BL       TEXT_SetTextColor
0006a0  4639              MOV      r1,r7                 ;418
0006a2  9802              LDR      r0,[sp,#8]            ;418
0006a4  f7fffffe          BL       TEXT_SetBkColor
0006a8  49a3              LDR      r1,|L8.2360|
0006aa  9802              LDR      r0,[sp,#8]            ;419
0006ac  f7fffffe          BL       TEXT_SetFont
0006b0  f7fffffe          BL       GUI_UC_SetEncodeUTF8
0006b4  a1a1              ADR      r1,|L8.2364|
0006b6  9802              LDR      r0,[sp,#8]            ;421
0006b8  f7fffffe          BL       TEXT_SetText
0006bc  4651              MOV      r1,r10                ;423
0006be  6860              LDR      r0,[r4,#4]            ;423
0006c0  f7fffffe          BL       WM_GetDialogItem
0006c4  4607              MOV      r7,r0                 ;423
0006c6  4629              MOV      r1,r5                 ;424
0006c8  4638              MOV      r0,r7                 ;424
0006ca  f7fffffe          BL       TEXT_SetTextColor
0006ce  499a              LDR      r1,|L8.2360|
0006d0  4638              MOV      r0,r7                 ;425
0006d2  f7fffffe          BL       TEXT_SetFont
0006d6  f7fffffe          BL       GUI_UC_SetEncodeUTF8
0006da  a19b              ADR      r1,|L8.2376|
0006dc  4638              MOV      r0,r7                 ;427
0006de  f7fffffe          BL       TEXT_SetText
0006e2  4659              MOV      r1,r11                ;429
0006e4  6860              LDR      r0,[r4,#4]            ;429
0006e6  f7fffffe          BL       WM_GetDialogItem
0006ea  4607              MOV      r7,r0                 ;429
0006ec  4629              MOV      r1,r5                 ;430
0006ee  4638              MOV      r0,r7                 ;430
0006f0  f7fffffe          BL       TEXT_SetTextColor
0006f4  4990              LDR      r1,|L8.2360|
0006f6  4638              MOV      r0,r7                 ;431
0006f8  f7fffffe          BL       TEXT_SetFont
0006fc  f7fffffe          BL       GUI_UC_SetEncodeUTF8
000700  a194              ADR      r1,|L8.2388|
000702  4638              MOV      r0,r7                 ;433
000704  f7fffffe          BL       TEXT_SetText
                  |L8.1800|
000708  f6400166          MOV      r1,#0x866             ;436
00070c  6860              LDR      r0,[r4,#4]            ;436
00070e  f7fffffe          BL       WM_GetDialogItem
000712  4607              MOV      r7,r0                 ;436
000714  ee190a90          VMOV     r0,s19                ;437
000718  f7fffffe          BL       __aeabi_f2d
00071c  ec410b10          VMOV     d0,r0,r1              ;437
000720  a18f              ADR      r1,|L8.2400|
000722  ec532b10          VMOV     r2,r3,d0              ;437
000726  4668              MOV      r0,sp                 ;437
000728  f7fffffe          BL       __2sprintf
00072c  4629              MOV      r1,r5                 ;438
00072e  4638              MOV      r0,r7                 ;438
000730  f7fffffe          BL       TEXT_SetTextColor
000734  498c              LDR      r1,|L8.2408|
000736  4638              MOV      r0,r7                 ;439
000738  f7fffffe          BL       TEXT_SetFont
00073c  f7fffffe          BL       GUI_UC_SetEncodeUTF8
000740  4669              MOV      r1,sp                 ;441
000742  4638              MOV      r0,r7                 ;441
000744  f7fffffe          BL       TEXT_SetText
000748  f6400167          MOV      r1,#0x867             ;443
00074c  6860              LDR      r0,[r4,#4]            ;443
00074e  f7fffffe          BL       WM_GetDialogItem
000752  4607              MOV      r7,r0                 ;443
000754  ee190a10          VMOV     r0,s18                ;444
000758  f7fffffe          BL       __aeabi_f2d
00075c  ec410b10          VMOV     d0,r0,r1              ;444
000760  ec532b10          VMOV     r2,r3,d0              ;444
000764  f2af21d8          ADR      r1,|L8.1168|
000768  4668              MOV      r0,sp                 ;444
00076a  f7fffffe          BL       __2sprintf
00076e  4629              MOV      r1,r5                 ;445
000770  4638              MOV      r0,r7                 ;445
000772  f7fffffe          BL       TEXT_SetTextColor
000776  497c              LDR      r1,|L8.2408|
000778  4638              MOV      r0,r7                 ;446
00077a  f7fffffe          BL       TEXT_SetFont
00077e  f7fffffe          BL       GUI_UC_SetEncodeUTF8
000782  4669              MOV      r1,sp                 ;448
000784  4638              MOV      r0,r7                 ;448
000786  f7fffffe          BL       TEXT_SetText
00078a  e000              B        |L8.1934|
                  |L8.1932|
00078c  e146              B        |L8.2588|
                  |L8.1934|
00078e  f6400193          MOV      r1,#0x893             ;450
000792  6860              LDR      r0,[r4,#4]            ;450
000794  f7fffffe          BL       WM_GetDialogItem
000798  4607              MOV      r7,r0                 ;450
00079a  ec532b18          VMOV     r2,r3,d8              ;451
00079e  f2af3110          ADR      r1,|L8.1168|
0007a2  4668              MOV      r0,sp                 ;451
0007a4  f7fffffe          BL       __2sprintf
0007a8  4641              MOV      r1,r8                 ;452
0007aa  4638              MOV      r0,r7                 ;452
0007ac  f7fffffe          BL       TEXT_SetTextColor
0007b0  496e              LDR      r1,|L8.2412|
0007b2  4638              MOV      r0,r7                 ;453
0007b4  f7fffffe          BL       TEXT_SetFont
0007b8  f7fffffe          BL       GUI_UC_SetEncodeUTF8
0007bc  4669              MOV      r1,sp                 ;455
0007be  4638              MOV      r0,r7                 ;455
0007c0  f7fffffe          BL       TEXT_SetText
0007c4  f6400194          MOV      r1,#0x894             ;457
0007c8  6860              LDR      r0,[r4,#4]            ;457
0007ca  f7fffffe          BL       WM_GetDialogItem
0007ce  4607              MOV      r7,r0                 ;457
0007d0  ec532b18          VMOV     r2,r3,d8              ;458
0007d4  f2af3148          ADR      r1,|L8.1168|
0007d8  4668              MOV      r0,sp                 ;458
0007da  f7fffffe          BL       __2sprintf
0007de  4641              MOV      r1,r8                 ;459
0007e0  4638              MOV      r0,r7                 ;459
0007e2  f7fffffe          BL       TEXT_SetTextColor
0007e6  4961              LDR      r1,|L8.2412|
0007e8  4638              MOV      r0,r7                 ;460
0007ea  f7fffffe          BL       TEXT_SetFont
0007ee  f7fffffe          BL       GUI_UC_SetEncodeUTF8
0007f2  4669              MOV      r1,sp                 ;462
0007f4  4638              MOV      r0,r7                 ;462
0007f6  f7fffffe          BL       TEXT_SetText
0007fa  f640110b          MOV      r1,#0x90b             ;464
0007fe  6860              LDR      r0,[r4,#4]            ;464
000800  f7fffffe          BL       WM_GetDialogItem
000804  4607              MOV      r7,r0                 ;464
000806  2200              MOVS     r2,#0                 ;465
000808  a159              ADR      r1,|L8.2416|
00080a  4668              MOV      r0,sp                 ;465
00080c  f7fffffe          BL       __2sprintf
000810  4641              MOV      r1,r8                 ;466
000812  4638              MOV      r0,r7                 ;466
000814  f7fffffe          BL       TEXT_SetTextColor
000818  4954              LDR      r1,|L8.2412|
00081a  4638              MOV      r0,r7                 ;467
00081c  f7fffffe          BL       TEXT_SetFont
000820  f7fffffe          BL       GUI_UC_SetEncodeUTF8
000824  4669              MOV      r1,sp                 ;469
000826  4638              MOV      r0,r7                 ;469
000828  f7fffffe          BL       TEXT_SetText
00082c  f640110c          MOV      r1,#0x90c             ;471
000830  6860              LDR      r0,[r4,#4]            ;471
000832  f7fffffe          BL       WM_GetDialogItem
000836  4607              MOV      r7,r0                 ;471
000838  4641              MOV      r1,r8                 ;472
00083a  4638              MOV      r0,r7                 ;472
00083c  f7fffffe          BL       TEXT_SetTextColor
000840  4949              LDR      r1,|L8.2408|
000842  4638              MOV      r0,r7                 ;473
000844  f7fffffe          BL       TEXT_SetFont
000848  f8d90000          LDR      r0,[r9,#0]            ;474  ; temp
00084c  f7fffffe          BL       __aeabi_f2d
000850  ec410b10          VMOV     d0,r0,r1              ;474
000854  ec532b10          VMOV     r2,r3,d0              ;474
000858  f2af31c0          ADR      r1,|L8.1180|
00085c  4668              MOV      r0,sp                 ;474
00085e  f7fffffe          BL       __2sprintf
000862  4669              MOV      r1,sp                 ;475
000864  4638              MOV      r0,r7                 ;475
000866  f7fffffe          BL       TEXT_SetText
00086a  f640112e          MOV      r1,#0x92e             ;477
00086e  6860              LDR      r0,[r4,#4]            ;477
000870  f7fffffe          BL       WM_GetDialogItem
000874  4604              MOV      r4,r0                 ;477
000876  68b0              LDR      r0,[r6,#8]            ;478  ; pow_cutoffc
000878  f7fffffe          BL       __aeabi_f2d
00087c  ec410b10          VMOV     d0,r0,r1              ;478
000880  ec532b10          VMOV     r2,r3,d0              ;478
000884  f2af31f8          ADR      r1,|L8.1168|
000888  4668              MOV      r0,sp                 ;478
00088a  f7fffffe          BL       __2sprintf
00088e  4629              MOV      r1,r5                 ;479
000890  4620              MOV      r0,r4                 ;479
000892  f7fffffe          BL       TEXT_SetTextColor
000896  4934              LDR      r1,|L8.2408|
000898  4620              MOV      r0,r4                 ;480
00089a  f7fffffe          BL       TEXT_SetFont
00089e  f7fffffe          BL       GUI_UC_SetEncodeUTF8
0008a2  4669              MOV      r1,sp                 ;482
0008a4  4620              MOV      r0,r4                 ;482
0008a6  f7fffffe          BL       TEXT_SetText
                  |L8.2218|
0008aa  e451              B        |L8.336|
                  |L8.2220|
0008ac  6860              LDR      r0,[r4,#4]            ;291
0008ae  f7fffffe          BL       WM_GetDialogItem
0008b2  9002              STR      r0,[sp,#8]            ;291
0008b4  2200              MOVS     r2,#0                 ;292
0008b6  4611              MOV      r1,r2                 ;292
0008b8  9802              LDR      r0,[sp,#8]            ;292
0008ba  f7fffffe          BL       BUTTON_SetTextColor
0008be  492e              LDR      r1,|L8.2424|
0008c0  9802              LDR      r0,[sp,#8]            ;293
0008c2  f7fffffe          BL       BUTTON_SetFont
0008c6  f7fffffe          BL       GUI_UC_SetEncodeUTF8
0008ca  a12c              ADR      r1,|L8.2428|
0008cc  9802              LDR      r0,[sp,#8]            ;295
0008ce  f7fffffe          BL       BUTTON_SetText
0008d2  4659              MOV      r1,r11                ;299
0008d4  6860              LDR      r0,[r4,#4]            ;299
0008d6  f7fffffe          BL       WM_GetDialogItem
0008da  4683              MOV      r11,r0                ;299
0008dc  2200              MOVS     r2,#0                 ;300
0008de  4611              MOV      r1,r2                 ;300
0008e0  4658              MOV      r0,r11                ;300
0008e2  f7fffffe          BL       BUTTON_SetTextColor
0008e6  4924              LDR      r1,|L8.2424|
0008e8  4658              MOV      r0,r11                ;301
0008ea  f7fffffe          BL       BUTTON_SetFont
0008ee  f7fffffe          BL       GUI_UC_SetEncodeUTF8
0008f2  e04b              B        |L8.2444|
                  |L8.2292|
0008f4  e0cf              B        |L8.2710|
0008f6  0000              DCW      0x0000
                  |L8.2296|
                          DCD      GUI_Font16B_ASCII
                  |L8.2300|
0008fc  492e522e          DCB      "I.R. TEST",0
000900  20544553
000904  5400    
000906  00                DCB      0
000907  00                DCB      0
                  |L8.2312|
000908  4c4f4144          DCB      "LOAD",0
00090c  00      
00090d  00                DCB      0
00090e  00                DCB      0
00090f  00                DCB      0
                  |L8.2320|
000910  504f5745          DCB      "POWER",0
000914  5200    
000916  00                DCB      0
000917  00                DCB      0
                  |L8.2328|
000918  43264443          DCB      "C&DC",0
00091c  00      
00091d  00                DCB      0
00091e  00                DCB      0
00091f  00                DCB      0
                  |L8.2336|
000920  47524150          DCB      "GRAPH",0
000924  4800    
000926  00                DCB      0
000927  00                DCB      0
                  |L8.2344|
                          DCD      GUI_FontEN40
                  |L8.2348|
00092c  563a00            DCB      "V:",0
00092f  00                DCB      0
                  |L8.2352|
000930  493a00            DCB      "I:",0
000933  00                DCB      0
                  |L8.2356|
                          DCD      0x00bfffff
                  |L8.2360|
                          DCD      GUI_Font20_ASCII
                  |L8.2364|
00093c  4f757470          DCB      "Output V",0
000940  75742056
000944  00      
000945  00                DCB      0
000946  00                DCB      0
000947  00                DCB      0
                  |L8.2376|
000948  4c696d69          DCB      "Limiting C",0
00094c  74696e67
000950  204300  
000953  00                DCB      0
                  |L8.2388|
000954  4375746f          DCB      "Cutoff C",0
000958  66662043
00095c  00      
00095d  00                DCB      0
00095e  00                DCB      0
00095f  00                DCB      0
                  |L8.2400|
000960  252e3266          DCB      "%.2f",0
000964  00      
000965  00                DCB      0
000966  00                DCB      0
000967  00                DCB      0
                  |L8.2408|
                          DCD      GUI_Font24_1
                  |L8.2412|
                          DCD      GUI_FontD24x32
                  |L8.2416|
000970  25303564          DCB      "%05d",0
000974  00      
000975  00                DCB      0
000976  00                DCB      0
000977  00                DCB      0
                  |L8.2424|
                          DCD      GUI_FontHZ16
                  |L8.2428|
00097c  e58685e9          DCB      229,134,133,233,152,187,230,181,139,232,175,149,0
000980  98bbe6b5
000984  8be8af95
000988  00      
000989  00                DCB      0
00098a  00                DCB      0
00098b  00                DCB      0
                  |L8.2444|
00098c  a144              ADR      r1,|L8.2720|
00098e  4658              MOV      r0,r11                ;303
000990  f7fffffe          BL       BUTTON_SetText
000994  f6400104          MOV      r1,#0x804             ;307
000998  6860              LDR      r0,[r4,#4]            ;307
00099a  f7fffffe          BL       WM_GetDialogItem
00099e  4683              MOV      r11,r0                ;307
0009a0  2101              MOVS     r1,#1                 ;308
0009a2  4658              MOV      r0,r11                ;308
0009a4  f7fffffe          BL       BUTTON_SetPressed
0009a8  2200              MOVS     r2,#0                 ;309
0009aa  4611              MOV      r1,r2                 ;309
0009ac  4658              MOV      r0,r11                ;309
0009ae  f7fffffe          BL       BUTTON_SetTextColor
0009b2  493f              LDR      r1,|L8.2736|
0009b4  4658              MOV      r0,r11                ;310
0009b6  f7fffffe          BL       BUTTON_SetFont
0009ba  f7fffffe          BL       GUI_UC_SetEncodeUTF8
0009be  a13d              ADR      r1,|L8.2740|
0009c0  4658              MOV      r0,r11                ;312
0009c2  f7fffffe          BL       BUTTON_SetText
0009c6  f6400105          MOV      r1,#0x805             ;316
0009ca  6860              LDR      r0,[r4,#4]            ;316
0009cc  f7fffffe          BL       WM_GetDialogItem
0009d0  4683              MOV      r11,r0                ;316
0009d2  2200              MOVS     r2,#0                 ;317
0009d4  4611              MOV      r1,r2                 ;317
0009d6  4658              MOV      r0,r11                ;317
0009d8  f7fffffe          BL       BUTTON_SetTextColor
0009dc  4934              LDR      r1,|L8.2736|
0009de  4658              MOV      r0,r11                ;318
0009e0  f7fffffe          BL       BUTTON_SetFont
0009e4  f7fffffe          BL       GUI_UC_SetEncodeUTF8
0009e8  a136              ADR      r1,|L8.2756|
0009ea  4658              MOV      r0,r11                ;320
0009ec  f7fffffe          BL       BUTTON_SetText
0009f0  f6400106          MOV      r1,#0x806             ;324
0009f4  6860              LDR      r0,[r4,#4]            ;324
0009f6  f7fffffe          BL       WM_GetDialogItem
0009fa  4683              MOV      r11,r0                ;324
0009fc  2200              MOVS     r2,#0                 ;325
0009fe  4611              MOV      r1,r2                 ;325
000a00  4658              MOV      r0,r11                ;325
000a02  f7fffffe          BL       BUTTON_SetTextColor
000a06  492a              LDR      r1,|L8.2736|
000a08  4658              MOV      r0,r11                ;326
000a0a  f7fffffe          BL       BUTTON_SetFont
000a0e  f7fffffe          BL       GUI_UC_SetEncodeUTF8
000a12  a12f              ADR      r1,|L8.2768|
000a14  4658              MOV      r0,r11                ;328
000a16  f7fffffe          BL       BUTTON_SetText
000a1a  e5db              B        |L8.1492|
                  |L8.2588|
000a1c  6860              LDR      r0,[r4,#4]            ;397
000a1e  f7fffffe          BL       WM_GetDialogItem
000a22  9002              STR      r0,[sp,#8]            ;397
000a24  2100              MOVS     r1,#0                 ;398
000a26  9802              LDR      r0,[sp,#8]            ;398
000a28  f7fffffe          BL       TEXT_SetTextColor
000a2c  4639              MOV      r1,r7                 ;399
000a2e  9802              LDR      r0,[sp,#8]            ;399
000a30  f7fffffe          BL       TEXT_SetBkColor
000a34  4928              LDR      r1,|L8.2776|
000a36  9802              LDR      r0,[sp,#8]            ;400
000a38  f7fffffe          BL       TEXT_SetFont
000a3c  f7fffffe          BL       GUI_UC_SetEncodeUTF8
000a40  a126              ADR      r1,|L8.2780|
000a42  9802              LDR      r0,[sp,#8]            ;402
000a44  f7fffffe          BL       TEXT_SetText
000a48  4651              MOV      r1,r10                ;404
000a4a  6860              LDR      r0,[r4,#4]            ;404
000a4c  f7fffffe          BL       WM_GetDialogItem
000a50  4607              MOV      r7,r0                 ;404
000a52  4629              MOV      r1,r5                 ;405
000a54  4638              MOV      r0,r7                 ;405
000a56  f7fffffe          BL       TEXT_SetTextColor
000a5a  491f              LDR      r1,|L8.2776|
000a5c  4638              MOV      r0,r7                 ;406
000a5e  f7fffffe          BL       TEXT_SetFont
000a62  f7fffffe          BL       GUI_UC_SetEncodeUTF8
000a66  a121              ADR      r1,|L8.2796|
000a68  4638              MOV      r0,r7                 ;408
000a6a  f7fffffe          BL       TEXT_SetText
000a6e  4659              MOV      r1,r11                ;410
000a70  6860              LDR      r0,[r4,#4]            ;410
000a72  f7fffffe          BL       WM_GetDialogItem
000a76  4607              MOV      r7,r0                 ;410
000a78  4629              MOV      r1,r5                 ;411
000a7a  4638              MOV      r0,r7                 ;411
000a7c  f7fffffe          BL       TEXT_SetTextColor
000a80  4915              LDR      r1,|L8.2776|
000a82  4638              MOV      r0,r7                 ;412
000a84  f7fffffe          BL       TEXT_SetFont
000a88  f7fffffe          BL       GUI_UC_SetEncodeUTF8
000a8c  a11b              ADR      r1,|L8.2812|
000a8e  4638              MOV      r0,r7                 ;414
000a90  f7fffffe          BL       TEXT_SetText
000a94  e638              B        |L8.1800|
                  |L8.2710|
000a96  68a0              LDR      r0,[r4,#8]            ;488
000a98  f7fffffe          BL       WM_GetId
000a9c  e705              B        |L8.2218|
;;;587    
                          ENDP

000a9e  0000              DCW      0x0000
                  |L8.2720|
000aa0  e7a88be6          DCB      231,168,139,230,142,167,232,180,159,232,189,189,0
000aa4  8ea7e8b4
000aa8  9fe8bdbd
000aac  00      
000aad  00                DCB      0
000aae  00                DCB      0
000aaf  00                DCB      0
                  |L8.2736|
                          DCD      GUI_FontHZ16
                  |L8.2740|
000ab4  e7a88be6          DCB      231,168,139,230,142,167,231,148,181,230,186,144,0
000ab8  8ea7e794
000abc  b5e6ba90
000ac0  00      
000ac1  00                DCB      0
000ac2  00                DCB      0
000ac3  00                DCB      0
                  |L8.2756|
000ac4  e58585e6          DCB      229,133,133,230,148,190,231,148,181,0
000ac8  94bee794
000acc  b500    
000ace  00                DCB      0
000acf  00                DCB      0
                  |L8.2768|
000ad0  e69bb2e7          DCB      230,155,178,231,186,191,0
000ad4  babf00  
000ad7  00                DCB      0
                  |L8.2776|
                          DCD      GUI_Fontset_font
                  |L8.2780|
000adc  e8be93e5          DCB      232,190,147,229,135,186,231,148,181,229,142,139,0
000ae0  87bae794
000ae4  b5e58e8b
000ae8  00      
000ae9  00                DCB      0
000aea  00                DCB      0
000aeb  00                DCB      0
                  |L8.2796|
000aec  e99990e5          DCB      233,153,144,229,136,182,231,148,181,230,181,129,0
000af0  88b6e794
000af4  b5e6b581
000af8  00      
000af9  00                DCB      0
000afa  00                DCB      0
000afb  00                DCB      0
                  |L8.2812|
000afc  e688aae6          DCB      230,136,170,230,173,162,231,148,181,230,181,129,0
000b00  ada2e794
000b04  b5e6b581
000b08  00      
000b09  00                DCB      0
000b0a  00                DCB      0
000b0b  00                DCB      0

                          AREA ||i.test_pow||, CODE, READONLY, ALIGN=2

                  test_pow PROC
;;;1327   
;;;1328   void test_pow(void)
000000  b570              PUSH     {r4-r6,lr}
;;;1329   {
;;;1330   
;;;1331       if(pow_sw == pow_on && para_set1 == set_1_on)
000002  4834              LDR      r0,|L9.212|
000004  7800              LDRB     r0,[r0,#0]  ; pow_sw
;;;1332       {
;;;1333           if(DISS_POW_Voltage*100 > set_max_v || DISS_POW_Voltage*100 < set_min_v || DISS_POW_Current * 100 > set_max_c || DISS_POW_Current * 100 < set_min_c)
;;;1334           {
;;;1335               if(para_set4 == set_4_on){
;;;1336                   BEEP_Tiggr();
;;;1337               }
;;;1338               TM1650_SET_LED(0x68,0x70);//FAIL灯
;;;1339               GPIO_SetBits(GPIOD,GPIO_Pin_12);//            
000006  4d34              LDR      r5,|L9.216|
000008  f44f5480          MOV      r4,#0x1000
00000c  2801              CMP      r0,#1                 ;1331
00000e  d103              BNE      |L9.24|
000010  4832              LDR      r0,|L9.220|
000012  7800              LDRB     r0,[r0,#0]            ;1331  ; para_set1
000014  28ff              CMP      r0,#0xff              ;1331
000016  d009              BEQ      |L9.44|
                  |L9.24|
;;;1340           }else{
;;;1341               GPIO_ResetBits(GPIOD,GPIO_Pin_12);
;;;1342               TM1650_SET_LED(0x48,0x71);
;;;1343               TM1650_SET_LED(0x68,0xF2);//PASS灯
;;;1344           }        
;;;1345       }else
;;;1346       {
;;;1347           TM1650_SET_LED(0x68,0x70);
000018  2170              MOVS     r1,#0x70
00001a  2068              MOVS     r0,#0x68
00001c  f7fffffe          BL       TM1650_SET_LED
;;;1348           GPIO_ResetBits(GPIOD,GPIO_Pin_12);//灭灯
000020  4621              MOV      r1,r4
000022  4628              MOV      r0,r5
000024  e8bd4070          POP      {r4-r6,lr}
000028  f7ffbffe          B.W      GPIO_ResetBits
                  |L9.44|
00002c  482c              LDR      r0,|L9.224|
00002e  eddf0a2d          VLDR     s1,|L9.228|
000032  4a2d              LDR      r2,|L9.232|
000034  ed900a00          VLDR     s0,[r0,#0]            ;1333
000038  6b93              LDR      r3,[r2,#0x38]         ;1333  ; Run_Control
00003a  ee200a20          VMUL.F32 s0,s0,s1              ;1333
00003e  ee013a10          VMOV     s2,r3                 ;1333
000042  eeb81a41          VCVT.F32.U32 s2,s2                 ;1333
000046  eeb40ac1          VCMPE.F32 s0,s2                 ;1333
00004a  eef1fa10          VMRS     APSR_nzcv,FPSCR       ;1333
00004e  dc22              BGT      |L9.150|
000050  6bd3              LDR      r3,[r2,#0x3c]         ;1333  ; Run_Control
000052  ee013a10          VMOV     s2,r3                 ;1333
000056  eeb81a41          VCVT.F32.U32 s2,s2                 ;1333
00005a  eeb40ac1          VCMPE.F32 s0,s2                 ;1333
00005e  eef1fa10          VMRS     APSR_nzcv,FPSCR       ;1333
000062  d318              BCC      |L9.150|
000064  4821              LDR      r0,|L9.236|
000066  ed900a00          VLDR     s0,[r0,#0]            ;1333
00006a  6c90              LDR      r0,[r2,#0x48]         ;1333  ; Run_Control
00006c  ee200a20          VMUL.F32 s0,s0,s1              ;1333
000070  ee000a90          VMOV     s1,r0                 ;1333
000074  eef80a60          VCVT.F32.U32 s1,s1                 ;1333
000078  eeb40ae0          VCMPE.F32 s0,s1                 ;1333
00007c  eef1fa10          VMRS     APSR_nzcv,FPSCR       ;1333
000080  dc09              BGT      |L9.150|
000082  6cd0              LDR      r0,[r2,#0x4c]         ;1333  ; Run_Control
000084  ee000a90          VMOV     s1,r0                 ;1333
000088  eef80a60          VCVT.F32.U32 s1,s1                 ;1333
00008c  eeb40ae0          VCMPE.F32 s0,s1                 ;1333
000090  eef1fa10          VMRS     APSR_nzcv,FPSCR       ;1333
000094  d20f              BCS      |L9.182|
                  |L9.150|
000096  4816              LDR      r0,|L9.240|
000098  7800              LDRB     r0,[r0,#0]            ;1335  ; para_set4
00009a  28ff              CMP      r0,#0xff              ;1335
00009c  d101              BNE      |L9.162|
00009e  f7fffffe          BL       BEEP_Tiggr
                  |L9.162|
0000a2  2170              MOVS     r1,#0x70              ;1338
0000a4  2068              MOVS     r0,#0x68              ;1338
0000a6  f7fffffe          BL       TM1650_SET_LED
0000aa  4621              MOV      r1,r4                 ;1339
0000ac  4628              MOV      r0,r5                 ;1339
0000ae  e8bd4070          POP      {r4-r6,lr}            ;1339
0000b2  f7ffbffe          B.W      GPIO_SetBits
                  |L9.182|
0000b6  4621              MOV      r1,r4                 ;1341
0000b8  4628              MOV      r0,r5                 ;1341
0000ba  f7fffffe          BL       GPIO_ResetBits
0000be  2171              MOVS     r1,#0x71              ;1342
0000c0  2048              MOVS     r0,#0x48              ;1342
0000c2  f7fffffe          BL       TM1650_SET_LED
0000c6  e8bd4070          POP      {r4-r6,lr}            ;1343
0000ca  21f2              MOVS     r1,#0xf2              ;1343
0000cc  2068              MOVS     r0,#0x68              ;1343
0000ce  f7ffbffe          B.W      TM1650_SET_LED
;;;1349       }
;;;1350   }
;;;1351   
                          ENDP

0000d2  0000              DCW      0x0000
                  |L9.212|
                          DCD      ||.data||
                  |L9.216|
                          DCD      0x40020c00
                  |L9.220|
                          DCD      para_set1
                  |L9.224|
                          DCD      DISS_POW_Voltage
                  |L9.228|
0000e4  42c80000          DCFS     0x42c80000 ; 100
                  |L9.232|
                          DCD      Run_Control
                  |L9.236|
                          DCD      DISS_POW_Current
                  |L9.240|
                          DCD      para_set4

                          AREA ||.constdata||, DATA, READONLY, ALIGN=2

                  _aDialogCreate1
                          DCD      WINDOW_CreateIndirect
                          DCD      ||.conststring||
000008  08000000          DCW      0x0800,0x0000
00000c  000001e0          DCW      0x0000,0x01e0
000010  01100000          DCW      0x0110,0x0000
                          DCD      0x00000000
                          DCD      0x00000000
                          DCD      BUTTON_CreateIndirect
                          DCD      ||.conststring||+0x8
000024  08020053          DCW      0x0802,0x0053
000028  00e2004d          DCW      0x00e2,0x004d
00002c  002d0000          DCW      0x002d,0x0000
                          DCD      0x00000000
                          DCD      0x00000000
                          DCD      BUTTON_CreateIndirect
                          DCD      ||.conststring||+0x8
000040  080300a3          DCW      0x0803,0x00a3
000044  00e2004d          DCW      0x00e2,0x004d
000048  002d0000          DCW      0x002d,0x0000
                          DCD      0x00000000
                          DCD      0x00000000
                          DCD      BUTTON_CreateIndirect
                          DCD      ||.conststring||+0x8
00005c  080400f3          DCW      0x0804,0x00f3
000060  00e2004d          DCW      0x00e2,0x004d
000064  002d0000          DCW      0x002d,0x0000
                          DCD      0x00000000
                          DCD      0x00000000
                          DCD      BUTTON_CreateIndirect
                          DCD      ||.conststring||+0x8
000078  08050143          DCW      0x0805,0x0143
00007c  00e2004d          DCW      0x00e2,0x004d
000080  002d0000          DCW      0x002d,0x0000
                          DCD      0x00000000
                          DCD      0x00000000
                          DCD      BUTTON_CreateIndirect
                          DCD      ||.conststring||+0x8
000094  08060193          DCW      0x0806,0x0193
000098  00e2004d          DCW      0x00e2,0x004d
00009c  002d0000          DCW      0x002d,0x0000
                          DCD      0x00000000
                          DCD      0x00000000
                          DCD      TEXT_CreateIndirect
                          DCD      ||.conststring||+0x10
0000b0  0807001c          DCW      0x0807,0x001c
0000b4  00320040          DCW      0x0032,0x0040
0000b8  00200000          DCW      0x0020,0x0000
                          DCD      0x00000064
                          DCD      0x00000000
                          DCD      TEXT_CreateIndirect
                          DCD      ||.conststring||+0x10
0000cc  0808001c          DCW      0x0808,0x001c
0000d0  00780040          DCW      0x0078,0x0040
0000d4  00200000          DCW      0x0020,0x0000
                          DCD      0x00000064
                          DCD      0x00000000
                          DCD      TEXT_CreateIndirect
                          DCD      ||.conststring||+0x10
0000e8  082000f0          DCW      0x0820,0x00f0
0000ec  00320020          DCW      0x0032,0x0020
0000f0  001e0000          DCW      0x001e,0x0000
                          DCD      0x00000000
                          DCD      0x00000000
                          DCD      TEXT_CreateIndirect
                          DCD      ||.conststring||+0x10
000104  082100f0          DCW      0x0821,0x00f0
000108  00790020          DCW      0x0079,0x0020
00010c  001e0000          DCW      0x001e,0x0000
                          DCD      0x00000000
                          DCD      0x00000000
                          DCD      TEXT_CreateIndirect
                          DCD      ||.conststring||+0x10
000120  083d0122          DCW      0x083d,0x0122
000124  004b0050          DCW      0x004b,0x0050
000128  00140000          DCW      0x0014,0x0000
                          DCD      0x00000000
                          DCD      0x00000000
                          DCD      TEXT_CreateIndirect
                          DCD      ||.conststring||+0x10
00013c  083e0122          DCW      0x083e,0x0122
000140  00640050          DCW      0x0064,0x0050
000144  00140000          DCW      0x0014,0x0000
                          DCD      0x00000000
                          DCD      0x00000000
                          DCD      TEXT_CreateIndirect
                          DCD      ||.conststring||+0x10
000158  0866017c          DCW      0x0866,0x017c
00015c  004b0035          DCW      0x004b,0x0035
000160  00140000          DCW      0x0014,0x0000
                          DCD      0x00000000
                          DCD      0x00000000
                          DCD      TEXT_CreateIndirect
                          DCD      ||.conststring||+0x10
000174  08670172          DCW      0x0867,0x0172
000178  00640041          DCW      0x0064,0x0041
00017c  00140000          DCW      0x0014,0x0000
                          DCD      0x00000000
                          DCD      0x00000000
                          DCD      TEXT_CreateIndirect
                          DCD      ||.conststring||+0x10
000190  0893005f          DCW      0x0893,0x005f
000194  00300096          DCW      0x0030,0x0096
000198  00280000          DCW      0x0028,0x0000
                          DCD      0x00000000
                          DCD      0x00000000
                          DCD      TEXT_CreateIndirect
                          DCD      ||.conststring||+0x10
0001ac  0894005f          DCW      0x0894,0x005f
0001b0  00740096          DCW      0x0074,0x0096
0001b4  00280000          DCW      0x0028,0x0000
                          DCD      0x00000000
                          DCD      0x00000000
                          DCD      TEXT_CreateIndirect
                          DCD      ||.conststring||+0x10
0001c8  08950190          DCW      0x0895,0x0190
0001cc  00040032          DCW      0x0004,0x0032
0001d0  00140000          DCW      0x0014,0x0000
                          DCD      0x00000000
                          DCD      0x00000000
                          DCD      TEXT_CreateIndirect
                          DCD      ||.conststring||+0x10
0001e4  090b005f          DCW      0x090b,0x005f
0001e8  00b80096          DCW      0x00b8,0x0096
0001ec  00280000          DCW      0x0028,0x0000
                          DCD      0x00000000
                          DCD      0x00000000
                          DCD      TEXT_CreateIndirect
                          DCD      ||.conststring||+0x10
000200  090c012c          DCW      0x090c,0x012c
000204  00020050          DCW      0x0002,0x0050
000208  00140000          DCW      0x0014,0x0000
                          DCD      0x00000000
                          DCD      0x00000000
                          DCD      TEXT_CreateIndirect
                          DCD      ||.conststring||+0x10
00021c  092e0172          DCW      0x092e,0x0172
000220  00960041          DCW      0x0096,0x0041
000224  00140000          DCW      0x0014,0x0000
                          DCD      0x00000000
                          DCD      0x00000000
                          DCD      TEXT_CreateIndirect
                          DCD      ||.conststring||+0x10
000238  093a0122          DCW      0x093a,0x0122
00023c  00960050          DCW      0x0096,0x0050
000240  00140000          DCW      0x0014,0x0000
                          DCD      0x00000000
                          DCD      0x00000000
                          DCD      TEXT_CreateIndirect
                          DCD      ||.conststring||+0x10
000254  093c017c          DCW      0x093c,0x017c
000258  00080014          DCW      0x0008,0x0014
00025c  000f0000          DCW      0x000f,0x0000
                          DCD      0x00000000
                          DCD      0x00000000

                          AREA ||.conststring||, DATA, READONLY, MERGE=1, STRINGS, ALIGN=2

000000  57696e64          DCB      "Window",0
000004  6f7700  
000007  00                DCB      0
000008  42757474          DCB      "Button",0
00000c  6f6e00  
00000f  00                DCB      0
000010  54657874          DCB      "Text",0
000014  00      

                          AREA ||.data||, DATA, ALIGN=2

                  pow_sw
000000  00                DCB      0x00
                  status_flash
000001  00                DCB      0x00
                  cdelay
000002  0000              DCB      0x00,0x00
                  hWinWind
                          DCD      0x00000000
                  pow_cutoffc
                          DCD      0x00000000

;*** Start embedded assembler ***

#line 1 "..\\APP\\menu.c"
	AREA ||.rev16_text||, CODE
	THUMB
	EXPORT |__asm___6_menu_c_pow_sw____REV16|
#line 129 "E:\\Keil_v5\\ARM\\CMSIS\\Include\\core_cmInstr.h"
|__asm___6_menu_c_pow_sw____REV16| PROC
#line 130

 rev16 r0, r0
 bx lr
	ENDP
	AREA ||.revsh_text||, CODE
	THUMB
	EXPORT |__asm___6_menu_c_pow_sw____REVSH|
#line 144
|__asm___6_menu_c_pow_sw____REVSH| PROC
#line 145

 revsh r0, r0
 bx lr
	ENDP

;*** End   embedded assembler ***
