; generated by Component: ARM Compiler 5.06 update 6 (build 750) Tool: ArmCC [4d3637]
; commandline ArmCC [--list --split_sections --debug -c --asm --interleave -o..\output\r_face.o --asm_dir=..\Listing\ --list_dir=..\Listing\ --depend=..\output\r_face.d --cpu=Cortex-M4.fp --apcs=interwork -O1 --diag_suppress=9931,870 -I..\APP -I..\drive -I..\Include -I..\Libraries\CMSIS\inc -I..\Libraries\CMSIS\src -I..\Libraries\FWlib\inc -I..\Libraries\FWlib\src -I..\Listing -I..\Output -I..\Project -I..\STemWinLibrary522\Config -I..\STemWinLibrary522\emWinTask -I..\STemWinLibrary522\GUILib -I..\STemWinLibrary522\inc -I..\User -I..\USB\STM32_USB_HOST_Library\Class\HID\inc -I..\USB\STM32_USB_HOST_Library\Class\MSC\src -I..\USB\STM32_USB_HOST_Library\Core\src -I..\USB\USB_APP -I..\USB\STM32_USB_HOST_Library\Class\HID\src -I..\USB\STM32_USB_HOST_Library\Class\MSC\inc -I..\USB\STM32_USB_HOST_Library\Core\inc -I..\USB\STM32_USB_OTG_Driver\inc -I..\FATFS\exfuns -I..\FATFS\src\option -I..\FATFS\src -I..\MALLOC -I..\FATFS -I..\IAP -ID:\Keil_v5\ARM\RV31\INC -ID:\Keil_v5\ARM\CMSIS\Include -ID:\Keil_v5\ARM\INC\ST\STM32F4xx -D__UVISION_VERSION=525 -DUSE_STDPERIPH_DRIVER -DSTM32F40XX -DUSE_USB_OTG_FS -DUSE_EMBEDDED_PHY -DUSE_USB_OTG_HS -DSTM32F40XX --omf_browse=..\output\r_face.crf --no_multibyte_chars ..\APP\R_Face.c]
                          THUMB

                          AREA ||i.CreateR||, CODE, READONLY, ALIGN=2

                  CreateR PROC
;;;1268   WM_HWIN CreateR(void);
;;;1269   WM_HWIN CreateR(void) {
000000  b57c              PUSH     {r2-r6,lr}
;;;1270     oc_sw = set_81;
000002  4c13              LDR      r4,|L1.80|
000004  2050              MOVS     r0,#0x50
000006  71a0              STRB     r0,[r4,#6]
;;;1271     page_sw = face_r;
000008  2003              MOVS     r0,#3
00000a  70a0              STRB     r0,[r4,#2]
;;;1272     track = face_r;
00000c  4911              LDR      r1,|L1.84|
00000e  7008              STRB     r0,[r1,#0]
;;;1273       con_flag = 0;
000010  2500              MOVS     r5,#0
000012  71e5              STRB     r5,[r4,#7]
;;;1274       setmode_r();
000014  f7fffffe          BL       setmode_r
;;;1275   	C_SW(1);
000018  2001              MOVS     r0,#1
00001a  f7fffffe          BL       C_SW
;;;1276   //    GPIO_SetBits(GPIOA,GPIO_Pin_15);//电子负载OFF
;;;1277   //    GPIO_SetBits(GPIOB,GPIO_Pin_13);
;;;1278   //    r_raly = 1;
;;;1279   //  set_init_c = SET_Current_Laod;
;;;1280   //    r_raly = 1;
;;;1281     pass = 0;
00001e  480e              LDR      r0,|L1.88|
000020  7005              STRB     r5,[r0,#0]
;;;1282   	gate_v = (float)dis_gate_v/1000;
000022  8ae0              LDRH     r0,[r4,#0x16]  ; dis_gate_v
000024  eddf0a0d          VLDR     s1,|L1.92|
000028  ee000a10          VMOV     s0,r0
00002c  eeb80a40          VCVT.F32.U32 s0,s0
000030  ee801a20          VDIV.F32 s2,s0,s1
000034  ed841a07          VSTR     s2,[r4,#0x1c]
;;;1283     hWinR = GUI_CreateDialogBox(_aDialogCreate, GUI_COUNTOF(_aDialogCreate), _cbDialog, WM_HBKWIN, 0, 0);
000038  f7fffffe          BL       WM_GetDesktopWindow
00003c  4603              MOV      r3,r0
00003e  9500              STR      r5,[sp,#0]
000040  4a07              LDR      r2,|L1.96|
000042  212b              MOVS     r1,#0x2b
000044  4807              LDR      r0,|L1.100|
000046  9501              STR      r5,[sp,#4]
000048  f7fffffe          BL       GUI_CreateDialogBox
00004c  6220              STR      r0,[r4,#0x20]  ; hWinR
;;;1284     return hWinR;
;;;1285   }
00004e  bd7c              POP      {r2-r6,pc}
;;;1286   
                          ENDP

                  |L1.80|
                          DCD      ||.data||
                  |L1.84|
                          DCD      track
                  |L1.88|
                          DCD      pass
                  |L1.92|
00005c  447a0000          DCFS     0x447a0000 ; 1000
                  |L1.96|
                          DCD      _cbDialog
                  |L1.100|
                          DCD      ||.constdata||

                          AREA ||i.DEL_C||, CODE, READONLY, ALIGN=2

                  DEL_C PROC
;;;2145   }
;;;2146   void DEL_C(void){
000000  b570              PUSH     {r4-r6,lr}
;;;2147   	u8 i;
;;;2148       switch(oc_sw)
000002  4d59              LDR      r5,|L2.360|
000004  79a9              LDRB     r1,[r5,#6]  ; oc_sw
000006  4628              MOV      r0,r5
;;;2149       {
;;;2150           case set_22:
;;;2151           {
;;;2152               WM_HWIN hItem;
;;;2153   //            WM_InvalidateWindow(hWinR);
;;;2154               hItem = WM_GetDialogItem(hWinR, ID_TEXT_46);
;;;2155   			if(bit > 0)
;;;2156   			{
;;;2157   				bit --;
;;;2158   				set_limit[bit] = '\0';
000008  2400              MOVS     r4,#0
00000a  6a00              LDR      r0,[r0,#0x20]         ;2154
00000c  f1050640          ADD      r6,r5,#0x40
000010  2946              CMP      r1,#0x46              ;2148
000012  d064              BEQ      |L2.222|
000014  dc1b              BGT      |L2.78|
000016  2915              CMP      r1,#0x15              ;2148
000018  d035              BEQ      |L2.134|
00001a  2916              CMP      r1,#0x16              ;2148
00001c  d049              BEQ      |L2.178|
00001e  2940              CMP      r1,#0x40              ;2148
000020  d17e              BNE      |L2.288|
;;;2159   			}
;;;2160   			if(bit == dot_flag)
;;;2161   			{
;;;2162   				dot_flag = 0;
;;;2163   			}
;;;2164   			TEXT_SetText(hItem,set_limit);
;;;2165               break;        
;;;2166           }
;;;2167           case set_23:
;;;2168           {
;;;2169               WM_HWIN hItem;
;;;2170   //            WM_InvalidateWindow(hWinR);
;;;2171               hItem = WM_GetDialogItem(hWinR, ID_TEXT_47);
;;;2172   			if(bit > 0)
;;;2173   			{
;;;2174   				bit --;
;;;2175   				set_limit[bit] = '\0';
;;;2176   			}
;;;2177   			if(bit == dot_flag)
;;;2178   			{
;;;2179   				dot_flag = 0;
;;;2180   			}
;;;2181   			TEXT_SetText(hItem,set_limit);
;;;2182               break;        
;;;2183           }
;;;2184           case set_65:
;;;2185           {
;;;2186               WM_HWIN hItem;
;;;2187   //            WM_InvalidateWindow(hWinR);
;;;2188               hItem = WM_GetDialogItem(hWinR, ID_TEXT_97);
000022  f6401105          MOV      r1,#0x905
000026  f7fffffe          BL       WM_GetDialogItem
;;;2189   			if(bit > 0)
00002a  7829              LDRB     r1,[r5,#0]  ; bit
00002c  b121              CBZ      r1,|L2.56|
;;;2190   			{
;;;2191   				bit --;
00002e  7829              LDRB     r1,[r5,#0]  ; bit
000030  1e49              SUBS     r1,r1,#1
000032  7029              STRB     r1,[r5,#0]
;;;2192   				set_limit[bit] = '\0';
000034  7829              LDRB     r1,[r5,#0]  ; bit
000036  5474              STRB     r4,[r6,r1]
                  |L2.56|
;;;2193   			}
;;;2194   			if(bit == dot_flag)
000038  7829              LDRB     r1,[r5,#0]  ; bit
00003a  786a              LDRB     r2,[r5,#1]  ; dot_flag
00003c  4291              CMP      r1,r2
00003e  d100              BNE      |L2.66|
;;;2195   			{
;;;2196   				dot_flag = 0;
000040  706c              STRB     r4,[r5,#1]
                  |L2.66|
;;;2197   			}
;;;2198   			TEXT_SetText(hItem,set_limit);
000042  e8bd4070          POP      {r4-r6,lr}
000046  4948              LDR      r1,|L2.360|
000048  3140              ADDS     r1,r1,#0x40
00004a  f7ffbffe          B.W      TEXT_SetText
                  |L2.78|
00004e  294d              CMP      r1,#0x4d              ;2148
000050  d059              BEQ      |L2.262|
000052  294e              CMP      r1,#0x4e              ;2148
000054  d070              BEQ      |L2.312|
000056  294f              CMP      r1,#0x4f              ;2148
000058  d162              BNE      |L2.288|
;;;2199               break;        
;;;2200           }
;;;2201           case set_71:
;;;2202           {
;;;2203               WM_HWIN hItem;
;;;2204   //            WM_InvalidateWindow(hWinset);
;;;2205               hItem = WM_GetDialogItem(hWinR, ID_TEXT_130);
;;;2206   			if(bit > 0)
;;;2207   			{
;;;2208   				bit --;
;;;2209   				set_limit[bit] = '\0';
;;;2210   			}
;;;2211   			if(bit == dot_flag)
;;;2212   			{
;;;2213   				dot_flag = 0;
;;;2214   			}
;;;2215   			TEXT_SetText(hItem,set_limit);  
;;;2216           }
;;;2217   		case set_78:
;;;2218           {
;;;2219               WM_HWIN hItem;
;;;2220   //            WM_InvalidateWindow(hWinWind);
;;;2221               hItem = WM_GetDialogItem(hWinR, ID_TEXT_148);
;;;2222   			if(bit > 0)
;;;2223   			{
;;;2224   				bit --;
;;;2225   				set_limit[bit] = '\0';
;;;2226   			}
;;;2227   			if(bit == dot_flag)
;;;2228   			{
;;;2229   				dot_flag = 0;
;;;2230   			}
;;;2231   			TEXT_SetText(hItem,set_limit);
;;;2232               break;
;;;2233           }
;;;2234           case set_79:
;;;2235           {
;;;2236               WM_HWIN hItem;
;;;2237   //            WM_InvalidateWindow(hWinWind);
;;;2238               hItem = WM_GetDialogItem(hWinR, ID_TEXT_149);
;;;2239   			if(bit > 0)
;;;2240   			{
;;;2241   				bit --;
;;;2242   				set_limit[bit] = '\0';
;;;2243   			}
;;;2244   			if(bit == dot_flag)
;;;2245   			{
;;;2246   				dot_flag = 0;
;;;2247   			}
;;;2248   			TEXT_SetText(hItem,set_limit);
;;;2249           }
;;;2250           break;
;;;2251           case set_80:
;;;2252           {
;;;2253               WM_HWIN hItem;
;;;2254    //           WM_InvalidateWindow(load_wind);
;;;2255               hItem = WM_GetDialogItem(hWinR, ID_TEXT_150);
00005a  f6401134          MOV      r1,#0x934
00005e  f7fffffe          BL       WM_GetDialogItem
;;;2256   			if(bit > 0)
000062  7829              LDRB     r1,[r5,#0]  ; bit
000064  b121              CBZ      r1,|L2.112|
;;;2257   			{
;;;2258   				bit --;
000066  7829              LDRB     r1,[r5,#0]  ; bit
000068  1e49              SUBS     r1,r1,#1
00006a  7029              STRB     r1,[r5,#0]
;;;2259   				set_limit[bit] = '\0';
00006c  7829              LDRB     r1,[r5,#0]  ; bit
00006e  5474              STRB     r4,[r6,r1]
                  |L2.112|
;;;2260   			}
;;;2261   			if(bit == dot_flag)
000070  7829              LDRB     r1,[r5,#0]  ; bit
000072  786a              LDRB     r2,[r5,#1]  ; dot_flag
000074  4291              CMP      r1,r2
000076  d100              BNE      |L2.122|
;;;2262   			{
;;;2263   				dot_flag = 0;
000078  706c              STRB     r4,[r5,#1]
                  |L2.122|
;;;2264   			}
;;;2265   			TEXT_SetText(hItem,set_limit);
00007a  e8bd4070          POP      {r4-r6,lr}
00007e  493a              LDR      r1,|L2.360|
000080  3140              ADDS     r1,r1,#0x40
000082  f7ffbffe          B.W      TEXT_SetText
                  |L2.134|
000086  f640016b          MOV      r1,#0x86b             ;2154
00008a  f7fffffe          BL       WM_GetDialogItem
00008e  7829              LDRB     r1,[r5,#0]            ;2155  ; bit
000090  b121              CBZ      r1,|L2.156|
000092  7829              LDRB     r1,[r5,#0]            ;2157  ; bit
000094  1e49              SUBS     r1,r1,#1              ;2157
000096  7029              STRB     r1,[r5,#0]            ;2157
000098  7829              LDRB     r1,[r5,#0]            ;2158  ; bit
00009a  5474              STRB     r4,[r6,r1]            ;2158
                  |L2.156|
00009c  7829              LDRB     r1,[r5,#0]            ;2160  ; bit
00009e  786a              LDRB     r2,[r5,#1]            ;2160  ; dot_flag
0000a0  4291              CMP      r1,r2                 ;2160
0000a2  d100              BNE      |L2.166|
0000a4  706c              STRB     r4,[r5,#1]            ;2162
                  |L2.166|
0000a6  e8bd4070          POP      {r4-r6,lr}            ;2164
0000aa  492f              LDR      r1,|L2.360|
0000ac  3140              ADDS     r1,r1,#0x40           ;2164
0000ae  f7ffbffe          B.W      TEXT_SetText
                  |L2.178|
0000b2  f640016c          MOV      r1,#0x86c             ;2171
0000b6  f7fffffe          BL       WM_GetDialogItem
0000ba  7829              LDRB     r1,[r5,#0]            ;2172  ; bit
0000bc  b121              CBZ      r1,|L2.200|
0000be  7829              LDRB     r1,[r5,#0]            ;2174  ; bit
0000c0  1e49              SUBS     r1,r1,#1              ;2174
0000c2  7029              STRB     r1,[r5,#0]            ;2174
0000c4  7829              LDRB     r1,[r5,#0]            ;2175  ; bit
0000c6  5474              STRB     r4,[r6,r1]            ;2175
                  |L2.200|
0000c8  7829              LDRB     r1,[r5,#0]            ;2177  ; bit
0000ca  786a              LDRB     r2,[r5,#1]            ;2177  ; dot_flag
0000cc  4291              CMP      r1,r2                 ;2177
0000ce  d100              BNE      |L2.210|
0000d0  706c              STRB     r4,[r5,#1]            ;2179
                  |L2.210|
0000d2  e8bd4070          POP      {r4-r6,lr}            ;2181
0000d6  4924              LDR      r1,|L2.360|
0000d8  3140              ADDS     r1,r1,#0x40           ;2181
0000da  f7ffbffe          B.W      TEXT_SetText
                  |L2.222|
0000de  f640110e          MOV      r1,#0x90e             ;2205
0000e2  f7fffffe          BL       WM_GetDialogItem
0000e6  7829              LDRB     r1,[r5,#0]            ;2206  ; bit
0000e8  b121              CBZ      r1,|L2.244|
0000ea  7829              LDRB     r1,[r5,#0]            ;2208  ; bit
0000ec  1e49              SUBS     r1,r1,#1              ;2208
0000ee  7029              STRB     r1,[r5,#0]            ;2208
0000f0  7829              LDRB     r1,[r5,#0]            ;2209  ; bit
0000f2  5474              STRB     r4,[r6,r1]            ;2209
                  |L2.244|
0000f4  7829              LDRB     r1,[r5,#0]            ;2211  ; bit
0000f6  786a              LDRB     r2,[r5,#1]            ;2211  ; dot_flag
0000f8  4291              CMP      r1,r2                 ;2211
0000fa  d100              BNE      |L2.254|
0000fc  706c              STRB     r4,[r5,#1]            ;2213
                  |L2.254|
0000fe  491a              LDR      r1,|L2.360|
000100  3140              ADDS     r1,r1,#0x40           ;2215
000102  f7fffffe          BL       TEXT_SetText
                  |L2.262|
000106  f6401132          MOV      r1,#0x932             ;2221
00010a  6a28              LDR      r0,[r5,#0x20]         ;2221  ; hWinR
00010c  f7fffffe          BL       WM_GetDialogItem
000110  7829              LDRB     r1,[r5,#0]            ;2222  ; bit
000112  b121              CBZ      r1,|L2.286|
000114  7829              LDRB     r1,[r5,#0]            ;2224  ; bit
000116  1e49              SUBS     r1,r1,#1              ;2224
000118  7029              STRB     r1,[r5,#0]            ;2224
00011a  7829              LDRB     r1,[r5,#0]            ;2225  ; bit
00011c  5474              STRB     r4,[r6,r1]            ;2225
                  |L2.286|
00011e  e000              B        |L2.290|
                  |L2.288|
000120  e020              B        |L2.356|
                  |L2.290|
000122  7829              LDRB     r1,[r5,#0]            ;2227  ; bit
000124  786a              LDRB     r2,[r5,#1]            ;2227  ; dot_flag
000126  4291              CMP      r1,r2                 ;2227
000128  d100              BNE      |L2.300|
00012a  706c              STRB     r4,[r5,#1]            ;2229
                  |L2.300|
00012c  e8bd4070          POP      {r4-r6,lr}            ;2231
000130  490d              LDR      r1,|L2.360|
000132  3140              ADDS     r1,r1,#0x40           ;2231
000134  f7ffbffe          B.W      TEXT_SetText
                  |L2.312|
000138  f6401133          MOV      r1,#0x933             ;2238
00013c  f7fffffe          BL       WM_GetDialogItem
000140  7829              LDRB     r1,[r5,#0]            ;2239  ; bit
000142  b121              CBZ      r1,|L2.334|
000144  7829              LDRB     r1,[r5,#0]            ;2241  ; bit
000146  1e49              SUBS     r1,r1,#1              ;2241
000148  7029              STRB     r1,[r5,#0]            ;2241
00014a  7829              LDRB     r1,[r5,#0]            ;2242  ; bit
00014c  5474              STRB     r4,[r6,r1]            ;2242
                  |L2.334|
00014e  7829              LDRB     r1,[r5,#0]            ;2244  ; bit
000150  786a              LDRB     r2,[r5,#1]            ;2244  ; dot_flag
000152  4291              CMP      r1,r2                 ;2244
000154  d100              BNE      |L2.344|
000156  706c              STRB     r4,[r5,#1]            ;2246
                  |L2.344|
000158  e8bd4070          POP      {r4-r6,lr}            ;2248
00015c  4902              LDR      r1,|L2.360|
00015e  3140              ADDS     r1,r1,#0x40           ;2248
000160  f7ffbffe          B.W      TEXT_SetText
                  |L2.356|
;;;2266               break;
;;;2267               
;;;2268           }
;;;2269       }
;;;2270   }
000164  bd70              POP      {r4-r6,pc}
;;;2271   
                          ENDP

000166  0000              DCW      0x0000
                  |L2.360|
                          DCD      ||.data||

                          AREA ||i.INPUT_C||, CODE, READONLY, ALIGN=2

                  INPUT_C PROC
;;;2273   void INPUT_C(char* num);            
;;;2274   void INPUT_C(char* num){
000000  e92d41f0          PUSH     {r4-r8,lr}
000004  4680              MOV      r8,r0
;;;2275   	u8 i;
;;;2276       switch(oc_sw)
000006  4eb9              LDR      r6,|L3.748|
000008  79b2              LDRB     r2,[r6,#6]  ; oc_sw
00000a  4630              MOV      r0,r6
;;;2277       {
;;;2278           case set_22:
;;;2279           {
;;;2280               WM_HWIN hItem;
;;;2281   //            WM_InvalidateWindow(hWinR);
;;;2282               hItem = WM_GetDialogItem(hWinR, ID_TEXT_46);
00000c  2400              MOVS     r4,#0
00000e  6a00              LDR      r0,[r0,#0x20]
;;;2283   			if(bit < 6)
;;;2284   			{
;;;2285   				strcat(set_limit,num);
000010  f1060540          ADD      r5,r6,#0x40
000014  2a46              CMP      r2,#0x46              ;2276
000016  d07d              BEQ      |L3.276|
000018  dc1e              BGT      |L3.88|
00001a  2a15              CMP      r2,#0x15              ;2276
00001c  d03b              BEQ      |L3.150|
00001e  2a16              CMP      r2,#0x16              ;2276
000020  d068              BEQ      |L3.244|
000022  2a40              CMP      r2,#0x40              ;2276
000024  d177              BNE      |L3.278|
;;;2286   				if(dot_flag != 0 && strcmp(num,".") == 0)
;;;2287   				{
;;;2288   					
;;;2289   				}else{			
;;;2290   					
;;;2291   					if(dot_flag == 0 && strcmp(num,".") == 0)
;;;2292   					{
;;;2293   						dot_flag = bit;
;;;2294   					}
;;;2295   					bit ++;
;;;2296   				}
;;;2297   			}else{
;;;2298   				bit = 0;
;;;2299   				for(i=0;i<6;i++)
;;;2300   				{
;;;2301   					set_limit[i] = '\0';
;;;2302   				}
;;;2303   			}
;;;2304   			TEXT_SetText(hItem,set_limit);
;;;2305   //            switch(bit){
;;;2306   //                case 1:
;;;2307   //                {
;;;2308   //					for(i=0;i<6;i++)
;;;2309   //					{
;;;2310   //						set_limit[i] = '\0';
;;;2311   //					}
;;;2312   //                    set_init_c = atoi(num) * 1000;
;;;2313   //                    strcat(set_limit,num);            
;;;2314   //                    TEXT_SetText(hItem,set_limit);
;;;2315   //                    
;;;2316   //                    bit = 2;
;;;2317   //                    break;
;;;2318   //                }
;;;2319   //                case 2:
;;;2320   //                {
;;;2321   //                    strcat(set_limit,num);            
;;;2322   //                    TEXT_SetText(hItem,set_limit);
;;;2323   //                    if(set_limit[1] == 0x2e)//判断输入是否为小数点
;;;2324   //                    {
;;;2325   //                        dot_flag = 1;
;;;2326   //                    }else{
;;;2327   //                        set_init_c = set_init_c * 10 + atoi(num) * 1000;
;;;2328   //                    }
;;;2329   //                    bit = 3;
;;;2330   //                    break;
;;;2331   //                }
;;;2332   //                case 3:
;;;2333   //                {
;;;2334   //                    strcat(set_limit,num);
;;;2335   //                    TEXT_SetText(hItem,set_limit);
;;;2336   //                    if(dot_flag == 0)
;;;2337   //                    {
;;;2338   //                        if(set_limit[2] == 0x2e)//判断输入是否为小数点
;;;2339   //                        {                            
;;;2340   //                            dot_flag = 2;
;;;2341   //                        }else{
;;;2342   //                            set_init_c = 0;
;;;2343   //                        }
;;;2344   //                    }else{
;;;2345   //                        set_init_c = set_init_c + atoi(num) * 100;
;;;2346   //                    }                  
;;;2347   //                    bit = 4;
;;;2348   //                    break;
;;;2349   //                }
;;;2350   //                case 4:
;;;2351   //                {
;;;2352   //                    strcat(set_limit,num);
;;;2353   //                    TEXT_SetText(hItem,set_limit);
;;;2354   //                    if(dot_flag == 0)
;;;2355   //                    {
;;;2356   //                        SET_Current_Laod = 0;
;;;2357   //                    }else if(dot_flag == 2){
;;;2358   //                        set_init_c = set_init_c + atoi(num) * 100;
;;;2359   //                    }else{
;;;2360   //                        set_init_c = set_init_c + atoi(num)*10;
;;;2361   //                    }                  
;;;2362   //                    bit = 5;
;;;2363   //                    break;
;;;2364   //                }
;;;2365   //                case 5:
;;;2366   //                {
;;;2367   //                    strcat(set_limit,num);
;;;2368   //                    TEXT_SetText(hItem,set_limit);
;;;2369   //                    if(dot_flag == 0)
;;;2370   //                    {
;;;2371   //                        set_init_c = 0;
;;;2372   //                    }else if(dot_flag == 1){
;;;2373   //                        set_init_c = set_init_c + atoi(num);
;;;2374   //                    }else{
;;;2375   //                        set_init_c = set_init_c + atoi(num) * 10;
;;;2376   //                    }                 
;;;2377   //                    bit = 6;
;;;2378   //                    break;
;;;2379   //                }
;;;2380   //                case 6:
;;;2381   //                {
;;;2382   //                    strcat(set_limit,num);
;;;2383   //                    TEXT_SetText(hItem,set_limit);
;;;2384   //                    if(dot_flag == 0)
;;;2385   //                    {
;;;2386   //                        set_init_c = 0;
;;;2387   //                    }else if(dot_flag == 2){
;;;2388   //                        set_init_c = set_init_c + atoi(num);
;;;2389   //                    }                 
;;;2390   //                    bit = 0;
;;;2391   //                    break;
;;;2392   //                }
;;;2393   //            }
;;;2394               break;        
;;;2395           }
;;;2396           case set_23:
;;;2397           {
;;;2398               WM_HWIN hItem;
;;;2399   //            WM_InvalidateWindow(hWinR);
;;;2400               hItem = WM_GetDialogItem(hWinR, ID_TEXT_47);
;;;2401   			if(bit < 6)
;;;2402   			{
;;;2403   				strcat(set_limit,num);
;;;2404   				if(dot_flag != 0 && strcmp(num,".") == 0)
;;;2405   				{
;;;2406   					
;;;2407   				}else{			
;;;2408   					
;;;2409   					if(dot_flag == 0 && strcmp(num,".") == 0)
;;;2410   					{
;;;2411   						dot_flag = bit;
;;;2412   					}
;;;2413   					bit ++;
;;;2414   				}
;;;2415   			}else{
;;;2416   				bit = 0;
;;;2417   				for(i=0;i<6;i++)
;;;2418   				{
;;;2419   					set_limit[i] = '\0';
;;;2420   				}
;;;2421   			}
;;;2422   			TEXT_SetText(hItem,set_limit);
;;;2423   //            switch(bit){
;;;2424   //                case 1:
;;;2425   //                {
;;;2426   //					for(i=0;i<6;i++)
;;;2427   //					{
;;;2428   //						set_limit[i] = '\0';
;;;2429   //					}
;;;2430   //                    set_sbs_c = atoi(num) * 1000;
;;;2431   //                    strcat(set_limit,num);            
;;;2432   //                    TEXT_SetText(hItem,set_limit);
;;;2433   //                    
;;;2434   //                    bit = 2;
;;;2435   //                    break;
;;;2436   //                }
;;;2437   //                case 2:
;;;2438   //                {
;;;2439   //                    strcat(set_limit,num);            
;;;2440   //                    TEXT_SetText(hItem,set_limit);
;;;2441   //                    if(set_limit[1] == 0x2e)//判断输入是否为小数点
;;;2442   //                    {
;;;2443   //                        dot_flag = 1;
;;;2444   //                    }else{
;;;2445   //                        set_sbs_c = set_sbs_c * 10 + atoi(num) * 1000;
;;;2446   //                    }
;;;2447   //                    bit = 3;
;;;2448   //                    break;
;;;2449   //                }
;;;2450   //                case 3:
;;;2451   //                {
;;;2452   //                    strcat(set_limit,num);
;;;2453   //                    TEXT_SetText(hItem,set_limit);
;;;2454   //                    if(dot_flag == 0)
;;;2455   //                    {
;;;2456   //                        if(set_limit[2] == 0x2e)//判断输入是否为小数点
;;;2457   //                        {                            
;;;2458   //                            dot_flag = 2;
;;;2459   //                        }else{
;;;2460   //                            set_sbs_c = 0;
;;;2461   //                        }
;;;2462   //                    }else{
;;;2463   //                        set_sbs_c = set_sbs_c + atoi(num) * 100;
;;;2464   //                    }                  
;;;2465   //                    bit = 4;
;;;2466   //                    break;
;;;2467   //                }
;;;2468   //                case 4:
;;;2469   //                {
;;;2470   //                    strcat(set_limit,num);
;;;2471   //                    TEXT_SetText(hItem,set_limit);
;;;2472   //                    if(dot_flag == 0)
;;;2473   //                    {
;;;2474   //                        set_sbs_c = 0;
;;;2475   //                    }else if(dot_flag == 2){
;;;2476   //                        set_sbs_c = set_sbs_c + atoi(num) * 100;
;;;2477   //                    }else{
;;;2478   //                        set_sbs_c = set_sbs_c + atoi(num)*10;
;;;2479   //                    }                  
;;;2480   //                    bit = 5;
;;;2481   //                    break;
;;;2482   //                }
;;;2483   //                case 5:
;;;2484   //                {
;;;2485   //                    strcat(set_limit,num);
;;;2486   //                    TEXT_SetText(hItem,set_limit);
;;;2487   //                    if(dot_flag == 0)
;;;2488   //                    {
;;;2489   //                        set_sbs_c = 0;
;;;2490   //                    }else if(dot_flag == 1){
;;;2491   //                        set_sbs_c = set_sbs_c + atoi(num);
;;;2492   //                    }else{
;;;2493   //                        set_sbs_c = set_sbs_c + atoi(num) * 10;
;;;2494   //                    }                 
;;;2495   //                    bit = 6;
;;;2496   //                    break;
;;;2497   //                }
;;;2498   //                case 6:
;;;2499   //                {
;;;2500   //                    strcat(set_limit,num);
;;;2501   //                    TEXT_SetText(hItem,set_limit);
;;;2502   //                    if(dot_flag == 0)
;;;2503   //                    {
;;;2504   //                        set_sbs_c = 0;
;;;2505   //                    }else if(dot_flag == 2){
;;;2506   //                        set_sbs_c = set_sbs_c + atoi(num);
;;;2507   //                    }                 
;;;2508   //                    bit = 0;
;;;2509   //                    break;
;;;2510   //                }
;;;2511   //            }
;;;2512               break;        
;;;2513           }
;;;2514           case set_65:
;;;2515           {
;;;2516               WM_HWIN hItem;
;;;2517   //            WM_InvalidateWindow(hWinR);
;;;2518               hItem = WM_GetDialogItem(hWinR, ID_TEXT_97);
000026  f6401105          MOV      r1,#0x905
00002a  f7fffffe          BL       WM_GetDialogItem
00002e  4607              MOV      r7,r0
;;;2519   			if(bit < 6)
000030  7830              LDRB     r0,[r6,#0]  ; bit
000032  2806              CMP      r0,#6
000034  d270              BCS      |L3.280|
;;;2520   			{
;;;2521   				strcat(set_limit,num);
000036  48ad              LDR      r0,|L3.748|
000038  4641              MOV      r1,r8
00003a  3040              ADDS     r0,r0,#0x40
00003c  f7fffffe          BL       strcat
;;;2522   				if(dot_flag != 0 && strcmp(num,".") == 0)
000040  7870              LDRB     r0,[r6,#1]  ; dot_flag
000042  b128              CBZ      r0,|L3.80|
000044  a1aa              ADR      r1,|L3.752|
000046  4640              MOV      r0,r8
000048  f7fffffe          BL       strcmp
00004c  2800              CMP      r0,#0
00004e  d076              BEQ      |L3.318|
                  |L3.80|
;;;2523   				{
;;;2524   					
;;;2525   				}else{			
;;;2526   					
;;;2527   					if(dot_flag == 0 && strcmp(num,".") == 0)
000050  7870              LDRB     r0,[r6,#1]  ; dot_flag
000052  2800              CMP      r0,#0
000054  d074              BEQ      |L3.320|
000056  e08c              B        |L3.370|
                  |L3.88|
000058  2a4d              CMP      r2,#0x4d              ;2276
00005a  d072              BEQ      |L3.322|
00005c  2a4e              CMP      r2,#0x4e              ;2276
00005e  d071              BEQ      |L3.324|
000060  2a4f              CMP      r2,#0x4f              ;2276
000062  d158              BNE      |L3.278|
;;;2528   					{
;;;2529   						dot_flag = bit;
;;;2530   					}
;;;2531   					bit ++;
;;;2532   				}
;;;2533   			}else{
;;;2534   				bit = 0;
;;;2535   				for(i=0;i<6;i++)
;;;2536   				{
;;;2537   					set_limit[i] = '\0';
;;;2538   				}
;;;2539   			}
;;;2540   			TEXT_SetText(hItem,set_limit);
;;;2541   //            switch(bit){
;;;2542   //                case 1:
;;;2543   //                {
;;;2544   //					for(i=0;i<6;i++)
;;;2545   //					{
;;;2546   //						set_limit[i] = '\0';
;;;2547   //					}
;;;2548   //                    dis_gate_v = atoi(num) * 1000;
;;;2549   //                    strcat(set_limit,num);            
;;;2550   //                    TEXT_SetText(hItem,set_limit);
;;;2551   //                    
;;;2552   //                    bit = 2;
;;;2553   //                    break;
;;;2554   //                }
;;;2555   //                case 2:
;;;2556   //                {
;;;2557   //                    strcat(set_limit,num);            
;;;2558   //                    TEXT_SetText(hItem,set_limit);
;;;2559   //                    if(set_limit[1] == 0x2e)//判断输入是否为小数点
;;;2560   //                    {
;;;2561   //                        dot_flag = 1;
;;;2562   //                    }else{
;;;2563   //                        dis_gate_v = dis_gate_v * 10 + atoi(num) * 1000;
;;;2564   //                    }
;;;2565   //                    bit = 3;
;;;2566   //                    break;
;;;2567   //                }
;;;2568   //                case 3:
;;;2569   //                {
;;;2570   //                    strcat(set_limit,num);
;;;2571   //                    TEXT_SetText(hItem,set_limit);
;;;2572   //                    if(dot_flag == 0)
;;;2573   //                    {
;;;2574   //                        if(set_limit[2] == 0x2e)//判断输入是否为小数点
;;;2575   //                        {                            
;;;2576   //                            dot_flag = 2;
;;;2577   //                        }else{
;;;2578   //                            dis_gate_v = 0;
;;;2579   //                        }
;;;2580   //                    }else{
;;;2581   //                        dis_gate_v = dis_gate_v + atoi(num) * 100;
;;;2582   //                    }                  
;;;2583   //                    bit = 4;
;;;2584   //                    break;
;;;2585   //                }
;;;2586   //                case 4:
;;;2587   //                {
;;;2588   //                    strcat(set_limit,num);
;;;2589   //                    TEXT_SetText(hItem,set_limit);
;;;2590   //                    if(dot_flag == 0)
;;;2591   //                    {
;;;2592   //                        dis_gate_v = 0;
;;;2593   //                    }else if(dot_flag == 2){
;;;2594   //                        dis_gate_v = dis_gate_v + atoi(num) * 100;
;;;2595   //                    }else{
;;;2596   //                        dis_gate_v = dis_gate_v + atoi(num)*10;
;;;2597   //                    }                  
;;;2598   //                    bit = 5;
;;;2599   //                    break;
;;;2600   //                }
;;;2601   //                case 5:
;;;2602   //                {
;;;2603   //                    strcat(set_limit,num);
;;;2604   //                    TEXT_SetText(hItem,set_limit);
;;;2605   //                    if(dot_flag == 0)
;;;2606   //                    {
;;;2607   //                        dis_gate_v = 0;
;;;2608   //                    }else if(dot_flag == 1){
;;;2609   //                        dis_gate_v = dis_gate_v + + atoi(num);
;;;2610   //                    }else{
;;;2611   //                        dis_gate_v = dis_gate_v + atoi(num)*10;
;;;2612   //                    }                 
;;;2613   //                    bit = 6;
;;;2614   //                    break;
;;;2615   //                }
;;;2616   //                case 6:
;;;2617   //                {
;;;2618   //                    strcat(set_limit,num);
;;;2619   //                    TEXT_SetText(hItem,set_limit);
;;;2620   //                    if(dot_flag == 0)
;;;2621   //                    {
;;;2622   //                        dis_gate_v = 0;
;;;2623   //                    }else if(dot_flag == 2){
;;;2624   //                        dis_gate_v = dis_gate_v + atoi(num);
;;;2625   //                    }                 
;;;2626   //                    bit = 0;
;;;2627   //                    break;
;;;2628   //                }
;;;2629   //            }
;;;2630               break;        
;;;2631           }
;;;2632           case set_71:
;;;2633           {
;;;2634               WM_HWIN hItem;
;;;2635   //            WM_InvalidateWindow(hWinset);
;;;2636               hItem = WM_GetDialogItem(hWinR, ID_TEXT_130);
;;;2637   			if(bit < 6)
;;;2638   			{
;;;2639   				strcat(set_limit,num);
;;;2640   				if(dot_flag != 0 && strcmp(num,".") == 0)
;;;2641   				{
;;;2642   					
;;;2643   				}else{			
;;;2644   					
;;;2645   					if(dot_flag == 0 && strcmp(num,".") == 0)
;;;2646   					{
;;;2647   						dot_flag = bit;
;;;2648   					}
;;;2649   					bit ++;
;;;2650   				}
;;;2651   			}else{
;;;2652   				bit = 0;
;;;2653   				for(i=0;i<6;i++)
;;;2654   				{
;;;2655   					set_limit[i] = '\0';
;;;2656   				}
;;;2657   			}
;;;2658   			TEXT_SetText(hItem,set_limit);
;;;2659   //            switch(bit){
;;;2660   //                case 1:
;;;2661   //                {
;;;2662   //					for(i=0;i<6;i++)
;;;2663   //					{
;;;2664   //						set_limit[i] = '\0';
;;;2665   //					}
;;;2666   //                    steptime = atoi(num);
;;;2667   //                    strcat(set_limit,num);            
;;;2668   //                    TEXT_SetText(hItem,set_limit);
;;;2669   //                    bit = 2;
;;;2670   //                    break; 
;;;2671   //                }
;;;2672   //                case 2:
;;;2673   //                {
;;;2674   //                    steptime = steptime * 10 + atoi(num);
;;;2675   //                    strcat(set_limit,num);            
;;;2676   //                    TEXT_SetText(hItem,set_limit);
;;;2677   //                    bit = 3;
;;;2678   //                    break; 
;;;2679   //                }
;;;2680   //                case 3:
;;;2681   //                {
;;;2682   //                    steptime = steptime * 10 + atoi(num);
;;;2683   //                    strcat(set_limit,num);            
;;;2684   //                    TEXT_SetText(hItem,set_limit);
;;;2685   //                    bit = 4;
;;;2686   //                    break; 
;;;2687   //                }
;;;2688   //                case 4:
;;;2689   //                {
;;;2690   //                    steptime = steptime * 10 + atoi(num);
;;;2691   //                    strcat(set_limit,num);            
;;;2692   //                    TEXT_SetText(hItem,set_limit);
;;;2693   //                    bit = 0;
;;;2694   //                    break; 
;;;2695   //                }
;;;2696   //            }
;;;2697               break;           
;;;2698           }
;;;2699   		case set_78:
;;;2700           {
;;;2701               WM_HWIN hItem;
;;;2702   //            WM_InvalidateWindow(hWinWind);
;;;2703               hItem = WM_GetDialogItem(hWinR, ID_TEXT_148);
;;;2704   			if(bit < 6)
;;;2705   			{
;;;2706   				strcat(set_limit,num);
;;;2707   				if(dot_flag != 0 && strcmp(num,".") == 0)
;;;2708   				{
;;;2709   					
;;;2710   				}else{			
;;;2711   					
;;;2712   					if(dot_flag == 0 && strcmp(num,".") == 0)
;;;2713   					{
;;;2714   						dot_flag = bit;
;;;2715   					}
;;;2716   					bit ++;
;;;2717   				}
;;;2718   			}else{
;;;2719   				bit = 0;
;;;2720   				for(i=0;i<6;i++)
;;;2721   				{
;;;2722   					set_limit[i] = '\0';
;;;2723   				}
;;;2724   			}
;;;2725   			TEXT_SetText(hItem,set_limit);
;;;2726   //            switch(bit){
;;;2727   //                case 1:
;;;2728   //                {
;;;2729   //					for(i=0;i<6;i++)
;;;2730   //					{
;;;2731   //						set_limit[i] = '\0';
;;;2732   //					}
;;;2733   //                    set_static_pv = atoi(num) * 100;
;;;2734   //                    strcat(set_limit,num);            
;;;2735   //                    TEXT_SetText(hItem,set_limit);
;;;2736   //                    bit = 2;
;;;2737   //                    break;
;;;2738   //                }
;;;2739   //                case 2:
;;;2740   //                {
;;;2741   //                    strcat(set_limit,num);            
;;;2742   //                    TEXT_SetText(hItem,set_limit);
;;;2743   //                    if(set_limit[1] == 0x2e)//判断输入是否为小数点
;;;2744   //                    {
;;;2745   //                        dot_flag = 1;
;;;2746   //                    }else{
;;;2747   //                        set_static_pv = set_static_pv * 10 + atoi(num) * 100;
;;;2748   //                    }
;;;2749   //                    bit = 3;
;;;2750   //                    break;
;;;2751   //                }
;;;2752   //                case 3:
;;;2753   //                {
;;;2754   //                    strcat(set_limit,num);
;;;2755   //                    TEXT_SetText(hItem,set_limit);
;;;2756   //                    if(dot_flag == 0)
;;;2757   //                    {
;;;2758   //                        if(set_limit[2] == 0x2e)//判断输入是否为小数点
;;;2759   //                        {                            
;;;2760   //                            dot_flag = 2;
;;;2761   //                        }else{
;;;2762   //                            set_static_pv = /*3000*/ 6200;
;;;2763   //                        }
;;;2764   //                    }else{
;;;2765   //                        set_static_pv = set_static_pv + atoi(num) * 10;
;;;2766   //                    }
;;;2767   //                                       
;;;2768   //                    bit = 4;
;;;2769   //                    break;
;;;2770   //                }
;;;2771   //                case 4:
;;;2772   //                {
;;;2773   //                    strcat(set_limit,num);
;;;2774   //                    TEXT_SetText(hItem,set_limit);
;;;2775   //                    if(dot_flag == 0)
;;;2776   //                    {
;;;2777   //                        set_static_pv = /*3000*/ 6200;
;;;2778   //                    }else if(dot_flag == 2){
;;;2779   //                        set_static_pv = set_static_pv + atoi(num) * 10;
;;;2780   //                    }else{
;;;2781   //                        set_static_pv = set_static_pv + atoi(num);
;;;2782   //                    }
;;;2783   //                                       
;;;2784   //                    bit = 5;
;;;2785   //                    break;
;;;2786   //                }
;;;2787   //                case 5:
;;;2788   //                {
;;;2789   //                    strcat(set_limit,num);
;;;2790   //                    TEXT_SetText(hItem,set_limit);
;;;2791   //                    if(dot_flag == 0)
;;;2792   //                    {
;;;2793   //                        set_static_pv = /*3000*/ 6200;
;;;2794   //                    }else if(dot_flag == 1){
;;;2795   //                        set_static_pv = set_static_pv;
;;;2796   //                    }else{
;;;2797   //                        set_static_pv = set_static_pv + atoi(num);
;;;2798   //                    }
;;;2799   //                                       
;;;2800   //                    bit = 0;
;;;2801   //                    break;
;;;2802   //                }
;;;2803   //            }
;;;2804               break;
;;;2805           }
;;;2806           case set_79:
;;;2807           {
;;;2808               WM_HWIN hItem;
;;;2809   //            WM_InvalidateWindow(hWinWind);
;;;2810               hItem = WM_GetDialogItem(hWinR, ID_TEXT_149);
;;;2811   			if(bit < 6)
;;;2812   			{
;;;2813   				strcat(set_limit,num);
;;;2814   				if(dot_flag != 0 && strcmp(num,".") == 0)
;;;2815   				{
;;;2816   					
;;;2817   				}else{			
;;;2818   					
;;;2819   					if(dot_flag == 0 && strcmp(num,".") == 0)
;;;2820   					{
;;;2821   						dot_flag = bit;
;;;2822   					}
;;;2823   					bit ++;
;;;2824   				}
;;;2825   			}else{
;;;2826   				bit = 0;
;;;2827   				for(i=0;i<6;i++)
;;;2828   				{
;;;2829   					set_limit[i] = '\0';
;;;2830   				}
;;;2831   			}
;;;2832   			TEXT_SetText(hItem,set_limit);
;;;2833   //            switch(bit){
;;;2834   ////                 case 1:
;;;2835   ////                 {
;;;2836   ////                     SET_Current = atoi(num) * 1000;
;;;2837   ////                     strcat(set_limit,num);            
;;;2838   ////                     TEXT_SetText(hItem,set_limit);
;;;2839   ////                     bit = 2;
;;;2840   ////                     break;
;;;2841   ////                 }
;;;2842   ////                 case 2:
;;;2843   ////                 {
;;;2844   ////                     strcat(set_limit,num);            
;;;2845   ////                     TEXT_SetText(hItem,set_limit);
;;;2846   ////                     if(set_limit[1] == 0x2e)//判断输入是否为小数点
;;;2847   ////                     {
;;;2848   ////                         dot_flag = 1;
;;;2849   ////                     }else{
;;;2850   ////                         SET_Current = 15000;
;;;2851   ////                     }
;;;2852   ////                     bit = 3;
;;;2853   ////                     break;
;;;2854   ////                 }
;;;2855   ////                 case 3:
;;;2856   ////                 {
;;;2857   ////                     strcat(set_limit,num);
;;;2858   ////                     TEXT_SetText(hItem,set_limit);
;;;2859   ////                     if(dot_flag == 0)
;;;2860   ////                     {                                                                       
;;;2861   ////                         SET_Current = 15000;
;;;2862   ////                     }else{
;;;2863   ////                         SET_Current = SET_Current + atoi(num) * 100;
;;;2864   ////                     }                                       
;;;2865   ////                     bit = 4;
;;;2866   ////                     break;
;;;2867   ////                 }
;;;2868   ////                 case 4:
;;;2869   ////                 {
;;;2870   ////                     strcat(set_limit,num);
;;;2871   ////                     TEXT_SetText(hItem,set_limit);
;;;2872   ////                     if(dot_flag == 0)
;;;2873   ////                     {
;;;2874   ////                         SET_Current = 15000;
;;;2875   ////                     }else{
;;;2876   ////                         SET_Current = SET_Current + atoi(num) * 10;
;;;2877   ////                     }
;;;2878   ////                                        
;;;2879   ////                     bit = 0;
;;;2880   ////                     break;
;;;2881   ////                 }
;;;2882   //                case 1:
;;;2883   //                {
;;;2884   //					for(i=0;i<6;i++)
;;;2885   //					{
;;;2886   //						set_limit[i] = '\0';
;;;2887   //					}
;;;2888   //                    set_static_pc = atoi(num) * 1000;
;;;2889   //                    strcat(set_limit,num);            
;;;2890   //                    TEXT_SetText(hItem,set_limit);
;;;2891   //                    bit = 2;
;;;2892   //                    break;
;;;2893   //                }
;;;2894   //                case 2:
;;;2895   //                {
;;;2896   //                    strcat(set_limit,num);            
;;;2897   //                    TEXT_SetText(hItem,set_limit);
;;;2898   //                    if(set_limit[1] == 0x2e)//判断输入是否为小数点
;;;2899   //                    {
;;;2900   //                        dot_flag = 1;
;;;2901   //                    }else{
;;;2902   //                        set_static_pc = set_static_pc * 10 + atoi(num) * 1000;
;;;2903   //                    }
;;;2904   //                    bit = 3;
;;;2905   //                    break;
;;;2906   //                }
;;;2907   //                case 3:
;;;2908   //                {
;;;2909   //                    strcat(set_limit,num);
;;;2910   //                    TEXT_SetText(hItem,set_limit);
;;;2911   //                    if(dot_flag == 0)
;;;2912   //                    {
;;;2913   //                        if(set_limit[2] == 0x2e)//判断输入是否为小数点
;;;2914   //                        {                            
;;;2915   //                            dot_flag = 2;
;;;2916   //                        }else{
;;;2917   //                            set_static_pc = 5000;
;;;2918   //                        }
;;;2919   //                    }else{
;;;2920   //                        set_static_pc = set_static_pc + atoi(num) * 100;
;;;2921   //                    }
;;;2922   //                                       
;;;2923   //                    bit = 4;
;;;2924   //                    break;
;;;2925   //                }
;;;2926   //                case 4:
;;;2927   //                {
;;;2928   //                    strcat(set_limit,num);
;;;2929   //                    TEXT_SetText(hItem,set_limit);
;;;2930   //                    if(dot_flag == 0)
;;;2931   //                    {
;;;2932   //                        set_static_pc = 5000;
;;;2933   //                    }else if(dot_flag == 2){
;;;2934   //                        set_static_pc = set_static_pc + atoi(num) * 100;
;;;2935   //                    }else{
;;;2936   //                        set_static_pc = set_static_pc + atoi(num) * 10;
;;;2937   //                    }
;;;2938   //                                       
;;;2939   //                    bit = 5;
;;;2940   //                    break;
;;;2941   //                }
;;;2942   //                case 5:
;;;2943   //                {
;;;2944   //                    strcat(set_limit,num);
;;;2945   //                    TEXT_SetText(hItem,set_limit);
;;;2946   //                    if(dot_flag == 0)
;;;2947   //                    {
;;;2948   //                        set_static_pc = 5000;
;;;2949   //                    }else if(dot_flag == 1){
;;;2950   //                        set_static_pc = set_static_pc + atoi(num);
;;;2951   //                    }else{
;;;2952   //                        set_static_pc = set_static_pc + atoi(num) * 10;
;;;2953   //                    }
;;;2954   //                                       
;;;2955   //                    bit = 6;
;;;2956   //                    break;
;;;2957   //                }
;;;2958   //                case 6:
;;;2959   //                {
;;;2960   //                    strcat(set_limit,num);
;;;2961   //                    TEXT_SetText(hItem,set_limit);
;;;2962   //                    if(dot_flag == 0)
;;;2963   //                    {
;;;2964   //                        set_static_pc = 0;
;;;2965   //                    }else if(dot_flag == 2){
;;;2966   //                        set_static_pc = set_static_pc + atoi(num);
;;;2967   //                    }                 
;;;2968   //                    bit = 0;
;;;2969   //                    break;
;;;2970   //                }
;;;2971   //            }
;;;2972           }
;;;2973           break;
;;;2974           case set_80:
;;;2975           {
;;;2976               WM_HWIN hItem;
;;;2977    //           WM_InvalidateWindow(load_wind);
;;;2978               hItem = WM_GetDialogItem(hWinR, ID_TEXT_150);
000064  f6401134          MOV      r1,#0x934
000068  f7fffffe          BL       WM_GetDialogItem
00006c  4607              MOV      r7,r0
;;;2979   			if(bit < 6)
00006e  7830              LDRB     r0,[r6,#0]  ; bit
000070  2806              CMP      r0,#6
000072  d268              BCS      |L3.326|
;;;2980   			{
;;;2981   				strcat(set_limit,num);
000074  489d              LDR      r0,|L3.748|
000076  4641              MOV      r1,r8
000078  3040              ADDS     r0,r0,#0x40
00007a  f7fffffe          BL       strcat
;;;2982   				if(dot_flag != 0 && strcmp(num,".") == 0)
00007e  7870              LDRB     r0,[r6,#1]  ; dot_flag
000080  b128              CBZ      r0,|L3.142|
000082  a19b              ADR      r1,|L3.752|
000084  4640              MOV      r0,r8
000086  f7fffffe          BL       strcmp
00008a  2800              CMP      r0,#0
00008c  d075              BEQ      |L3.378|
                  |L3.142|
;;;2983   				{
;;;2984   					
;;;2985   				}else{			
;;;2986   					
;;;2987   					if(dot_flag == 0 && strcmp(num,".") == 0)
00008e  7870              LDRB     r0,[r6,#1]  ; dot_flag
000090  2800              CMP      r0,#0
000092  d073              BEQ      |L3.380|
000094  e115              B        |L3.706|
                  |L3.150|
000096  f640016b          MOV      r1,#0x86b             ;2282
00009a  f7fffffe          BL       WM_GetDialogItem
00009e  4607              MOV      r7,r0                 ;2282
0000a0  7830              LDRB     r0,[r6,#0]            ;2283  ; bit
0000a2  2806              CMP      r0,#6                 ;2283
0000a4  d218              BCS      |L3.216|
0000a6  4891              LDR      r0,|L3.748|
0000a8  4641              MOV      r1,r8                 ;2285
0000aa  3040              ADDS     r0,r0,#0x40           ;2285
0000ac  f7fffffe          BL       strcat
0000b0  7870              LDRB     r0,[r6,#1]            ;2286  ; dot_flag
0000b2  b120              CBZ      r0,|L3.190|
0000b4  a18e              ADR      r1,|L3.752|
0000b6  4640              MOV      r0,r8                 ;2286
0000b8  f7fffffe          BL       strcmp
0000bc  b198              CBZ      r0,|L3.230|
                  |L3.190|
0000be  7870              LDRB     r0,[r6,#1]            ;2291  ; dot_flag
0000c0  b930              CBNZ     r0,|L3.208|
0000c2  a18b              ADR      r1,|L3.752|
0000c4  4640              MOV      r0,r8                 ;2291
0000c6  f7fffffe          BL       strcmp
0000ca  b908              CBNZ     r0,|L3.208|
0000cc  7830              LDRB     r0,[r6,#0]            ;2293  ; bit
0000ce  7070              STRB     r0,[r6,#1]            ;2293
                  |L3.208|
0000d0  7830              LDRB     r0,[r6,#0]            ;2295  ; bit
0000d2  1c40              ADDS     r0,r0,#1              ;2295
0000d4  7030              STRB     r0,[r6,#0]            ;2295
0000d6  e006              B        |L3.230|
                  |L3.216|
0000d8  7034              STRB     r4,[r6,#0]            ;2298
0000da  2000              MOVS     r0,#0                 ;2299
                  |L3.220|
0000dc  542c              STRB     r4,[r5,r0]            ;2301
0000de  1c40              ADDS     r0,r0,#1              ;2299
0000e0  b2c0              UXTB     r0,r0                 ;2299
0000e2  2806              CMP      r0,#6                 ;2299
0000e4  d3fa              BCC      |L3.220|
                  |L3.230|
0000e6  4638              MOV      r0,r7                 ;2304
0000e8  e8bd41f0          POP      {r4-r8,lr}            ;2304
0000ec  497f              LDR      r1,|L3.748|
0000ee  3140              ADDS     r1,r1,#0x40           ;2304
0000f0  f7ffbffe          B.W      TEXT_SetText
                  |L3.244|
0000f4  f640016c          MOV      r1,#0x86c             ;2400
0000f8  f7fffffe          BL       WM_GetDialogItem
0000fc  4607              MOV      r7,r0                 ;2400
0000fe  7830              LDRB     r0,[r6,#0]            ;2401  ; bit
000100  2806              CMP      r0,#6                 ;2401
000102  d221              BCS      |L3.328|
000104  4879              LDR      r0,|L3.748|
000106  4641              MOV      r1,r8                 ;2403
000108  3040              ADDS     r0,r0,#0x40           ;2403
00010a  f7fffffe          BL       strcat
00010e  7870              LDRB     r0,[r6,#1]            ;2404  ; dot_flag
000110  b140              CBZ      r0,|L3.292|
000112  e002              B        |L3.282|
                  |L3.276|
000114  e041              B        |L3.410|
                  |L3.278|
000116  e0e6              B        |L3.742|
                  |L3.280|
000118  e031              B        |L3.382|
                  |L3.282|
00011a  a175              ADR      r1,|L3.752|
00011c  4640              MOV      r0,r8                 ;2404
00011e  f7fffffe          BL       strcmp
000122  b1c0              CBZ      r0,|L3.342|
                  |L3.292|
000124  7870              LDRB     r0,[r6,#1]            ;2409  ; dot_flag
000126  b930              CBNZ     r0,|L3.310|
000128  a171              ADR      r1,|L3.752|
00012a  4640              MOV      r0,r8                 ;2409
00012c  f7fffffe          BL       strcmp
000130  b908              CBNZ     r0,|L3.310|
000132  7830              LDRB     r0,[r6,#0]            ;2411  ; bit
000134  7070              STRB     r0,[r6,#1]            ;2411
                  |L3.310|
000136  7830              LDRB     r0,[r6,#0]            ;2413  ; bit
000138  1c40              ADDS     r0,r0,#1              ;2413
00013a  7030              STRB     r0,[r6,#0]            ;2413
00013c  e00b              B        |L3.342|
                  |L3.318|
00013e  e025              B        |L3.396|
                  |L3.320|
000140  e010              B        |L3.356|
                  |L3.322|
000142  e059              B        |L3.504|
                  |L3.324|
000144  e087              B        |L3.598|
                  |L3.326|
000146  e0c0              B        |L3.714|
                  |L3.328|
000148  7034              STRB     r4,[r6,#0]            ;2416
00014a  2000              MOVS     r0,#0                 ;2417
                  |L3.332|
00014c  542c              STRB     r4,[r5,r0]            ;2419
00014e  1c40              ADDS     r0,r0,#1              ;2417
000150  b2c0              UXTB     r0,r0                 ;2417
000152  2806              CMP      r0,#6                 ;2417
000154  d3fa              BCC      |L3.332|
                  |L3.342|
000156  4638              MOV      r0,r7                 ;2422
000158  e8bd41f0          POP      {r4-r8,lr}            ;2422
00015c  4963              LDR      r1,|L3.748|
00015e  3140              ADDS     r1,r1,#0x40           ;2422
000160  f7ffbffe          B.W      TEXT_SetText
                  |L3.356|
000164  a162              ADR      r1,|L3.752|
000166  4640              MOV      r0,r8                 ;2527
000168  f7fffffe          BL       strcmp
00016c  b908              CBNZ     r0,|L3.370|
00016e  7830              LDRB     r0,[r6,#0]            ;2529  ; bit
000170  7070              STRB     r0,[r6,#1]            ;2529
                  |L3.370|
000172  7830              LDRB     r0,[r6,#0]            ;2531  ; bit
000174  1c40              ADDS     r0,r0,#1              ;2531
000176  7030              STRB     r0,[r6,#0]            ;2531
000178  e008              B        |L3.396|
                  |L3.378|
00017a  e0ad              B        |L3.728|
                  |L3.380|
00017c  e09a              B        |L3.692|
                  |L3.382|
00017e  7034              STRB     r4,[r6,#0]            ;2534
000180  2000              MOVS     r0,#0                 ;2535
                  |L3.386|
000182  542c              STRB     r4,[r5,r0]            ;2537
000184  1c40              ADDS     r0,r0,#1              ;2535
000186  b2c0              UXTB     r0,r0                 ;2535
000188  2806              CMP      r0,#6                 ;2535
00018a  d3fa              BCC      |L3.386|
                  |L3.396|
00018c  4638              MOV      r0,r7                 ;2540
00018e  e8bd41f0          POP      {r4-r8,lr}            ;2540
000192  4956              LDR      r1,|L3.748|
000194  3140              ADDS     r1,r1,#0x40           ;2540
000196  f7ffbffe          B.W      TEXT_SetText
                  |L3.410|
00019a  f640110e          MOV      r1,#0x90e             ;2636
00019e  f7fffffe          BL       WM_GetDialogItem
0001a2  4607              MOV      r7,r0                 ;2636
0001a4  7830              LDRB     r0,[r6,#0]            ;2637  ; bit
0001a6  2806              CMP      r0,#6                 ;2637
0001a8  d218              BCS      |L3.476|
0001aa  4850              LDR      r0,|L3.748|
0001ac  4641              MOV      r1,r8                 ;2639
0001ae  3040              ADDS     r0,r0,#0x40           ;2639
0001b0  f7fffffe          BL       strcat
0001b4  7870              LDRB     r0,[r6,#1]            ;2640  ; dot_flag
0001b6  b120              CBZ      r0,|L3.450|
0001b8  a14d              ADR      r1,|L3.752|
0001ba  4640              MOV      r0,r8                 ;2640
0001bc  f7fffffe          BL       strcmp
0001c0  b198              CBZ      r0,|L3.490|
                  |L3.450|
0001c2  7870              LDRB     r0,[r6,#1]            ;2645  ; dot_flag
0001c4  b930              CBNZ     r0,|L3.468|
0001c6  a14a              ADR      r1,|L3.752|
0001c8  4640              MOV      r0,r8                 ;2645
0001ca  f7fffffe          BL       strcmp
0001ce  b908              CBNZ     r0,|L3.468|
0001d0  7830              LDRB     r0,[r6,#0]            ;2647  ; bit
0001d2  7070              STRB     r0,[r6,#1]            ;2647
                  |L3.468|
0001d4  7830              LDRB     r0,[r6,#0]            ;2649  ; bit
0001d6  1c40              ADDS     r0,r0,#1              ;2649
0001d8  7030              STRB     r0,[r6,#0]            ;2649
0001da  e006              B        |L3.490|
                  |L3.476|
0001dc  7034              STRB     r4,[r6,#0]            ;2652
0001de  2000              MOVS     r0,#0                 ;2653
                  |L3.480|
0001e0  542c              STRB     r4,[r5,r0]            ;2655
0001e2  1c40              ADDS     r0,r0,#1              ;2653
0001e4  b2c0              UXTB     r0,r0                 ;2653
0001e6  2806              CMP      r0,#6                 ;2653
0001e8  d3fa              BCC      |L3.480|
                  |L3.490|
0001ea  4638              MOV      r0,r7                 ;2658
0001ec  e8bd41f0          POP      {r4-r8,lr}            ;2658
0001f0  493e              LDR      r1,|L3.748|
0001f2  3140              ADDS     r1,r1,#0x40           ;2658
0001f4  f7ffbffe          B.W      TEXT_SetText
                  |L3.504|
0001f8  f6401132          MOV      r1,#0x932             ;2703
0001fc  f7fffffe          BL       WM_GetDialogItem
000200  4607              MOV      r7,r0                 ;2703
000202  7830              LDRB     r0,[r6,#0]            ;2704  ; bit
000204  2806              CMP      r0,#6                 ;2704
000206  d218              BCS      |L3.570|
000208  4838              LDR      r0,|L3.748|
00020a  4641              MOV      r1,r8                 ;2706
00020c  3040              ADDS     r0,r0,#0x40           ;2706
00020e  f7fffffe          BL       strcat
000212  7870              LDRB     r0,[r6,#1]            ;2707  ; dot_flag
000214  b120              CBZ      r0,|L3.544|
000216  a136              ADR      r1,|L3.752|
000218  4640              MOV      r0,r8                 ;2707
00021a  f7fffffe          BL       strcmp
00021e  b198              CBZ      r0,|L3.584|
                  |L3.544|
000220  7870              LDRB     r0,[r6,#1]            ;2712  ; dot_flag
000222  b930              CBNZ     r0,|L3.562|
000224  a132              ADR      r1,|L3.752|
000226  4640              MOV      r0,r8                 ;2712
000228  f7fffffe          BL       strcmp
00022c  b908              CBNZ     r0,|L3.562|
00022e  7830              LDRB     r0,[r6,#0]            ;2714  ; bit
000230  7070              STRB     r0,[r6,#1]            ;2714
                  |L3.562|
000232  7830              LDRB     r0,[r6,#0]            ;2716  ; bit
000234  1c40              ADDS     r0,r0,#1              ;2716
000236  7030              STRB     r0,[r6,#0]            ;2716
000238  e006              B        |L3.584|
                  |L3.570|
00023a  7034              STRB     r4,[r6,#0]            ;2719
00023c  2000              MOVS     r0,#0                 ;2720
                  |L3.574|
00023e  542c              STRB     r4,[r5,r0]            ;2722
000240  1c40              ADDS     r0,r0,#1              ;2720
000242  b2c0              UXTB     r0,r0                 ;2720
000244  2806              CMP      r0,#6                 ;2720
000246  d3fa              BCC      |L3.574|
                  |L3.584|
000248  4638              MOV      r0,r7                 ;2725
00024a  e8bd41f0          POP      {r4-r8,lr}            ;2725
00024e  4927              LDR      r1,|L3.748|
000250  3140              ADDS     r1,r1,#0x40           ;2725
000252  f7ffbffe          B.W      TEXT_SetText
                  |L3.598|
000256  f6401133          MOV      r1,#0x933             ;2810
00025a  f7fffffe          BL       WM_GetDialogItem
00025e  4607              MOV      r7,r0                 ;2810
000260  7830              LDRB     r0,[r6,#0]            ;2811  ; bit
000262  2806              CMP      r0,#6                 ;2811
000264  d218              BCS      |L3.664|
000266  4821              LDR      r0,|L3.748|
000268  4641              MOV      r1,r8                 ;2813
00026a  3040              ADDS     r0,r0,#0x40           ;2813
00026c  f7fffffe          BL       strcat
000270  7870              LDRB     r0,[r6,#1]            ;2814  ; dot_flag
000272  b120              CBZ      r0,|L3.638|
000274  a11e              ADR      r1,|L3.752|
000276  4640              MOV      r0,r8                 ;2814
000278  f7fffffe          BL       strcmp
00027c  b198              CBZ      r0,|L3.678|
                  |L3.638|
00027e  7870              LDRB     r0,[r6,#1]            ;2819  ; dot_flag
000280  b930              CBNZ     r0,|L3.656|
000282  a11b              ADR      r1,|L3.752|
000284  4640              MOV      r0,r8                 ;2819
000286  f7fffffe          BL       strcmp
00028a  b908              CBNZ     r0,|L3.656|
00028c  7830              LDRB     r0,[r6,#0]            ;2821  ; bit
00028e  7070              STRB     r0,[r6,#1]            ;2821
                  |L3.656|
000290  7830              LDRB     r0,[r6,#0]            ;2823  ; bit
000292  1c40              ADDS     r0,r0,#1              ;2823
000294  7030              STRB     r0,[r6,#0]            ;2823
000296  e006              B        |L3.678|
                  |L3.664|
000298  7034              STRB     r4,[r6,#0]            ;2826
00029a  2000              MOVS     r0,#0                 ;2827
                  |L3.668|
00029c  542c              STRB     r4,[r5,r0]            ;2829
00029e  1c40              ADDS     r0,r0,#1              ;2827
0002a0  b2c0              UXTB     r0,r0                 ;2827
0002a2  2806              CMP      r0,#6                 ;2827
0002a4  d3fa              BCC      |L3.668|
                  |L3.678|
0002a6  4638              MOV      r0,r7                 ;2832
0002a8  e8bd41f0          POP      {r4-r8,lr}            ;2832
0002ac  490f              LDR      r1,|L3.748|
0002ae  3140              ADDS     r1,r1,#0x40           ;2832
0002b0  f7ffbffe          B.W      TEXT_SetText
                  |L3.692|
0002b4  a10e              ADR      r1,|L3.752|
0002b6  4640              MOV      r0,r8
0002b8  f7fffffe          BL       strcmp
0002bc  b908              CBNZ     r0,|L3.706|
;;;2988   					{
;;;2989   						dot_flag = bit;
0002be  7830              LDRB     r0,[r6,#0]  ; bit
0002c0  7070              STRB     r0,[r6,#1]
                  |L3.706|
;;;2990   					}
;;;2991   					bit ++;
0002c2  7830              LDRB     r0,[r6,#0]  ; bit
0002c4  1c40              ADDS     r0,r0,#1
0002c6  7030              STRB     r0,[r6,#0]
0002c8  e006              B        |L3.728|
                  |L3.714|
;;;2992   				}
;;;2993   			}else{
;;;2994   				bit = 0;
0002ca  7034              STRB     r4,[r6,#0]
;;;2995   				for(i=0;i<6;i++)
0002cc  2000              MOVS     r0,#0
                  |L3.718|
;;;2996   				{
;;;2997   					set_limit[i] = '\0';
0002ce  542c              STRB     r4,[r5,r0]
0002d0  1c40              ADDS     r0,r0,#1              ;2995
0002d2  b2c0              UXTB     r0,r0                 ;2995
0002d4  2806              CMP      r0,#6                 ;2995
0002d6  d3fa              BCC      |L3.718|
                  |L3.728|
;;;2998   				}
;;;2999   			}
;;;3000   			TEXT_SetText(hItem,set_limit);
0002d8  4638              MOV      r0,r7
0002da  e8bd41f0          POP      {r4-r8,lr}
0002de  4903              LDR      r1,|L3.748|
0002e0  3140              ADDS     r1,r1,#0x40
0002e2  f7ffbffe          B.W      TEXT_SetText
                  |L3.742|
;;;3001   //            switch(bit){
;;;3002   //                case 1:
;;;3003   //                {
;;;3004   //					for(i=0;i<6;i++)
;;;3005   //					{
;;;3006   //						set_limit[i] = '\0';
;;;3007   //					}
;;;3008   //                    set_static_lc = atoi(num) * 1000;
;;;3009   //                    strcat(set_limit,num);            
;;;3010   //                    TEXT_SetText(hItem,set_limit);
;;;3011   //                    
;;;3012   //                    bit = 2;
;;;3013   //                    break;
;;;3014   //                }
;;;3015   //                case 2:
;;;3016   //                {
;;;3017   //                    strcat(set_limit,num);            
;;;3018   //                    TEXT_SetText(hItem,set_limit);
;;;3019   //                    if(set_limit[1] == 0x2e)//判断输入是否为小数点
;;;3020   //                    {
;;;3021   //                        dot_flag = 1;
;;;3022   //                    }else{
;;;3023   //                        set_static_lc = set_static_lc * 10 + atoi(num) * 1000;
;;;3024   //                    }
;;;3025   //                    bit = 3;
;;;3026   //                    break;
;;;3027   //                }
;;;3028   //                case 3:
;;;3029   //                {
;;;3030   //                    strcat(set_limit,num);
;;;3031   //                    TEXT_SetText(hItem,set_limit);
;;;3032   //                    if(dot_flag == 0)
;;;3033   //                    {
;;;3034   //                        if(set_limit[2] == 0x2e)//判断输入是否为小数点
;;;3035   //                        {                            
;;;3036   //                            dot_flag = 2;
;;;3037   //                        }else{
;;;3038   //                            set_static_lc = 0;
;;;3039   //                        }
;;;3040   //                    }else{
;;;3041   //                        set_static_lc = set_static_lc + atoi(num) * 100;
;;;3042   //                    }                  
;;;3043   //                    bit = 4;
;;;3044   //                    break;
;;;3045   //                }
;;;3046   //                case 4:
;;;3047   //                {
;;;3048   //                    strcat(set_limit,num);
;;;3049   //                    TEXT_SetText(hItem,set_limit);
;;;3050   //                    if(dot_flag == 0)
;;;3051   //                    {
;;;3052   //                        set_static_lc = 0;
;;;3053   //                    }else if(dot_flag == 2){
;;;3054   //                        set_static_lc = set_static_lc + atoi(num) * 100;
;;;3055   //                    }else{
;;;3056   //                        set_static_lc = set_static_lc + atoi(num) * 10;
;;;3057   //                    }                  
;;;3058   //                    bit = 5;
;;;3059   //                    break;
;;;3060   //                }
;;;3061   //                case 5:
;;;3062   //                {
;;;3063   //                    strcat(set_limit,num);
;;;3064   //                    TEXT_SetText(hItem,set_limit);
;;;3065   //                    if(dot_flag == 0)
;;;3066   //                    {
;;;3067   //                        set_static_lc = 0;
;;;3068   //                    }else if(dot_flag == 1){
;;;3069   //                        set_static_lc = set_static_lc + atoi(num);
;;;3070   //                    }else{
;;;3071   //                        set_static_lc = set_static_lc + atoi(num) * 10;
;;;3072   //                    }                 
;;;3073   //                    bit = 6;
;;;3074   //                    break;
;;;3075   //                }
;;;3076   //                case 6:
;;;3077   //                {
;;;3078   //                    strcat(set_limit,num);
;;;3079   //                    TEXT_SetText(hItem,set_limit);
;;;3080   //                    if(dot_flag == 0)
;;;3081   //                    {
;;;3082   //                        set_static_lc = 0;
;;;3083   //                    }else if(dot_flag == 2){
;;;3084   //                        set_static_lc = set_static_lc + atoi(num);
;;;3085   //                    }                 
;;;3086   //                    bit = 0;
;;;3087   //                    break;
;;;3088   //                }
;;;3089   //            }
;;;3090               break;
;;;3091               
;;;3092           }
;;;3093       }
;;;3094   }
0002e6  e8bd81f0          POP      {r4-r8,pc}
;;;3095   
                          ENDP

0002ea  0000              DCW      0x0000
                  |L3.748|
                          DCD      ||.data||
                  |L3.752|
0002f0  2e00              DCB      ".",0
0002f2  00                DCB      0
0002f3  00                DCB      0

                          AREA ||i.OC_ADD||, CODE, READONLY, ALIGN=2

                          REQUIRE _printf_percent
                          REQUIRE _printf_widthprec
                          REQUIRE _printf_f
                          REQUIRE _printf_fp_dec
                  OC_ADD PROC
;;;3159              
;;;3160   void OC_ADD(void){
000000  e92d4ff0          PUSH     {r4-r11,lr}
000004  ed2d8b06          VPUSH    {d8-d10}
000008  b083              SUB      sp,sp,#0xc
;;;3161       WM_HWIN hItem;
;;;3162       char sbs_c[6];
;;;3163       float change_sbs_c;
;;;3164       static vu16 csum;
;;;3165                
;;;3166       if(v - /*DISS_Voltage*/DISS_Voltage > v*0.9 && para_set2 == set_2_on)
;;;3167       {
;;;3168           if(oc_mode == 0)
;;;3169           {
;;;3170               //        oc_data = (float)(SET_Current_Laod+csum)/1000;       
;;;3171               oc_data = crec2;
;;;3172               SET_Current_Laod = set_init_c;
;;;3173               hItem = WM_GetDialogItem(hWinR, ID_TEXT_47);
;;;3174               change_sbs_c = (float)set_sbs_c/1000;
00000a  eddf9a88          VLDR     s19,|L4.556|
;;;3175               sprintf(sbs_c,"%.3f",change_sbs_c);
;;;3176               TEXT_SetText(hItem,sbs_c);
;;;3177               GPIO_SetBits(GPIOA,GPIO_Pin_15);//电子负载OFF   
;;;3178               t_onoff = 0;
00000e  4f88              LDR      r7,|L4.560|
;;;3179               stepcount = 0;
;;;3180               oct_sw = oct_off;
;;;3181               oc_test = 0;
;;;3182               finish = 1;
;;;3183               crec1 = 0;
000010  ed9f9a88          VLDR     s18,|L4.564|
000014  f8df9220          LDR      r9,|L4.568|
000018  2601              MOVS     r6,#1                 ;3182
00001a  4c88              LDR      r4,|L4.572|
;;;3184               crec2 = 0;
;;;3185               rpow = 1;
;;;3186   			step =5;
00001c  f04f0805          MOV      r8,#5
000020  f44f4b00          MOV      r11,#0x8000           ;3177
000024  2500              MOVS     r5,#0                 ;3182
000026  ed94aa0c          VLDR     s20,[r4,#0x30]        ;3166
00002a  ee1a0a10          VMOV     r0,s20                ;3166
00002e  f7fffffe          BL       __aeabi_f2d
000032  ed9f1b83          VLDR     d1,|L4.576|
000036  ec532b11          VMOV     r2,r3,d1              ;3166
00003a  f7fffffe          BL       __aeabi_dmul
00003e  ec410b18          VMOV     d8,r0,r1              ;3166
000042  4881              LDR      r0,|L4.584|
000044  ed900a00          VLDR     s0,[r0,#0]            ;3166
000048  ee3a0a40          VSUB.F32 s0,s20,s0             ;3166
00004c  ee100a10          VMOV     r0,s0                 ;3166
000050  f7fffffe          BL       __aeabi_f2d
000054  ec532b18          VMOV     r2,r3,d8              ;3166
000058  f7fffffe          BL       __aeabi_cdrcmple
00005c  d202              BCS      |L4.100|
00005e  78e0              LDRB     r0,[r4,#3]            ;3166  ; para_set2
000060  28ff              CMP      r0,#0xff              ;3166
000062  d02c              BEQ      |L4.190|
                  |L4.100|
;;;3187   			
;;;3188           }else if(oc_mode == 1){
;;;3189               oc_data = crec2;
;;;3190               GPIO_SetBits(GPIOA,GPIO_Pin_15);//电子负载OFF   
;;;3191               t_onoff = 0;
;;;3192               stepcount = 0;
;;;3193               oct_sw = oct_off;
;;;3194               finish = 1;
;;;3195               crec1 = 0;
;;;3196               crec2 = 0;
;;;3197               oc_test = 0;
;;;3198               rpow = 1;
;;;3199   			step =5;
;;;3200           }
;;;3201   
;;;3202       }else{
;;;3203           if(oc_mode == 0)
000064  7b60              LDRB     r0,[r4,#0xd]  ; oc_mode
000066  2800              CMP      r0,#0
000068  d07b              BEQ      |L4.354|
;;;3204           {
;;;3205   			
;;;3206   			GPIO_ResetBits(GPIOC,GPIO_Pin_1);//关闭电源输出
;;;3207   			GPIO_SetBits(GPIOC,GPIO_Pin_13);//关闭电源输出继电器
;;;3208   //                GPIO_ResetBits(GPIOC,GPIO_Pin_12);//CC
;;;3209   			flag_Load_CC = 1;
;;;3210   			GPIO_SetBits(GPIOC,GPIO_Pin_10);//CC
;;;3211   			GPIO_ResetBits(GPIOA,GPIO_Pin_15);//电子负载On
;;;3212   			ocf = 1;
;;;3213               SET_Current_Laod = SET_Current_Laod + set_sbs_c;
;;;3214               
;;;3215               if(crec1 < crec2)
;;;3216               {
;;;3217                   oc_data = crec2;
;;;3218                   SET_Current_Laod = set_init_c;
;;;3219                   hItem = WM_GetDialogItem(hWinR, ID_TEXT_47);
;;;3220                   change_sbs_c = (float)set_sbs_c/1000;
;;;3221                   sprintf(sbs_c,"%.3f",change_sbs_c);
;;;3222                   TEXT_SetText(hItem,sbs_c);
;;;3223                   GPIO_SetBits(GPIOA,GPIO_Pin_15);//电子负载OFF  
;;;3224                   t_onoff = 0;
;;;3225                   stepcount = 0;
;;;3226                   oct_sw = oct_off;
;;;3227                   finish = 1;
;;;3228                   crec1 = 0;
;;;3229                   crec2 = 0;
;;;3230                   oc_test = 0;
;;;3231                   rpow = 1;
;;;3232   				step =5;
;;;3233               }
;;;3234           }else if(oc_mode == 1){
00006a  7b60              LDRB     r0,[r4,#0xd]  ; oc_mode
00006c  2801              CMP      r0,#1
00006e  d121              BNE      |L4.180|
;;;3235               SET_Voltage_Laod = 0;
000070  f8c9500c          STR      r5,[r9,#0xc]  ; Run_Control
;;;3236               crec2 = crec1;
000074  ed940a0e          VLDR     s0,[r4,#0x38]
000078  ed840a0f          VSTR     s0,[r4,#0x3c]
;;;3237               crec1 = DISS_Current;
00007c  4873              LDR      r0,|L4.588|
00007e  edd00a00          VLDR     s1,[r0,#0]
000082  edc40a0e          VSTR     s1,[r4,#0x38]
;;;3238               if(crec1 < crec2)
000086  eef40ac0          VCMPE.F32 s1,s0
00008a  eef1fa10          VMRS     APSR_nzcv,FPSCR
00008e  d211              BCS      |L4.180|
;;;3239               {
;;;3240                   oc_data = crec2;
000090  ed840a0b          VSTR     s0,[r4,#0x2c]
;;;3241                   GPIO_SetBits(GPIOA,GPIO_Pin_15);//电子负载OFF   
000094  4659              MOV      r1,r11
000096  486e              LDR      r0,|L4.592|
000098  f7fffffe          BL       GPIO_SetBits
;;;3242                   t_onoff = 0;
00009c  703d              STRB     r5,[r7,#0]
;;;3243                   stepcount = 0;
00009e  82a5              STRH     r5,[r4,#0x14]
;;;3244                   oct_sw = oct_off;
0000a0  7265              STRB     r5,[r4,#9]
;;;3245                   finish = 1;
0000a2  7226              STRB     r6,[r4,#8]
;;;3246                   crec1 = 0;
0000a4  ed849a0e          VSTR     s18,[r4,#0x38]
;;;3247                   crec2 = 0;
0000a8  ed849a0f          VSTR     s18,[r4,#0x3c]
;;;3248                   oc_test = 0;
0000ac  72a5              STRB     r5,[r4,#0xa]
;;;3249                   rpow = 1;
0000ae  73a6              STRB     r6,[r4,#0xe]
;;;3250   				step =5;
0000b0  f8848010          STRB     r8,[r4,#0x10]
                  |L4.180|
;;;3251               }
;;;3252           }       
;;;3253       }        
;;;3254   }
0000b4  b003              ADD      sp,sp,#0xc
0000b6  ecbd8b06          VPOP     {d8-d10}
0000ba  e8bd8ff0          POP      {r4-r11,pc}
                  |L4.190|
0000be  7b60              LDRB     r0,[r4,#0xd]          ;3168  ; oc_mode
0000c0  b1b8              CBZ      r0,|L4.242|
0000c2  7b60              LDRB     r0,[r4,#0xd]          ;3188  ; oc_mode
0000c4  2801              CMP      r0,#1                 ;3188
0000c6  d1f5              BNE      |L4.180|
0000c8  ed940a0f          VLDR     s0,[r4,#0x3c]         ;3189
0000cc  ed840a0b          VSTR     s0,[r4,#0x2c]         ;3189
0000d0  4659              MOV      r1,r11                ;3190
0000d2  485f              LDR      r0,|L4.592|
0000d4  f7fffffe          BL       GPIO_SetBits
0000d8  703d              STRB     r5,[r7,#0]            ;3191
0000da  82a5              STRH     r5,[r4,#0x14]         ;3192
0000dc  7265              STRB     r5,[r4,#9]            ;3193
0000de  7226              STRB     r6,[r4,#8]            ;3194
0000e0  ed849a0e          VSTR     s18,[r4,#0x38]        ;3195
0000e4  ed849a0f          VSTR     s18,[r4,#0x3c]        ;3196
0000e8  72a5              STRB     r5,[r4,#0xa]          ;3197
0000ea  73a6              STRB     r6,[r4,#0xe]          ;3198
0000ec  f8848010          STRB     r8,[r4,#0x10]         ;3199
                  |L4.240|
0000f0  e7e0              B        |L4.180|
                  |L4.242|
0000f2  ed940a0f          VLDR     s0,[r4,#0x3c]         ;3171
0000f6  ed840a0b          VSTR     s0,[r4,#0x2c]         ;3171
0000fa  f8d90058          LDR      r0,[r9,#0x58]         ;3172  ; Run_Control
0000fe  f8c90010          STR      r0,[r9,#0x10]         ;3172  ; Run_Control
000102  f640016c          MOV      r1,#0x86c             ;3173
000106  6a20              LDR      r0,[r4,#0x20]         ;3173  ; hWinR
000108  f7fffffe          BL       WM_GetDialogItem
00010c  4682              MOV      r10,r0                ;3173
00010e  f8d9005c          LDR      r0,[r9,#0x5c]         ;3174  ; Run_Control
000112  ee000a10          VMOV     s0,r0                 ;3174
000116  eef80a40          VCVT.F32.U32 s1,s0                 ;3174
00011a  ee800aa9          VDIV.F32 s0,s1,s19             ;3174
00011e  ee100a10          VMOV     r0,s0                 ;3175
000122  f7fffffe          BL       __aeabi_f2d
000126  ec410b10          VMOV     d0,r0,r1              ;3175
00012a  a14a              ADR      r1,|L4.596|
00012c  ec532b10          VMOV     r2,r3,d0              ;3175
000130  a801              ADD      r0,sp,#4              ;3175
000132  f7fffffe          BL       __2sprintf
000136  a901              ADD      r1,sp,#4              ;3176
000138  4650              MOV      r0,r10                ;3176
00013a  f7fffffe          BL       TEXT_SetText
00013e  4659              MOV      r1,r11                ;3177
000140  4843              LDR      r0,|L4.592|
000142  f7fffffe          BL       GPIO_SetBits
000146  703d              STRB     r5,[r7,#0]            ;3178
000148  82a5              STRH     r5,[r4,#0x14]         ;3179
00014a  7265              STRB     r5,[r4,#9]            ;3180
00014c  72a5              STRB     r5,[r4,#0xa]          ;3181
00014e  7226              STRB     r6,[r4,#8]            ;3182
000150  ed849a0e          VSTR     s18,[r4,#0x38]        ;3183
000154  ed849a0f          VSTR     s18,[r4,#0x3c]        ;3184
000158  73a6              STRB     r6,[r4,#0xe]          ;3185
00015a  f8848010          STRB     r8,[r4,#0x10]         ;3186
00015e  e7a9              B        |L4.180|
000160  e7ff              B        |L4.354|
                  |L4.354|
000162  f8dfa0f8          LDR      r10,|L4.604|
000166  2102              MOVS     r1,#2                 ;3206
000168  4650              MOV      r0,r10                ;3206
00016a  f7fffffe          BL       GPIO_ResetBits
00016e  f44f5100          MOV      r1,#0x2000            ;3207
000172  4650              MOV      r0,r10                ;3207
000174  f7fffffe          BL       GPIO_SetBits
000178  4839              LDR      r0,|L4.608|
00017a  6801              LDR      r1,[r0,#0]            ;3209  ; flagD
00017c  f0410180          ORR      r1,r1,#0x80           ;3209
000180  6001              STR      r1,[r0,#0]            ;3209  ; flagD
000182  f44f6180          MOV      r1,#0x400             ;3210
000186  4650              MOV      r0,r10                ;3210
000188  f7fffffe          BL       GPIO_SetBits
00018c  f8dfb0c0          LDR      r11,|L4.592|
000190  f44f4100          MOV      r1,#0x8000            ;3211
000194  4658              MOV      r0,r11                ;3211
000196  f7fffffe          BL       GPIO_ResetBits
00019a  4832              LDR      r0,|L4.612|
00019c  7006              STRB     r6,[r0,#0]            ;3212
00019e  f8d90010          LDR      r0,[r9,#0x10]         ;3213  ; Run_Control
0001a2  f8d9105c          LDR      r1,[r9,#0x5c]         ;3213  ; Run_Control
0001a6  4408              ADD      r0,r0,r1              ;3213
0001a8  f8c90010          STR      r0,[r9,#0x10]         ;3213  ; Run_Control
0001ac  edd40a0e          VLDR     s1,[r4,#0x38]         ;3215
0001b0  ed940a0f          VLDR     s0,[r4,#0x3c]         ;3215
0001b4  eef40ac0          VCMPE.F32 s1,s0                 ;3215
0001b8  eef1fa10          VMRS     APSR_nzcv,FPSCR       ;3215
0001bc  d298              BCS      |L4.240|
0001be  ed840a0b          VSTR     s0,[r4,#0x2c]         ;3217
0001c2  f8d90058          LDR      r0,[r9,#0x58]         ;3218  ; Run_Control
0001c6  f8c90010          STR      r0,[r9,#0x10]         ;3218  ; Run_Control
0001ca  f640016c          MOV      r1,#0x86c             ;3219
0001ce  6a20              LDR      r0,[r4,#0x20]         ;3219  ; hWinR
0001d0  f7fffffe          BL       WM_GetDialogItem
0001d4  4682              MOV      r10,r0                ;3219
0001d6  f8d9005c          LDR      r0,[r9,#0x5c]         ;3220  ; Run_Control
0001da  ee000a10          VMOV     s0,r0                 ;3220
0001de  eef80a40          VCVT.F32.U32 s1,s0                 ;3220
0001e2  ee800aa9          VDIV.F32 s0,s1,s19             ;3220
0001e6  ee100a10          VMOV     r0,s0                 ;3221
0001ea  f7fffffe          BL       __aeabi_f2d
0001ee  ec410b10          VMOV     d0,r0,r1              ;3221
0001f2  a118              ADR      r1,|L4.596|
0001f4  ec532b10          VMOV     r2,r3,d0              ;3221
0001f8  a801              ADD      r0,sp,#4              ;3221
0001fa  f7fffffe          BL       __2sprintf
0001fe  a901              ADD      r1,sp,#4              ;3222
000200  4650              MOV      r0,r10                ;3222
000202  f7fffffe          BL       TEXT_SetText
000206  f44f4100          MOV      r1,#0x8000            ;3223
00020a  4658              MOV      r0,r11                ;3223
00020c  f7fffffe          BL       GPIO_SetBits
000210  703d              STRB     r5,[r7,#0]            ;3224
000212  82a5              STRH     r5,[r4,#0x14]         ;3225
000214  7265              STRB     r5,[r4,#9]            ;3226
000216  7226              STRB     r6,[r4,#8]            ;3227
000218  ed849a0e          VSTR     s18,[r4,#0x38]        ;3228
00021c  ed849a0f          VSTR     s18,[r4,#0x3c]        ;3229
000220  72a5              STRB     r5,[r4,#0xa]          ;3230
000222  73a6              STRB     r6,[r4,#0xe]          ;3231
000224  f8848010          STRB     r8,[r4,#0x10]         ;3232
000228  e744              B        |L4.180|
;;;3255   
                          ENDP

00022a  0000              DCW      0x0000
                  |L4.556|
00022c  447a0000          DCFS     0x447a0000 ; 1000
                  |L4.560|
                          DCD      t_onoff
                  |L4.564|
000234  00000000          DCFS     0x00000000 ; 0
                  |L4.568|
                          DCD      Run_Control
                  |L4.572|
                          DCD      ||.data||
                  |L4.576|
000240  cccccccd          DCFD     0x3feccccccccccccd ; 0.90000000000000002
000244  3feccccc
                  |L4.584|
                          DCD      DISS_Voltage
                  |L4.588|
                          DCD      DISS_Current
                  |L4.592|
                          DCD      0x40020000
                  |L4.596|
000254  252e3366          DCB      "%.3f",0
000258  00      
000259  00                DCB      0
00025a  00                DCB      0
00025b  00                DCB      0
                  |L4.604|
                          DCD      0x40020800
                  |L4.608|
                          DCD      flagD
                  |L4.612|
                          DCD      ocf

                          AREA ||i.OC_CHECK||, CODE, READONLY, ALIGN=2

                          REQUIRE _printf_percent
                          REQUIRE _printf_widthprec
                          REQUIRE _printf_f
                          REQUIRE _printf_fp_dec
                  OC_CHECK PROC
;;;3095   
;;;3096   void OC_CHECK(void){
000000  e92d4ff0          PUSH     {r4-r11,lr}
000004  ed2d8b06          VPUSH    {d8-d10}
000008  b083              SUB      sp,sp,#0xc
;;;3097       WM_HWIN hItem;
;;;3098       char sbs_c[6];
;;;3099       float change_sbs_c;   
;;;3100       crec2 = crec1;
00000a  4c6b              LDR      r4,|L5.440|
00000c  ed940a0e          VLDR     s0,[r4,#0x38]
000010  ed840a0f          VSTR     s0,[r4,#0x3c]
;;;3101       crec1 = DISS_Current;    
000014  4869              LDR      r0,|L5.444|
000016  edd00a00          VLDR     s1,[r0,#0]
00001a  edc40a0e          VSTR     s1,[r4,#0x38]
;;;3102       if(DISS_Voltage * DISS_Current > 200)
00001e  f8dfa1a0          LDR      r10,|L5.448|
000022  4968              LDR      r1,|L5.452|
;;;3103       {
;;;3104            oc_data = crec2;
;;;3105           SET_Current_Laod = set_init_c;
000024  f8df91a0          LDR      r9,|L5.456|
000028  ed9a1a00          VLDR     s2,[r10,#0]           ;3102
00002c  2500              MOVS     r5,#0                 ;3102
00002e  ee610a20          VMUL.F32 s1,s2,s1              ;3102
000032  ee100a90          VMOV     r0,s1                 ;3102
;;;3106           hItem = WM_GetDialogItem(hWinR, ID_TEXT_47);
;;;3107           change_sbs_c = (float)set_sbs_c/1000;
000036  eddf9a65          VLDR     s19,|L5.460|
;;;3108           sprintf(sbs_c,"%.3f",change_sbs_c);
;;;3109           TEXT_SetText(hItem,sbs_c);
;;;3110           GPIO_SetBits(GPIOA,GPIO_Pin_15);//电子负载OFF   
;;;3111           t_onoff = 0;
00003a  4f65              LDR      r7,|L5.464|
;;;3112           stepcount = 0;
;;;3113           oct_sw = oct_off;
;;;3114           finish = 1;
00003c  2601              MOVS     r6,#1
;;;3115           oc_test = 0;
;;;3116           crec1 = 0;
00003e  ed9f9a65          VLDR     s18,|L5.468|
;;;3117           crec2 = 0;
;;;3118           rpow = 1;
;;;3119   		step =5;
000042  f04f0805          MOV      r8,#5
000046  4288              CMP      r0,r1                 ;3102
000048  dd33              BLE      |L5.178|
00004a  ed840a0b          VSTR     s0,[r4,#0x2c]         ;3104
00004e  f8d90058          LDR      r0,[r9,#0x58]         ;3105  ; Run_Control
000052  f8c90010          STR      r0,[r9,#0x10]         ;3105  ; Run_Control
000056  f640016c          MOV      r1,#0x86c             ;3106
00005a  6a20              LDR      r0,[r4,#0x20]         ;3106  ; hWinR
00005c  f7fffffe          BL       WM_GetDialogItem
000060  4683              MOV      r11,r0                ;3106
000062  f8d9005c          LDR      r0,[r9,#0x5c]         ;3107  ; Run_Control
000066  ee000a10          VMOV     s0,r0                 ;3107
00006a  eef80a40          VCVT.F32.U32 s1,s0                 ;3107
00006e  ee800aa9          VDIV.F32 s0,s1,s19             ;3107
000072  ee100a10          VMOV     r0,s0                 ;3108
000076  f7fffffe          BL       __aeabi_f2d
00007a  ec410b10          VMOV     d0,r0,r1              ;3108
00007e  a156              ADR      r1,|L5.472|
000080  ec532b10          VMOV     r2,r3,d0              ;3108
000084  a801              ADD      r0,sp,#4              ;3108
000086  f7fffffe          BL       __2sprintf
00008a  a901              ADD      r1,sp,#4              ;3109
00008c  4658              MOV      r0,r11                ;3109
00008e  f7fffffe          BL       TEXT_SetText
000092  03f1              LSLS     r1,r6,#15             ;3110
000094  4852              LDR      r0,|L5.480|
000096  f7fffffe          BL       GPIO_SetBits
00009a  703d              STRB     r5,[r7,#0]            ;3111
00009c  82a5              STRH     r5,[r4,#0x14]         ;3112
00009e  7265              STRB     r5,[r4,#9]            ;3113
0000a0  7226              STRB     r6,[r4,#8]            ;3114
0000a2  72a5              STRB     r5,[r4,#0xa]          ;3115
0000a4  ed849a0e          VSTR     s18,[r4,#0x38]        ;3116
0000a8  ed849a0f          VSTR     s18,[r4,#0x3c]        ;3117
0000ac  73a6              STRB     r6,[r4,#0xe]          ;3118
0000ae  f8848010          STRB     r8,[r4,#0x10]
                  |L5.178|
;;;3120       }
;;;3121       if(((crec1 < crec2 && crec2 > 0.3) || v - /*DISS_Voltage*/DISS_Voltage > v*0.9) && para_set2 == set_2_on)
0000b2  edd40a0e          VLDR     s1,[r4,#0x38]
0000b6  ed940a0f          VLDR     s0,[r4,#0x3c]
0000ba  eef40ac0          VCMPE.F32 s1,s0
0000be  eef1fa10          VMRS     APSR_nzcv,FPSCR
0000c2  d204              BCS      |L5.206|
0000c4  ee100a10          VMOV     r0,s0
0000c8  4946              LDR      r1,|L5.484|
0000ca  4288              CMP      r0,r1
0000cc  da1a              BGE      |L5.260|
                  |L5.206|
0000ce  ed94aa0c          VLDR     s20,[r4,#0x30]
0000d2  ee1a0a10          VMOV     r0,s20
0000d6  f7fffffe          BL       __aeabi_f2d
0000da  ed9f1b43          VLDR     d1,|L5.488|
0000de  ec532b11          VMOV     r2,r3,d1
0000e2  f7fffffe          BL       __aeabi_dmul
0000e6  ed9a0a00          VLDR     s0,[r10,#0]
0000ea  ec410b18          VMOV     d8,r0,r1
0000ee  ee3a0a40          VSUB.F32 s0,s20,s0
0000f2  ee100a10          VMOV     r0,s0
0000f6  f7fffffe          BL       __aeabi_f2d
0000fa  ec532b18          VMOV     r2,r3,d8
0000fe  f7fffffe          BL       __aeabi_cdrcmple
000102  d21b              BCS      |L5.316|
                  |L5.260|
000104  78e0              LDRB     r0,[r4,#3]  ; para_set2
000106  28ff              CMP      r0,#0xff
000108  d118              BNE      |L5.316|
;;;3122       {
;;;3123           if(oc_mode == 0)
00010a  7b60              LDRB     r0,[r4,#0xd]  ; oc_mode
00010c  b1d8              CBZ      r0,|L5.326|
;;;3124           {
;;;3125               //        oc_data = (float)(SET_Current_Laod+csum)/1000;       
;;;3126               oc_data = crec2;
;;;3127               SET_Current_Laod = set_init_c;
;;;3128               hItem = WM_GetDialogItem(hWinR, ID_TEXT_47);
;;;3129               change_sbs_c = (float)set_sbs_c/1000;
;;;3130               sprintf(sbs_c,"%.3f",change_sbs_c);
;;;3131               TEXT_SetText(hItem,sbs_c);
;;;3132               GPIO_SetBits(GPIOA,GPIO_Pin_15);//电子负载OFF   
;;;3133               t_onoff = 0;
;;;3134               stepcount = 0;
;;;3135               oct_sw = oct_off;
;;;3136               finish = 1;
;;;3137               oc_test = 0;
;;;3138               crec1 = 0;
;;;3139               crec2 = 0;
;;;3140               rpow = 1;
;;;3141   			step =5;
;;;3142           }else if(oc_mode == 1){
00010e  7b60              LDRB     r0,[r4,#0xd]  ; oc_mode
000110  2801              CMP      r0,#1
000112  d113              BNE      |L5.316|
;;;3143               oc_data = crec2;
000114  ed940a0f          VLDR     s0,[r4,#0x3c]
000118  ed840a0b          VSTR     s0,[r4,#0x2c]
;;;3144               GPIO_SetBits(GPIOA,GPIO_Pin_15);//电子负载OFF   
00011c  03c1              LSLS     r1,r0,#15
00011e  4830              LDR      r0,|L5.480|
000120  f7fffffe          BL       GPIO_SetBits
;;;3145               t_onoff = 0;
000124  703d              STRB     r5,[r7,#0]
;;;3146               stepcount = 0;
000126  82a5              STRH     r5,[r4,#0x14]
;;;3147               oct_sw = oct_off;
000128  7265              STRB     r5,[r4,#9]
;;;3148               finish = 1;
00012a  7226              STRB     r6,[r4,#8]
;;;3149               oc_test = 0;
00012c  72a5              STRB     r5,[r4,#0xa]
;;;3150               crec1 = 0;
00012e  ed849a0e          VSTR     s18,[r4,#0x38]
;;;3151               crec2 = 0;
000132  ed849a0f          VSTR     s18,[r4,#0x3c]
;;;3152               rpow = 1;
000136  73a6              STRB     r6,[r4,#0xe]
;;;3153   			step =5;
000138  f8848010          STRB     r8,[r4,#0x10]
                  |L5.316|
;;;3154           }
;;;3155   
;;;3156       }
;;;3157   }
00013c  b003              ADD      sp,sp,#0xc
00013e  ecbd8b06          VPOP     {d8-d10}
000142  e8bd8ff0          POP      {r4-r11,pc}
                  |L5.326|
000146  ed940a0f          VLDR     s0,[r4,#0x3c]         ;3126
00014a  ed840a0b          VSTR     s0,[r4,#0x2c]         ;3126
00014e  f8d90058          LDR      r0,[r9,#0x58]         ;3127  ; Run_Control
000152  f8c90010          STR      r0,[r9,#0x10]         ;3127  ; Run_Control
000156  f640016c          MOV      r1,#0x86c             ;3128
00015a  6a20              LDR      r0,[r4,#0x20]         ;3128  ; hWinR
00015c  f7fffffe          BL       WM_GetDialogItem
000160  4682              MOV      r10,r0                ;3128
000162  f8d9005c          LDR      r0,[r9,#0x5c]         ;3129  ; Run_Control
000166  ee000a10          VMOV     s0,r0                 ;3129
00016a  eef80a40          VCVT.F32.U32 s1,s0                 ;3129
00016e  ee800aa9          VDIV.F32 s0,s1,s19             ;3129
000172  ee100a10          VMOV     r0,s0                 ;3130
000176  f7fffffe          BL       __aeabi_f2d
00017a  ec410b10          VMOV     d0,r0,r1              ;3130
00017e  a116              ADR      r1,|L5.472|
000180  ec532b10          VMOV     r2,r3,d0              ;3130
000184  a801              ADD      r0,sp,#4              ;3130
000186  f7fffffe          BL       __2sprintf
00018a  a901              ADD      r1,sp,#4              ;3131
00018c  4650              MOV      r0,r10                ;3131
00018e  f7fffffe          BL       TEXT_SetText
000192  f44f4100          MOV      r1,#0x8000            ;3132
000196  4812              LDR      r0,|L5.480|
000198  f7fffffe          BL       GPIO_SetBits
00019c  703d              STRB     r5,[r7,#0]            ;3133
00019e  82a5              STRH     r5,[r4,#0x14]         ;3134
0001a0  7265              STRB     r5,[r4,#9]            ;3135
0001a2  7226              STRB     r6,[r4,#8]            ;3136
0001a4  72a5              STRB     r5,[r4,#0xa]          ;3137
0001a6  ed849a0e          VSTR     s18,[r4,#0x38]        ;3138
0001aa  ed849a0f          VSTR     s18,[r4,#0x3c]        ;3139
0001ae  73a6              STRB     r6,[r4,#0xe]          ;3140
0001b0  f8848010          STRB     r8,[r4,#0x10]         ;3141
0001b4  e7c2              B        |L5.316|
;;;3158   
                          ENDP

0001b6  0000              DCW      0x0000
                  |L5.440|
                          DCD      ||.data||
                  |L5.444|
                          DCD      DISS_Current
                  |L5.448|
                          DCD      DISS_Voltage
                  |L5.452|
                          DCD      0x43480000
                  |L5.456|
                          DCD      Run_Control
                  |L5.460|
0001cc  447a0000          DCFS     0x447a0000 ; 1000
                  |L5.464|
                          DCD      t_onoff
                  |L5.468|
0001d4  00000000          DCFS     0x00000000 ; 0
                  |L5.472|
0001d8  252e3366          DCB      "%.3f",0
0001dc  00      
0001dd  00                DCB      0
0001de  00                DCB      0
0001df  00                DCB      0
                  |L5.480|
                          DCD      0x40020000
                  |L5.484|
                          DCD      0x3e99999a
                  |L5.488|
0001e8  cccccccd          DCFD     0x3feccccccccccccd ; 0.90000000000000002
0001ec  3feccccc

                          AREA ||i.OC_OP_DOWN||, CODE, READONLY, ALIGN=2

                  OC_OP_DOWN PROC
;;;1293   void OC_OP_DOWN(void);
;;;1294   void OC_OP_DOWN(void)
000000  e92d47f0          PUSH     {r4-r10,lr}
;;;1295   {
;;;1296       switch(oc_sw)
000004  4c97              LDR      r4,|L6.612|
000006  79a2              LDRB     r2,[r4,#6]  ; oc_sw
000008  4620              MOV      r0,r4
;;;1297       {
;;;1298   		case set_81:
;;;1299           {
;;;1300               WM_HWIN hItem;
;;;1301   //            WM_InvalidateWindow(hWinR);
;;;1302               hItem = WM_GetDialogItem(hWinR, ID_TEXT_152);
;;;1303               TEXT_SetBkColor(hItem,GUI_INVALID_COLOR);
00000a  f06f4670          MVN      r6,#0xf0000000
;;;1304               TEXT_SetTextColor(hItem, GUI_WHITE);
00000e  1137              ASRS     r7,r6,#4
;;;1305               
;;;1306               hItem = WM_GetDialogItem(hWinR, ID_TEXT_1);
;;;1307               TEXT_SetBkColor(hItem,0x00BFFFFF);
000010  f8dfa254          LDR      r10,|L6.616|
000014  6a00              LDR      r0,[r0,#0x20]         ;1302
000016  f6400814          MOV      r8,#0x814             ;1306
;;;1308               TEXT_SetTextColor(hItem, GUI_BLACK);
;;;1309               
;;;1310               oc_sw = set_72;
;;;1311               break;
;;;1312           }
;;;1313   		
;;;1314           case set_72:
;;;1315           {
;;;1316               WM_HWIN hItem;
;;;1317   //            WM_InvalidateWindow(hWinR);
;;;1318               hItem = WM_GetDialogItem(hWinR, ID_TEXT_1);
;;;1319               TEXT_SetBkColor(hItem,GUI_INVALID_COLOR);
;;;1320               TEXT_SetTextColor(hItem, GUI_WHITE);
;;;1321               
;;;1322               hItem = WM_GetDialogItem(hWinR, ID_TEXT_44);
00001a  f6400569          MOV      r5,#0x869
;;;1323               TEXT_SetBkColor(hItem,0x00BFFFFF);
;;;1324               TEXT_SetTextColor(hItem, GUI_BLACK);
;;;1325               
;;;1326               oc_sw = set_20;
;;;1327               break;
;;;1328           }
;;;1329           
;;;1330           case set_20:
;;;1331           {
;;;1332               WM_HWIN hItem;
;;;1333   //            WM_InvalidateWindow(hWinR);
;;;1334               hItem = WM_GetDialogItem(hWinR, ID_TEXT_44);
;;;1335               TEXT_SetBkColor(hItem,GUI_INVALID_COLOR);
;;;1336               TEXT_SetTextColor(hItem, GUI_WHITE);
;;;1337               
;;;1338               hItem = WM_GetDialogItem(hWinR, ID_TEXT_45);
;;;1339               TEXT_SetBkColor(hItem,0x00BFFFFF);
;;;1340               TEXT_SetTextColor(hItem, GUI_BLACK);
;;;1341               
;;;1342               oc_sw = set_21;
;;;1343               break;
;;;1344           }
;;;1345           case set_21:
;;;1346           {
;;;1347               WM_HWIN hItem;
;;;1348   //            WM_InvalidateWindow(hWinR);
;;;1349               hItem = WM_GetDialogItem(hWinR, ID_TEXT_45);
;;;1350               TEXT_SetBkColor(hItem,GUI_INVALID_COLOR);
;;;1351               TEXT_SetTextColor(hItem, GUI_WHITE);
;;;1352               
;;;1353               hItem = WM_GetDialogItem(hWinR, ID_TEXT_118);
;;;1354               TEXT_SetBkColor(hItem,0x00BFFFFF);
;;;1355               TEXT_SetTextColor(hItem, GUI_BLACK);
;;;1356               
;;;1357               oc_sw = set_64;
;;;1358               break;
;;;1359           }
;;;1360           case set_64:
;;;1361           {
;;;1362               WM_HWIN hItem;
;;;1363   //            WM_InvalidateWindow(hWinR);
;;;1364               hItem = WM_GetDialogItem(hWinR, ID_TEXT_118);
;;;1365               TEXT_SetBkColor(hItem,GUI_INVALID_COLOR);
;;;1366               TEXT_SetTextColor(hItem, GUI_WHITE);
;;;1367               
;;;1368               hItem = WM_GetDialogItem(hWinR, ID_TEXT_43);
;;;1369               TEXT_SetBkColor(hItem,0x00BFFFFF);
;;;1370               TEXT_SetTextColor(hItem, GUI_BLACK);
;;;1371               
;;;1372               oc_sw = set_70;
;;;1373               break;
;;;1374           }
;;;1375           case set_70:
;;;1376           {
;;;1377               WM_HWIN hItem;
;;;1378   //            WM_InvalidateWindow(hWinR);
;;;1379               hItem = WM_GetDialogItem(hWinR, ID_TEXT_43);
;;;1380               TEXT_SetBkColor(hItem,GUI_INVALID_COLOR);
;;;1381               TEXT_SetTextColor(hItem, GUI_WHITE);
;;;1382               
;;;1383               hItem = WM_GetDialogItem(hWinR, ID_TEXT_145);
00001e  f640192f          MOV      r9,#0x92f
000022  2a47              CMP      r2,#0x47              ;1296
000024  d054              BEQ      |L6.208|
000026  dc2a              BGT      |L6.126|
000028  f640086a          MOV      r8,#0x86a             ;1338
00002c  2a13              CMP      r2,#0x13              ;1296
00002e  d06b              BEQ      |L6.264|
000030  f6401508          MOV      r5,#0x908             ;1353
000034  2a14              CMP      r2,#0x14              ;1296
000036  d07d              BEQ      |L6.308|
000038  f6400868          MOV      r8,#0x868             ;1368
00003c  2a3f              CMP      r2,#0x3f              ;1296
00003e  d07a              BEQ      |L6.310|
000040  2a45              CMP      r2,#0x45              ;1296
000042  d11a              BNE      |L6.122|
000044  4641              MOV      r1,r8                 ;1379
000046  f7fffffe          BL       WM_GetDialogItem
00004a  4605              MOV      r5,r0                 ;1379
00004c  4631              MOV      r1,r6                 ;1380
00004e  4628              MOV      r0,r5                 ;1380
000050  f7fffffe          BL       TEXT_SetBkColor
000054  4639              MOV      r1,r7                 ;1381
000056  4628              MOV      r0,r5                 ;1381
000058  f7fffffe          BL       TEXT_SetTextColor
00005c  4649              MOV      r1,r9
00005e  6a20              LDR      r0,[r4,#0x20]  ; hWinR
000060  f7fffffe          BL       WM_GetDialogItem
000064  4605              MOV      r5,r0
;;;1384               TEXT_SetBkColor(hItem,0x00BFFFFF);
000066  4651              MOV      r1,r10
000068  4628              MOV      r0,r5
00006a  f7fffffe          BL       TEXT_SetBkColor
;;;1385               TEXT_SetTextColor(hItem, GUI_BLACK);
00006e  2100              MOVS     r1,#0
000070  4628              MOV      r0,r5
000072  f7fffffe          BL       TEXT_SetTextColor
;;;1386               
;;;1387               oc_sw = set_75;
000076  204a              MOVS     r0,#0x4a
000078  71a0              STRB     r0,[r4,#6]
                  |L6.122|
;;;1388               break;
;;;1389           }
;;;1390   		case set_75:
;;;1391           {
;;;1392               WM_HWIN hItem;
;;;1393   //            WM_InvalidateWindow(hWinR);
;;;1394               hItem = WM_GetDialogItem(hWinR, ID_TEXT_145);
;;;1395               TEXT_SetBkColor(hItem,GUI_INVALID_COLOR);
;;;1396               TEXT_SetTextColor(hItem, GUI_WHITE);
;;;1397               
;;;1398               hItem = WM_GetDialogItem(hWinR, ID_TEXT_146);
;;;1399               TEXT_SetBkColor(hItem,0x00BFFFFF);
;;;1400               TEXT_SetTextColor(hItem, GUI_BLACK);
;;;1401               
;;;1402               oc_sw = set_76;
;;;1403               break;
;;;1404           }
;;;1405           case set_76:
;;;1406           {
;;;1407               WM_HWIN hItem;
;;;1408   //            WM_InvalidateWindow(hWinR);
;;;1409               hItem = WM_GetDialogItem(hWinR, ID_TEXT_146);
;;;1410               TEXT_SetBkColor(hItem,GUI_INVALID_COLOR);
;;;1411               TEXT_SetTextColor(hItem, GUI_WHITE);
;;;1412               
;;;1413               hItem = WM_GetDialogItem(hWinR, ID_TEXT_147);
;;;1414               TEXT_SetBkColor(hItem,0x00BFFFFF);
;;;1415               TEXT_SetTextColor(hItem, GUI_BLACK);
;;;1416               
;;;1417               oc_sw = set_77;
;;;1418               break;
;;;1419           }
;;;1420   		case set_77:
;;;1421           {
;;;1422               WM_HWIN hItem;
;;;1423   //            WM_InvalidateWindow(hWinR);
;;;1424               hItem = WM_GetDialogItem(hWinR, ID_TEXT_147);
;;;1425               TEXT_SetBkColor(hItem,GUI_INVALID_COLOR);
;;;1426               TEXT_SetTextColor(hItem, GUI_WHITE);
;;;1427               
;;;1428               hItem = WM_GetDialogItem(hWinR, ID_TEXT_152);
;;;1429               TEXT_SetBkColor(hItem,0x00BFFFFF);
;;;1430               TEXT_SetTextColor(hItem, GUI_BLACK);
;;;1431               
;;;1432               oc_sw = set_81;
;;;1433               break;
;;;1434           }
;;;1435       }
;;;1436       
;;;1437   }
00007a  e8bd87f0          POP      {r4-r10,pc}
                  |L6.126|
00007e  f44f6513          MOV      r5,#0x930             ;1398
000082  2a4a              CMP      r2,#0x4a              ;1296
000084  d07b              BEQ      |L6.382|
000086  f6401931          MOV      r9,#0x931             ;1413
00008a  2a4b              CMP      r2,#0x4b              ;1296
00008c  d078              BEQ      |L6.384|
00008e  1dad              ADDS     r5,r5,#6              ;1302
000090  2a4c              CMP      r2,#0x4c              ;1296
000092  d076              BEQ      |L6.386|
000094  2a50              CMP      r2,#0x50              ;1296
000096  d1f0              BNE      |L6.122|
000098  4629              MOV      r1,r5                 ;1302
00009a  f7fffffe          BL       WM_GetDialogItem
00009e  4605              MOV      r5,r0                 ;1302
0000a0  4631              MOV      r1,r6                 ;1303
0000a2  4628              MOV      r0,r5                 ;1303
0000a4  f7fffffe          BL       TEXT_SetBkColor
0000a8  4639              MOV      r1,r7                 ;1304
0000aa  4628              MOV      r0,r5                 ;1304
0000ac  f7fffffe          BL       TEXT_SetTextColor
0000b0  4641              MOV      r1,r8                 ;1306
0000b2  6a20              LDR      r0,[r4,#0x20]         ;1306  ; hWinR
0000b4  f7fffffe          BL       WM_GetDialogItem
0000b8  4605              MOV      r5,r0                 ;1306
0000ba  4651              MOV      r1,r10                ;1307
0000bc  4628              MOV      r0,r5                 ;1307
0000be  f7fffffe          BL       TEXT_SetBkColor
0000c2  2100              MOVS     r1,#0                 ;1308
0000c4  4628              MOV      r0,r5                 ;1308
0000c6  f7fffffe          BL       TEXT_SetTextColor
0000ca  2047              MOVS     r0,#0x47              ;1310
0000cc  71a0              STRB     r0,[r4,#6]            ;1310
0000ce  e7d4              B        |L6.122|
                  |L6.208|
0000d0  4641              MOV      r1,r8                 ;1318
0000d2  f7fffffe          BL       WM_GetDialogItem
0000d6  4680              MOV      r8,r0                 ;1318
0000d8  4631              MOV      r1,r6                 ;1319
0000da  4640              MOV      r0,r8                 ;1319
0000dc  f7fffffe          BL       TEXT_SetBkColor
0000e0  4639              MOV      r1,r7                 ;1320
0000e2  4640              MOV      r0,r8                 ;1320
0000e4  f7fffffe          BL       TEXT_SetTextColor
0000e8  4629              MOV      r1,r5                 ;1322
0000ea  6a20              LDR      r0,[r4,#0x20]         ;1322  ; hWinR
0000ec  f7fffffe          BL       WM_GetDialogItem
0000f0  4605              MOV      r5,r0                 ;1322
0000f2  4651              MOV      r1,r10                ;1323
0000f4  4628              MOV      r0,r5                 ;1323
0000f6  f7fffffe          BL       TEXT_SetBkColor
0000fa  2100              MOVS     r1,#0                 ;1324
0000fc  4628              MOV      r0,r5                 ;1324
0000fe  f7fffffe          BL       TEXT_SetTextColor
000102  2013              MOVS     r0,#0x13              ;1326
000104  71a0              STRB     r0,[r4,#6]            ;1326
000106  e7b8              B        |L6.122|
                  |L6.264|
000108  4629              MOV      r1,r5                 ;1334
00010a  f7fffffe          BL       WM_GetDialogItem
00010e  4605              MOV      r5,r0                 ;1334
000110  4631              MOV      r1,r6                 ;1335
000112  4628              MOV      r0,r5                 ;1335
000114  f7fffffe          BL       TEXT_SetBkColor
000118  4639              MOV      r1,r7                 ;1336
00011a  4628              MOV      r0,r5                 ;1336
00011c  f7fffffe          BL       TEXT_SetTextColor
000120  4641              MOV      r1,r8                 ;1338
000122  6a20              LDR      r0,[r4,#0x20]         ;1338  ; hWinR
000124  f7fffffe          BL       WM_GetDialogItem
000128  4605              MOV      r5,r0                 ;1338
00012a  4651              MOV      r1,r10                ;1339
00012c  4628              MOV      r0,r5                 ;1339
00012e  f7fffffe          BL       TEXT_SetBkColor
000132  e001              B        |L6.312|
                  |L6.308|
000134  e007              B        |L6.326|
                  |L6.310|
000136  e025              B        |L6.388|
                  |L6.312|
000138  2100              MOVS     r1,#0                 ;1340
00013a  4628              MOV      r0,r5                 ;1340
00013c  f7fffffe          BL       TEXT_SetTextColor
000140  2014              MOVS     r0,#0x14              ;1342
000142  71a0              STRB     r0,[r4,#6]            ;1342
000144  e799              B        |L6.122|
                  |L6.326|
000146  4641              MOV      r1,r8                 ;1349
000148  f7fffffe          BL       WM_GetDialogItem
00014c  4680              MOV      r8,r0                 ;1349
00014e  4631              MOV      r1,r6                 ;1350
000150  4640              MOV      r0,r8                 ;1350
000152  f7fffffe          BL       TEXT_SetBkColor
000156  4639              MOV      r1,r7                 ;1351
000158  4640              MOV      r0,r8                 ;1351
00015a  f7fffffe          BL       TEXT_SetTextColor
00015e  4629              MOV      r1,r5                 ;1353
000160  6a20              LDR      r0,[r4,#0x20]         ;1353  ; hWinR
000162  f7fffffe          BL       WM_GetDialogItem
000166  4605              MOV      r5,r0                 ;1353
000168  4651              MOV      r1,r10                ;1354
00016a  4628              MOV      r0,r5                 ;1354
00016c  f7fffffe          BL       TEXT_SetBkColor
000170  2100              MOVS     r1,#0                 ;1355
000172  4628              MOV      r0,r5                 ;1355
000174  f7fffffe          BL       TEXT_SetTextColor
000178  203f              MOVS     r0,#0x3f              ;1357
00017a  71a0              STRB     r0,[r4,#6]            ;1357
00017c  e77d              B        |L6.122|
                  |L6.382|
00017e  e01d              B        |L6.444|
                  |L6.384|
000180  e038              B        |L6.500|
                  |L6.386|
000182  e053              B        |L6.556|
                  |L6.388|
000184  4629              MOV      r1,r5                 ;1364
000186  f7fffffe          BL       WM_GetDialogItem
00018a  4605              MOV      r5,r0                 ;1364
00018c  4631              MOV      r1,r6                 ;1365
00018e  4628              MOV      r0,r5                 ;1365
000190  f7fffffe          BL       TEXT_SetBkColor
000194  4639              MOV      r1,r7                 ;1366
000196  4628              MOV      r0,r5                 ;1366
000198  f7fffffe          BL       TEXT_SetTextColor
00019c  4641              MOV      r1,r8                 ;1368
00019e  6a20              LDR      r0,[r4,#0x20]         ;1368  ; hWinR
0001a0  f7fffffe          BL       WM_GetDialogItem
0001a4  4605              MOV      r5,r0                 ;1368
0001a6  4651              MOV      r1,r10                ;1369
0001a8  4628              MOV      r0,r5                 ;1369
0001aa  f7fffffe          BL       TEXT_SetBkColor
0001ae  2100              MOVS     r1,#0                 ;1370
0001b0  4628              MOV      r0,r5                 ;1370
0001b2  f7fffffe          BL       TEXT_SetTextColor
0001b6  2045              MOVS     r0,#0x45              ;1372
0001b8  71a0              STRB     r0,[r4,#6]            ;1372
0001ba  e75e              B        |L6.122|
                  |L6.444|
0001bc  4649              MOV      r1,r9                 ;1394
0001be  f7fffffe          BL       WM_GetDialogItem
0001c2  4680              MOV      r8,r0                 ;1394
0001c4  4631              MOV      r1,r6                 ;1395
0001c6  4640              MOV      r0,r8                 ;1395
0001c8  f7fffffe          BL       TEXT_SetBkColor
0001cc  4639              MOV      r1,r7                 ;1396
0001ce  4640              MOV      r0,r8                 ;1396
0001d0  f7fffffe          BL       TEXT_SetTextColor
0001d4  4629              MOV      r1,r5                 ;1398
0001d6  6a20              LDR      r0,[r4,#0x20]         ;1398  ; hWinR
0001d8  f7fffffe          BL       WM_GetDialogItem
0001dc  4605              MOV      r5,r0                 ;1398
0001de  4651              MOV      r1,r10                ;1399
0001e0  4628              MOV      r0,r5                 ;1399
0001e2  f7fffffe          BL       TEXT_SetBkColor
0001e6  2100              MOVS     r1,#0                 ;1400
0001e8  4628              MOV      r0,r5                 ;1400
0001ea  f7fffffe          BL       TEXT_SetTextColor
0001ee  204b              MOVS     r0,#0x4b              ;1402
0001f0  71a0              STRB     r0,[r4,#6]            ;1402
0001f2  e742              B        |L6.122|
                  |L6.500|
0001f4  4629              MOV      r1,r5                 ;1409
0001f6  f7fffffe          BL       WM_GetDialogItem
0001fa  4605              MOV      r5,r0                 ;1409
0001fc  4631              MOV      r1,r6                 ;1410
0001fe  4628              MOV      r0,r5                 ;1410
000200  f7fffffe          BL       TEXT_SetBkColor
000204  4639              MOV      r1,r7                 ;1411
000206  4628              MOV      r0,r5                 ;1411
000208  f7fffffe          BL       TEXT_SetTextColor
00020c  4649              MOV      r1,r9                 ;1413
00020e  6a20              LDR      r0,[r4,#0x20]         ;1413  ; hWinR
000210  f7fffffe          BL       WM_GetDialogItem
000214  4605              MOV      r5,r0                 ;1413
000216  4651              MOV      r1,r10                ;1414
000218  4628              MOV      r0,r5                 ;1414
00021a  f7fffffe          BL       TEXT_SetBkColor
00021e  2100              MOVS     r1,#0                 ;1415
000220  4628              MOV      r0,r5                 ;1415
000222  f7fffffe          BL       TEXT_SetTextColor
000226  204c              MOVS     r0,#0x4c              ;1417
000228  71a0              STRB     r0,[r4,#6]            ;1417
00022a  e726              B        |L6.122|
                  |L6.556|
00022c  4649              MOV      r1,r9                 ;1424
00022e  f7fffffe          BL       WM_GetDialogItem
000232  4680              MOV      r8,r0                 ;1424
000234  4631              MOV      r1,r6                 ;1425
000236  4640              MOV      r0,r8                 ;1425
000238  f7fffffe          BL       TEXT_SetBkColor
00023c  4639              MOV      r1,r7                 ;1426
00023e  4640              MOV      r0,r8                 ;1426
000240  f7fffffe          BL       TEXT_SetTextColor
000244  4629              MOV      r1,r5                 ;1428
000246  6a20              LDR      r0,[r4,#0x20]         ;1428  ; hWinR
000248  f7fffffe          BL       WM_GetDialogItem
00024c  4605              MOV      r5,r0                 ;1428
00024e  4651              MOV      r1,r10                ;1429
000250  4628              MOV      r0,r5                 ;1429
000252  f7fffffe          BL       TEXT_SetBkColor
000256  2100              MOVS     r1,#0                 ;1430
000258  4628              MOV      r0,r5                 ;1430
00025a  f7fffffe          BL       TEXT_SetTextColor
00025e  2050              MOVS     r0,#0x50              ;1432
000260  71a0              STRB     r0,[r4,#6]            ;1432
000262  e70a              B        |L6.122|
;;;1438   
                          ENDP

                  |L6.612|
                          DCD      ||.data||
                  |L6.616|
                          DCD      0x00bfffff

                          AREA ||i.OC_OP_LEFT||, CODE, READONLY, ALIGN=2

                  OC_OP_LEFT PROC
;;;1582   
;;;1583   void OC_OP_LEFT(void)
000000  b570              PUSH     {r4-r6,lr}
;;;1584   {
;;;1585   	switch(oc_sw)
000002  4c12              LDR      r4,|L7.76|
000004  79a0              LDRB     r0,[r4,#6]  ; oc_sw
000006  285a              CMP      r0,#0x5a
000008  d11f              BNE      |L7.74|
;;;1586       {
;;;1587   		case set_91:
;;;1588           {
;;;1589               WM_HWIN hItem;
;;;1590   //            WM_InvalidateWindow(hWinR);
;;;1591               hItem = WM_GetDialogItem(hWinR, ID_TEXT_167);
00000a  f6401142          MOV      r1,#0x942
00000e  6a20              LDR      r0,[r4,#0x20]  ; hWinR
000010  f7fffffe          BL       WM_GetDialogItem
000014  4605              MOV      r5,r0
;;;1592               TEXT_SetBkColor(hItem,GUI_INVALID_COLOR);
000016  f06f4170          MVN      r1,#0xf0000000
00001a  4628              MOV      r0,r5
00001c  f7fffffe          BL       TEXT_SetBkColor
;;;1593               TEXT_SetTextColor(hItem, GUI_WHITE);
000020  f06f417f          MVN      r1,#0xff000000
000024  4628              MOV      r0,r5
000026  f7fffffe          BL       TEXT_SetTextColor
;;;1594               
;;;1595               hItem = WM_GetDialogItem(hWinR, ID_TEXT_152);
00002a  f6401136          MOV      r1,#0x936
00002e  6a20              LDR      r0,[r4,#0x20]  ; hWinR
000030  f7fffffe          BL       WM_GetDialogItem
000034  4605              MOV      r5,r0
;;;1596               TEXT_SetBkColor(hItem,0x00BFFFFF);
000036  4906              LDR      r1,|L7.80|
000038  4628              MOV      r0,r5
00003a  f7fffffe          BL       TEXT_SetBkColor
;;;1597               TEXT_SetTextColor(hItem, GUI_BLACK);
00003e  2100              MOVS     r1,#0
000040  4628              MOV      r0,r5
000042  f7fffffe          BL       TEXT_SetTextColor
;;;1598               
;;;1599               oc_sw = set_81;
000046  2050              MOVS     r0,#0x50
000048  71a0              STRB     r0,[r4,#6]
                  |L7.74|
;;;1600               break;
;;;1601           }
;;;1602   	}
;;;1603   }
00004a  bd70              POP      {r4-r6,pc}
;;;1604   
                          ENDP

                  |L7.76|
                          DCD      ||.data||
                  |L7.80|
                          DCD      0x00bfffff

                          AREA ||i.OC_OP_RIGHT||, CODE, READONLY, ALIGN=2

                  OC_OP_RIGHT PROC
;;;1438   
;;;1439   void OC_OP_RIGHT(void)
000000  e92d47f0          PUSH     {r4-r10,lr}
;;;1440   {
;;;1441   	switch(oc_sw)
000004  4c90              LDR      r4,|L8.584|
000006  79a2              LDRB     r2,[r4,#6]  ; oc_sw
000008  4620              MOV      r0,r4
;;;1442       {
;;;1443   		case set_81:
;;;1444           {
;;;1445               WM_HWIN hItem;
;;;1446   //            WM_InvalidateWindow(hWinR);
;;;1447               hItem = WM_GetDialogItem(hWinR, ID_TEXT_152);
;;;1448               TEXT_SetBkColor(hItem,GUI_INVALID_COLOR);
00000a  f06f4670          MVN      r6,#0xf0000000
;;;1449               TEXT_SetTextColor(hItem, GUI_WHITE);
00000e  1137              ASRS     r7,r6,#4
;;;1450               
;;;1451               hItem = WM_GetDialogItem(hWinR, ID_TEXT_167);
;;;1452               TEXT_SetBkColor(hItem,0x00BFFFFF);
000010  f8df9238          LDR      r9,|L8.588|
;;;1453               TEXT_SetTextColor(hItem, GUI_BLACK);
;;;1454               
;;;1455               oc_sw = set_91;
000014  255a              MOVS     r5,#0x5a
000016  6a00              LDR      r0,[r0,#0x20]         ;1447
000018  f6401842          MOV      r8,#0x942             ;1451
00001c  2a47              CMP      r2,#0x47              ;1441
00001e  d049              BEQ      |L8.180|
000020  dc24              BGT      |L8.108|
000022  2a13              CMP      r2,#0x13              ;1441
000024  d062              BEQ      |L8.236|
000026  2a14              CMP      r2,#0x14              ;1441
000028  d07e              BEQ      |L8.296|
00002a  2a3f              CMP      r2,#0x3f              ;1441
00002c  d07b              BEQ      |L8.294|
00002e  2a45              CMP      r2,#0x45              ;1441
000030  d11a              BNE      |L8.104|
;;;1456               break;
;;;1457           }
;;;1458   		
;;;1459           case set_72:
;;;1460           {
;;;1461               WM_HWIN hItem;
;;;1462   //            WM_InvalidateWindow(hWinR);
;;;1463               hItem = WM_GetDialogItem(hWinR, ID_TEXT_1);
;;;1464               TEXT_SetBkColor(hItem,GUI_INVALID_COLOR);
;;;1465               TEXT_SetTextColor(hItem, GUI_WHITE);
;;;1466               
;;;1467               hItem = WM_GetDialogItem(hWinR, ID_TEXT_167);
;;;1468               TEXT_SetBkColor(hItem,0x00BFFFFF);
;;;1469               TEXT_SetTextColor(hItem, GUI_BLACK);
;;;1470               
;;;1471               oc_sw = set_91;
;;;1472               break;
;;;1473           }
;;;1474           
;;;1475           case set_20:
;;;1476           {
;;;1477               WM_HWIN hItem;
;;;1478   //            WM_InvalidateWindow(hWinR);
;;;1479               hItem = WM_GetDialogItem(hWinR, ID_TEXT_44);
;;;1480               TEXT_SetBkColor(hItem,GUI_INVALID_COLOR);
;;;1481               TEXT_SetTextColor(hItem, GUI_WHITE);
;;;1482               
;;;1483               hItem = WM_GetDialogItem(hWinR, ID_TEXT_167);
;;;1484               TEXT_SetBkColor(hItem,0x00BFFFFF);
;;;1485               TEXT_SetTextColor(hItem, GUI_BLACK);
;;;1486               
;;;1487               oc_sw = set_91;
;;;1488               break;
;;;1489           }
;;;1490           case set_21:
;;;1491           {
;;;1492               WM_HWIN hItem;
;;;1493   //            WM_InvalidateWindow(hWinR);
;;;1494               hItem = WM_GetDialogItem(hWinR, ID_TEXT_45);
;;;1495               TEXT_SetBkColor(hItem,GUI_INVALID_COLOR);
;;;1496               TEXT_SetTextColor(hItem, GUI_WHITE);
;;;1497               
;;;1498               hItem = WM_GetDialogItem(hWinR, ID_TEXT_167);
;;;1499               TEXT_SetBkColor(hItem,0x00BFFFFF);
;;;1500               TEXT_SetTextColor(hItem, GUI_BLACK);
;;;1501               
;;;1502               oc_sw = set_91;
;;;1503               break;
;;;1504           }
;;;1505           case set_64:
;;;1506           {
;;;1507               WM_HWIN hItem;
;;;1508   //            WM_InvalidateWindow(hWinR);
;;;1509               hItem = WM_GetDialogItem(hWinR, ID_TEXT_118);
;;;1510               TEXT_SetBkColor(hItem,GUI_INVALID_COLOR);
;;;1511               TEXT_SetTextColor(hItem, GUI_WHITE);
;;;1512               
;;;1513               hItem = WM_GetDialogItem(hWinR, ID_TEXT_167);
;;;1514               TEXT_SetBkColor(hItem,0x00BFFFFF);
;;;1515               TEXT_SetTextColor(hItem, GUI_BLACK);
;;;1516               
;;;1517               oc_sw = set_91;
;;;1518               break;
;;;1519           }
;;;1520           case set_70:
;;;1521           {
;;;1522               WM_HWIN hItem;
;;;1523   //            WM_InvalidateWindow(hWinR);
;;;1524               hItem = WM_GetDialogItem(hWinR, ID_TEXT_43);
000032  f6400168          MOV      r1,#0x868
000036  f7fffffe          BL       WM_GetDialogItem
00003a  4682              MOV      r10,r0
;;;1525               TEXT_SetBkColor(hItem,GUI_INVALID_COLOR);
00003c  4631              MOV      r1,r6
00003e  4650              MOV      r0,r10
000040  f7fffffe          BL       TEXT_SetBkColor
;;;1526               TEXT_SetTextColor(hItem, GUI_WHITE);
000044  4639              MOV      r1,r7
000046  4650              MOV      r0,r10
000048  f7fffffe          BL       TEXT_SetTextColor
;;;1527               
;;;1528               hItem = WM_GetDialogItem(hWinR, ID_TEXT_167);
00004c  4641              MOV      r1,r8
00004e  6a20              LDR      r0,[r4,#0x20]  ; hWinR
000050  f7fffffe          BL       WM_GetDialogItem
000054  4606              MOV      r6,r0
;;;1529               TEXT_SetBkColor(hItem,0x00BFFFFF);
000056  4649              MOV      r1,r9
000058  4630              MOV      r0,r6
00005a  f7fffffe          BL       TEXT_SetBkColor
;;;1530               TEXT_SetTextColor(hItem, GUI_BLACK);
00005e  2100              MOVS     r1,#0
000060  4630              MOV      r0,r6
000062  f7fffffe          BL       TEXT_SetTextColor
;;;1531               
;;;1532               oc_sw = set_91;
000066  71a5              STRB     r5,[r4,#6]
                  |L8.104|
;;;1533               break;
;;;1534           }
;;;1535   		case set_75:
;;;1536           {
;;;1537               WM_HWIN hItem;
;;;1538   //            WM_InvalidateWindow(hWinR);
;;;1539               hItem = WM_GetDialogItem(hWinR, ID_TEXT_145);
;;;1540               TEXT_SetBkColor(hItem,GUI_INVALID_COLOR);
;;;1541               TEXT_SetTextColor(hItem, GUI_WHITE);
;;;1542               
;;;1543               hItem = WM_GetDialogItem(hWinR, ID_TEXT_167);
;;;1544               TEXT_SetBkColor(hItem,0x00BFFFFF);
;;;1545               TEXT_SetTextColor(hItem, GUI_BLACK);
;;;1546               
;;;1547               oc_sw = set_91;
;;;1548               break;
;;;1549           }
;;;1550           case set_76:
;;;1551           {
;;;1552               WM_HWIN hItem;
;;;1553   //            WM_InvalidateWindow(hWinR);
;;;1554               hItem = WM_GetDialogItem(hWinR, ID_TEXT_146);
;;;1555               TEXT_SetBkColor(hItem,GUI_INVALID_COLOR);
;;;1556               TEXT_SetTextColor(hItem, GUI_WHITE);
;;;1557               
;;;1558               hItem = WM_GetDialogItem(hWinR, ID_TEXT_167);
;;;1559               TEXT_SetBkColor(hItem,0x00BFFFFF);
;;;1560               TEXT_SetTextColor(hItem, GUI_BLACK);
;;;1561               
;;;1562               oc_sw = set_91;
;;;1563               break;
;;;1564           }
;;;1565   		case set_77:
;;;1566           {
;;;1567               WM_HWIN hItem;
;;;1568   //            WM_InvalidateWindow(hWinR);
;;;1569               hItem = WM_GetDialogItem(hWinR, ID_TEXT_147);
;;;1570               TEXT_SetBkColor(hItem,GUI_INVALID_COLOR);
;;;1571               TEXT_SetTextColor(hItem, GUI_WHITE);
;;;1572               
;;;1573               hItem = WM_GetDialogItem(hWinR, ID_TEXT_167);
;;;1574               TEXT_SetBkColor(hItem,0x00BFFFFF);
;;;1575               TEXT_SetTextColor(hItem, GUI_BLACK);
;;;1576               
;;;1577               oc_sw = set_91;
;;;1578               break;
;;;1579           }
;;;1580       }
;;;1581   }
000068  e8bd87f0          POP      {r4-r10,pc}
                  |L8.108|
00006c  2a4a              CMP      r2,#0x4a              ;1441
00006e  d077              BEQ      |L8.352|
000070  2a4b              CMP      r2,#0x4b              ;1441
000072  d076              BEQ      |L8.354|
000074  2a4c              CMP      r2,#0x4c              ;1441
000076  d075              BEQ      |L8.356|
000078  2a50              CMP      r2,#0x50              ;1441
00007a  d1f5              BNE      |L8.104|
00007c  f6401136          MOV      r1,#0x936             ;1447
000080  f7fffffe          BL       WM_GetDialogItem
000084  4682              MOV      r10,r0                ;1447
000086  4631              MOV      r1,r6                 ;1448
000088  4650              MOV      r0,r10                ;1448
00008a  f7fffffe          BL       TEXT_SetBkColor
00008e  4639              MOV      r1,r7                 ;1449
000090  4650              MOV      r0,r10                ;1449
000092  f7fffffe          BL       TEXT_SetTextColor
000096  4641              MOV      r1,r8                 ;1451
000098  6a20              LDR      r0,[r4,#0x20]         ;1451  ; hWinR
00009a  f7fffffe          BL       WM_GetDialogItem
00009e  4606              MOV      r6,r0                 ;1451
0000a0  4649              MOV      r1,r9                 ;1452
0000a2  4630              MOV      r0,r6                 ;1452
0000a4  f7fffffe          BL       TEXT_SetBkColor
0000a8  2100              MOVS     r1,#0                 ;1453
0000aa  4630              MOV      r0,r6                 ;1453
0000ac  f7fffffe          BL       TEXT_SetTextColor
0000b0  71a5              STRB     r5,[r4,#6]            ;1455
0000b2  e7d9              B        |L8.104|
                  |L8.180|
0000b4  f6400114          MOV      r1,#0x814             ;1463
0000b8  f7fffffe          BL       WM_GetDialogItem
0000bc  4682              MOV      r10,r0                ;1463
0000be  4631              MOV      r1,r6                 ;1464
0000c0  4650              MOV      r0,r10                ;1464
0000c2  f7fffffe          BL       TEXT_SetBkColor
0000c6  4639              MOV      r1,r7                 ;1465
0000c8  4650              MOV      r0,r10                ;1465
0000ca  f7fffffe          BL       TEXT_SetTextColor
0000ce  4641              MOV      r1,r8                 ;1467
0000d0  6a20              LDR      r0,[r4,#0x20]         ;1467  ; hWinR
0000d2  f7fffffe          BL       WM_GetDialogItem
0000d6  4606              MOV      r6,r0                 ;1467
0000d8  4649              MOV      r1,r9                 ;1468
0000da  4630              MOV      r0,r6                 ;1468
0000dc  f7fffffe          BL       TEXT_SetBkColor
0000e0  2100              MOVS     r1,#0                 ;1469
0000e2  4630              MOV      r0,r6                 ;1469
0000e4  f7fffffe          BL       TEXT_SetTextColor
0000e8  71a5              STRB     r5,[r4,#6]            ;1471
0000ea  e7bd              B        |L8.104|
                  |L8.236|
0000ec  f6400169          MOV      r1,#0x869             ;1479
0000f0  f7fffffe          BL       WM_GetDialogItem
0000f4  4682              MOV      r10,r0                ;1479
0000f6  4631              MOV      r1,r6                 ;1480
0000f8  4650              MOV      r0,r10                ;1480
0000fa  f7fffffe          BL       TEXT_SetBkColor
0000fe  4639              MOV      r1,r7                 ;1481
000100  4650              MOV      r0,r10                ;1481
000102  f7fffffe          BL       TEXT_SetTextColor
000106  4641              MOV      r1,r8                 ;1483
000108  6a20              LDR      r0,[r4,#0x20]         ;1483  ; hWinR
00010a  f7fffffe          BL       WM_GetDialogItem
00010e  4606              MOV      r6,r0                 ;1483
000110  4649              MOV      r1,r9                 ;1484
000112  4630              MOV      r0,r6                 ;1484
000114  f7fffffe          BL       TEXT_SetBkColor
000118  2100              MOVS     r1,#0                 ;1485
00011a  4630              MOV      r0,r6                 ;1485
00011c  f7fffffe          BL       TEXT_SetTextColor
000120  71a5              STRB     r5,[r4,#6]            ;1487
000122  e7a1              B        |L8.104|
000124  e000              B        |L8.296|
                  |L8.294|
000126  e01e              B        |L8.358|
                  |L8.296|
000128  f640016a          MOV      r1,#0x86a             ;1494
00012c  f7fffffe          BL       WM_GetDialogItem
000130  4682              MOV      r10,r0                ;1494
000132  4631              MOV      r1,r6                 ;1495
000134  4650              MOV      r0,r10                ;1495
000136  f7fffffe          BL       TEXT_SetBkColor
00013a  4639              MOV      r1,r7                 ;1496
00013c  4650              MOV      r0,r10                ;1496
00013e  f7fffffe          BL       TEXT_SetTextColor
000142  4641              MOV      r1,r8                 ;1498
000144  6a20              LDR      r0,[r4,#0x20]         ;1498  ; hWinR
000146  f7fffffe          BL       WM_GetDialogItem
00014a  4606              MOV      r6,r0                 ;1498
00014c  4649              MOV      r1,r9                 ;1499
00014e  4630              MOV      r0,r6                 ;1499
000150  f7fffffe          BL       TEXT_SetBkColor
000154  2100              MOVS     r1,#0                 ;1500
000156  4630              MOV      r0,r6                 ;1500
000158  f7fffffe          BL       TEXT_SetTextColor
00015c  71a5              STRB     r5,[r4,#6]            ;1502
00015e  e783              B        |L8.104|
                  |L8.352|
000160  e01d              B        |L8.414|
                  |L8.354|
000162  e038              B        |L8.470|
                  |L8.356|
000164  e053              B        |L8.526|
                  |L8.358|
000166  f6401108          MOV      r1,#0x908             ;1509
00016a  f7fffffe          BL       WM_GetDialogItem
00016e  4682              MOV      r10,r0                ;1509
000170  4631              MOV      r1,r6                 ;1510
000172  4650              MOV      r0,r10                ;1510
000174  f7fffffe          BL       TEXT_SetBkColor
000178  4639              MOV      r1,r7                 ;1511
00017a  4650              MOV      r0,r10                ;1511
00017c  f7fffffe          BL       TEXT_SetTextColor
000180  4641              MOV      r1,r8                 ;1513
000182  6a20              LDR      r0,[r4,#0x20]         ;1513  ; hWinR
000184  f7fffffe          BL       WM_GetDialogItem
000188  4606              MOV      r6,r0                 ;1513
00018a  4649              MOV      r1,r9                 ;1514
00018c  4630              MOV      r0,r6                 ;1514
00018e  f7fffffe          BL       TEXT_SetBkColor
000192  2100              MOVS     r1,#0                 ;1515
000194  4630              MOV      r0,r6                 ;1515
000196  f7fffffe          BL       TEXT_SetTextColor
00019a  71a5              STRB     r5,[r4,#6]            ;1517
00019c  e764              B        |L8.104|
                  |L8.414|
00019e  f640112f          MOV      r1,#0x92f             ;1539
0001a2  f7fffffe          BL       WM_GetDialogItem
0001a6  4682              MOV      r10,r0                ;1539
0001a8  4631              MOV      r1,r6                 ;1540
0001aa  4650              MOV      r0,r10                ;1540
0001ac  f7fffffe          BL       TEXT_SetBkColor
0001b0  4639              MOV      r1,r7                 ;1541
0001b2  4650              MOV      r0,r10                ;1541
0001b4  f7fffffe          BL       TEXT_SetTextColor
0001b8  4641              MOV      r1,r8                 ;1543
0001ba  6a20              LDR      r0,[r4,#0x20]         ;1543  ; hWinR
0001bc  f7fffffe          BL       WM_GetDialogItem
0001c0  4606              MOV      r6,r0                 ;1543
0001c2  4649              MOV      r1,r9                 ;1544
0001c4  4630              MOV      r0,r6                 ;1544
0001c6  f7fffffe          BL       TEXT_SetBkColor
0001ca  2100              MOVS     r1,#0                 ;1545
0001cc  4630              MOV      r0,r6                 ;1545
0001ce  f7fffffe          BL       TEXT_SetTextColor
0001d2  71a5              STRB     r5,[r4,#6]            ;1547
0001d4  e748              B        |L8.104|
                  |L8.470|
0001d6  f44f6113          MOV      r1,#0x930             ;1554
0001da  f7fffffe          BL       WM_GetDialogItem
0001de  4682              MOV      r10,r0                ;1554
0001e0  4631              MOV      r1,r6                 ;1555
0001e2  4650              MOV      r0,r10                ;1555
0001e4  f7fffffe          BL       TEXT_SetBkColor
0001e8  4639              MOV      r1,r7                 ;1556
0001ea  4650              MOV      r0,r10                ;1556
0001ec  f7fffffe          BL       TEXT_SetTextColor
0001f0  4641              MOV      r1,r8                 ;1558
0001f2  6a20              LDR      r0,[r4,#0x20]         ;1558  ; hWinR
0001f4  f7fffffe          BL       WM_GetDialogItem
0001f8  4606              MOV      r6,r0                 ;1558
0001fa  4649              MOV      r1,r9                 ;1559
0001fc  4630              MOV      r0,r6                 ;1559
0001fe  f7fffffe          BL       TEXT_SetBkColor
000202  2100              MOVS     r1,#0                 ;1560
000204  4630              MOV      r0,r6                 ;1560
000206  f7fffffe          BL       TEXT_SetTextColor
00020a  71a5              STRB     r5,[r4,#6]            ;1562
00020c  e72c              B        |L8.104|
                  |L8.526|
00020e  f6401131          MOV      r1,#0x931             ;1569
000212  f7fffffe          BL       WM_GetDialogItem
000216  4682              MOV      r10,r0                ;1569
000218  4631              MOV      r1,r6                 ;1570
00021a  4650              MOV      r0,r10                ;1570
00021c  f7fffffe          BL       TEXT_SetBkColor
000220  4639              MOV      r1,r7                 ;1571
000222  4650              MOV      r0,r10                ;1571
000224  f7fffffe          BL       TEXT_SetTextColor
000228  4641              MOV      r1,r8                 ;1573
00022a  6a20              LDR      r0,[r4,#0x20]         ;1573  ; hWinR
00022c  f7fffffe          BL       WM_GetDialogItem
000230  4606              MOV      r6,r0                 ;1573
000232  4649              MOV      r1,r9                 ;1574
000234  4630              MOV      r0,r6                 ;1574
000236  f7fffffe          BL       TEXT_SetBkColor
00023a  2100              MOVS     r1,#0                 ;1575
00023c  4630              MOV      r0,r6                 ;1575
00023e  f7fffffe          BL       TEXT_SetTextColor
000242  71a5              STRB     r5,[r4,#6]            ;1577
000244  e710              B        |L8.104|
;;;1582   
                          ENDP

000246  0000              DCW      0x0000
                  |L8.584|
                          DCD      ||.data||
                  |L8.588|
                          DCD      0x00bfffff

                          AREA ||i.OC_OP_UP||, CODE, READONLY, ALIGN=2

                  OC_OP_UP PROC
;;;1605   void OC_OP_UP(void);
;;;1606   void OC_OP_UP(void)
000000  e92d47f0          PUSH     {r4-r10,lr}
;;;1607   {
;;;1608       switch(oc_sw)
000004  4c97              LDR      r4,|L9.612|
000006  79a2              LDRB     r2,[r4,#6]  ; oc_sw
000008  4620              MOV      r0,r4
;;;1609       {
;;;1610   		case set_81:
;;;1611           {
;;;1612               WM_HWIN hItem;
;;;1613   //            WM_InvalidateWindow(hWinR);
;;;1614               hItem = WM_GetDialogItem(hWinR, ID_TEXT_152);
;;;1615               TEXT_SetBkColor(hItem,GUI_INVALID_COLOR);
;;;1616               TEXT_SetTextColor(hItem, GUI_WHITE);
;;;1617               
;;;1618               hItem = WM_GetDialogItem(hWinR, ID_TEXT_147);
;;;1619               TEXT_SetBkColor(hItem,0x00BFFFFF);
00000a  f8dfa25c          LDR      r10,|L9.616|
00000e  6a00              LDR      r0,[r0,#0x20]         ;1614
000010  f6401536          MOV      r5,#0x936             ;1614
000014  f06f4870          MVN      r8,#0xf0000000        ;1615
000018  f06f497f          MVN      r9,#0xff000000        ;1616
;;;1620               TEXT_SetTextColor(hItem, GUI_BLACK);
;;;1621               
;;;1622               oc_sw = set_77;
;;;1623               break;
;;;1624           }
;;;1625   		
;;;1626           case set_72:
;;;1627           {
;;;1628               WM_HWIN hItem;
;;;1629   //            WM_InvalidateWindow(hWinR);
;;;1630               hItem = WM_GetDialogItem(hWinR, ID_TEXT_1);
00001c  f6400614          MOV      r6,#0x814
;;;1631               TEXT_SetBkColor(hItem,GUI_INVALID_COLOR);
;;;1632               TEXT_SetTextColor(hItem, GUI_WHITE);
;;;1633               
;;;1634               hItem = WM_GetDialogItem(hWinR, ID_TEXT_152);
;;;1635               TEXT_SetBkColor(hItem,0x00BFFFFF);
;;;1636               TEXT_SetTextColor(hItem, GUI_BLACK);
;;;1637               
;;;1638               oc_sw = set_81;
;;;1639               break;
;;;1640           }
;;;1641           
;;;1642           case set_20:
;;;1643           {
;;;1644               WM_HWIN hItem;
;;;1645   //            WM_InvalidateWindow(hWinR);
;;;1646               hItem = WM_GetDialogItem(hWinR, ID_TEXT_44);
;;;1647               TEXT_SetBkColor(hItem,GUI_INVALID_COLOR);
;;;1648               TEXT_SetTextColor(hItem, GUI_WHITE);
;;;1649               
;;;1650               hItem = WM_GetDialogItem(hWinR, ID_TEXT_1);
;;;1651               TEXT_SetBkColor(hItem,0x00BFFFFF);
;;;1652               TEXT_SetTextColor(hItem, GUI_BLACK);
;;;1653               
;;;1654               oc_sw = set_72;
;;;1655               break;
;;;1656           }
;;;1657           case set_21:
;;;1658           {
;;;1659               WM_HWIN hItem;
;;;1660   //            WM_InvalidateWindow(hWinR);
;;;1661               hItem = WM_GetDialogItem(hWinR, ID_TEXT_45);
;;;1662               TEXT_SetBkColor(hItem,GUI_INVALID_COLOR);
;;;1663               TEXT_SetTextColor(hItem, GUI_WHITE);
;;;1664               
;;;1665               
;;;1666               hItem = WM_GetDialogItem(hWinR, ID_TEXT_44);
;;;1667               TEXT_SetBkColor(hItem,0x00BFFFFF);
;;;1668               TEXT_SetTextColor(hItem, GUI_BLACK);
;;;1669               
;;;1670               oc_sw = set_20;
;;;1671               break;
;;;1672           }
;;;1673           case set_64:
;;;1674           {
;;;1675               WM_HWIN hItem;
;;;1676   //            WM_InvalidateWindow(hWinR);
;;;1677               hItem = WM_GetDialogItem(hWinR, ID_TEXT_118);
;;;1678               TEXT_SetBkColor(hItem,GUI_INVALID_COLOR);
;;;1679               TEXT_SetTextColor(hItem, GUI_WHITE);
;;;1680               
;;;1681               hItem = WM_GetDialogItem(hWinR, ID_TEXT_45);
;;;1682               TEXT_SetBkColor(hItem,0x00BFFFFF);
;;;1683               TEXT_SetTextColor(hItem, GUI_BLACK);
;;;1684               
;;;1685               oc_sw = set_21;
;;;1686               break;
;;;1687           }
;;;1688           case set_70:
;;;1689           {
;;;1690               WM_HWIN hItem;
;;;1691   //            WM_InvalidateWindow(hWinR);
;;;1692               hItem = WM_GetDialogItem(hWinR, ID_TEXT_43);
000020  f6400768          MOV      r7,#0x868
000024  2a47              CMP      r2,#0x47              ;1608
000026  d052              BEQ      |L9.206|
000028  dc29              BGT      |L9.126|
00002a  f6400569          MOV      r5,#0x869             ;1646
00002e  2a13              CMP      r2,#0x13              ;1608
000030  d069              BEQ      |L9.262|
000032  1c6e              ADDS     r6,r5,#1              ;1661
000034  2a14              CMP      r2,#0x14              ;1608
000036  d07d              BEQ      |L9.308|
000038  f6401508          MOV      r5,#0x908             ;1677
00003c  2a3f              CMP      r2,#0x3f              ;1608
00003e  d07a              BEQ      |L9.310|
000040  2a45              CMP      r2,#0x45              ;1608
000042  d11a              BNE      |L9.122|
000044  4639              MOV      r1,r7
000046  f7fffffe          BL       WM_GetDialogItem
00004a  4606              MOV      r6,r0
;;;1693               TEXT_SetBkColor(hItem,GUI_INVALID_COLOR);
00004c  4641              MOV      r1,r8
00004e  4630              MOV      r0,r6
000050  f7fffffe          BL       TEXT_SetBkColor
;;;1694               TEXT_SetTextColor(hItem, GUI_WHITE);
000054  4649              MOV      r1,r9
000056  4630              MOV      r0,r6
000058  f7fffffe          BL       TEXT_SetTextColor
;;;1695               
;;;1696               hItem = WM_GetDialogItem(hWinR, ID_TEXT_118);
00005c  4629              MOV      r1,r5
00005e  6a20              LDR      r0,[r4,#0x20]  ; hWinR
000060  f7fffffe          BL       WM_GetDialogItem
000064  4605              MOV      r5,r0
;;;1697               TEXT_SetBkColor(hItem,0x00BFFFFF);
000066  4651              MOV      r1,r10
000068  4628              MOV      r0,r5
00006a  f7fffffe          BL       TEXT_SetBkColor
;;;1698               TEXT_SetTextColor(hItem, GUI_BLACK);
00006e  2100              MOVS     r1,#0
000070  4628              MOV      r0,r5
000072  f7fffffe          BL       TEXT_SetTextColor
;;;1699               
;;;1700               oc_sw = set_64;
000076  203f              MOVS     r0,#0x3f
000078  71a0              STRB     r0,[r4,#6]
                  |L9.122|
;;;1701               break;
;;;1702           }
;;;1703   		case set_75:
;;;1704           {
;;;1705               WM_HWIN hItem;
;;;1706   //            WM_InvalidateWindow(hWinR);
;;;1707               hItem = WM_GetDialogItem(hWinR, ID_TEXT_145);
;;;1708               TEXT_SetBkColor(hItem,GUI_INVALID_COLOR);
;;;1709               TEXT_SetTextColor(hItem, GUI_WHITE);
;;;1710               
;;;1711               hItem = WM_GetDialogItem(hWinR, ID_TEXT_43);
;;;1712               TEXT_SetBkColor(hItem,0x00BFFFFF);
;;;1713               TEXT_SetTextColor(hItem, GUI_BLACK);
;;;1714               
;;;1715               oc_sw = set_70;
;;;1716               break;
;;;1717           }
;;;1718   		case set_76:
;;;1719           {
;;;1720               WM_HWIN hItem;
;;;1721   //            WM_InvalidateWindow(hWinR);
;;;1722               hItem = WM_GetDialogItem(hWinR, ID_TEXT_146);
;;;1723               TEXT_SetBkColor(hItem,GUI_INVALID_COLOR);
;;;1724               TEXT_SetTextColor(hItem, GUI_WHITE);
;;;1725               
;;;1726               hItem = WM_GetDialogItem(hWinR, ID_TEXT_145);
;;;1727               TEXT_SetBkColor(hItem,0x00BFFFFF);
;;;1728               TEXT_SetTextColor(hItem, GUI_BLACK);
;;;1729               
;;;1730               oc_sw = set_75;
;;;1731               break;
;;;1732           }
;;;1733   		case set_77:
;;;1734           {
;;;1735               WM_HWIN hItem;
;;;1736   //            WM_InvalidateWindow(hWinR);
;;;1737               hItem = WM_GetDialogItem(hWinR, ID_TEXT_147);
;;;1738               TEXT_SetBkColor(hItem,GUI_INVALID_COLOR);
;;;1739               TEXT_SetTextColor(hItem, GUI_WHITE);
;;;1740               
;;;1741               hItem = WM_GetDialogItem(hWinR, ID_TEXT_146);
;;;1742               TEXT_SetBkColor(hItem,0x00BFFFFF);
;;;1743               TEXT_SetTextColor(hItem, GUI_BLACK);
;;;1744               
;;;1745               oc_sw = set_76;
;;;1746               break;
;;;1747           }
;;;1748           
;;;1749       }
;;;1750       
;;;1751   }
00007a  e8bd87f0          POP      {r4-r10,pc}
                  |L9.126|
00007e  f640162f          MOV      r6,#0x92f             ;1707
000082  2a4a              CMP      r2,#0x4a              ;1608
000084  d07a              BEQ      |L9.380|
000086  1c77              ADDS     r7,r6,#1              ;1722
000088  2a4b              CMP      r2,#0x4b              ;1608
00008a  d078              BEQ      |L9.382|
00008c  1cb6              ADDS     r6,r6,#2              ;1618
00008e  2a4c              CMP      r2,#0x4c              ;1608
000090  d076              BEQ      |L9.384|
000092  2a50              CMP      r2,#0x50              ;1608
000094  d1f1              BNE      |L9.122|
000096  4629              MOV      r1,r5                 ;1614
000098  f7fffffe          BL       WM_GetDialogItem
00009c  4605              MOV      r5,r0                 ;1614
00009e  4641              MOV      r1,r8                 ;1615
0000a0  4628              MOV      r0,r5                 ;1615
0000a2  f7fffffe          BL       TEXT_SetBkColor
0000a6  4649              MOV      r1,r9                 ;1616
0000a8  4628              MOV      r0,r5                 ;1616
0000aa  f7fffffe          BL       TEXT_SetTextColor
0000ae  4631              MOV      r1,r6                 ;1618
0000b0  6a20              LDR      r0,[r4,#0x20]         ;1618  ; hWinR
0000b2  f7fffffe          BL       WM_GetDialogItem
0000b6  4605              MOV      r5,r0                 ;1618
0000b8  4651              MOV      r1,r10                ;1619
0000ba  4628              MOV      r0,r5                 ;1619
0000bc  f7fffffe          BL       TEXT_SetBkColor
0000c0  2100              MOVS     r1,#0                 ;1620
0000c2  4628              MOV      r0,r5                 ;1620
0000c4  f7fffffe          BL       TEXT_SetTextColor
0000c8  204c              MOVS     r0,#0x4c              ;1622
0000ca  71a0              STRB     r0,[r4,#6]            ;1622
0000cc  e7d5              B        |L9.122|
                  |L9.206|
0000ce  4631              MOV      r1,r6                 ;1630
0000d0  f7fffffe          BL       WM_GetDialogItem
0000d4  4606              MOV      r6,r0                 ;1630
0000d6  4641              MOV      r1,r8                 ;1631
0000d8  4630              MOV      r0,r6                 ;1631
0000da  f7fffffe          BL       TEXT_SetBkColor
0000de  4649              MOV      r1,r9                 ;1632
0000e0  4630              MOV      r0,r6                 ;1632
0000e2  f7fffffe          BL       TEXT_SetTextColor
0000e6  4629              MOV      r1,r5                 ;1634
0000e8  6a20              LDR      r0,[r4,#0x20]         ;1634  ; hWinR
0000ea  f7fffffe          BL       WM_GetDialogItem
0000ee  4605              MOV      r5,r0                 ;1634
0000f0  4651              MOV      r1,r10                ;1635
0000f2  4628              MOV      r0,r5                 ;1635
0000f4  f7fffffe          BL       TEXT_SetBkColor
0000f8  2100              MOVS     r1,#0                 ;1636
0000fa  4628              MOV      r0,r5                 ;1636
0000fc  f7fffffe          BL       TEXT_SetTextColor
000100  2050              MOVS     r0,#0x50              ;1638
000102  71a0              STRB     r0,[r4,#6]            ;1638
000104  e7b9              B        |L9.122|
                  |L9.262|
000106  4629              MOV      r1,r5                 ;1646
000108  f7fffffe          BL       WM_GetDialogItem
00010c  4605              MOV      r5,r0                 ;1646
00010e  4641              MOV      r1,r8                 ;1647
000110  4628              MOV      r0,r5                 ;1647
000112  f7fffffe          BL       TEXT_SetBkColor
000116  4649              MOV      r1,r9                 ;1648
000118  4628              MOV      r0,r5                 ;1648
00011a  f7fffffe          BL       TEXT_SetTextColor
00011e  4631              MOV      r1,r6                 ;1650
000120  6a20              LDR      r0,[r4,#0x20]         ;1650  ; hWinR
000122  f7fffffe          BL       WM_GetDialogItem
000126  4605              MOV      r5,r0                 ;1650
000128  4651              MOV      r1,r10                ;1651
00012a  4628              MOV      r0,r5                 ;1651
00012c  f7fffffe          BL       TEXT_SetBkColor
000130  2100              MOVS     r1,#0                 ;1652
000132  e001              B        |L9.312|
                  |L9.308|
000134  e006              B        |L9.324|
                  |L9.310|
000136  e024              B        |L9.386|
                  |L9.312|
000138  4628              MOV      r0,r5                 ;1652
00013a  f7fffffe          BL       TEXT_SetTextColor
00013e  2047              MOVS     r0,#0x47              ;1654
000140  71a0              STRB     r0,[r4,#6]            ;1654
000142  e79a              B        |L9.122|
                  |L9.324|
000144  4631              MOV      r1,r6                 ;1661
000146  f7fffffe          BL       WM_GetDialogItem
00014a  4606              MOV      r6,r0                 ;1661
00014c  4641              MOV      r1,r8                 ;1662
00014e  4630              MOV      r0,r6                 ;1662
000150  f7fffffe          BL       TEXT_SetBkColor
000154  4649              MOV      r1,r9                 ;1663
000156  4630              MOV      r0,r6                 ;1663
000158  f7fffffe          BL       TEXT_SetTextColor
00015c  4629              MOV      r1,r5                 ;1666
00015e  6a20              LDR      r0,[r4,#0x20]         ;1666  ; hWinR
000160  f7fffffe          BL       WM_GetDialogItem
000164  4605              MOV      r5,r0                 ;1666
000166  4651              MOV      r1,r10                ;1667
000168  4628              MOV      r0,r5                 ;1667
00016a  f7fffffe          BL       TEXT_SetBkColor
00016e  2100              MOVS     r1,#0                 ;1668
000170  4628              MOV      r0,r5                 ;1668
000172  f7fffffe          BL       TEXT_SetTextColor
000176  2013              MOVS     r0,#0x13              ;1670
000178  71a0              STRB     r0,[r4,#6]            ;1670
00017a  e77e              B        |L9.122|
                  |L9.380|
00017c  e01d              B        |L9.442|
                  |L9.382|
00017e  e038              B        |L9.498|
                  |L9.384|
000180  e053              B        |L9.554|
                  |L9.386|
000182  4629              MOV      r1,r5                 ;1677
000184  f7fffffe          BL       WM_GetDialogItem
000188  4605              MOV      r5,r0                 ;1677
00018a  4641              MOV      r1,r8                 ;1678
00018c  4628              MOV      r0,r5                 ;1678
00018e  f7fffffe          BL       TEXT_SetBkColor
000192  4649              MOV      r1,r9                 ;1679
000194  4628              MOV      r0,r5                 ;1679
000196  f7fffffe          BL       TEXT_SetTextColor
00019a  4631              MOV      r1,r6                 ;1681
00019c  6a20              LDR      r0,[r4,#0x20]         ;1681  ; hWinR
00019e  f7fffffe          BL       WM_GetDialogItem
0001a2  4605              MOV      r5,r0                 ;1681
0001a4  4651              MOV      r1,r10                ;1682
0001a6  4628              MOV      r0,r5                 ;1682
0001a8  f7fffffe          BL       TEXT_SetBkColor
0001ac  2100              MOVS     r1,#0                 ;1683
0001ae  4628              MOV      r0,r5                 ;1683
0001b0  f7fffffe          BL       TEXT_SetTextColor
0001b4  2014              MOVS     r0,#0x14              ;1685
0001b6  71a0              STRB     r0,[r4,#6]            ;1685
0001b8  e75f              B        |L9.122|
                  |L9.442|
0001ba  4631              MOV      r1,r6                 ;1707
0001bc  f7fffffe          BL       WM_GetDialogItem
0001c0  4605              MOV      r5,r0                 ;1707
0001c2  4641              MOV      r1,r8                 ;1708
0001c4  4628              MOV      r0,r5                 ;1708
0001c6  f7fffffe          BL       TEXT_SetBkColor
0001ca  4649              MOV      r1,r9                 ;1709
0001cc  4628              MOV      r0,r5                 ;1709
0001ce  f7fffffe          BL       TEXT_SetTextColor
0001d2  4639              MOV      r1,r7                 ;1711
0001d4  6a20              LDR      r0,[r4,#0x20]         ;1711  ; hWinR
0001d6  f7fffffe          BL       WM_GetDialogItem
0001da  4605              MOV      r5,r0                 ;1711
0001dc  4651              MOV      r1,r10                ;1712
0001de  4628              MOV      r0,r5                 ;1712
0001e0  f7fffffe          BL       TEXT_SetBkColor
0001e4  2100              MOVS     r1,#0                 ;1713
0001e6  4628              MOV      r0,r5                 ;1713
0001e8  f7fffffe          BL       TEXT_SetTextColor
0001ec  2045              MOVS     r0,#0x45              ;1715
0001ee  71a0              STRB     r0,[r4,#6]            ;1715
0001f0  e743              B        |L9.122|
                  |L9.498|
0001f2  4639              MOV      r1,r7                 ;1722
0001f4  f7fffffe          BL       WM_GetDialogItem
0001f8  4605              MOV      r5,r0                 ;1722
0001fa  4641              MOV      r1,r8                 ;1723
0001fc  4628              MOV      r0,r5                 ;1723
0001fe  f7fffffe          BL       TEXT_SetBkColor
000202  4649              MOV      r1,r9                 ;1724
000204  4628              MOV      r0,r5                 ;1724
000206  f7fffffe          BL       TEXT_SetTextColor
00020a  4631              MOV      r1,r6                 ;1726
00020c  6a20              LDR      r0,[r4,#0x20]         ;1726  ; hWinR
00020e  f7fffffe          BL       WM_GetDialogItem
000212  4605              MOV      r5,r0                 ;1726
000214  4651              MOV      r1,r10                ;1727
000216  4628              MOV      r0,r5                 ;1727
000218  f7fffffe          BL       TEXT_SetBkColor
00021c  2100              MOVS     r1,#0                 ;1728
00021e  4628              MOV      r0,r5                 ;1728
000220  f7fffffe          BL       TEXT_SetTextColor
000224  204a              MOVS     r0,#0x4a              ;1730
000226  71a0              STRB     r0,[r4,#6]            ;1730
000228  e727              B        |L9.122|
                  |L9.554|
00022a  4631              MOV      r1,r6                 ;1737
00022c  f7fffffe          BL       WM_GetDialogItem
000230  4605              MOV      r5,r0                 ;1737
000232  4641              MOV      r1,r8                 ;1738
000234  4628              MOV      r0,r5                 ;1738
000236  f7fffffe          BL       TEXT_SetBkColor
00023a  4649              MOV      r1,r9                 ;1739
00023c  4628              MOV      r0,r5                 ;1739
00023e  f7fffffe          BL       TEXT_SetTextColor
000242  4639              MOV      r1,r7                 ;1741
000244  6a20              LDR      r0,[r4,#0x20]         ;1741  ; hWinR
000246  f7fffffe          BL       WM_GetDialogItem
00024a  4605              MOV      r5,r0                 ;1741
00024c  4651              MOV      r1,r10                ;1742
00024e  4628              MOV      r0,r5                 ;1742
000250  f7fffffe          BL       TEXT_SetBkColor
000254  2100              MOVS     r1,#0                 ;1743
000256  4628              MOV      r0,r5                 ;1743
000258  f7fffffe          BL       TEXT_SetTextColor
00025c  204b              MOVS     r0,#0x4b              ;1745
00025e  71a0              STRB     r0,[r4,#6]            ;1745
000260  e70b              B        |L9.122|
;;;1752   
                          ENDP

000262  0000              DCW      0x0000
                  |L9.612|
                          DCD      ||.data||
                  |L9.616|
                          DCD      0x00bfffff

                          AREA ||i.OC_SET||, CODE, READONLY, ALIGN=2

                          REQUIRE _printf_percent
                          REQUIRE _printf_widthprec
                          REQUIRE _printf_f
                          REQUIRE _printf_fp_dec
                          REQUIRE _printf_pre_padding
                          REQUIRE _printf_d
                          REQUIRE _printf_int_dec
                  OC_SET PROC
;;;1754   void OC_SET(void);
;;;1755   void OC_SET(void) {
000000  e92d4ff0          PUSH     {r4-r11,lr}
000004  ed2d8b04          VPUSH    {d8-d9}
000008  b085              SUB      sp,sp,#0x14
;;;1756       vu8 i;
;;;1757       char  buf[6];
;;;1758   
;;;1759       float dis_init_c;
;;;1760       float dis_sbs_c;
;;;1761   	float dis_setv;
;;;1762   	float dis_setc;
;;;1763   	float dis_setlc;
;;;1764       vu16 dis_steptime = steptime;
00000a  4df9              LDR      r5,|L10.1008|
00000c  8a68              LDRH     r0,[r5,#0x12]  ; steptime
00000e  9001              STR      r0,[sp,#4]
;;;1765       switch(oc_sw)
000010  79aa              LDRB     r2,[r5,#6]  ; oc_sw
;;;1766       {
;;;1767           case set_20:
;;;1768           {
;;;1769               WM_HWIN hItem;
;;;1770   //            WM_InvalidateWindow(hWinR);
;;;1771               hItem = WM_GetDialogItem(hWinR, ID_TEXT_44);
;;;1772               TEXT_SetBkColor(hItem,GUI_INVALID_COLOR);
;;;1773               TEXT_SetTextColor(hItem, GUI_WHITE);
;;;1774               
;;;1775               
;;;1776               hItem = WM_GetDialogItem(hWinR, ID_TEXT_46);
;;;1777               TEXT_SetBkColor(hItem,0x00BFFFFF);
;;;1778               TEXT_SetTextColor(hItem, GUI_BLACK);
;;;1779               for(i=0;i<6;i++)
;;;1780               {
;;;1781                   set_limit[i] = '\0';
;;;1782               }
;;;1783               oc_sw = set_22;
;;;1784               break;
;;;1785           }
;;;1786           case set_22:
;;;1787           {
;;;1788               WM_HWIN hItem;
;;;1789   //            WM_InvalidateWindow(hWinR);
;;;1790               hItem = WM_GetDialogItem(hWinR, ID_TEXT_46);
;;;1791               TEXT_SetBkColor(hItem,GUI_INVALID_COLOR);
;;;1792               TEXT_SetTextColor(hItem, GUI_WHITE);
;;;1793   			if(dot_flag == 0){
;;;1794   				set_init_c = atoi(set_limit)*1000;					
;;;1795   			}else if(dot_flag != 0){
;;;1796   				memset(buf, '\0', sizeof(buf));
;;;1797   				strncpy(buf,set_limit,dot_flag + 4);
;;;1798   				set_init_c = atof(buf)*1000;
000012  ed9f8bf8          VLDR     d8,|L10.1012|
;;;1799   			}
;;;1800   			if(set_init_c > 30000){
;;;1801                   set_init_c = 0;
;;;1802               }
;;;1803               SET_Current_Laod = set_init_c;
;;;1804               
;;;1805               dis_init_c = (float)set_init_c/1000;
000016  ed9f9af9          VLDR     s18,|L10.1020|
00001a  4628              MOV      r0,r5                 ;1764
;;;1806               sprintf(buf,"%.3f",dis_init_c);
;;;1807               TEXT_SetText(hItem,buf);
;;;1808               
;;;1809               hItem = WM_GetDialogItem(hWinR, ID_TEXT_44);
;;;1810               TEXT_SetBkColor(hItem,0x00BFFFFF);
;;;1811               TEXT_SetTextColor(hItem, GUI_BLACK);
;;;1812               Write_Limits();
;;;1813               
;;;1814               oc_sw = set_20;
;;;1815               bit = 0;
;;;1816               dot_flag = 0;
;;;1817               break;
;;;1818           }
;;;1819           case set_21:
;;;1820           {
;;;1821               WM_HWIN hItem;
;;;1822   //            WM_InvalidateWindow(hWinR);
;;;1823               hItem = WM_GetDialogItem(hWinR, ID_TEXT_45);
;;;1824               TEXT_SetBkColor(hItem,GUI_INVALID_COLOR);
;;;1825               TEXT_SetTextColor(hItem, GUI_WHITE);
;;;1826               
;;;1827               
;;;1828               hItem = WM_GetDialogItem(hWinR, ID_TEXT_47);
;;;1829               TEXT_SetBkColor(hItem,0x00BFFFFF);
;;;1830               TEXT_SetTextColor(hItem, GUI_BLACK);
;;;1831               for(i=0;i<6;i++)
;;;1832               {
;;;1833                   set_limit[i] = '\0';
;;;1834               }
;;;1835               
;;;1836               oc_sw = set_23;
;;;1837               break;
;;;1838           }
;;;1839           case set_23:
;;;1840           {
;;;1841               WM_HWIN hItem;
;;;1842   //            WM_InvalidateWindow(hWinR);
;;;1843               hItem = WM_GetDialogItem(hWinR, ID_TEXT_47);
;;;1844               TEXT_SetBkColor(hItem,GUI_INVALID_COLOR);
;;;1845               TEXT_SetTextColor(hItem, GUI_WHITE);
;;;1846   			if(dot_flag == 0){
;;;1847   				set_sbs_c = atoi(set_limit)*1000;					
;;;1848   			}else if(dot_flag != 0){
;;;1849   				memset(buf, '\0', sizeof(buf));
;;;1850   				strncpy(buf,set_limit,dot_flag + 4);
;;;1851   				set_sbs_c = atof(buf)*1000;
;;;1852   			}
;;;1853               dis_sbs_c = (float)set_sbs_c/1000;
;;;1854               sprintf(buf,"%.3f",dis_sbs_c);
;;;1855               TEXT_SetText(hItem,buf);
;;;1856               
;;;1857               hItem = WM_GetDialogItem(hWinR, ID_TEXT_45);
;;;1858               TEXT_SetBkColor(hItem,0x00BFFFFF);
;;;1859               TEXT_SetTextColor(hItem, GUI_BLACK);
;;;1860               Write_Limits();
;;;1861               
;;;1862               oc_sw = set_21;
;;;1863               bit = 0;
;;;1864               dot_flag = 0;
;;;1865               break;
;;;1866           }
;;;1867           case set_64:
;;;1868           {
;;;1869               WM_HWIN hItem;
;;;1870   //            WM_InvalidateWindow(hWinR);
;;;1871               hItem = WM_GetDialogItem(hWinR, ID_TEXT_118);
;;;1872               TEXT_SetBkColor(hItem,GUI_INVALID_COLOR);
;;;1873               TEXT_SetTextColor(hItem, GUI_WHITE);
;;;1874               
;;;1875               
;;;1876               hItem = WM_GetDialogItem(hWinR, ID_TEXT_97);
;;;1877               TEXT_SetBkColor(hItem,0x00BFFFFF);
;;;1878               TEXT_SetTextColor(hItem, GUI_BLACK);
;;;1879               for(i=0;i<6;i++)
;;;1880               {
;;;1881                   set_limit[i] = '\0';
;;;1882               }
;;;1883               
;;;1884               oc_sw = set_65;
;;;1885               break;
;;;1886           }
;;;1887           case set_65:
;;;1888           {
;;;1889               WM_HWIN hItem;
;;;1890   //            WM_InvalidateWindow(hWinR);
;;;1891               hItem = WM_GetDialogItem(hWinR, ID_TEXT_97);
;;;1892               TEXT_SetBkColor(hItem,GUI_INVALID_COLOR);
;;;1893               TEXT_SetTextColor(hItem, GUI_WHITE);
;;;1894   			if(dot_flag == 0){
;;;1895   				dis_gate_v = atoi(set_limit)*1000;					
;;;1896   			}else if(dot_flag != 0){
;;;1897   				memset(buf, '\0', sizeof(buf));
;;;1898   				strncpy(buf,set_limit,dot_flag + 4);
;;;1899   				dis_gate_v = atof(buf)*1000;
;;;1900   			}
;;;1901               gate_v = (float)dis_gate_v/1000;
;;;1902               sprintf(buf,"%.3f",gate_v);
;;;1903               TEXT_SetText(hItem,buf);
;;;1904               
;;;1905               hItem = WM_GetDialogItem(hWinR, ID_TEXT_118);
;;;1906               TEXT_SetBkColor(hItem,0x00BFFFFF);
;;;1907               TEXT_SetTextColor(hItem, GUI_BLACK);
;;;1908               Write_Limits();
;;;1909               
;;;1910               oc_sw = set_64;
;;;1911               bit = 0;
;;;1912               dot_flag = 0;
;;;1913               break;
;;;1914           }
;;;1915           case set_70:
;;;1916           {
;;;1917               WM_HWIN hItem;
;;;1918   //            WM_InvalidateWindow(hWinR);
;;;1919               hItem = WM_GetDialogItem(hWinR, ID_TEXT_43);
;;;1920               TEXT_SetBkColor(hItem,GUI_INVALID_COLOR);
;;;1921               TEXT_SetTextColor(hItem, GUI_WHITE);
;;;1922               
;;;1923               
;;;1924               hItem = WM_GetDialogItem(hWinR, ID_TEXT_130);
;;;1925               TEXT_SetBkColor(hItem,0x00BFFFFF);
;;;1926               TEXT_SetTextColor(hItem, GUI_BLACK);
;;;1927               for(i=0;i<6;i++)
;;;1928               {
;;;1929                   set_limit[i] = '\0';
;;;1930               }
;;;1931               
;;;1932               oc_sw = set_71;
;;;1933               break;
;;;1934           }
;;;1935           case set_71:
;;;1936           {
;;;1937               WM_HWIN hItem;
;;;1938   //            WM_InvalidateWindow(hWinR);
;;;1939               hItem = WM_GetDialogItem(hWinR, ID_TEXT_130);
;;;1940               TEXT_SetBkColor(hItem,GUI_INVALID_COLOR);
;;;1941               TEXT_SetTextColor(hItem, GUI_WHITE);
;;;1942   			if(dot_flag == 0){
;;;1943   				steptime = atoi(set_limit);					
;;;1944   			}else if(dot_flag != 0){
;;;1945   				memset(buf, '\0', sizeof(buf));
;;;1946   				strncpy(buf,set_limit,dot_flag);
;;;1947   				steptime = atof(buf);
;;;1948   			}
;;;1949               sprintf(buf,"%4d",steptime);
;;;1950               TEXT_SetText(hItem,buf);
;;;1951               
;;;1952               hItem = WM_GetDialogItem(hWinR, ID_TEXT_43);
;;;1953               TEXT_SetBkColor(hItem,0x00BFFFFF);
;;;1954               TEXT_SetTextColor(hItem, GUI_BLACK);
;;;1955               Write_Limits();
;;;1956               
;;;1957               oc_sw = set_70;
;;;1958               bit = 0;
;;;1959               dot_flag = 0;
;;;1960               Wrtite_step();
;;;1961               break;
;;;1962           }
;;;1963           
;;;1964           case set_72:
;;;1965           {
;;;1966               WM_HWIN hItem;
;;;1967               if(oc_mode == 0)
;;;1968               {
;;;1969                   oc_mode = 1;
00001c  2101              MOVS     r1,#1
00001e  6a00              LDR      r0,[r0,#0x20]         ;1771
000020  2400              MOVS     r4,#0                 ;1781
000022  4ef7              LDR      r6,|L10.1024|
000024  f1050740          ADD      r7,r5,#0x40           ;1781
000028  2a47              CMP      r2,#0x47              ;1765
00002a  d06e              BEQ      |L10.266|
00002c  dc6e              BGT      |L10.268|
00002e  f6401808          MOV      r8,#0x908             ;1871
000032  f6401905          MOV      r9,#0x905             ;1876
000036  2a3f              CMP      r2,#0x3f              ;1765
000038  d069              BEQ      |L10.270|
00003a  dc6a              BGT      |L10.274|
00003c  f6400869          MOV      r8,#0x869             ;1771
000040  f640096b          MOV      r9,#0x86b             ;1776
000044  2a13              CMP      r2,#0x13              ;1765
000046  d07d              BEQ      |L10.324|
000048  f6400a6a          MOV      r10,#0x86a            ;1823
00004c  f6400b6c          MOV      r11,#0x86c            ;1828
000050  2a14              CMP      r2,#0x14              ;1765
000052  d078              BEQ      |L10.326|
000054  2a15              CMP      r2,#0x15              ;1765
000056  d077              BEQ      |L10.328|
000058  2a16              CMP      r2,#0x16              ;1765
00005a  d151              BNE      |L10.256|
00005c  4659              MOV      r1,r11                ;1843
00005e  f7fffffe          BL       WM_GetDialogItem
000062  4607              MOV      r7,r0                 ;1843
000064  f06f4170          MVN      r1,#0xf0000000        ;1844
000068  4638              MOV      r0,r7                 ;1844
00006a  f7fffffe          BL       TEXT_SetBkColor
00006e  f06f417f          MVN      r1,#0xff000000        ;1845
000072  4638              MOV      r0,r7                 ;1845
000074  f7fffffe          BL       TEXT_SetTextColor
000078  7868              LDRB     r0,[r5,#1]            ;1846  ; dot_flag
00007a  2800              CMP      r0,#0                 ;1846
00007c  d07e              BEQ      |L10.380|
00007e  7868              LDRB     r0,[r5,#1]            ;1848  ; dot_flag
000080  b1a0              CBZ      r0,|L10.172|
000082  9402              STR      r4,[sp,#8]            ;1849
000084  9403              STR      r4,[sp,#0xc]          ;1849
000086  786a              LDRB     r2,[r5,#1]            ;1850  ; dot_flag
000088  49d9              LDR      r1,|L10.1008|
00008a  1d12              ADDS     r2,r2,#4              ;1850
00008c  3140              ADDS     r1,r1,#0x40           ;1850
00008e  a802              ADD      r0,sp,#8              ;1850
000090  f7fffffe          BL       strncpy
000094  a802              ADD      r0,sp,#8              ;1851
000096  f7fffffe          BL       __hardfp_atof
00009a  ec532b18          VMOV     r2,r3,d8              ;1851
00009e  ec510b10          VMOV     r0,r1,d0              ;1851
0000a2  f7fffffe          BL       __aeabi_dmul
0000a6  f7fffffe          BL       __aeabi_d2uiz
0000aa  65f0              STR      r0,[r6,#0x5c]         ;1851  ; Run_Control
                  |L10.172|
0000ac  6df0              LDR      r0,[r6,#0x5c]         ;1853  ; Run_Control
0000ae  ee000a10          VMOV     s0,r0                 ;1853
0000b2  eef80a40          VCVT.F32.U32 s1,s0                 ;1853
0000b6  ee800a89          VDIV.F32 s0,s1,s18             ;1853
0000ba  ee100a10          VMOV     r0,s0                 ;1854
0000be  f7fffffe          BL       __aeabi_f2d
0000c2  ec410b10          VMOV     d0,r0,r1              ;1854
0000c6  a1cf              ADR      r1,|L10.1028|
0000c8  ec532b10          VMOV     r2,r3,d0              ;1854
0000cc  a802              ADD      r0,sp,#8              ;1854
0000ce  f7fffffe          BL       __2sprintf
0000d2  a902              ADD      r1,sp,#8              ;1855
0000d4  4638              MOV      r0,r7                 ;1855
0000d6  f7fffffe          BL       TEXT_SetText
0000da  4651              MOV      r1,r10                ;1857
0000dc  6a28              LDR      r0,[r5,#0x20]         ;1857  ; hWinR
0000de  f7fffffe          BL       WM_GetDialogItem
0000e2  4606              MOV      r6,r0                 ;1857
0000e4  49c9              LDR      r1,|L10.1036|
0000e6  4630              MOV      r0,r6                 ;1858
0000e8  f7fffffe          BL       TEXT_SetBkColor
0000ec  2100              MOVS     r1,#0                 ;1859
0000ee  4630              MOV      r0,r6                 ;1859
0000f0  f7fffffe          BL       TEXT_SetTextColor
0000f4  f7fffffe          BL       Write_Limits
0000f8  2014              MOVS     r0,#0x14              ;1862
0000fa  71a8              STRB     r0,[r5,#6]            ;1862
0000fc  702c              STRB     r4,[r5,#0]            ;1863
0000fe  706c              STRB     r4,[r5,#1]            ;1864
                  |L10.256|
;;;1970               }else{
;;;1971                   oc_mode = 0;
;;;1972               }
;;;1973               Write_Limits();
;;;1974               break;
;;;1975           }
;;;1976   		
;;;1977   		case set_81:
;;;1978           {
;;;1979               WM_HWIN hItem;
;;;1980               if(staticcdc == 0)
;;;1981               {
;;;1982                   staticcdc = 1;
;;;1983               }else{
;;;1984                   staticcdc = 0;
;;;1985               }
;;;1986               Write_Limits();
;;;1987               break;
;;;1988           }
;;;1989           
;;;1990   		case set_75:
;;;1991           {
;;;1992               WM_HWIN hItem;
;;;1993   //            WM_InvalidateWindow(hWinR);
;;;1994               hItem = WM_GetDialogItem(hWinR, ID_TEXT_145);
;;;1995               TEXT_SetBkColor(hItem,GUI_INVALID_COLOR);
;;;1996               TEXT_SetTextColor(hItem, GUI_WHITE);
;;;1997               
;;;1998               
;;;1999               hItem = WM_GetDialogItem(hWinR, ID_TEXT_148);
;;;2000               TEXT_SetBkColor(hItem,0x00BFFFFF);
;;;2001               TEXT_SetTextColor(hItem, GUI_BLACK);
;;;2002               for(i=0;i<6;i++)
;;;2003               {
;;;2004                   set_limit[i] = '\0';
;;;2005               }
;;;2006               
;;;2007               oc_sw = set_78;
;;;2008               break;
;;;2009           }
;;;2010           case set_78:
;;;2011           {
;;;2012               WM_HWIN hItem;
;;;2013   //            WM_InvalidateWindow(hWinR);
;;;2014               hItem = WM_GetDialogItem(hWinR, ID_TEXT_148);
;;;2015               TEXT_SetBkColor(hItem,GUI_INVALID_COLOR);
;;;2016               TEXT_SetTextColor(hItem, GUI_WHITE);
;;;2017   			if(dot_flag == 0){
;;;2018   				set_static_pv = atoi(set_limit)*100;					
;;;2019   			}else if(dot_flag != 0){
;;;2020   				memset(buf, '\0', sizeof(buf));
;;;2021   				strncpy(buf,set_limit,dot_flag + 2);
;;;2022   				set_static_pv = atof(buf)*100;
;;;2023   			}
;;;2024   			dis_setv = (float)set_static_pv/100;
;;;2025               sprintf(buf,"%.2f",dis_setv);
;;;2026               TEXT_SetText(hItem,buf);
;;;2027               
;;;2028               hItem = WM_GetDialogItem(hWinR, ID_TEXT_145);
;;;2029               TEXT_SetBkColor(hItem,0x00BFFFFF);
;;;2030               TEXT_SetTextColor(hItem, GUI_BLACK);
;;;2031               Write_Limits();
;;;2032               
;;;2033               oc_sw = set_75;
;;;2034               bit = 0;
;;;2035               dot_flag = 0;
;;;2036               break;
;;;2037           }
;;;2038   		case set_76:
;;;2039           {
;;;2040               WM_HWIN hItem;
;;;2041   //            WM_InvalidateWindow(hWinR);
;;;2042               hItem = WM_GetDialogItem(hWinR, ID_TEXT_146);
;;;2043               TEXT_SetBkColor(hItem,GUI_INVALID_COLOR);
;;;2044               TEXT_SetTextColor(hItem, GUI_WHITE);
;;;2045               
;;;2046               
;;;2047               hItem = WM_GetDialogItem(hWinR, ID_TEXT_149);
;;;2048               TEXT_SetBkColor(hItem,0x00BFFFFF);
;;;2049               TEXT_SetTextColor(hItem, GUI_BLACK);
;;;2050               for(i=0;i<6;i++)
;;;2051               {
;;;2052                   set_limit[i] = '\0';
;;;2053               }
;;;2054               
;;;2055               oc_sw = set_79;
;;;2056               break;
;;;2057           }
;;;2058           case set_79:
;;;2059           {
;;;2060               WM_HWIN hItem;
;;;2061   //            WM_InvalidateWindow(hWinR);
;;;2062               hItem = WM_GetDialogItem(hWinR, ID_TEXT_149);
;;;2063               TEXT_SetBkColor(hItem,GUI_INVALID_COLOR);
;;;2064               TEXT_SetTextColor(hItem, GUI_WHITE);
;;;2065   			if(dot_flag == 0){
;;;2066   				set_static_pc = atoi(set_limit)*1000;					
;;;2067   			}else if(dot_flag != 0){
;;;2068   				memset(buf, '\0', sizeof(buf));
;;;2069   				strncpy(buf,set_limit,dot_flag + 4);
;;;2070   				set_static_pc = atof(buf)*1000;
;;;2071   			}
;;;2072   			dis_setc = (float)set_static_pc/1000;
;;;2073               sprintf(buf,"%.3f",dis_setc);
;;;2074               TEXT_SetText(hItem,buf);
;;;2075               
;;;2076               hItem = WM_GetDialogItem(hWinR, ID_TEXT_146);
;;;2077               TEXT_SetBkColor(hItem,0x00BFFFFF);
;;;2078               TEXT_SetTextColor(hItem, GUI_BLACK);
;;;2079               Write_Limits();
;;;2080               
;;;2081               oc_sw = set_76;
;;;2082               bit = 0;
;;;2083               dot_flag = 0;
;;;2084               break;
;;;2085           }
;;;2086   		case set_77:
;;;2087           {
;;;2088               WM_HWIN hItem;
;;;2089   //            WM_InvalidateWindow(hWinR);
;;;2090               hItem = WM_GetDialogItem(hWinR, ID_TEXT_147);
;;;2091               TEXT_SetBkColor(hItem,GUI_INVALID_COLOR);
;;;2092               TEXT_SetTextColor(hItem, GUI_WHITE);
;;;2093               
;;;2094               
;;;2095               hItem = WM_GetDialogItem(hWinR, ID_TEXT_150);
;;;2096               TEXT_SetBkColor(hItem,0x00BFFFFF);
;;;2097               TEXT_SetTextColor(hItem, GUI_BLACK);
;;;2098               for(i=0;i<6;i++)
;;;2099               {
;;;2100                   set_limit[i] = '\0';
;;;2101               }
;;;2102               
;;;2103               oc_sw = set_80;
;;;2104               break;
;;;2105           }
;;;2106           case set_80:
;;;2107           {
;;;2108               WM_HWIN hItem;
;;;2109   //            WM_InvalidateWindow(hWinR);
;;;2110               hItem = WM_GetDialogItem(hWinR, ID_TEXT_150);
;;;2111               TEXT_SetBkColor(hItem,GUI_INVALID_COLOR);
;;;2112               TEXT_SetTextColor(hItem, GUI_WHITE);
;;;2113   			if(dot_flag == 0){
;;;2114   				set_static_lc = atoi(set_limit)*1000;					
;;;2115   			}else if(dot_flag != 0){
;;;2116   				memset(buf, '\0', sizeof(buf));
;;;2117   				strncpy(buf,set_limit,dot_flag + 4);
;;;2118   				set_static_lc = atof(buf)*1000;
;;;2119   			}
;;;2120   			dis_setlc = (float)set_static_lc/1000;
;;;2121               sprintf(buf,"%.3f",dis_setlc);
;;;2122               TEXT_SetText(hItem,buf);
;;;2123               
;;;2124               hItem = WM_GetDialogItem(hWinR, ID_TEXT_147);
;;;2125               TEXT_SetBkColor(hItem,0x00BFFFFF);
;;;2126               TEXT_SetTextColor(hItem, GUI_BLACK);
;;;2127               Write_Limits();
;;;2128               
;;;2129               oc_sw = set_77;
;;;2130               bit = 0;
;;;2131               dot_flag = 0;
;;;2132               break;
;;;2133           }
;;;2134   		case set_91:
;;;2135   		{
;;;2136   			if(vrange == 0)
;;;2137   			{
;;;2138   				vrange = 1;
;;;2139   			}else{
;;;2140   				vrange = 0;
;;;2141   			}
;;;2142   			Flash_Write32BitDatas(FLASH_USER_START_ADDR,40, InFlashSave);
;;;2143   		}break;
;;;2144       }
;;;2145   }
000100  b005              ADD      sp,sp,#0x14
000102  ecbd8b04          VPOP     {d8-d9}
000106  e8bd8ff0          POP      {r4-r11,pc}
                  |L10.266|
00010a  e282              B        |L10.1554|
                  |L10.268|
00010c  e053              B        |L10.438|
                  |L10.270|
00010e  e1c2              B        |L10.1174|
000110  e7ff              B        |L10.274|
                  |L10.274|
000112  2a40              CMP      r2,#0x40              ;1765
000114  d07e              BEQ      |L10.532|
000116  f6400668          MOV      r6,#0x868             ;1919
00011a  f640180e          MOV      r8,#0x90e             ;1924
00011e  2a45              CMP      r2,#0x45              ;1765
000120  d079              BEQ      |L10.534|
000122  2a46              CMP      r2,#0x46              ;1765
000124  d1ec              BNE      |L10.256|
000126  4641              MOV      r1,r8                 ;1939
000128  f7fffffe          BL       WM_GetDialogItem
00012c  4607              MOV      r7,r0                 ;1939
00012e  f06f4170          MVN      r1,#0xf0000000        ;1940
000132  4638              MOV      r0,r7                 ;1940
000134  f7fffffe          BL       TEXT_SetBkColor
000138  f06f417f          MVN      r1,#0xff000000        ;1941
00013c  4638              MOV      r0,r7                 ;1941
00013e  f7fffffe          BL       TEXT_SetTextColor
000142  e002              B        |L10.330|
                  |L10.324|
000144  e0be              B        |L10.708|
                  |L10.326|
000146  e173              B        |L10.1072|
                  |L10.328|
000148  e0e9              B        |L10.798|
                  |L10.330|
00014a  7868              LDRB     r0,[r5,#1]            ;1942  ; dot_flag
00014c  2800              CMP      r0,#0                 ;1942
00014e  d07b              BEQ      |L10.584|
000150  7868              LDRB     r0,[r5,#1]            ;1944  ; dot_flag
000152  b178              CBZ      r0,|L10.372|
000154  9402              STR      r4,[sp,#8]            ;1945
000156  9403              STR      r4,[sp,#0xc]          ;1945
000158  786a              LDRB     r2,[r5,#1]            ;1946  ; dot_flag
00015a  49a5              LDR      r1,|L10.1008|
00015c  a802              ADD      r0,sp,#8              ;1946
00015e  3140              ADDS     r1,r1,#0x40           ;1946
000160  f7fffffe          BL       strncpy
000164  a802              ADD      r0,sp,#8              ;1947
000166  f7fffffe          BL       __hardfp_atof
00016a  ec510b10          VMOV     r0,r1,d0              ;1947
00016e  f7fffffe          BL       __aeabi_d2uiz
000172  8268              STRH     r0,[r5,#0x12]         ;1947
                  |L10.372|
000174  8a6a              LDRH     r2,[r5,#0x12]         ;1949  ; steptime
000176  a1a6              ADR      r1,|L10.1040|
000178  a802              ADD      r0,sp,#8              ;1949
00017a  e000              B        |L10.382|
                  |L10.380|
00017c  e183              B        |L10.1158|
                  |L10.382|
00017e  f7fffffe          BL       __2sprintf
000182  a902              ADD      r1,sp,#8              ;1950
000184  4638              MOV      r0,r7                 ;1950
000186  f7fffffe          BL       TEXT_SetText
00018a  4631              MOV      r1,r6                 ;1952
00018c  6a28              LDR      r0,[r5,#0x20]         ;1952  ; hWinR
00018e  f7fffffe          BL       WM_GetDialogItem
000192  4606              MOV      r6,r0                 ;1952
000194  499d              LDR      r1,|L10.1036|
000196  4630              MOV      r0,r6                 ;1953
000198  f7fffffe          BL       TEXT_SetBkColor
00019c  2100              MOVS     r1,#0                 ;1954
00019e  4630              MOV      r0,r6                 ;1954
0001a0  f7fffffe          BL       TEXT_SetTextColor
0001a4  f7fffffe          BL       Write_Limits
0001a8  2045              MOVS     r0,#0x45              ;1957
0001aa  71a8              STRB     r0,[r5,#6]            ;1957
0001ac  702c              STRB     r4,[r5,#0]            ;1958
0001ae  706c              STRB     r4,[r5,#1]            ;1959
0001b0  f7fffffe          BL       Wrtite_step
                  |L10.436|
0001b4  e7a4              B        |L10.256|
                  |L10.438|
0001b6  f44f6813          MOV      r8,#0x930             ;2042
0001ba  f6401933          MOV      r9,#0x933             ;2047
0001be  f6401a31          MOV      r10,#0x931            ;2090
0001c2  2a4e              CMP      r2,#0x4e              ;1765
0001c4  d07a              BEQ      |L10.700|
0001c6  dc68              BGT      |L10.666|
0001c8  f6401b2f          MOV      r11,#0x92f            ;1994
0001cc  2a4a              CMP      r2,#0x4a              ;1765
0001ce  d076              BEQ      |L10.702|
0001d0  2a4b              CMP      r2,#0x4b              ;1765
0001d2  d075              BEQ      |L10.704|
0001d4  2a4c              CMP      r2,#0x4c              ;1765
0001d6  d074              BEQ      |L10.706|
0001d8  2a4d              CMP      r2,#0x4d              ;1765
0001da  d191              BNE      |L10.256|
0001dc  f6401132          MOV      r1,#0x932             ;2014
0001e0  f7fffffe          BL       WM_GetDialogItem
0001e4  4607              MOV      r7,r0                 ;2014
0001e6  f06f4170          MVN      r1,#0xf0000000        ;2015
0001ea  4638              MOV      r0,r7                 ;2015
0001ec  f7fffffe          BL       TEXT_SetBkColor
0001f0  f06f417f          MVN      r1,#0xff000000        ;2016
0001f4  4638              MOV      r0,r7                 ;2016
0001f6  f7fffffe          BL       TEXT_SetTextColor
0001fa  7868              LDRB     r0,[r5,#1]            ;2017  ; dot_flag
0001fc  2800              CMP      r0,#0                 ;2017
0001fe  d07d              BEQ      |L10.764|
000200  7868              LDRB     r0,[r5,#1]            ;2019  ; dot_flag
000202  b1d0              CBZ      r0,|L10.570|
000204  9402              STR      r4,[sp,#8]            ;2020
000206  9403              STR      r4,[sp,#0xc]          ;2020
000208  786a              LDRB     r2,[r5,#1]            ;2021  ; dot_flag
00020a  4979              LDR      r1,|L10.1008|
00020c  1c92              ADDS     r2,r2,#2              ;2021
00020e  3140              ADDS     r1,r1,#0x40           ;2021
000210  a802              ADD      r0,sp,#8              ;2021
000212  e001              B        |L10.536|
                  |L10.532|
000214  e16a              B        |L10.1260|
                  |L10.534|
000216  e1cc              B        |L10.1458|
                  |L10.536|
000218  f7fffffe          BL       strncpy
00021c  a802              ADD      r0,sp,#8              ;2022
00021e  f7fffffe          BL       __hardfp_atof
000222  ed9f1b7c          VLDR     d1,|L10.1044|
000226  ec510b10          VMOV     r0,r1,d0              ;2022
00022a  ec532b11          VMOV     r2,r3,d1              ;2022
00022e  f7fffffe          BL       __aeabi_dmul
000232  f7fffffe          BL       __aeabi_d2uiz
000236  f8c600a8          STR      r0,[r6,#0xa8]         ;2022  ; Run_Control
                  |L10.570|
00023a  f8d600a8          LDR      r0,[r6,#0xa8]         ;2024  ; Run_Control
00023e  ee000a10          VMOV     s0,r0                 ;2024
000242  eef80a40          VCVT.F32.U32 s1,s0                 ;2024
000246  e000              B        |L10.586|
                  |L10.584|
000248  e1de              B        |L10.1544|
                  |L10.586|
00024a  ed9f1a74          VLDR     s2,|L10.1052|
00024e  ee800a81          VDIV.F32 s0,s1,s2              ;2024
000252  ee100a10          VMOV     r0,s0                 ;2025
000256  f7fffffe          BL       __aeabi_f2d
00025a  ec410b10          VMOV     d0,r0,r1              ;2025
00025e  a170              ADR      r1,|L10.1056|
000260  ec532b10          VMOV     r2,r3,d0              ;2025
000264  a802              ADD      r0,sp,#8              ;2025
000266  f7fffffe          BL       __2sprintf
00026a  a902              ADD      r1,sp,#8              ;2026
00026c  4638              MOV      r0,r7                 ;2026
00026e  f7fffffe          BL       TEXT_SetText
000272  4659              MOV      r1,r11                ;2028
000274  6a28              LDR      r0,[r5,#0x20]         ;2028  ; hWinR
000276  f7fffffe          BL       WM_GetDialogItem
00027a  4606              MOV      r6,r0                 ;2028
00027c  4963              LDR      r1,|L10.1036|
00027e  4630              MOV      r0,r6                 ;2029
000280  f7fffffe          BL       TEXT_SetBkColor
000284  2100              MOVS     r1,#0                 ;2030
000286  4630              MOV      r0,r6                 ;2030
000288  f7fffffe          BL       TEXT_SetTextColor
00028c  f7fffffe          BL       Write_Limits
000290  204a              MOVS     r0,#0x4a              ;2033
000292  71a8              STRB     r0,[r5,#6]            ;2033
000294  702c              STRB     r4,[r5,#0]            ;2034
000296  706c              STRB     r4,[r5,#1]            ;2035
000298  e732              B        |L10.256|
                  |L10.666|
00029a  2a4f              CMP      r2,#0x4f              ;1765
00029c  d07e              BEQ      |L10.924|
00029e  2a50              CMP      r2,#0x50              ;1765
0002a0  d07d              BEQ      |L10.926|
0002a2  2a5a              CMP      r2,#0x5a              ;1765
0002a4  d186              BNE      |L10.436|
0002a6  4860              LDR      r0,|L10.1064|
0002a8  6e82              LDR      r2,[r0,#0x68]         ;2136  ; InFlashSave
0002aa  2a00              CMP      r2,#0                 ;2136
0002ac  d078              BEQ      |L10.928|
0002ae  6684              STR      r4,[r0,#0x68]         ;2140  ; InFlashSave
                  |L10.688|
0002b0  4a5d              LDR      r2,|L10.1064|
0002b2  2128              MOVS     r1,#0x28              ;2142
0002b4  485d              LDR      r0,|L10.1068|
0002b6  f7fffffe          BL       Flash_Write32BitDatas
0002ba  e721              B        |L10.256|
                  |L10.700|
0002bc  e218              B        |L10.1776|
                  |L10.702|
0002be  e1b8              B        |L10.1586|
                  |L10.704|
0002c0  e1eb              B        |L10.1690|
                  |L10.706|
0002c2  e274              B        |L10.1966|
                  |L10.708|
0002c4  4641              MOV      r1,r8                 ;1771
0002c6  f7fffffe          BL       WM_GetDialogItem
0002ca  4606              MOV      r6,r0                 ;1771
0002cc  f06f4170          MVN      r1,#0xf0000000        ;1772
0002d0  4630              MOV      r0,r6                 ;1772
0002d2  f7fffffe          BL       TEXT_SetBkColor
0002d6  f06f417f          MVN      r1,#0xff000000        ;1773
0002da  4630              MOV      r0,r6                 ;1773
0002dc  f7fffffe          BL       TEXT_SetTextColor
0002e0  4649              MOV      r1,r9                 ;1776
0002e2  6a28              LDR      r0,[r5,#0x20]         ;1776  ; hWinR
0002e4  f7fffffe          BL       WM_GetDialogItem
0002e8  4606              MOV      r6,r0                 ;1776
0002ea  4948              LDR      r1,|L10.1036|
0002ec  4630              MOV      r0,r6                 ;1777
0002ee  f7fffffe          BL       TEXT_SetBkColor
0002f2  2100              MOVS     r1,#0                 ;1778
0002f4  4630              MOV      r0,r6                 ;1778
0002f6  f7fffffe          BL       TEXT_SetTextColor
0002fa  e000              B        |L10.766|
                  |L10.764|
0002fc  e1c5              B        |L10.1674|
                  |L10.766|
0002fe  9404              STR      r4,[sp,#0x10]         ;1779
000300  e006              B        |L10.784|
                  |L10.770|
000302  f89d0010          LDRB     r0,[sp,#0x10]         ;1781
000306  543c              STRB     r4,[r7,r0]            ;1781
000308  f89d0010          LDRB     r0,[sp,#0x10]         ;1779
00030c  1c40              ADDS     r0,r0,#1              ;1779
00030e  9004              STR      r0,[sp,#0x10]         ;1779
                  |L10.784|
000310  f89d0010          LDRB     r0,[sp,#0x10]         ;1779
000314  2806              CMP      r0,#6                 ;1779
000316  d3f4              BCC      |L10.770|
000318  2015              MOVS     r0,#0x15              ;1783
00031a  71a8              STRB     r0,[r5,#6]            ;1783
00031c  e6f0              B        |L10.256|
                  |L10.798|
00031e  4649              MOV      r1,r9                 ;1790
000320  f7fffffe          BL       WM_GetDialogItem
000324  4607              MOV      r7,r0                 ;1790
000326  f06f4170          MVN      r1,#0xf0000000        ;1791
00032a  4638              MOV      r0,r7                 ;1791
00032c  f7fffffe          BL       TEXT_SetBkColor
000330  f06f417f          MVN      r1,#0xff000000        ;1792
000334  4638              MOV      r0,r7                 ;1792
000336  f7fffffe          BL       TEXT_SetTextColor
00033a  7868              LDRB     r0,[r5,#1]            ;1793  ; dot_flag
00033c  b388              CBZ      r0,|L10.930|
00033e  7868              LDRB     r0,[r5,#1]            ;1795  ; dot_flag
000340  b1a0              CBZ      r0,|L10.876|
000342  9402              STR      r4,[sp,#8]            ;1796
000344  9403              STR      r4,[sp,#0xc]          ;1796
000346  786a              LDRB     r2,[r5,#1]            ;1797  ; dot_flag
000348  4929              LDR      r1,|L10.1008|
00034a  1d12              ADDS     r2,r2,#4              ;1797
00034c  3140              ADDS     r1,r1,#0x40           ;1797
00034e  a802              ADD      r0,sp,#8              ;1797
000350  f7fffffe          BL       strncpy
000354  a802              ADD      r0,sp,#8              ;1798
000356  f7fffffe          BL       __hardfp_atof
00035a  ec532b18          VMOV     r2,r3,d8              ;1798
00035e  ec510b10          VMOV     r0,r1,d0              ;1798
000362  f7fffffe          BL       __aeabi_dmul
000366  f7fffffe          BL       __aeabi_d2uiz
00036a  65b0              STR      r0,[r6,#0x58]         ;1798  ; Run_Control
                  |L10.876|
00036c  6db0              LDR      r0,[r6,#0x58]         ;1800  ; Run_Control
00036e  f2475130          MOV      r1,#0x7530            ;1800
000372  4288              CMP      r0,r1                 ;1800
000374  d900              BLS      |L10.888|
000376  65b4              STR      r4,[r6,#0x58]         ;1801  ; Run_Control
                  |L10.888|
000378  6db0              LDR      r0,[r6,#0x58]         ;1803  ; Run_Control
00037a  6130              STR      r0,[r6,#0x10]         ;1803  ; Run_Control
00037c  6db0              LDR      r0,[r6,#0x58]         ;1805  ; Run_Control
00037e  ee000a10          VMOV     s0,r0                 ;1805
000382  eef80a40          VCVT.F32.U32 s1,s0                 ;1805
000386  ee800a89          VDIV.F32 s0,s1,s18             ;1805
00038a  ee100a10          VMOV     r0,s0                 ;1806
00038e  f7fffffe          BL       __aeabi_f2d
000392  ec410b10          VMOV     d0,r0,r1              ;1806
000396  ec532b10          VMOV     r2,r3,d0              ;1806
00039a  e003              B        |L10.932|
                  |L10.924|
00039c  e233              B        |L10.2054|
                  |L10.926|
00039e  e140              B        |L10.1570|
                  |L10.928|
0003a0  e296              B        |L10.2256|
                  |L10.930|
0003a2  e01b              B        |L10.988|
                  |L10.932|
0003a4  a117              ADR      r1,|L10.1028|
0003a6  a802              ADD      r0,sp,#8              ;1806
0003a8  f7fffffe          BL       __2sprintf
0003ac  a902              ADD      r1,sp,#8              ;1807
0003ae  4638              MOV      r0,r7                 ;1807
0003b0  f7fffffe          BL       TEXT_SetText
0003b4  4641              MOV      r1,r8                 ;1809
0003b6  6a28              LDR      r0,[r5,#0x20]         ;1809  ; hWinR
0003b8  f7fffffe          BL       WM_GetDialogItem
0003bc  4606              MOV      r6,r0                 ;1809
0003be  4913              LDR      r1,|L10.1036|
0003c0  4630              MOV      r0,r6                 ;1810
0003c2  f7fffffe          BL       TEXT_SetBkColor
0003c6  2100              MOVS     r1,#0                 ;1811
0003c8  4630              MOV      r0,r6                 ;1811
0003ca  f7fffffe          BL       TEXT_SetTextColor
0003ce  f7fffffe          BL       Write_Limits
0003d2  2013              MOVS     r0,#0x13              ;1814
0003d4  71a8              STRB     r0,[r5,#6]            ;1814
0003d6  702c              STRB     r4,[r5,#0]            ;1815
0003d8  706c              STRB     r4,[r5,#1]            ;1816
0003da  e691              B        |L10.256|
                  |L10.988|
0003dc  4804              LDR      r0,|L10.1008|
0003de  3040              ADDS     r0,r0,#0x40           ;1794
0003e0  f7fffffe          BL       atoi
0003e4  f44f717a          MOV      r1,#0x3e8             ;1794
0003e8  4348              MULS     r0,r1,r0              ;1794
0003ea  65b0              STR      r0,[r6,#0x58]         ;1794  ; Run_Control
0003ec  e7be              B        |L10.876|
0003ee  0000              DCW      0x0000
                  |L10.1008|
                          DCD      ||.data||
                  |L10.1012|
0003f4  00000000          DCFD     0x408f400000000000 ; 1000
0003f8  408f4000
                  |L10.1020|
0003fc  447a0000          DCFS     0x447a0000 ; 1000
                  |L10.1024|
                          DCD      Run_Control
                  |L10.1028|
000404  252e3366          DCB      "%.3f",0
000408  00      
000409  00                DCB      0
00040a  00                DCB      0
00040b  00                DCB      0
                  |L10.1036|
                          DCD      0x00bfffff
                  |L10.1040|
000410  25346400          DCB      "%4d",0
                  |L10.1044|
000414  00000000          DCFD     0x4059000000000000 ; 100
000418  40590000
                  |L10.1052|
00041c  42c80000          DCFS     0x42c80000 ; 100
                  |L10.1056|
000420  252e3266          DCB      "%.2f",0
000424  00      
000425  00                DCB      0
000426  00                DCB      0
000427  00                DCB      0
                  |L10.1064|
                          DCD      InFlashSave
                  |L10.1068|
                          DCD      0x080e0000
                  |L10.1072|
000430  4651              MOV      r1,r10                ;1823
000432  f7fffffe          BL       WM_GetDialogItem
000436  4606              MOV      r6,r0                 ;1823
000438  f06f4170          MVN      r1,#0xf0000000        ;1824
00043c  4630              MOV      r0,r6                 ;1824
00043e  f7fffffe          BL       TEXT_SetBkColor
000442  f06f417f          MVN      r1,#0xff000000        ;1825
000446  4630              MOV      r0,r6                 ;1825
000448  f7fffffe          BL       TEXT_SetTextColor
00044c  4659              MOV      r1,r11                ;1828
00044e  6a28              LDR      r0,[r5,#0x20]         ;1828  ; hWinR
000450  f7fffffe          BL       WM_GetDialogItem
000454  4606              MOV      r6,r0                 ;1828
000456  49fe              LDR      r1,|L10.2128|
000458  4630              MOV      r0,r6                 ;1829
00045a  f7fffffe          BL       TEXT_SetBkColor
00045e  2100              MOVS     r1,#0                 ;1830
000460  4630              MOV      r0,r6                 ;1830
000462  f7fffffe          BL       TEXT_SetTextColor
000466  9404              STR      r4,[sp,#0x10]         ;1831
000468  e006              B        |L10.1144|
                  |L10.1130|
00046a  f89d0010          LDRB     r0,[sp,#0x10]         ;1833
00046e  543c              STRB     r4,[r7,r0]            ;1833
000470  f89d0010          LDRB     r0,[sp,#0x10]         ;1831
000474  1c40              ADDS     r0,r0,#1              ;1831
000476  9004              STR      r0,[sp,#0x10]         ;1831
                  |L10.1144|
000478  f89d0010          LDRB     r0,[sp,#0x10]         ;1831
00047c  2806              CMP      r0,#6                 ;1831
00047e  d3f4              BCC      |L10.1130|
000480  2016              MOVS     r0,#0x16              ;1836
000482  71a8              STRB     r0,[r5,#6]            ;1836
000484  e63c              B        |L10.256|
                  |L10.1158|
000486  48f3              LDR      r0,|L10.2132|
000488  f7fffffe          BL       atoi
00048c  f44f717a          MOV      r1,#0x3e8             ;1847
000490  4348              MULS     r0,r1,r0              ;1847
000492  65f0              STR      r0,[r6,#0x5c]         ;1847  ; Run_Control
000494  e60a              B        |L10.172|
                  |L10.1174|
000496  4641              MOV      r1,r8                 ;1871
000498  f7fffffe          BL       WM_GetDialogItem
00049c  4606              MOV      r6,r0                 ;1871
00049e  f06f4170          MVN      r1,#0xf0000000        ;1872
0004a2  4630              MOV      r0,r6                 ;1872
0004a4  f7fffffe          BL       TEXT_SetBkColor
0004a8  f06f417f          MVN      r1,#0xff000000        ;1873
0004ac  4630              MOV      r0,r6                 ;1873
0004ae  f7fffffe          BL       TEXT_SetTextColor
0004b2  4649              MOV      r1,r9                 ;1876
0004b4  6a28              LDR      r0,[r5,#0x20]         ;1876  ; hWinR
0004b6  f7fffffe          BL       WM_GetDialogItem
0004ba  4606              MOV      r6,r0                 ;1876
0004bc  49e4              LDR      r1,|L10.2128|
0004be  4630              MOV      r0,r6                 ;1877
0004c0  f7fffffe          BL       TEXT_SetBkColor
0004c4  2100              MOVS     r1,#0                 ;1878
0004c6  4630              MOV      r0,r6                 ;1878
0004c8  f7fffffe          BL       TEXT_SetTextColor
0004cc  9404              STR      r4,[sp,#0x10]         ;1879
0004ce  e006              B        |L10.1246|
                  |L10.1232|
0004d0  f89d0010          LDRB     r0,[sp,#0x10]         ;1881
0004d4  543c              STRB     r4,[r7,r0]            ;1881
0004d6  f89d0010          LDRB     r0,[sp,#0x10]         ;1879
0004da  1c40              ADDS     r0,r0,#1              ;1879
0004dc  9004              STR      r0,[sp,#0x10]         ;1879
                  |L10.1246|
0004de  f89d0010          LDRB     r0,[sp,#0x10]         ;1879
0004e2  2806              CMP      r0,#6                 ;1879
0004e4  d3f4              BCC      |L10.1232|
0004e6  2040              MOVS     r0,#0x40              ;1884
0004e8  71a8              STRB     r0,[r5,#6]            ;1884
0004ea  e609              B        |L10.256|
                  |L10.1260|
0004ec  4649              MOV      r1,r9                 ;1891
0004ee  f7fffffe          BL       WM_GetDialogItem
0004f2  4606              MOV      r6,r0                 ;1891
0004f4  f06f4170          MVN      r1,#0xf0000000        ;1892
0004f8  4630              MOV      r0,r6                 ;1892
0004fa  f7fffffe          BL       TEXT_SetBkColor
0004fe  f06f417f          MVN      r1,#0xff000000        ;1893
000502  4630              MOV      r0,r6                 ;1893
000504  f7fffffe          BL       TEXT_SetTextColor
000508  7868              LDRB     r0,[r5,#1]            ;1894  ; dot_flag
00050a  b3e8              CBZ      r0,|L10.1416|
00050c  7868              LDRB     r0,[r5,#1]            ;1896  ; dot_flag
00050e  b198              CBZ      r0,|L10.1336|
000510  9402              STR      r4,[sp,#8]            ;1897
000512  9403              STR      r4,[sp,#0xc]          ;1897
000514  786a              LDRB     r2,[r5,#1]            ;1898  ; dot_flag
000516  49cf              LDR      r1,|L10.2132|
000518  1d12              ADDS     r2,r2,#4              ;1898
00051a  a802              ADD      r0,sp,#8              ;1898
00051c  f7fffffe          BL       strncpy
000520  a802              ADD      r0,sp,#8              ;1899
000522  f7fffffe          BL       __hardfp_atof
000526  ec532b18          VMOV     r2,r3,d8              ;1899
00052a  ec510b10          VMOV     r0,r1,d0              ;1899
00052e  f7fffffe          BL       __aeabi_dmul
000532  f7fffffe          BL       __aeabi_d2uiz
000536  82e8              STRH     r0,[r5,#0x16]         ;1899
                  |L10.1336|
000538  8ae8              LDRH     r0,[r5,#0x16]         ;1901  ; dis_gate_v
00053a  ee000a10          VMOV     s0,r0                 ;1901
00053e  eef80a40          VCVT.F32.U32 s1,s0                 ;1901
000542  ee800a89          VDIV.F32 s0,s1,s18             ;1901
000546  ed850a07          VSTR     s0,[r5,#0x1c]         ;1901
00054a  ee100a10          VMOV     r0,s0                 ;1902
00054e  f7fffffe          BL       __aeabi_f2d
000552  ec410b10          VMOV     d0,r0,r1              ;1902
000556  ec532b10          VMOV     r2,r3,d0              ;1902
00055a  f2af1158          ADR      r1,|L10.1028|
00055e  a802              ADD      r0,sp,#8              ;1902
000560  f7fffffe          BL       __2sprintf
000564  a902              ADD      r1,sp,#8              ;1903
000566  4630              MOV      r0,r6                 ;1903
000568  f7fffffe          BL       TEXT_SetText
00056c  4641              MOV      r1,r8                 ;1905
00056e  6a28              LDR      r0,[r5,#0x20]         ;1905  ; hWinR
000570  f7fffffe          BL       WM_GetDialogItem
000574  4606              MOV      r6,r0                 ;1905
000576  49b6              LDR      r1,|L10.2128|
000578  4630              MOV      r0,r6                 ;1906
00057a  f7fffffe          BL       TEXT_SetBkColor
00057e  2100              MOVS     r1,#0                 ;1907
000580  4630              MOV      r0,r6                 ;1907
000582  f7fffffe          BL       TEXT_SetTextColor
000586  e000              B        |L10.1418|
                  |L10.1416|
000588  e006              B        |L10.1432|
                  |L10.1418|
00058a  f7fffffe          BL       Write_Limits
00058e  203f              MOVS     r0,#0x3f              ;1910
000590  71a8              STRB     r0,[r5,#6]            ;1910
000592  702c              STRB     r4,[r5,#0]            ;1911
000594  706c              STRB     r4,[r5,#1]            ;1912
000596  e5b3              B        |L10.256|
                  |L10.1432|
000598  48ae              LDR      r0,|L10.2132|
00059a  f7fffffe          BL       atoi
00059e  eb000140          ADD      r1,r0,r0,LSL #1       ;1895
0005a2  ebc110c0          RSB      r0,r1,r0,LSL #7       ;1895
0005a6  f64f71ff          MOV      r1,#0xffff            ;1895
0005aa  ea0100c0          AND      r0,r1,r0,LSL #3       ;1895
0005ae  82e8              STRH     r0,[r5,#0x16]         ;1895
0005b0  e7c2              B        |L10.1336|
                  |L10.1458|
0005b2  4631              MOV      r1,r6                 ;1919
0005b4  f7fffffe          BL       WM_GetDialogItem
0005b8  4606              MOV      r6,r0                 ;1919
0005ba  f06f4170          MVN      r1,#0xf0000000        ;1920
0005be  4630              MOV      r0,r6                 ;1920
0005c0  f7fffffe          BL       TEXT_SetBkColor
0005c4  f06f417f          MVN      r1,#0xff000000        ;1921
0005c8  4630              MOV      r0,r6                 ;1921
0005ca  f7fffffe          BL       TEXT_SetTextColor
0005ce  4641              MOV      r1,r8                 ;1924
0005d0  6a28              LDR      r0,[r5,#0x20]         ;1924  ; hWinR
0005d2  f7fffffe          BL       WM_GetDialogItem
0005d6  4606              MOV      r6,r0                 ;1924
0005d8  499d              LDR      r1,|L10.2128|
0005da  4630              MOV      r0,r6                 ;1925
0005dc  f7fffffe          BL       TEXT_SetBkColor
0005e0  2100              MOVS     r1,#0                 ;1926
0005e2  4630              MOV      r0,r6                 ;1926
0005e4  f7fffffe          BL       TEXT_SetTextColor
0005e8  9404              STR      r4,[sp,#0x10]         ;1927
0005ea  e006              B        |L10.1530|
                  |L10.1516|
0005ec  f89d0010          LDRB     r0,[sp,#0x10]         ;1929
0005f0  543c              STRB     r4,[r7,r0]            ;1929
0005f2  f89d0010          LDRB     r0,[sp,#0x10]         ;1927
0005f6  1c40              ADDS     r0,r0,#1              ;1927
0005f8  9004              STR      r0,[sp,#0x10]         ;1927
                  |L10.1530|
0005fa  f89d0010          LDRB     r0,[sp,#0x10]         ;1927
0005fe  2806              CMP      r0,#6                 ;1927
000600  d3f4              BCC      |L10.1516|
000602  2046              MOVS     r0,#0x46              ;1932
000604  71a8              STRB     r0,[r5,#6]            ;1932
000606  e57b              B        |L10.256|
                  |L10.1544|
000608  4892              LDR      r0,|L10.2132|
00060a  f7fffffe          BL       atoi
00060e  8268              STRH     r0,[r5,#0x12]         ;1943
000610  e5b0              B        |L10.372|
                  |L10.1554|
000612  7b68              LDRB     r0,[r5,#0xd]          ;1967  ; oc_mode
000614  b118              CBZ      r0,|L10.1566|
000616  736c              STRB     r4,[r5,#0xd]          ;1971
                  |L10.1560|
000618  f7fffffe          BL       Write_Limits
00061c  e570              B        |L10.256|
                  |L10.1566|
00061e  7369              STRB     r1,[r5,#0xd]          ;1969
000620  e7fa              B        |L10.1560|
                  |L10.1570|
000622  7be8              LDRB     r0,[r5,#0xf]          ;1980  ; staticcdc
000624  b118              CBZ      r0,|L10.1582|
000626  73ec              STRB     r4,[r5,#0xf]          ;1984
                  |L10.1576|
000628  f7fffffe          BL       Write_Limits
00062c  e568              B        |L10.256|
                  |L10.1582|
00062e  73e9              STRB     r1,[r5,#0xf]          ;1982
000630  e7fa              B        |L10.1576|
                  |L10.1586|
000632  4659              MOV      r1,r11                ;1994
000634  f7fffffe          BL       WM_GetDialogItem
000638  4606              MOV      r6,r0                 ;1994
00063a  f06f4170          MVN      r1,#0xf0000000        ;1995
00063e  4630              MOV      r0,r6                 ;1995
000640  f7fffffe          BL       TEXT_SetBkColor
000644  f06f417f          MVN      r1,#0xff000000        ;1996
000648  4630              MOV      r0,r6                 ;1996
00064a  f7fffffe          BL       TEXT_SetTextColor
00064e  f6401132          MOV      r1,#0x932             ;1999
000652  6a28              LDR      r0,[r5,#0x20]         ;1999  ; hWinR
000654  f7fffffe          BL       WM_GetDialogItem
000658  4606              MOV      r6,r0                 ;1999
00065a  497d              LDR      r1,|L10.2128|
00065c  4630              MOV      r0,r6                 ;2000
00065e  f7fffffe          BL       TEXT_SetBkColor
000662  2100              MOVS     r1,#0                 ;2001
000664  4630              MOV      r0,r6                 ;2001
000666  f7fffffe          BL       TEXT_SetTextColor
00066a  9404              STR      r4,[sp,#0x10]         ;2002
00066c  e006              B        |L10.1660|
                  |L10.1646|
00066e  f89d0010          LDRB     r0,[sp,#0x10]         ;2004
000672  543c              STRB     r4,[r7,r0]            ;2004
000674  f89d0010          LDRB     r0,[sp,#0x10]         ;2002
000678  1c40              ADDS     r0,r0,#1              ;2002
00067a  9004              STR      r0,[sp,#0x10]         ;2002
                  |L10.1660|
00067c  f89d0010          LDRB     r0,[sp,#0x10]         ;2002
000680  2806              CMP      r0,#6                 ;2002
000682  d3f4              BCC      |L10.1646|
000684  204d              MOVS     r0,#0x4d              ;2007
000686  71a8              STRB     r0,[r5,#6]            ;2007
000688  e53a              B        |L10.256|
                  |L10.1674|
00068a  4872              LDR      r0,|L10.2132|
00068c  f7fffffe          BL       atoi
000690  2164              MOVS     r1,#0x64              ;2018
000692  4348              MULS     r0,r1,r0              ;2018
000694  f8c600a8          STR      r0,[r6,#0xa8]         ;2018  ; Run_Control
000698  e5cf              B        |L10.570|
                  |L10.1690|
00069a  4641              MOV      r1,r8                 ;2042
00069c  f7fffffe          BL       WM_GetDialogItem
0006a0  4606              MOV      r6,r0                 ;2042
0006a2  f06f4170          MVN      r1,#0xf0000000        ;2043
0006a6  4630              MOV      r0,r6                 ;2043
0006a8  f7fffffe          BL       TEXT_SetBkColor
0006ac  f06f417f          MVN      r1,#0xff000000        ;2044
0006b0  4630              MOV      r0,r6                 ;2044
0006b2  f7fffffe          BL       TEXT_SetTextColor
0006b6  4649              MOV      r1,r9                 ;2047
0006b8  6a28              LDR      r0,[r5,#0x20]         ;2047  ; hWinR
0006ba  f7fffffe          BL       WM_GetDialogItem
0006be  4606              MOV      r6,r0                 ;2047
0006c0  4963              LDR      r1,|L10.2128|
0006c2  4630              MOV      r0,r6                 ;2048
0006c4  f7fffffe          BL       TEXT_SetBkColor
0006c8  2100              MOVS     r1,#0                 ;2049
0006ca  4630              MOV      r0,r6                 ;2049
0006cc  f7fffffe          BL       TEXT_SetTextColor
0006d0  9404              STR      r4,[sp,#0x10]         ;2050
0006d2  e006              B        |L10.1762|
                  |L10.1748|
0006d4  f89d0010          LDRB     r0,[sp,#0x10]         ;2052
0006d8  543c              STRB     r4,[r7,r0]            ;2052
0006da  f89d0010          LDRB     r0,[sp,#0x10]         ;2050
0006de  1c40              ADDS     r0,r0,#1              ;2050
0006e0  9004              STR      r0,[sp,#0x10]         ;2050
                  |L10.1762|
0006e2  f89d0010          LDRB     r0,[sp,#0x10]         ;2050
0006e6  2806              CMP      r0,#6                 ;2050
0006e8  d3f4              BCC      |L10.1748|
0006ea  204e              MOVS     r0,#0x4e              ;2055
0006ec  71a8              STRB     r0,[r5,#6]            ;2055
0006ee  e507              B        |L10.256|
                  |L10.1776|
0006f0  4649              MOV      r1,r9                 ;2062
0006f2  f7fffffe          BL       WM_GetDialogItem
0006f6  4607              MOV      r7,r0                 ;2062
0006f8  f06f4170          MVN      r1,#0xf0000000        ;2063
0006fc  4638              MOV      r0,r7                 ;2063
0006fe  f7fffffe          BL       TEXT_SetBkColor
000702  f06f417f          MVN      r1,#0xff000000        ;2064
000706  4638              MOV      r0,r7                 ;2064
000708  f7fffffe          BL       TEXT_SetTextColor
00070c  7868              LDRB     r0,[r5,#1]            ;2065  ; dot_flag
00070e  b3e8              CBZ      r0,|L10.1932|
000710  7868              LDRB     r0,[r5,#1]            ;2067  ; dot_flag
000712  b1a0              CBZ      r0,|L10.1854|
000714  9402              STR      r4,[sp,#8]            ;2068
000716  9403              STR      r4,[sp,#0xc]          ;2068
000718  786a              LDRB     r2,[r5,#1]            ;2069  ; dot_flag
00071a  494e              LDR      r1,|L10.2132|
00071c  1d12              ADDS     r2,r2,#4              ;2069
00071e  a802              ADD      r0,sp,#8              ;2069
000720  f7fffffe          BL       strncpy
000724  a802              ADD      r0,sp,#8              ;2070
000726  f7fffffe          BL       __hardfp_atof
00072a  ec532b18          VMOV     r2,r3,d8              ;2070
00072e  ec510b10          VMOV     r0,r1,d0              ;2070
000732  f7fffffe          BL       __aeabi_dmul
000736  f7fffffe          BL       __aeabi_d2uiz
00073a  f8c600ac          STR      r0,[r6,#0xac]         ;2070  ; Run_Control
                  |L10.1854|
00073e  f8d600ac          LDR      r0,[r6,#0xac]         ;2072  ; Run_Control
000742  ee000a10          VMOV     s0,r0                 ;2072
000746  eef80a40          VCVT.F32.U32 s1,s0                 ;2072
00074a  ee800a89          VDIV.F32 s0,s1,s18             ;2072
00074e  ee100a10          VMOV     r0,s0                 ;2073
000752  f7fffffe          BL       __aeabi_f2d
000756  ec410b10          VMOV     d0,r0,r1              ;2073
00075a  ec532b10          VMOV     r2,r3,d0              ;2073
00075e  f2af315c          ADR      r1,|L10.1028|
000762  a802              ADD      r0,sp,#8              ;2073
000764  f7fffffe          BL       __2sprintf
000768  a902              ADD      r1,sp,#8              ;2074
00076a  4638              MOV      r0,r7                 ;2074
00076c  f7fffffe          BL       TEXT_SetText
000770  4641              MOV      r1,r8                 ;2076
000772  6a28              LDR      r0,[r5,#0x20]         ;2076  ; hWinR
000774  f7fffffe          BL       WM_GetDialogItem
000778  4606              MOV      r6,r0                 ;2076
00077a  4935              LDR      r1,|L10.2128|
00077c  4630              MOV      r0,r6                 ;2077
00077e  f7fffffe          BL       TEXT_SetBkColor
000782  2100              MOVS     r1,#0                 ;2078
000784  4630              MOV      r0,r6                 ;2078
000786  f7fffffe          BL       TEXT_SetTextColor
00078a  e000              B        |L10.1934|
                  |L10.1932|
00078c  e006              B        |L10.1948|
                  |L10.1934|
00078e  f7fffffe          BL       Write_Limits
000792  204b              MOVS     r0,#0x4b              ;2081
000794  71a8              STRB     r0,[r5,#6]            ;2081
000796  702c              STRB     r4,[r5,#0]            ;2082
000798  706c              STRB     r4,[r5,#1]            ;2083
00079a  e4b1              B        |L10.256|
                  |L10.1948|
00079c  482d              LDR      r0,|L10.2132|
00079e  f7fffffe          BL       atoi
0007a2  f44f717a          MOV      r1,#0x3e8             ;2066
0007a6  4348              MULS     r0,r1,r0              ;2066
0007a8  f8c600ac          STR      r0,[r6,#0xac]         ;2066  ; Run_Control
0007ac  e7c7              B        |L10.1854|
                  |L10.1966|
0007ae  4651              MOV      r1,r10                ;2090
0007b0  f7fffffe          BL       WM_GetDialogItem
0007b4  4606              MOV      r6,r0                 ;2090
0007b6  f06f4170          MVN      r1,#0xf0000000        ;2091
0007ba  4630              MOV      r0,r6                 ;2091
0007bc  f7fffffe          BL       TEXT_SetBkColor
0007c0  f06f417f          MVN      r1,#0xff000000        ;2092
0007c4  4630              MOV      r0,r6                 ;2092
0007c6  f7fffffe          BL       TEXT_SetTextColor
0007ca  f6401134          MOV      r1,#0x934             ;2095
0007ce  6a28              LDR      r0,[r5,#0x20]         ;2095  ; hWinR
0007d0  f7fffffe          BL       WM_GetDialogItem
0007d4  4606              MOV      r6,r0                 ;2095
0007d6  491e              LDR      r1,|L10.2128|
0007d8  4630              MOV      r0,r6                 ;2096
0007da  f7fffffe          BL       TEXT_SetBkColor
0007de  2100              MOVS     r1,#0                 ;2097
0007e0  4630              MOV      r0,r6                 ;2097
0007e2  f7fffffe          BL       TEXT_SetTextColor
0007e6  9404              STR      r4,[sp,#0x10]         ;2098
0007e8  e006              B        |L10.2040|
                  |L10.2026|
0007ea  f89d0010          LDRB     r0,[sp,#0x10]         ;2100
0007ee  543c              STRB     r4,[r7,r0]            ;2100
0007f0  f89d0010          LDRB     r0,[sp,#0x10]         ;2098
0007f4  1c40              ADDS     r0,r0,#1              ;2098
0007f6  9004              STR      r0,[sp,#0x10]         ;2098
                  |L10.2040|
0007f8  f89d0010          LDRB     r0,[sp,#0x10]         ;2098
0007fc  2806              CMP      r0,#6                 ;2098
0007fe  d3f4              BCC      |L10.2026|
000800  204f              MOVS     r0,#0x4f              ;2103
000802  71a8              STRB     r0,[r5,#6]            ;2103
000804  e47c              B        |L10.256|
                  |L10.2054|
000806  f6401134          MOV      r1,#0x934             ;2110
00080a  f7fffffe          BL       WM_GetDialogItem
00080e  4607              MOV      r7,r0                 ;2110
000810  f06f4170          MVN      r1,#0xf0000000        ;2111
000814  4638              MOV      r0,r7                 ;2111
000816  f7fffffe          BL       TEXT_SetBkColor
00081a  f06f417f          MVN      r1,#0xff000000        ;2112
00081e  4638              MOV      r0,r7                 ;2112
000820  f7fffffe          BL       TEXT_SetTextColor
000824  7868              LDRB     r0,[r5,#1]            ;2113  ; dot_flag
000826  b3e0              CBZ      r0,|L10.2210|
000828  7868              LDRB     r0,[r5,#1]            ;2115  ; dot_flag
00082a  b1c8              CBZ      r0,|L10.2144|
00082c  9402              STR      r4,[sp,#8]            ;2116
00082e  9403              STR      r4,[sp,#0xc]          ;2116
000830  786a              LDRB     r2,[r5,#1]            ;2117  ; dot_flag
000832  4908              LDR      r1,|L10.2132|
000834  1d12              ADDS     r2,r2,#4              ;2117
000836  a802              ADD      r0,sp,#8              ;2117
000838  f7fffffe          BL       strncpy
00083c  a802              ADD      r0,sp,#8              ;2118
00083e  f7fffffe          BL       __hardfp_atof
000842  ec532b18          VMOV     r2,r3,d8              ;2118
000846  ec510b10          VMOV     r0,r1,d0              ;2118
00084a  f7fffffe          BL       __aeabi_dmul
00084e  e003              B        |L10.2136|
                  |L10.2128|
                          DCD      0x00bfffff
                  |L10.2132|
                          DCD      ||.data||+0x40
                  |L10.2136|
000858  f7fffffe          BL       __aeabi_d2uiz
00085c  f8c600b0          STR      r0,[r6,#0xb0]         ;2118  ; Run_Control
                  |L10.2144|
000860  f8d600b0          LDR      r0,[r6,#0xb0]         ;2120  ; Run_Control
000864  ee000a10          VMOV     s0,r0                 ;2120
000868  eef80a40          VCVT.F32.U32 s1,s0                 ;2120
00086c  ee800a89          VDIV.F32 s0,s1,s18             ;2120
000870  ee100a10          VMOV     r0,s0                 ;2121
000874  f7fffffe          BL       __aeabi_f2d
000878  ec410b10          VMOV     d0,r0,r1              ;2121
00087c  ec532b10          VMOV     r2,r3,d0              ;2121
000880  f2af4180          ADR      r1,|L10.1028|
000884  a802              ADD      r0,sp,#8              ;2121
000886  f7fffffe          BL       __2sprintf
00088a  a902              ADD      r1,sp,#8              ;2122
00088c  4638              MOV      r0,r7                 ;2122
00088e  f7fffffe          BL       TEXT_SetText
000892  4651              MOV      r1,r10                ;2124
000894  6a28              LDR      r0,[r5,#0x20]         ;2124  ; hWinR
000896  f7fffffe          BL       WM_GetDialogItem
00089a  4606              MOV      r6,r0                 ;2124
00089c  490d              LDR      r1,|L10.2260|
00089e  4630              MOV      r0,r6                 ;2125
0008a0  e000              B        |L10.2212|
                  |L10.2210|
0008a2  e00c              B        |L10.2238|
                  |L10.2212|
0008a4  f7fffffe          BL       TEXT_SetBkColor
0008a8  2100              MOVS     r1,#0                 ;2126
0008aa  4630              MOV      r0,r6                 ;2126
0008ac  f7fffffe          BL       TEXT_SetTextColor
0008b0  f7fffffe          BL       Write_Limits
0008b4  204c              MOVS     r0,#0x4c              ;2129
0008b6  71a8              STRB     r0,[r5,#6]            ;2129
0008b8  702c              STRB     r4,[r5,#0]            ;2130
0008ba  706c              STRB     r4,[r5,#1]            ;2131
0008bc  e420              B        |L10.256|
                  |L10.2238|
0008be  4806              LDR      r0,|L10.2264|
0008c0  f7fffffe          BL       atoi
0008c4  f44f717a          MOV      r1,#0x3e8             ;2114
0008c8  4348              MULS     r0,r1,r0              ;2114
0008ca  f8c600b0          STR      r0,[r6,#0xb0]         ;2114  ; Run_Control
0008ce  e7c7              B        |L10.2144|
                  |L10.2256|
0008d0  6681              STR      r1,[r0,#0x68]         ;2138  ; InFlashSave
0008d2  e4ed              B        |L10.688|
;;;2146   void DEL_C(void){
                          ENDP

                  |L10.2260|
                          DCD      0x00bfffff
                  |L10.2264|
                          DCD      ||.data||+0x40

                          AREA ||i.ResetR||, CODE, READONLY, ALIGN=2

                  ResetR PROC
;;;1286   
;;;1287   WM_HWIN ResetR(void) {
000000  b51c              PUSH     {r2-r4,lr}
;;;1288     hWinR = GUI_CreateDialogBox(_aDialogCreate, GUI_COUNTOF(_aDialogCreate), _cbDialog, WM_HBKWIN, 0, 0);
000002  f7fffffe          BL       WM_GetDesktopWindow
000006  4603              MOV      r3,r0
000008  2000              MOVS     r0,#0
00000a  9000              STR      r0,[sp,#0]
00000c  9001              STR      r0,[sp,#4]
00000e  4a04              LDR      r2,|L11.32|
000010  212b              MOVS     r1,#0x2b
000012  4804              LDR      r0,|L11.36|
000014  f7fffffe          BL       GUI_CreateDialogBox
000018  4903              LDR      r1,|L11.40|
00001a  6208              STR      r0,[r1,#0x20]  ; hWinR
;;;1289     return hWinR;
;;;1290   }
00001c  bd1c              POP      {r2-r4,pc}
;;;1291   
                          ENDP

00001e  0000              DCW      0x0000
                  |L11.32|
                          DCD      _cbDialog
                  |L11.36|
                          DCD      ||.constdata||
                  |L11.40|
                          DCD      ||.data||

                          AREA ||i._cbDialog||, CODE, READONLY, ALIGN=2

                          REQUIRE _printf_percent
                          REQUIRE _printf_widthprec
                          REQUIRE _printf_f
                          REQUIRE _printf_fp_dec
                          REQUIRE _printf_pre_padding
                          REQUIRE _printf_flags
                          REQUIRE _printf_d
                          REQUIRE _printf_int_dec
                  _cbDialog PROC
;;;231    */
;;;232    static void _cbDialog(WM_MESSAGE * pMsg) {
000000  e92d4ff0          PUSH     {r4-r11,lr}
000004  ed2d8b06          VPUSH    {d8-d10}
000008  b083              SUB      sp,sp,#0xc
00000a  4604              MOV      r4,r0
;;;233        WM_HWIN hItem;
;;;234    //     int     NCode;
;;;235    //     int     Id;
;;;236        char  buf[5];
;;;237        float dis_init_c = (float)set_init_c/1000;
00000c  4df8              LDR      r5,|L12.1008|
00000e  6da8              LDR      r0,[r5,#0x58]  ; Run_Control
000010  ee000a10          VMOV     s0,r0
000014  eeb80a40          VCVT.F32.U32 s0,s0
000018  ed9f9af6          VLDR     s18,|L12.1012|
00001c  ee80aa09          VDIV.F32 s20,s0,s18
;;;238        float dis_sbs_c = (float)set_sbs_c/1000;
000020  6de8              LDR      r0,[r5,#0x5c]  ; Run_Control
000022  ee000a10          VMOV     s0,r0
000026  eeb80a40          VCVT.F32.U32 s0,s0
00002a  eec09a09          VDIV.F32 s19,s0,s18
;;;239        static vu8 led_sw = 0;
;;;240    
;;;241    
;;;242      // USER START (Optionally insert additional variables)
;;;243      // USER END
;;;244    //    int i;
;;;245            
;;;246    
;;;247    
;;;248      switch (pMsg->MsgId) {
00002e  6820              LDR      r0,[r4,#0]
;;;249    		
;;;250    	case WM_PAINT:
;;;251    	GUI_SetColor(GUI_WHITE);//设置画笔颜色
;;;252    	GUI_FillRect(0,25,480,26);//画一条实线
;;;253        GUI_SetColor(GUI_ORANGE);
;;;254    	GUI_SetFont(&GUI_Fontsymbol);
;;;255    	GUI_UC_SetEncodeUTF8();
;;;256    	GUI_SetTextMode(GUI_TM_TRANS);//设置文本模式为底色透明
;;;257    	if(jkflag == 1)
;;;258    	{
;;;259    		GUI_DispStringAt("Jinko", 5, 1);//SET
;;;260    	}
;;;261    	if(lang == 0)
;;;262        {
;;;263            GUI_SetColor(GUI_WHITE);
;;;264            GUI_SetFont(&GUI_FontHZ20S);
;;;265            GUI_UC_SetEncodeUTF8();
;;;266            GUI_SetTextMode(GUI_TM_TRANS);//设置文本模式为底色透明
;;;267            GUI_DispStringAt("测量显示", 130, 3);//SET
;;;268        }else{
;;;269            GUI_SetColor(GUI_WHITE);
;;;270            GUI_SetFont(&GUI_Font20_ASCII);
;;;271            GUI_DispStringAt("DISPLAY", 130, 3);
;;;272        }
;;;273        
;;;274        GUI_SetColor(GUI_GREEN);
;;;275        GUI_SetFont(&GUI_Fontunit);
;;;276        GUI_DispStringAt("°",342, 2);
;;;277        GUI_SetFont(&GUI_Font24_1);
;;;278        GUI_DispStringAt("C",350, 2);
;;;279    //    DrawLock();
;;;280    //    GUI_DispDecAt(R_VLUE,50,140,4);//显示内阻值
;;;281    //      GUI_GotoXY(220,4);
;;;282    //      GUI_DispDec(short_time,6);
;;;283        
;;;284    // 	GUI_SetColor(GUI_WHITE);//设置前景色为白色
;;;285    // 	GUI_SetFont(&GUI_FontD24x32);//
;;;286    // 	GUI_GotoXY(95,48);//
;;;287    // 	GUI_DispFloatFix(DISS_Voltage,5,2);//显示电压值
;;;288    //     
;;;289    //     if(R_VLUE == 0){
;;;290    //         GUI_SetFont(&GUI_Font24_1);
;;;291    //         GUI_DispStringAt("___", 130, 116);
;;;292    //     }
;;;293    //     else if(R_VLUE >= 1000){
;;;294    //         GUI_SetFont(&GUI_FontEN40);
;;;295    //         GUI_DispStringAt("OVER", 112, 120);
;;;296    //     }else{
;;;297    //         GUI_GotoXY(95,116);//
;;;298    //         GUI_DispDec(R_VLUE,count_num(R_VLUE));//显示内阻值
;;;299    //     }
;;;300        
;;;301    
;;;302        switch(para_set2){
;;;303                case set_2_on:
;;;304                {
;;;305    //                 GUI_SetFont(&GUI_FontD24x32);
;;;306    //                 GUI_GotoXY(95,184);//
;;;307    //                 GUI_DispFloatFix(DISS_Current,5,2);
;;;308                    GUI_SetFont(&GUI_FontEN40);
;;;309                    GUI_SetColor(GUI_LIGHTGRAY);
000030  f8df93c4          LDR      r9,|L12.1016|
000034  4ef1              LDR      r6,|L12.1020|
000036  4ff2              LDR      r7,|L12.1024|
000038  280f              CMP      r0,#0xf               ;248
00003a  d011              BEQ      |L12.96|
;;;310                    GUI_DispStringAt("I:", 28, 190);
;;;311                    GUI_DispStringAt("R:", 28, 120);
;;;312                    GUI_SetColor(GUI_LIGHTGRAY);
;;;313                    GUI_DispStringAt("A", 240, 187);
;;;314                    GUI_SetFont(&GUI_Font16_1);
;;;315                    GUI_SetColor(GUI_WHITE);
;;;316                    GUI_DispStringAt("A",375+10,70+10);
;;;317                    GUI_DispStringAt("A",375+10,90+10);
;;;318                    GUI_DispStringAt("V",375+10,110+10);
;;;319                    GUI_DispStringAt("ms",365+10,130+10);
;;;320    				GUI_DispStringAt("V",375+10,150+10);
;;;321                    GUI_DispStringAt("A",375+10,170+10);
;;;322                    GUI_DispStringAt("A",375+10,190+10);
;;;323    //                GUI_DispStringAt("A",400,110);
;;;324                    GUI_DispStringAt("ms",430,90);
;;;325    				GUI_DispStringAt("V",440,130);
;;;326                    GUI_DispStringAt("A",440,170);
;;;327    				
;;;328                    
;;;329    				GUI_SetColor(GUI_GREEN);
;;;330    				if(lang == 0)
;;;331                    {
;;;332                        GUI_SetFont(&GUI_FontHZ14);
;;;333                       GUI_DispStringAt("测试结果", 400, 50);
;;;334    					GUI_DispStringAt("短路时间", 400, 70);//SET
;;;335    					GUI_DispStringAt("负载电压", 400, 110);//SET
;;;336    					GUI_DispStringAt("充电电流", 400, 150);//SET
;;;337                    }else{
;;;338                        GUI_SetFont(&GUI_Font16_1);
;;;339                        GUI_DispStringAt("Result", 400, 50);
;;;340                        GUI_DispStringAt("Short Time", 400, 70);//SET
;;;341                        GUI_DispStringAt("Load V", 400, 110);//SET
;;;342    					GUI_DispStringAt("Charge C", 400, 150);//SET
;;;343                    }
;;;344                    
;;;345    //                 if(oc_data == 0)
;;;346    //                 {
;;;347    //                     GUI_SetFont(&GUI_Font24_1);
;;;348    //                     GUI_DispStringAt("__", 410, 140);
;;;349    
;;;350    //                 }else{
;;;351    //                     GUI_SetFont(&GUI_Font24_1);
;;;352    //                     GUI_GotoXY(400,150);//
;;;353    //                     GUI_DispFloatFix(oc_data,5,2);
;;;354    //                 }
;;;355                    break;
;;;356                }
;;;357                case set_2_off:
;;;358                {
;;;359                    GUI_SetFont(&GUI_FontEN40);
;;;360                    GUI_SetColor(GUI_LIGHTGRAY);
;;;361                    GUI_DispStringAt("R:", 28, 120);
;;;362                    break;
;;;363                }
;;;364        }
;;;365    	break;
;;;366    	case WM_TIMER://定时模块消息
;;;367    	if(WM_GetTimerId(pMsg->Data.v) == ID_TimerTime)
;;;368    	{
;;;369    //        lockstat1 = lock;
;;;370    //        if(lockstat1 != lockstat2)
;;;371    //        {
;;;372    //            WM_InvalidateWindow(hWinR);
;;;373    //        }//锁屏处理
;;;374    		if(lock == 1)
;;;375    		{
;;;376    			hItem = WM_GetDialogItem(pMsg->hWin, ID_TEXT_160);
;;;377    			TEXT_SetText(hItem,"锁");
;;;378    		}else{
;;;379    			hItem = WM_GetDialogItem(pMsg->hWin, ID_TEXT_160);
;;;380    			TEXT_SetText(hItem,"");
;;;381    		}
;;;382    		if(manual == 0)
;;;383            {
;;;384                hItem = WM_GetDialogItem(pMsg->hWin, ID_TEXT_125);
;;;385                TEXT_SetTextColor(hItem, GUI_RED);//设置字体颜色
;;;386                TEXT_SetFont(hItem,&GUI_Font24_1);//设定文本字体
;;;387                GUI_UC_SetEncodeUTF8();        
;;;388                TEXT_SetText(hItem,"Range");
;;;389                hItem = WM_GetDialogItem(pMsg->hWin, ID_TEXT_126);       
;;;390                TEXT_SetText(hItem,"Auto");
;;;391                hItem = WM_GetDialogItem(pMsg->hWin, ID_TEXT_127);       
;;;392                TEXT_SetText(hItem,"");
;;;393                hItem = WM_GetDialogItem(pMsg->hWin, ID_TEXT_128);       
;;;394                TEXT_SetText(hItem,"");
;;;395                if(R_VLUE < 180 && DISS_Voltage > 1)
;;;396                {
;;;397                    GPIO_ResetBits(GPIOB,GPIO_Pin_13);//R_RALY低档位 
;;;398                    r_raly = 0;
00003c  f8df83c4          LDR      r8,|L12.1028|
000040  f6401a3b          MOV      r10,#0x93b            ;376
000044  281d              CMP      r0,#0x1d              ;248
000046  d07d              BEQ      |L12.324|
000048  f5a07080          SUB      r0,r0,#0x100          ;248
00004c  3813              SUBS     r0,r0,#0x13           ;248
00004e  d07a              BEQ      |L12.326|
;;;399                }else{
;;;400                    GPIO_SetBits(GPIOB,GPIO_Pin_13);//R_RALY高档位
;;;401                    r_raly = 1;
;;;402                }
;;;403            }else{
;;;404                hItem = WM_GetDialogItem(pMsg->hWin, ID_TEXT_125);
;;;405                TEXT_SetTextColor(hItem, GUI_RED);//设置字体颜色
;;;406                TEXT_SetFont(hItem,&GUI_Font24_1);//设定文本字体
;;;407                GUI_UC_SetEncodeUTF8();        
;;;408                TEXT_SetText(hItem,"Range");
;;;409                if(r_raly == 1)
;;;410                {
;;;411    				GPIO_SetBits(GPIOB,GPIO_Pin_13);//R_RALY高档位
;;;412                    hItem = WM_GetDialogItem(pMsg->hWin, ID_TEXT_126);       
;;;413                    TEXT_SetText(hItem,"2000");
;;;414                    hItem = WM_GetDialogItem(pMsg->hWin, ID_TEXT_127);       
;;;415                    TEXT_SetText(hItem,"m");
;;;416                    hItem = WM_GetDialogItem(pMsg->hWin, ID_TEXT_128);       
;;;417                    TEXT_SetText(hItem,"Ω");
;;;418                }else{
;;;419    				GPIO_ResetBits(GPIOB,GPIO_Pin_13);//R_RALY低档位 
;;;420                    hItem = WM_GetDialogItem(pMsg->hWin, ID_TEXT_126);       
;;;421                    TEXT_SetText(hItem,"200");
;;;422                    hItem = WM_GetDialogItem(pMsg->hWin, ID_TEXT_127);       
;;;423                    TEXT_SetText(hItem,"m");
;;;424                    hItem = WM_GetDialogItem(pMsg->hWin, ID_TEXT_128);       
;;;425                    TEXT_SetText(hItem,"Ω");
;;;426                }
;;;427            }
;;;428             
;;;429    		if(para_set2 == set_2_on)
;;;430            {
;;;431    			if(oc_mode == 0)
;;;432                {
;;;433                    GPIO_SetBits(GPIOC,GPIO_Pin_10);//CC
;;;434                    flag_Load_CC = 1;
;;;435                    hItem = WM_GetDialogItem(pMsg->hWin, ID_TEXT_132);
;;;436                    TEXT_SetTextColor(hItem, GUI_WHITE);//设置字体颜色
;;;437                    TEXT_SetFont(hItem,&GUI_Font16_1);//设定文本字体
;;;438                    GUI_UC_SetEncodeUTF8();        
;;;439                    TEXT_SetText(hItem,"CC");
;;;440                }else if(oc_mode == 1){
;;;441                    GPIO_ResetBits(GPIOC,GPIO_Pin_10);//CV
;;;442                    flag_Load_CC = 0;
;;;443                    hItem = WM_GetDialogItem(pMsg->hWin, ID_TEXT_132);
;;;444                    TEXT_SetTextColor(hItem, GUI_WHITE);//设置字体颜色
;;;445                    TEXT_SetFont(hItem,&GUI_Font16_1);//设定文本字体
;;;446                    GUI_UC_SetEncodeUTF8();        
;;;447                    TEXT_SetText(hItem,"CV");
;;;448                }
;;;449    			
;;;450    			if(staticcdc == 1)
;;;451    			{
;;;452    				hItem = WM_GetDialogItem(pMsg->hWin, ID_TEXT_153);
;;;453    				if(lang == 0)
;;;454                    {
;;;455                        GUI_SetFont(&GUI_FontHZ14);
;;;456                       TEXT_SetText(hItem, "开");
;;;457                    }else{
;;;458                        GUI_SetFont(&GUI_Font16_1);
;;;459                        TEXT_SetText(hItem, "ON");
;;;460                    }
;;;461    				
;;;462    			}else{
;;;463    				hItem = WM_GetDialogItem(pMsg->hWin, ID_TEXT_153);
;;;464    				if(lang == 0)
;;;465                    {
;;;466                        GUI_SetFont(&GUI_FontHZ14);
;;;467                       TEXT_SetText(hItem, "关");
;;;468                    }else{
;;;469                        GUI_SetFont(&GUI_Font16_1);
;;;470                        TEXT_SetText(hItem, "OFF");
;;;471                    }
;;;472    			}
;;;473    			
;;;474    			
;;;475    			
;;;476    			if(test_start == 0)
;;;477    			{
;;;478    				if(DISS_Voltage > 1 && DISS_Voltage > gate_v && R_VLUE > 20 && con_flag == 0)
;;;479    				{
;;;480    					con_flag = 1;
;;;481    					time1 = (float)GUI_GetTime()/500.0;
;;;482    				}
;;;483    				if(con_flag == 1)
;;;484    				{
;;;485    					if(test_mode == 0)
;;;486    					{
;;;487    						if((float)(GUI_GetTime()/500.0 - time1) > 0.5)
;;;488    						{
;;;489    							if(staticcdc == 1)
;;;490    							{
;;;491    								step = 1;
;;;492    							}else{
;;;493    								step = 4;
;;;494    								SET_Current_Laod = set_init_c;
;;;495    								GPIO_ResetBits(GPIOA,GPIO_Pin_15);
;;;496    							}
;;;497    							test_start = 1;
;;;498    							r = R_VLUE;
;;;499    							v = DISS_Voltage;
;;;500    						}
;;;501    					}else if(test_mode == 1){
;;;502    						if((float)(GUI_GetTime()/500.0 - time1) > 1.5)
;;;503    						{
;;;504    							if(staticcdc == 1)
;;;505    							{
;;;506    								step = 1;
;;;507    							}else{
;;;508    								step = 4;
;;;509    								SET_Current_Laod = set_init_c;
;;;510    								GPIO_ResetBits(GPIOA,GPIO_Pin_15);
;;;511    							}
;;;512    							test_start = 1;
;;;513    							r = R_VLUE;
;;;514    							v = DISS_Voltage;
;;;515    						}
;;;516    					}
;;;517    				}
;;;518    			
;;;519    				hItem = WM_GetDialogItem(pMsg->hWin, ID_TEXT_98);
;;;520                     if(lang == 0)
;;;521                    {
;;;522                        GUI_SetFont(&GUI_Fontset_font);
;;;523                        TEXT_SetText(hItem, "未测试");
;;;524                    }else{
;;;525                        GUI_SetFont(&GUI_Font20_ASCII);
;;;526                        TEXT_SetText(hItem, "Untested");
;;;527                    }
;;;528    				
;;;529    				if(DISS_Voltage < 0.3)
;;;530                    {
;;;531                        hItem = WM_GetDialogItem(pMsg->hWin, ID_TEXT_80);
;;;532                        sprintf(buf,"%.3f",0.000);
;;;533                        TEXT_SetText(hItem,buf);
;;;534    					
;;;535    					hItem = WM_GetDialogItem(pMsg->hWin, ID_TEXT_81);					
;;;536    					sprintf(buf,"%04d",0);       
;;;537    					TEXT_SetText(hItem,buf);
;;;538                    }else{
;;;539                        hItem = WM_GetDialogItem(pMsg->hWin, ID_TEXT_80);
;;;540                        sprintf(buf,"%.3f",DISS_Voltage);       
;;;541                        TEXT_SetText(hItem,buf);
;;;542    					
;;;543    					if(R_VLUE >= 2000)
;;;544    					{
;;;545    //						hItem = WM_GetDialogItem(pMsg->hWin, ID_TEXT_81);
;;;546    //						TEXT_SetFont(hItem,&GUI_FontEN40);//设定文本字体
;;;547    //						TEXT_SetText(hItem,"OVER");
;;;548    					}else{
;;;549    						hItem = WM_GetDialogItem(pMsg->hWin, ID_TEXT_81);					
;;;550    						sprintf(buf,"%04d",R_VLUE);       
;;;551    						TEXT_SetText(hItem,buf);
;;;552    					}
;;;553                    }
;;;554    				
;;;555    				
;;;556    				
;;;557    				short_time = 0;
;;;558                    hItem = WM_GetDialogItem(pMsg->hWin, ID_TEXT_117);
;;;559                    sprintf(buf,"%4d",short_time);
;;;560                    TEXT_SetFont(hItem,&GUI_Font16_1);//设定文本字体      
;;;561                    TEXT_SetText(hItem,buf);
;;;562                    
;;;563                    oc_data = 0;
;;;564                    hItem = WM_GetDialogItem(pMsg->hWin, ID_TEXT_82);
;;;565                    TEXT_SetTextColor(hItem, GUI_GREEN);
;;;566                    sprintf(buf,"%.3f",oc_data);
;;;567                    TEXT_SetText(hItem,buf);
;;;568    				
;;;569    				static_lv = 0;
;;;570    				hItem = WM_GetDialogItem(pMsg->hWin, ID_TEXT_83);  
;;;571    				sprintf(buf,"%.3f",static_lv);
;;;572    				TEXT_SetText(hItem,buf); 
;;;573    				
;;;574    				static_pc = 0;
;;;575    				hItem = WM_GetDialogItem(pMsg->hWin, ID_TEXT_151);
;;;576    				sprintf(buf,"%.3f",static_pc);       
;;;577    				TEXT_SetText(hItem,buf);
;;;578    				
;;;579    			}else if(test_start == 1){
;;;580    				if(step == 0)
;;;581    				{
;;;582    					hItem = WM_GetDialogItem(pMsg->hWin, ID_TEXT_98);
;;;583    					 if(lang == 0)
;;;584    					{
;;;585    						GUI_SetFont(&GUI_Fontset_font);
;;;586    						TEXT_SetText(hItem, "未测试");
;;;587    					}else{
;;;588    						GUI_SetFont(&GUI_Font20_ASCII);
;;;589    						TEXT_SetText(hItem, "Untested");
;;;590    					}
;;;591    					
;;;592    					hItem = WM_GetDialogItem(pMsg->hWin, ID_TEXT_81);					
;;;593    					sprintf(buf,"%04d",r);       
;;;594    					TEXT_SetText(hItem,buf);
;;;595    					
;;;596    					hItem = WM_GetDialogItem(pMsg->hWin, ID_TEXT_80);
;;;597                        sprintf(buf,"%.3f",v);       
;;;598                        TEXT_SetText(hItem,buf);
;;;599    					
;;;600    					hItem = WM_GetDialogItem(pMsg->hWin, ID_TEXT_117);
;;;601    					sprintf(buf,"%4d",short_time/10);
;;;602    					TEXT_SetFont(hItem,&GUI_Font16_1);//设定文本字体      
;;;603    					TEXT_SetText(hItem,buf);
;;;604    					
;;;605    					hItem = WM_GetDialogItem(pMsg->hWin, ID_TEXT_82);
;;;606    					TEXT_SetTextColor(hItem, GUI_GREEN);
;;;607    					sprintf(buf,"%.3f",oc_data);
;;;608    					TEXT_SetText(hItem,buf);
;;;609    					
;;;610    					hItem = WM_GetDialogItem(pMsg->hWin, ID_TEXT_83);  
;;;611    					sprintf(buf,"%.3f",static_lv);
;;;612    					TEXT_SetText(hItem,buf); 
;;;613    					
;;;614    					hItem = WM_GetDialogItem(pMsg->hWin, ID_TEXT_151);
;;;615    					sprintf(buf,"%.3f",static_pc);       
;;;616    					TEXT_SetText(hItem,buf);
;;;617    					//分选
;;;618    					if(para_set1 == set_1_on)
;;;619    					{
;;;620    						test_r();
;;;621    					}
;;;622    					//归零
;;;623    					if(DISS_Voltage < gate_v || DISS_Voltage < 1)
;;;624    					{
;;;625    						test_start = 0;
;;;626    						con_flag = 0;
;;;627    						v = 0;
;;;628    						r= 0;
;;;629    					}
;;;630    				}else{
;;;631    					hItem = WM_GetDialogItem(pMsg->hWin, ID_TEXT_98);
;;;632                        if(lang == 0)
;;;633    					{
;;;634    						GUI_SetFont(&GUI_Fontset_font);
;;;635    						TEXT_SetText(hItem, "测试中");
;;;636    					}else{
;;;637    						GUI_SetFont(&GUI_Font20_ASCII);
;;;638    						TEXT_SetText(hItem, "Testing");
;;;639    					}
;;;640    				}
;;;641    			}
;;;642    			
;;;643    			
;;;644    		}else{
;;;645    			if(DISS_Voltage < 0.3)
;;;646    			{
;;;647    				hItem = WM_GetDialogItem(pMsg->hWin, ID_TEXT_80);
;;;648    				sprintf(buf,"%.3f",0.000);
;;;649    				TEXT_SetText(hItem,buf);
;;;650    				
;;;651    				hItem = WM_GetDialogItem(pMsg->hWin, ID_TEXT_81);					
;;;652    				sprintf(buf,"%04d",0);       
;;;653    				TEXT_SetText(hItem,buf);
;;;654    			}else{
;;;655    				hItem = WM_GetDialogItem(pMsg->hWin, ID_TEXT_80);
;;;656    				sprintf(buf,"%.3f",disloadv);       
;;;657    				TEXT_SetText(hItem,buf);
;;;658    				
;;;659    				if(R_VLUE >= 2000)
;;;660    				{
;;;661    //						hItem = WM_GetDialogItem(pMsg->hWin, ID_TEXT_81);
;;;662    //						TEXT_SetFont(hItem,&GUI_FontEN40);//设定文本字体
;;;663    //						TEXT_SetText(hItem,"OVER");
;;;664    				}else{
;;;665    					hItem = WM_GetDialogItem(pMsg->hWin, ID_TEXT_81);					
;;;666    					sprintf(buf,"%04d",disrvalue);       
;;;667    					TEXT_SetText(hItem,buf);
;;;668    				}
;;;669    			}
;;;670    			//分选
;;;671    			if(para_set1 == set_1_on)
;;;672    			{
;;;673    				test_r();
;;;674    			}
;;;675    		}
;;;676    		//显示温度
;;;677    		hItem = WM_GetDialogItem(pMsg->hWin, ID_TEXT_124);       
;;;678            sprintf(buf,"%.1f",temp);
;;;679            TEXT_SetText(hItem,buf);
;;;680    		
;;;681    		hItem = WM_GetDialogItem(pMsg->hWin, ID_TEXT_167);
;;;682    		if(vrange == 0)
;;;683    		{
;;;684    			TEXT_SetText(hItem,"电压档L");
;;;685    		}else{
;;;686    			TEXT_SetText(hItem,"电压档H");
;;;687    		}
;;;688    		WM_RestartTimer(pMsg->Data.v, 20);//复位定时器数值越大刷新时间越短
;;;689    	}
;;;690    	break;
;;;691        
;;;692    		
;;;693      case WM_INIT_DIALOG:
;;;694        //
;;;695        // Initialization of 'R'
;;;696    	
;;;697        //
;;;698            hItem = pMsg->hWin;
;;;699            WINDOW_SetBkColor(hItem, GUI_BLACK);
;;;700    		WM_CreateTimer(hItem,ID_TimerTime,500,0);//创建本窗口定时器  
;;;701            
;;;702    		hItem = WM_GetDialogItem(pMsg->hWin, ID_TEXT_160);
;;;703    		TEXT_SetTextColor(hItem, GUI_RED);//设置字体颜色
;;;704    		TEXT_SetFont(hItem,&GUI_FontHZ14);
;;;705    		TEXT_SetText(hItem,"");
;;;706    	
;;;707    	
;;;708    		if(lang == 0)
;;;709            {
;;;710                hItem = WM_GetDialogItem(pMsg->hWin, ID_BUTTON_13);
;;;711                BUTTON_SetTextColor(hItem,0,GUI_BLACK);//设置字体颜色为黑色
;;;712                BUTTON_SetPressed(hItem,1);
;;;713                BUTTON_SetFont      (hItem,    &GUI_FontHZ16);//设定按钮文本字体
;;;714                GUI_UC_SetEncodeUTF8();
;;;715                BUTTON_SetText(hItem,"内阻测试");
;;;716            
;;;717                hItem = WM_GetDialogItem(pMsg->hWin, ID_BUTTON_14);
;;;718                BUTTON_SetTextColor(hItem,0,GUI_BLACK);//设置字体颜色为黑色
;;;719                BUTTON_SetFont      (hItem,    &GUI_FontHZ16);//设定按钮文本字体
;;;720                GUI_UC_SetEncodeUTF8();
;;;721                BUTTON_SetText(hItem,"程控负载");
;;;722                
;;;723                hItem = WM_GetDialogItem(pMsg->hWin, ID_BUTTON_15);
;;;724                BUTTON_SetTextColor(hItem,0,GUI_BLACK);//设置字体颜色为黑色
;;;725                BUTTON_SetFont      (hItem,    &GUI_FontHZ16);//设定按钮文本字体
;;;726                GUI_UC_SetEncodeUTF8();
;;;727                BUTTON_SetText(hItem,"程控电源");
;;;728                
;;;729                hItem = WM_GetDialogItem(pMsg->hWin, ID_BUTTON_16);
;;;730                BUTTON_SetTextColor(hItem,0,GUI_BLACK);//设置字体颜色为黑色
;;;731                BUTTON_SetFont      (hItem,    &GUI_FontHZ16);//设定按钮文本字体
;;;732                GUI_UC_SetEncodeUTF8();
;;;733                BUTTON_SetText(hItem,"充放电");
;;;734                
;;;735                
;;;736                
;;;737                hItem = WM_GetDialogItem(pMsg->hWin, ID_BUTTON_17);
;;;738                BUTTON_SetTextColor(hItem,0,GUI_BLACK);//设置字体颜色为黑色
;;;739                BUTTON_SetFont      (hItem,&GUI_FontHZ16);//设定按钮文本字体
;;;740                GUI_UC_SetEncodeUTF8();
;;;741                BUTTON_SetText(hItem,"曲线");
;;;742            }else{
;;;743                hItem = WM_GetDialogItem(pMsg->hWin, ID_BUTTON_13);
;;;744                BUTTON_SetTextColor(hItem,0,GUI_BLACK);//设置字体颜色为黑色
;;;745                BUTTON_SetPressed(hItem,1);
;;;746                BUTTON_SetFont      (hItem,    &GUI_Font16B_ASCII);//设定按钮文本字体
;;;747                GUI_UC_SetEncodeUTF8();
;;;748                BUTTON_SetText(hItem,"I.R. TEST");
;;;749            
;;;750                hItem = WM_GetDialogItem(pMsg->hWin, ID_BUTTON_14);
;;;751                BUTTON_SetTextColor(hItem,0,GUI_BLACK);//设置字体颜色为黑色
;;;752                BUTTON_SetFont      (hItem,    &GUI_Font16B_ASCII);//设定按钮文本字体
;;;753                GUI_UC_SetEncodeUTF8();
;;;754                BUTTON_SetText(hItem,"LOAD");
;;;755                
;;;756                hItem = WM_GetDialogItem(pMsg->hWin, ID_BUTTON_15);
;;;757                BUTTON_SetTextColor(hItem,0,GUI_BLACK);//设置字体颜色为黑色
;;;758                BUTTON_SetFont      (hItem,    &GUI_Font16B_ASCII);//设定按钮文本字体
;;;759                GUI_UC_SetEncodeUTF8();
;;;760                BUTTON_SetText(hItem,"POWER");
;;;761                
;;;762                hItem = WM_GetDialogItem(pMsg->hWin, ID_BUTTON_16);
;;;763                BUTTON_SetTextColor(hItem,0,GUI_BLACK);//设置字体颜色为黑色
;;;764                BUTTON_SetFont      (hItem,    &GUI_Font16B_ASCII);//设定按钮文本字体
;;;765                GUI_UC_SetEncodeUTF8();
;;;766                BUTTON_SetText(hItem,"C&DC");
;;;767                
;;;768                
;;;769                
;;;770                hItem = WM_GetDialogItem(pMsg->hWin, ID_BUTTON_17);
;;;771                BUTTON_SetTextColor(hItem,0,GUI_BLACK);//设置字体颜色为黑色
;;;772                BUTTON_SetFont      (hItem,&GUI_Font16B_ASCII);//设定按钮文本字体
;;;773                GUI_UC_SetEncodeUTF8();
;;;774                BUTTON_SetText(hItem,"GRAPH");           
;;;775            }
;;;776    		
;;;777        // Initialization of 'Text'
;;;778        //
;;;779            hItem = WM_GetDialogItem(pMsg->hWin, ID_TEXT_0);
;;;780            TEXT_SetTextColor(hItem, GUI_LIGHTGRAY);
;;;781            TEXT_SetFont(hItem,&GUI_FontEN40);//设定文本字体
;;;782            GUI_UC_SetEncodeUTF8();
;;;783    		TEXT_SetText(hItem,"V:");
;;;784        //
;;;785        // Initialization of 'Text'
;;;786        //
;;;787        //
;;;788        // Initialization of 'Text'
;;;789        //
;;;790    		hItem = WM_GetDialogItem(pMsg->hWin, ID_TEXT_3);
;;;791    		TEXT_SetText(hItem, "V");
;;;792            TEXT_SetTextColor(hItem, GUI_LIGHTGRAY);
;;;793            TEXT_SetFont(hItem, &GUI_FontEN40);
;;;794        //
;;;795        // Initialization of 'Text'
;;;796        //
;;;797            hItem = WM_GetDialogItem(pMsg->hWin, ID_TEXT_4);
;;;798    		GUI_UC_SetEncodeUTF8();
;;;799    		TEXT_SetText(hItem, "Ω");
;;;800            TEXT_SetTextColor(hItem, GUI_LIGHTGRAY);
;;;801    		TEXT_SetFont(hItem,&GUI_FontHZ32);//设定按钮文本字体
;;;802        //
;;;803        // Initialization of 'Text'
;;;804        //		
;;;805    		hItem = WM_GetDialogItem(pMsg->hWin, ID_TEXT_6);
;;;806            GUI_UC_SetEncodeUTF8();
;;;807    		TEXT_SetText(hItem, "m");
;;;808            TEXT_SetTextColor(hItem, GUI_LIGHTGRAY);
;;;809    		TEXT_SetFont(hItem, &GUI_FontEN40);
;;;810            
;;;811            hItem = WM_GetDialogItem(pMsg->hWin, ID_TEXT_80);
;;;812            sprintf(buf,"%.3f",0.000);
;;;813            TEXT_SetTextColor(hItem, GUI_GREEN);//设置字体颜色
;;;814            TEXT_SetFont(hItem,&GUI_FontD24x32);//设定文本字体
;;;815            GUI_UC_SetEncodeUTF8();        
;;;816            TEXT_SetText(hItem,buf);
;;;817                
;;;818            hItem = WM_GetDialogItem(pMsg->hWin, ID_TEXT_81);
;;;819            sprintf(buf,"%04d",0);
;;;820            TEXT_SetTextColor(hItem, GUI_GREEN);//设置字体颜色
;;;821            TEXT_SetFont(hItem,&GUI_FontD24x32);//设定文本字体
;;;822            GUI_UC_SetEncodeUTF8();        
;;;823            TEXT_SetText(hItem,buf);
;;;824            
;;;825            hItem = WM_GetDialogItem(pMsg->hWin, ID_TEXT_96);
;;;826            TEXT_SetTextColor(hItem, GUI_WHITE);//设置字体颜色
;;;827            TEXT_SetFont(hItem,&GUI_Fontset_font);//设定文本字体
;;;828            GUI_UC_SetEncodeUTF8();        
;;;829            TEXT_SetText(hItem,"");
;;;830            
;;;831            hItem = WM_GetDialogItem(pMsg->hWin, ID_TEXT_124);
;;;832            TEXT_SetTextColor(hItem, GUI_GREEN);//设置字体颜色
;;;833            TEXT_SetFont(hItem,&GUI_Font24_1);//设定文本字体       
;;;834            sprintf(buf,"%.1f",temp);
;;;835            TEXT_SetText(hItem,buf);
;;;836            
;;;837            if(manual == 0)
;;;838                    {
;;;839                        hItem = WM_GetDialogItem(pMsg->hWin, ID_TEXT_125);
;;;840                        TEXT_SetTextColor(hItem, GUI_RED);//设置字体颜色
;;;841                        TEXT_SetFont(hItem,&GUI_Font24_1);//设定文本字体
;;;842                        GUI_UC_SetEncodeUTF8();        
;;;843                        TEXT_SetText(hItem,"Range");
;;;844                        hItem = WM_GetDialogItem(pMsg->hWin, ID_TEXT_126);
;;;845                        TEXT_SetTextColor(hItem, GUI_RED);//设置字体颜色
;;;846                        TEXT_SetFont(hItem,&GUI_Font24_1);//设定文本字体
;;;847                        GUI_UC_SetEncodeUTF8();        
;;;848                        TEXT_SetText(hItem,"Auto");
;;;849                        
;;;850                        hItem = WM_GetDialogItem(pMsg->hWin, ID_TEXT_127);
;;;851                        TEXT_SetTextColor(hItem, GUI_RED);//设置字体颜色
;;;852                        TEXT_SetFont(hItem,&GUI_Font24_1);//设定文本字体
;;;853                        GUI_UC_SetEncodeUTF8(); 
;;;854                        TEXT_SetText(hItem,"");
;;;855                        hItem = WM_GetDialogItem(pMsg->hWin, ID_TEXT_128);
;;;856                        TEXT_SetTextColor(hItem, GUI_RED);//设置字体颜色
;;;857                        TEXT_SetFont(hItem,&GUI_FontHZ16);//设定文本字体
;;;858                        GUI_UC_SetEncodeUTF8();                         
;;;859                        TEXT_SetText(hItem,"");  
;;;860                            
;;;861                    }else{
;;;862                        hItem = WM_GetDialogItem(pMsg->hWin, ID_TEXT_125);
;;;863                        TEXT_SetTextColor(hItem, GUI_RED);//设置字体颜色
;;;864                        TEXT_SetFont(hItem,&GUI_Font24_1);//设定文本字体
;;;865                        GUI_UC_SetEncodeUTF8();        
;;;866                        TEXT_SetText(hItem,"Range");
;;;867                        
;;;868                        if(r_raly == 1)
;;;869                        {
;;;870                            hItem = WM_GetDialogItem(pMsg->hWin, ID_TEXT_126);
;;;871                            TEXT_SetTextColor(hItem, GUI_RED);//设置字体颜色
;;;872                            TEXT_SetFont(hItem,&GUI_Font24_1);//设定文本字体
;;;873                            GUI_UC_SetEncodeUTF8();        
;;;874                            TEXT_SetText(hItem,"2000"); 
;;;875    
;;;876                            hItem = WM_GetDialogItem(pMsg->hWin, ID_TEXT_127);
;;;877                            TEXT_SetTextColor(hItem, GUI_RED);//设置字体颜色
;;;878                            TEXT_SetFont(hItem,&GUI_Font24_1);//设定文本字体
;;;879                            GUI_UC_SetEncodeUTF8(); 
;;;880                            TEXT_SetText(hItem,"m");
;;;881                            hItem = WM_GetDialogItem(pMsg->hWin, ID_TEXT_128);
;;;882                            TEXT_SetTextColor(hItem, GUI_RED);//设置字体颜色
;;;883                            TEXT_SetFont(hItem,&GUI_FontHZ16);//设定文本字体
;;;884                            GUI_UC_SetEncodeUTF8();                         
;;;885                            TEXT_SetText(hItem,"Ω");                        
;;;886                        }else{
;;;887                            hItem = WM_GetDialogItem(pMsg->hWin, ID_TEXT_126);
;;;888                            TEXT_SetTextColor(hItem, GUI_RED);//设置字体颜色
;;;889                            TEXT_SetFont(hItem,&GUI_Font24_1);//设定文本字体
;;;890                            GUI_UC_SetEncodeUTF8();        
;;;891                            TEXT_SetText(hItem,"200");
;;;892                            
;;;893                            hItem = WM_GetDialogItem(pMsg->hWin, ID_TEXT_127);
;;;894                            TEXT_SetTextColor(hItem, GUI_RED);//设置字体颜色
;;;895                            TEXT_SetFont(hItem,&GUI_Font24_1);//设定文本字体
;;;896                            GUI_UC_SetEncodeUTF8(); 
;;;897                            TEXT_SetText(hItem,"m");
;;;898                            hItem = WM_GetDialogItem(pMsg->hWin, ID_TEXT_128);
;;;899                            TEXT_SetTextColor(hItem, GUI_RED);//设置字体颜色
;;;900                            TEXT_SetFont(hItem,&GUI_FontHZ16);//设定文本字体
;;;901                            GUI_UC_SetEncodeUTF8();                         
;;;902                            TEXT_SetText(hItem,"Ω");  
;;;903                        }
;;;904                    }
;;;905            
;;;906            switch(para_set2){
;;;907                case set_2_on:
;;;908                {
;;;909    				if(lang == 0)
;;;910                    {
;;;911    					hItem = WM_GetDialogItem(pMsg->hWin, ID_TEXT_1);
;;;912    					GUI_UC_SetEncodeUTF8();
;;;913    					TEXT_SetText(hItem, "过流模式");
;;;914    					TEXT_SetTextColor(hItem, GUI_WHITE);
;;;915    					TEXT_SetFont(hItem, &GUI_FontHZ14);
;;;916    					
;;;917    					hItem = WM_GetDialogItem(pMsg->hWin, ID_TEXT_43);
;;;918    					GUI_UC_SetEncodeUTF8();
;;;919    					TEXT_SetText(hItem, "步进时间");
;;;920    					TEXT_SetTextColor(hItem, GUI_WHITE);
;;;921    					TEXT_SetFont(hItem, &GUI_FontHZ14);
;;;922    					
;;;923    					hItem = WM_GetDialogItem(pMsg->hWin, ID_TEXT_44);
;;;924    					GUI_UC_SetEncodeUTF8();
;;;925    					TEXT_SetText(hItem, "起始电流");
;;;926    					TEXT_SetTextColor(hItem, GUI_WHITE);
;;;927    					TEXT_SetFont(hItem, &GUI_FontHZ14);
;;;928    					
;;;929    					hItem = WM_GetDialogItem(pMsg->hWin, ID_TEXT_45);
;;;930    					GUI_UC_SetEncodeUTF8();
;;;931    					TEXT_SetText(hItem, "步进电流");
;;;932    					TEXT_SetTextColor(hItem, GUI_WHITE);
;;;933    					TEXT_SetFont(hItem, &GUI_FontHZ14);
;;;934    					
;;;935    					hItem = WM_GetDialogItem(pMsg->hWin, ID_TEXT_118);
;;;936    					GUI_UC_SetEncodeUTF8();
;;;937    					TEXT_SetText(hItem, "门槛电压");
;;;938    					TEXT_SetTextColor(hItem, GUI_WHITE);
;;;939    					TEXT_SetFont(hItem, &GUI_FontHZ14);
;;;940    					
;;;941    					hItem = WM_GetDialogItem(pMsg->hWin, ID_TEXT_145);
;;;942    					GUI_UC_SetEncodeUTF8();
;;;943    					TEXT_SetText(hItem, "充电电压");
;;;944    					TEXT_SetTextColor(hItem, GUI_WHITE);
;;;945    					TEXT_SetFont(hItem, &GUI_FontHZ14);
;;;946    					
;;;947    					hItem = WM_GetDialogItem(pMsg->hWin, ID_TEXT_146);
;;;948    					GUI_UC_SetEncodeUTF8();
;;;949    					TEXT_SetText(hItem, "充电电流");
;;;950    					TEXT_SetTextColor(hItem, GUI_WHITE);
;;;951    					TEXT_SetFont(hItem, &GUI_FontHZ14);
;;;952    					
;;;953    					hItem = WM_GetDialogItem(pMsg->hWin, ID_TEXT_147);
;;;954    					GUI_UC_SetEncodeUTF8();
;;;955    					TEXT_SetText(hItem, "负载电流");
;;;956    					TEXT_SetTextColor(hItem, GUI_WHITE);
;;;957    					TEXT_SetFont(hItem, &GUI_FontHZ14);
;;;958    					
;;;959    					hItem = WM_GetDialogItem(pMsg->hWin, ID_TEXT_152);
;;;960    					GUI_UC_SetEncodeUTF8();
;;;961    					TEXT_SetText(hItem, "充放测试");
;;;962    					TEXT_SetBkColor(hItem,0x00BFFFFF);
;;;963    					TEXT_SetTextColor(hItem, GUI_BLACK);
;;;964    					TEXT_SetFont(hItem, &GUI_FontHZ14);
;;;965    					
;;;966    					hItem = WM_GetDialogItem(pMsg->hWin, ID_TEXT_167);
;;;967    					GUI_UC_SetEncodeUTF8();
;;;968    					if(vrange == 1)
;;;969    					{
;;;970    						TEXT_SetText(hItem, "电压档H");
;;;971    					}else{
;;;972    						TEXT_SetText(hItem, "电压档L");
;;;973    					}
;;;974    					TEXT_SetTextColor(hItem, GUI_WHITE);
;;;975    					TEXT_SetFont(hItem, &GUI_FontHZ14);
;;;976    					
;;;977    				}else{
;;;978    					hItem = WM_GetDialogItem(pMsg->hWin, ID_TEXT_1);
;;;979    					GUI_UC_SetEncodeUTF8();
;;;980    					TEXT_SetText(hItem, "OC Mode");
;;;981    					TEXT_SetTextColor(hItem, GUI_WHITE);
;;;982    					TEXT_SetFont(hItem, &GUI_Font16_1);
;;;983    					
;;;984    					hItem = WM_GetDialogItem(pMsg->hWin, ID_TEXT_43);
;;;985    					GUI_UC_SetEncodeUTF8();
;;;986    					TEXT_SetText(hItem, "Step Time");
;;;987    					TEXT_SetTextColor(hItem, GUI_WHITE);
;;;988    					TEXT_SetFont(hItem, &GUI_Font16_1);
;;;989    					
;;;990    					hItem = WM_GetDialogItem(pMsg->hWin, ID_TEXT_44);
;;;991    					GUI_UC_SetEncodeUTF8();
;;;992    					TEXT_SetText(hItem, "Start C");
;;;993    					TEXT_SetTextColor(hItem, GUI_WHITE);
;;;994    					TEXT_SetFont(hItem, &GUI_Font16_1);
;;;995    					
;;;996    					hItem = WM_GetDialogItem(pMsg->hWin, ID_TEXT_45);
;;;997    					GUI_UC_SetEncodeUTF8();
;;;998    					TEXT_SetText(hItem, "Step C");
;;;999    					TEXT_SetTextColor(hItem, GUI_WHITE);
;;;1000   					TEXT_SetFont(hItem, &GUI_Font16_1);
;;;1001   					
;;;1002   					hItem = WM_GetDialogItem(pMsg->hWin, ID_TEXT_118);
;;;1003   					GUI_UC_SetEncodeUTF8();
;;;1004   					TEXT_SetText(hItem, "Threshold V");
;;;1005   					TEXT_SetTextColor(hItem, GUI_WHITE);
;;;1006   					TEXT_SetFont(hItem, &GUI_Font16_1);
;;;1007   					
;;;1008   					hItem = WM_GetDialogItem(pMsg->hWin, ID_TEXT_145);
;;;1009   					GUI_UC_SetEncodeUTF8();
;;;1010   					TEXT_SetText(hItem, "Charge V");
;;;1011   					TEXT_SetTextColor(hItem, GUI_WHITE);
;;;1012   					TEXT_SetFont(hItem, &GUI_Font16_1);
;;;1013   					
;;;1014   					hItem = WM_GetDialogItem(pMsg->hWin, ID_TEXT_146);
;;;1015   					GUI_UC_SetEncodeUTF8();
;;;1016   					TEXT_SetText(hItem, "Charge C");
;;;1017   					TEXT_SetTextColor(hItem, GUI_WHITE);
;;;1018   					TEXT_SetFont(hItem, &GUI_Font16_1);
;;;1019   					
;;;1020   					hItem = WM_GetDialogItem(pMsg->hWin, ID_TEXT_147);
;;;1021   					GUI_UC_SetEncodeUTF8();
;;;1022   					TEXT_SetText(hItem, "Load C");
;;;1023   					TEXT_SetTextColor(hItem, GUI_WHITE);
;;;1024   					TEXT_SetFont(hItem, &GUI_Font16_1);
;;;1025   					
;;;1026   					hItem = WM_GetDialogItem(pMsg->hWin, ID_TEXT_152);
;;;1027   					GUI_UC_SetEncodeUTF8();
;;;1028   					TEXT_SetText(hItem, "CD TEST");
;;;1029   					TEXT_SetBkColor(hItem,0x00BFFFFF);
;;;1030   					TEXT_SetTextColor(hItem, GUI_BLACK);
;;;1031   					TEXT_SetFont(hItem, &GUI_Font16_1);
;;;1032   					
;;;1033   					hItem = WM_GetDialogItem(pMsg->hWin, ID_TEXT_167);
;;;1034   					GUI_UC_SetEncodeUTF8();
;;;1035   					if(vrange == 1)
;;;1036   					{
;;;1037   						TEXT_SetText(hItem, "VH");
;;;1038   					}else{
;;;1039   						TEXT_SetText(hItem, "VL");
;;;1040   					}
;;;1041   					TEXT_SetTextColor(hItem, GUI_WHITE);
;;;1042   					TEXT_SetFont(hItem, &GUI_Font16_1);
;;;1043   				}
;;;1044   				
;;;1045   				if(lang == 0)
;;;1046                   {
;;;1047   					if(staticcdc == 1)
;;;1048   					{
;;;1049   						hItem = WM_GetDialogItem(pMsg->hWin, ID_TEXT_153);
;;;1050   						GUI_UC_SetEncodeUTF8();
;;;1051   						TEXT_SetText(hItem, "开");
;;;1052   						TEXT_SetTextColor(hItem, GUI_WHITE);
;;;1053   						TEXT_SetFont(hItem, &GUI_FontHZ14);
;;;1054   					}else{
;;;1055   						hItem = WM_GetDialogItem(pMsg->hWin, ID_TEXT_153);
;;;1056   						GUI_UC_SetEncodeUTF8();
;;;1057   						TEXT_SetText(hItem, "关");
;;;1058   						TEXT_SetTextColor(hItem, GUI_WHITE);
;;;1059   						TEXT_SetFont(hItem, &GUI_FontHZ14);
;;;1060   					}
;;;1061   				}else{
;;;1062   					if(staticcdc == 1)
;;;1063   					{
;;;1064   						hItem = WM_GetDialogItem(pMsg->hWin, ID_TEXT_153);
;;;1065   						GUI_UC_SetEncodeUTF8();
;;;1066   						TEXT_SetText(hItem, "ON");
;;;1067   						TEXT_SetTextColor(hItem, GUI_WHITE);
;;;1068   						TEXT_SetFont(hItem, &GUI_Font16_1);
;;;1069   					}else{
;;;1070   						hItem = WM_GetDialogItem(pMsg->hWin, ID_TEXT_153);
;;;1071   						GUI_UC_SetEncodeUTF8();
;;;1072   						TEXT_SetText(hItem, "OFF");
;;;1073   						TEXT_SetTextColor(hItem, GUI_WHITE);
;;;1074   						TEXT_SetFont(hItem, &GUI_Font16_1);
;;;1075   					}
;;;1076   				}
;;;1077   				
;;;1078                   
;;;1079                   hItem = WM_GetDialogItem(pMsg->hWin, ID_TEXT_97);
;;;1080                   sprintf(buf,"%.3f",gate_v);
;;;1081                   TEXT_SetFont(hItem,&GUI_Font16_1);//设定文本字体
;;;1082                   TEXT_SetText(hItem,buf);
;;;1083                   TEXT_SetTextColor(hItem, GUI_WHITE);
;;;1084                   
;;;1085                   
;;;1086                   if(lang == 0)
;;;1087                   {
;;;1088                       hItem = WM_GetDialogItem(pMsg->hWin, ID_TEXT_98);
;;;1089                       GUI_UC_SetEncodeUTF8();
;;;1090                       TEXT_SetText(hItem, "未测试");
;;;1091                       TEXT_SetTextColor(hItem, GUI_WHITE);
;;;1092                       TEXT_SetFont(hItem, &GUI_Fontset_font);
;;;1093                   }else{
;;;1094                       hItem = WM_GetDialogItem(pMsg->hWin, ID_TEXT_98);
;;;1095                       GUI_UC_SetEncodeUTF8();
;;;1096                       TEXT_SetText(hItem, "Untested");
;;;1097                       TEXT_SetTextColor(hItem, GUI_WHITE);
;;;1098                       TEXT_SetFont(hItem, &GUI_Font20_ASCII);
;;;1099                   }
;;;1100                   
;;;1101                   hItem = WM_GetDialogItem(pMsg->hWin, ID_TEXT_46);
;;;1102                   sprintf(buf,"%.3f",dis_init_c);
;;;1103                   TEXT_SetTextColor(hItem, GUI_WHITE);//设置字体颜色
;;;1104                   TEXT_SetFont(hItem,&GUI_Font16_1);//设定文本字体
;;;1105                   GUI_UC_SetEncodeUTF8();        
;;;1106                   TEXT_SetText(hItem,buf);
;;;1107   //                SET_Current_Laod = set_init_c;
;;;1108   
;;;1109                   hItem = WM_GetDialogItem(pMsg->hWin, ID_TEXT_47);
;;;1110                   sprintf(buf,"%.3f",dis_sbs_c);
;;;1111                   TEXT_SetTextColor(hItem, GUI_WHITE);//设置字体颜色
;;;1112                   TEXT_SetFont(hItem,&GUI_Font16_1);//设定文本字体
;;;1113                   GUI_UC_SetEncodeUTF8();        
;;;1114                   TEXT_SetText(hItem,buf);
;;;1115                   
;;;1116                   hItem = WM_GetDialogItem(pMsg->hWin, ID_TEXT_82);
;;;1117                   sprintf(buf,"%.3f",0.000);
;;;1118                   TEXT_SetTextColor(hItem, GUI_GREEN);//设置字体颜色
;;;1119                   TEXT_SetFont(hItem,&GUI_FontD24x32);//设定文本字体
;;;1120                   GUI_UC_SetEncodeUTF8();        
;;;1121                   TEXT_SetText(hItem,buf);
;;;1122                   
;;;1123                   hItem = WM_GetDialogItem(pMsg->hWin, ID_TEXT_83);
;;;1124                   sprintf(buf,"%.3f",0.000);
;;;1125                   TEXT_SetTextColor(hItem, GUI_WHITE);//设置字体颜色
;;;1126                   TEXT_SetFont(hItem,&GUI_Font16_1);//设定文本字体
;;;1127                   GUI_UC_SetEncodeUTF8();        
;;;1128                   TEXT_SetText(hItem,buf);
;;;1129   				
;;;1130   				hItem = WM_GetDialogItem(pMsg->hWin, ID_TEXT_151);
;;;1131                   sprintf(buf,"%.3f",0.000);
;;;1132                   TEXT_SetTextColor(hItem, GUI_WHITE);//设置字体颜色
;;;1133                   TEXT_SetFont(hItem,&GUI_Font16_1);//设定文本字体
;;;1134                   GUI_UC_SetEncodeUTF8();        
;;;1135                   TEXT_SetText(hItem,buf);
;;;1136   				
;;;1137   				hItem = WM_GetDialogItem(pMsg->hWin, ID_TEXT_148);
;;;1138                   sprintf(buf,"%.2f",(float)set_static_pv/100);
;;;1139                   TEXT_SetTextColor(hItem, GUI_WHITE);//设置字体颜色
;;;1140                   TEXT_SetFont(hItem,&GUI_Font16_1);//设定文本字体
;;;1141                   GUI_UC_SetEncodeUTF8();        
;;;1142                   TEXT_SetText(hItem,buf);
;;;1143                   
;;;1144                   hItem = WM_GetDialogItem(pMsg->hWin, ID_TEXT_149);
;;;1145                   sprintf(buf,"%.3f",(float)set_static_pc/1000);
;;;1146                   TEXT_SetTextColor(hItem, GUI_WHITE);//设置字体颜色
;;;1147                   TEXT_SetFont(hItem,&GUI_Font16_1);//设定文本字体
;;;1148                   GUI_UC_SetEncodeUTF8();        
;;;1149                   TEXT_SetText(hItem,buf);
;;;1150                   
;;;1151                   hItem = WM_GetDialogItem(pMsg->hWin, ID_TEXT_150);
;;;1152                   sprintf(buf,"%.3f",(float)set_static_lc/1000);
;;;1153                   TEXT_SetTextColor(hItem, GUI_WHITE);//设置字体颜色
;;;1154                   TEXT_SetFont(hItem,&GUI_Font16_1);//设定文本字体
;;;1155                   GUI_UC_SetEncodeUTF8();        
;;;1156                   TEXT_SetText(hItem,buf);
;;;1157                   
;;;1158                   hItem = WM_GetDialogItem(pMsg->hWin, ID_TEXT_117);
;;;1159                   sprintf(buf,"%4d",short_time/10);
;;;1160                   TEXT_SetTextColor(hItem, GUI_WHITE);//设置字体颜色
;;;1161                   TEXT_SetFont(hItem,&GUI_Font16_1);//设定文本字体
;;;1162                   GUI_UC_SetEncodeUTF8();        
;;;1163                   TEXT_SetText(hItem,buf);
;;;1164                   
;;;1165                   hItem = WM_GetDialogItem(pMsg->hWin,ID_TEXT_130);
;;;1166                   sprintf(buf,"%4d",steptime);
;;;1167                   TEXT_SetTextColor(hItem, GUI_WHITE);//设置字体颜色
;;;1168                   TEXT_SetFont(hItem,&GUI_Font16_1);//设定文本字体
;;;1169                   GUI_UC_SetEncodeUTF8();        
;;;1170                   TEXT_SetText(hItem,buf);
;;;1171                   
;;;1172                   if(oc_mode == 0)
;;;1173                   {
;;;1174                       hItem = WM_GetDialogItem(pMsg->hWin, ID_TEXT_132);
;;;1175                       TEXT_SetTextColor(hItem, GUI_WHITE);//设置字体颜色
;;;1176                       TEXT_SetFont(hItem,&GUI_Font16_1);//设定文本字体
;;;1177                       GUI_UC_SetEncodeUTF8();        
;;;1178                       TEXT_SetText(hItem,"CC");
;;;1179                   }else if(oc_mode == 1){
;;;1180                       hItem = WM_GetDialogItem(pMsg->hWin, ID_TEXT_132);
;;;1181                       TEXT_SetTextColor(hItem, GUI_WHITE);//设置字体颜色
;;;1182                       TEXT_SetFont(hItem,&GUI_Font16_1);//设定文本字体
;;;1183                       GUI_UC_SetEncodeUTF8();        
;;;1184                       TEXT_SetText(hItem,"CV");
;;;1185                   }
;;;1186                   
;;;1187                   
;;;1188                   
;;;1189                   break;
;;;1190               }
;;;1191               case set_2_off:
;;;1192               {
;;;1193                   hItem = WM_GetDialogItem(pMsg->hWin, ID_TEXT_1);
;;;1194                   TEXT_SetText(hItem, "");
;;;1195                   TEXT_SetTextColor(hItem, GUI_INVALID_COLOR);
;;;1196                   
;;;1197                   hItem = WM_GetDialogItem(pMsg->hWin, ID_TEXT_43);
;;;1198                   TEXT_SetText(hItem, "");
;;;1199                   TEXT_SetTextColor(hItem, GUI_INVALID_COLOR);
;;;1200                   
;;;1201                   hItem = WM_GetDialogItem(pMsg->hWin, ID_TEXT_44);
;;;1202                   TEXT_SetText(hItem, "");
;;;1203                   TEXT_SetTextColor(hItem, GUI_INVALID_COLOR);
;;;1204                  
;;;1205                   
;;;1206                   hItem = WM_GetDialogItem(pMsg->hWin, ID_TEXT_45);
;;;1207                   TEXT_SetText(hItem, "");
;;;1208                   TEXT_SetTextColor(hItem, GUI_INVALID_COLOR);
;;;1209                   
;;;1210                   hItem = WM_GetDialogItem(pMsg->hWin, ID_TEXT_46);
;;;1211                   TEXT_SetText(hItem, "");
;;;1212                   TEXT_SetTextColor(hItem, GUI_INVALID_COLOR);
;;;1213   
;;;1214                   hItem = WM_GetDialogItem(pMsg->hWin, ID_TEXT_47);
;;;1215                   TEXT_SetText(hItem, "");
;;;1216                   TEXT_SetTextColor(hItem, GUI_INVALID_COLOR);
;;;1217                   
;;;1218                   hItem = WM_GetDialogItem(pMsg->hWin, ID_TEXT_97);
;;;1219                   TEXT_SetText(hItem, "");
;;;1220                   TEXT_SetTextColor(hItem, GUI_INVALID_COLOR);
;;;1221                   
;;;1222                   hItem = WM_GetDialogItem(pMsg->hWin, ID_TEXT_118);
;;;1223                   TEXT_SetText(hItem, "");
;;;1224                   TEXT_SetTextColor(hItem, GUI_INVALID_COLOR);
;;;1225                   
;;;1226                   hItem = WM_GetDialogItem(pMsg->hWin, ID_TEXT_98);
;;;1227                   TEXT_SetText(hItem, "");
;;;1228                   TEXT_SetTextColor(hItem, GUI_INVALID_COLOR);
;;;1229                   
;;;1230                   hItem = WM_GetDialogItem(pMsg->hWin, ID_TEXT_117);
;;;1231                   TEXT_SetText(hItem, "");      
;;;1232                   TEXT_SetTextColor(hItem, GUI_INVALID_COLOR);
;;;1233                   
;;;1234                   hItem = WM_GetDialogItem(pMsg->hWin, ID_TEXT_130);
;;;1235                   TEXT_SetText(hItem, "");      
;;;1236                   TEXT_SetTextColor(hItem, GUI_INVALID_COLOR);
;;;1237                   
;;;1238                   hItem = WM_GetDialogItem(pMsg->hWin, ID_TEXT_132);
;;;1239                   TEXT_SetText(hItem, "");
;;;1240                   TEXT_SetTextColor(hItem, GUI_INVALID_COLOR);
;;;1241                   break;
;;;1242               }
;;;1243           }
;;;1244           
;;;1245       // USER START (Optionally insert additional code for further widget initialization)
;;;1246       // USER END
;;;1247           break;
;;;1248           
;;;1249     // USER START (Optionally insert additional message handling)
;;;1250     // USER END
;;;1251       default:
;;;1252           WM_DefaultProc(pMsg);
000050  4620              MOV      r0,r4
000052  f7fffffe          BL       WM_DefaultProc
                  |L12.86|
;;;1253       break;
;;;1254     }
;;;1255   }
000056  b003              ADD      sp,sp,#0xc
000058  ecbd8b06          VPOP     {d8-d10}
00005c  e8bd8ff0          POP      {r4-r11,pc}
                  |L12.96|
000060  f06f447f          MVN      r4,#0xff000000        ;251
000064  4620              MOV      r0,r4                 ;251
000066  f7fffffe          BL       GUI_SetColor
00006a  231a              MOVS     r3,#0x1a              ;252
00006c  f44f72f0          MOV      r2,#0x1e0             ;252
000070  2119              MOVS     r1,#0x19              ;252
000072  2000              MOVS     r0,#0                 ;252
000074  f7fffffe          BL       GUI_FillRect
000078  f24a50ff          MOV      r0,#0xa5ff            ;253
00007c  f7fffffe          BL       GUI_SetColor
000080  48e1              LDR      r0,|L12.1032|
000082  f7fffffe          BL       GUI_SetFont
000086  f7fffffe          BL       GUI_UC_SetEncodeUTF8
00008a  2002              MOVS     r0,#2                 ;256
00008c  f7fffffe          BL       GUI_SetTextMode
000090  48de              LDR      r0,|L12.1036|
000092  7800              LDRB     r0,[r0,#0]            ;257  ; jkflag
000094  2801              CMP      r0,#1                 ;257
000096  d104              BNE      |L12.162|
000098  2201              MOVS     r2,#1                 ;259
00009a  2105              MOVS     r1,#5                 ;259
00009c  a0dc              ADR      r0,|L12.1040|
00009e  f7fffffe          BL       GUI_DispStringAt
                  |L12.162|
0000a2  7830              LDRB     r0,[r6,#0]            ;261  ; lang
0000a4  2800              CMP      r0,#0                 ;261
0000a6  d07d              BEQ      |L12.420|
0000a8  4620              MOV      r0,r4                 ;269
0000aa  f7fffffe          BL       GUI_SetColor
0000ae  48da              LDR      r0,|L12.1048|
0000b0  f7fffffe          BL       GUI_SetFont
0000b4  2203              MOVS     r2,#3                 ;271
0000b6  2182              MOVS     r1,#0x82              ;271
0000b8  a0d8              ADR      r0,|L12.1052|
0000ba  f7fffffe          BL       GUI_DispStringAt
                  |L12.190|
0000be  f44f457f          MOV      r5,#0xff00            ;274
0000c2  4628              MOV      r0,r5                 ;274
0000c4  f7fffffe          BL       GUI_SetColor
0000c8  48d6              LDR      r0,|L12.1060|
0000ca  f7fffffe          BL       GUI_SetFont
0000ce  2202              MOVS     r2,#2                 ;276
0000d0  f44f71ab          MOV      r1,#0x156             ;276
0000d4  a0d4              ADR      r0,|L12.1064|
0000d6  f7fffffe          BL       GUI_DispStringAt
0000da  48d4              LDR      r0,|L12.1068|
0000dc  f7fffffe          BL       GUI_SetFont
0000e0  2202              MOVS     r2,#2                 ;278
0000e2  f44f71af          MOV      r1,#0x15e             ;278
0000e6  a0d2              ADR      r0,|L12.1072|
0000e8  f7fffffe          BL       GUI_DispStringAt
0000ec  78f8              LDRB     r0,[r7,#3]            ;302  ; para_set2
0000ee  2800              CMP      r0,#0                 ;302
0000f0  d07b              BEQ      |L12.490|
0000f2  28ff              CMP      r0,#0xff              ;302
0000f4  d1af              BNE      |L12.86|
0000f6  48cf              LDR      r0,|L12.1076|
0000f8  f7fffffe          BL       GUI_SetFont
0000fc  4648              MOV      r0,r9                 ;309
0000fe  f7fffffe          BL       GUI_SetColor
000102  22be              MOVS     r2,#0xbe              ;310
000104  211c              MOVS     r1,#0x1c              ;310
000106  a0cc              ADR      r0,|L12.1080|
000108  f7fffffe          BL       GUI_DispStringAt
00010c  2278              MOVS     r2,#0x78              ;311
00010e  211c              MOVS     r1,#0x1c              ;311
000110  a0ca              ADR      r0,|L12.1084|
000112  f7fffffe          BL       GUI_DispStringAt
000116  4648              MOV      r0,r9                 ;312
000118  f7fffffe          BL       GUI_SetColor
00011c  22bb              MOVS     r2,#0xbb              ;313
00011e  21f0              MOVS     r1,#0xf0              ;313
000120  a0c7              ADR      r0,|L12.1088|
000122  f7fffffe          BL       GUI_DispStringAt
000126  48c7              LDR      r0,|L12.1092|
000128  f7fffffe          BL       GUI_SetFont
00012c  4620              MOV      r0,r4                 ;315
00012e  f7fffffe          BL       GUI_SetColor
000132  f2401481          MOV      r4,#0x181             ;316
000136  2250              MOVS     r2,#0x50              ;316
000138  4621              MOV      r1,r4                 ;316
00013a  a0c1              ADR      r0,|L12.1088|
00013c  f7fffffe          BL       GUI_DispStringAt
000140  2264              MOVS     r2,#0x64              ;317
000142  e001              B        |L12.328|
                  |L12.324|
000144  e3e5              B        |L12.2322|
                  |L12.326|
000146  e086              B        |L12.598|
                  |L12.328|
000148  4621              MOV      r1,r4                 ;317
00014a  a0bd              ADR      r0,|L12.1088|
00014c  f7fffffe          BL       GUI_DispStringAt
000150  2278              MOVS     r2,#0x78              ;318
000152  4621              MOV      r1,r4                 ;318
000154  a0bc              ADR      r0,|L12.1096|
000156  f7fffffe          BL       GUI_DispStringAt
00015a  228c              MOVS     r2,#0x8c              ;319
00015c  f2401177          MOV      r1,#0x177             ;319
000160  a0ba              ADR      r0,|L12.1100|
000162  f7fffffe          BL       GUI_DispStringAt
000166  22a0              MOVS     r2,#0xa0              ;320
000168  4621              MOV      r1,r4                 ;320
00016a  a0b7              ADR      r0,|L12.1096|
00016c  f7fffffe          BL       GUI_DispStringAt
000170  22b4              MOVS     r2,#0xb4              ;321
000172  4621              MOV      r1,r4                 ;321
000174  a0b2              ADR      r0,|L12.1088|
000176  f7fffffe          BL       GUI_DispStringAt
00017a  22c8              MOVS     r2,#0xc8              ;322
00017c  4621              MOV      r1,r4                 ;322
00017e  a0b0              ADR      r0,|L12.1088|
000180  f7fffffe          BL       GUI_DispStringAt
000184  225a              MOVS     r2,#0x5a              ;324
000186  f44f71d7          MOV      r1,#0x1ae             ;324
00018a  a0b0              ADR      r0,|L12.1100|
00018c  f7fffffe          BL       GUI_DispStringAt
000190  f44f74dc          MOV      r4,#0x1b8             ;325
000194  2282              MOVS     r2,#0x82              ;325
000196  4621              MOV      r1,r4                 ;325
000198  a0ab              ADR      r0,|L12.1096|
00019a  f7fffffe          BL       GUI_DispStringAt
00019e  22aa              MOVS     r2,#0xaa              ;326
0001a0  4621              MOV      r1,r4                 ;326
0001a2  e000              B        |L12.422|
                  |L12.420|
0001a4  e022              B        |L12.492|
                  |L12.422|
0001a6  a0a6              ADR      r0,|L12.1088|
0001a8  f7fffffe          BL       GUI_DispStringAt
0001ac  4628              MOV      r0,r5                 ;329
0001ae  f7fffffe          BL       GUI_SetColor
0001b2  7830              LDRB     r0,[r6,#0]            ;330  ; lang
0001b4  f44f74c8          MOV      r4,#0x190             ;333
0001b8  b348              CBZ      r0,|L12.526|
0001ba  48a2              LDR      r0,|L12.1092|
0001bc  f7fffffe          BL       GUI_SetFont
0001c0  2232              MOVS     r2,#0x32              ;339
0001c2  4621              MOV      r1,r4                 ;339
0001c4  a0a2              ADR      r0,|L12.1104|
0001c6  f7fffffe          BL       GUI_DispStringAt
0001ca  2246              MOVS     r2,#0x46              ;340
0001cc  4621              MOV      r1,r4                 ;340
0001ce  a0a2              ADR      r0,|L12.1112|
0001d0  f7fffffe          BL       GUI_DispStringAt
0001d4  226e              MOVS     r2,#0x6e              ;341
0001d6  4621              MOV      r1,r4                 ;341
0001d8  a0a2              ADR      r0,|L12.1124|
0001da  f7fffffe          BL       GUI_DispStringAt
0001de  2296              MOVS     r2,#0x96              ;342
0001e0  4621              MOV      r1,r4                 ;342
0001e2  a0a2              ADR      r0,|L12.1132|
0001e4  f7fffffe          BL       GUI_DispStringAt
                  |L12.488|
0001e8  e735              B        |L12.86|
                  |L12.490|
0001ea  e028              B        |L12.574|
                  |L12.492|
0001ec  4620              MOV      r0,r4                 ;263
0001ee  f7fffffe          BL       GUI_SetColor
0001f2  48a1              LDR      r0,|L12.1144|
0001f4  f7fffffe          BL       GUI_SetFont
0001f8  f7fffffe          BL       GUI_UC_SetEncodeUTF8
0001fc  2002              MOVS     r0,#2                 ;266
0001fe  f7fffffe          BL       GUI_SetTextMode
000202  2203              MOVS     r2,#3                 ;267
000204  2182              MOVS     r1,#0x82              ;267
000206  a09d              ADR      r0,|L12.1148|
000208  f7fffffe          BL       GUI_DispStringAt
00020c  e757              B        |L12.190|
                  |L12.526|
00020e  489f              LDR      r0,|L12.1164|
000210  f7fffffe          BL       GUI_SetFont
000214  2232              MOVS     r2,#0x32              ;333
000216  4621              MOV      r1,r4                 ;333
000218  a09d              ADR      r0,|L12.1168|
00021a  f7fffffe          BL       GUI_DispStringAt
00021e  2246              MOVS     r2,#0x46              ;334
000220  4621              MOV      r1,r4                 ;334
000222  a09f              ADR      r0,|L12.1184|
000224  f7fffffe          BL       GUI_DispStringAt
000228  226e              MOVS     r2,#0x6e              ;335
00022a  4621              MOV      r1,r4                 ;335
00022c  a0a0              ADR      r0,|L12.1200|
00022e  f7fffffe          BL       GUI_DispStringAt
000232  2296              MOVS     r2,#0x96              ;336
000234  4621              MOV      r1,r4                 ;336
000236  a0a2              ADR      r0,|L12.1216|
000238  f7fffffe          BL       GUI_DispStringAt
00023c  e70b              B        |L12.86|
                  |L12.574|
00023e  487d              LDR      r0,|L12.1076|
000240  f7fffffe          BL       GUI_SetFont
000244  4648              MOV      r0,r9                 ;360
000246  f7fffffe          BL       GUI_SetColor
00024a  2278              MOVS     r2,#0x78              ;361
00024c  211c              MOVS     r1,#0x1c              ;361
00024e  a07b              ADR      r0,|L12.1084|
000250  f7fffffe          BL       GUI_DispStringAt
000254  e6ff              B        |L12.86|
                  |L12.598|
000256  68e0              LDR      r0,[r4,#0xc]          ;367
000258  f7fffffe          BL       WM_GetTimerId
00025c  2801              CMP      r0,#1                 ;367
00025e  d1c3              BNE      |L12.488|
000260  489b              LDR      r0,|L12.1232|
000262  7800              LDRB     r0,[r0,#0]            ;374  ; lock
000264  2801              CMP      r0,#1                 ;374
000266  d073              BEQ      |L12.848|
000268  4651              MOV      r1,r10                ;379
00026a  6860              LDR      r0,[r4,#4]            ;379
00026c  f7fffffe          BL       WM_GetDialogItem
000270  a180              ADR      r1,|L12.1140|
000272  f7fffffe          BL       TEXT_SetText
                  |L12.630|
000276  4862              LDR      r0,|L12.1024|
000278  7ac0              LDRB     r0,[r0,#0xb]          ;382  ; manual
00027a  2701              MOVS     r7,#1                 ;259
00027c  f8df9254          LDR      r9,|L12.1236|
000280  f04f5b7e          MOV      r11,#0x3f800000       ;395
000284  f04f0a00          MOV      r10,#0                ;395
000288  2800              CMP      r0,#0                 ;382
00028a  d069              BEQ      |L12.864|
00028c  f640110a          MOV      r1,#0x90a             ;404
000290  6860              LDR      r0,[r4,#4]            ;404
000292  f7fffffe          BL       WM_GetDialogItem
000296  9002              STR      r0,[sp,#8]            ;404
000298  21ff              MOVS     r1,#0xff              ;405
00029a  9802              LDR      r0,[sp,#8]            ;405
00029c  f7fffffe          BL       TEXT_SetTextColor
0002a0  4962              LDR      r1,|L12.1068|
0002a2  9802              LDR      r0,[sp,#8]            ;406
0002a4  f7fffffe          BL       TEXT_SetFont
0002a8  f7fffffe          BL       GUI_UC_SetEncodeUTF8
0002ac  a18a              ADR      r1,|L12.1240|
0002ae  9802              LDR      r0,[sp,#8]            ;408
0002b0  f7fffffe          BL       TEXT_SetText
0002b4  f8980000          LDRB     r0,[r8,#0]            ;409  ; r_raly
0002b8  2801              CMP      r0,#1                 ;409
0002ba  d07c              BEQ      |L12.950|
0002bc  0379              LSLS     r1,r7,#13             ;419
0002be  4888              LDR      r0,|L12.1248|
0002c0  f7fffffe          BL       GPIO_ResetBits
0002c4  f640110b          MOV      r1,#0x90b             ;420
0002c8  6860              LDR      r0,[r4,#4]            ;420
0002ca  f7fffffe          BL       WM_GetDialogItem
0002ce  a185              ADR      r1,|L12.1252|
0002d0  f7fffffe          BL       TEXT_SetText
0002d4  f640110c          MOV      r1,#0x90c             ;422
0002d8  6860              LDR      r0,[r4,#4]            ;422
0002da  f7fffffe          BL       WM_GetDialogItem
0002de  a182              ADR      r1,|L12.1256|
0002e0  f7fffffe          BL       TEXT_SetText
0002e4  f640110d          MOV      r1,#0x90d             ;424
0002e8  6860              LDR      r0,[r4,#4]            ;424
0002ea  f7fffffe          BL       WM_GetDialogItem
0002ee  a17f              ADR      r1,|L12.1260|
0002f0  f7fffffe          BL       TEXT_SetText
                  |L12.756|
0002f4  f8df8108          LDR      r8,|L12.1024|
0002f8  f8980003          LDRB     r0,[r8,#3]            ;429  ; para_set2
0002fc  28ff              CMP      r0,#0xff              ;429
0002fe  d074              BEQ      |L12.1002|
000300  497b              LDR      r1,|L12.1264|
000302  f8d90000          LDR      r0,[r9,#0]            ;645  ; DISS_Voltage
000306  4288              CMP      r0,r1                 ;645
000308  da70              BGE      |L12.1004|
00030a  f640018d          MOV      r1,#0x88d             ;647
00030e  6860              LDR      r0,[r4,#4]            ;647
000310  f7fffffe          BL       WM_GetDialogItem
000314  4605              MOV      r5,r0                 ;647
000316  ed9f0b77          VLDR     d0,|L12.1268|
00031a  a178              ADR      r1,|L12.1276|
00031c  ec532b10          VMOV     r2,r3,d0              ;648
000320  4668              MOV      r0,sp                 ;648
000322  f7fffffe          BL       __2sprintf
000326  4669              MOV      r1,sp                 ;649
000328  4628              MOV      r0,r5                 ;649
00032a  f7fffffe          BL       TEXT_SetText
00032e  f640018e          MOV      r1,#0x88e             ;651
000332  6860              LDR      r0,[r4,#4]            ;651
000334  f7fffffe          BL       WM_GetDialogItem
000338  4605              MOV      r5,r0                 ;651
00033a  2200              MOVS     r2,#0                 ;652
00033c  a171              ADR      r1,|L12.1284|
00033e  4668              MOV      r0,sp                 ;652
000340  f7fffffe          BL       __2sprintf
000344  4669              MOV      r1,sp                 ;653
000346  4628              MOV      r0,r5                 ;653
000348  f7fffffe          BL       TEXT_SetText
00034c  e3f1              B        |L12.2866|
00034e  e7ff              B        |L12.848|
                  |L12.848|
000350  4651              MOV      r1,r10                ;376
000352  6860              LDR      r0,[r4,#4]            ;376
000354  f7fffffe          BL       WM_GetDialogItem
000358  a16c              ADR      r1,|L12.1292|
00035a  f7fffffe          BL       TEXT_SetText
00035e  e78a              B        |L12.630|
                  |L12.864|
000360  f640110a          MOV      r1,#0x90a             ;384
000364  6860              LDR      r0,[r4,#4]            ;384
000366  f7fffffe          BL       WM_GetDialogItem
00036a  9002              STR      r0,[sp,#8]            ;384
00036c  21ff              MOVS     r1,#0xff              ;385
00036e  9802              LDR      r0,[sp,#8]            ;385
000370  f7fffffe          BL       TEXT_SetTextColor
000374  492d              LDR      r1,|L12.1068|
000376  9802              LDR      r0,[sp,#8]            ;386
000378  f7fffffe          BL       TEXT_SetFont
00037c  f7fffffe          BL       GUI_UC_SetEncodeUTF8
000380  a155              ADR      r1,|L12.1240|
000382  9802              LDR      r0,[sp,#8]            ;388
000384  f7fffffe          BL       TEXT_SetText
000388  f640110b          MOV      r1,#0x90b             ;389
00038c  6860              LDR      r0,[r4,#4]            ;389
00038e  f7fffffe          BL       WM_GetDialogItem
000392  a15f              ADR      r1,|L12.1296|
000394  f7fffffe          BL       TEXT_SetText
000398  f640110c          MOV      r1,#0x90c             ;391
00039c  6860              LDR      r0,[r4,#4]            ;391
00039e  f7fffffe          BL       WM_GetDialogItem
0003a2  a134              ADR      r1,|L12.1140|
0003a4  f7fffffe          BL       TEXT_SetText
0003a8  f640110d          MOV      r1,#0x90d             ;393
0003ac  6860              LDR      r0,[r4,#4]            ;393
0003ae  f7fffffe          BL       WM_GetDialogItem
0003b2  a130              ADR      r1,|L12.1140|
0003b4  e000              B        |L12.952|
                  |L12.950|
0003b6  e0af              B        |L12.1304|
                  |L12.952|
0003b8  f7fffffe          BL       TEXT_SetText
0003bc  6b68              LDR      r0,[r5,#0x34]         ;395  ; Run_Control
0003be  28b4              CMP      r0,#0xb4              ;395
0003c0  d20b              BCS      |L12.986|
0003c2  f8d90000          LDR      r0,[r9,#0]            ;395  ; DISS_Voltage
0003c6  4558              CMP      r0,r11                ;395
0003c8  dd07              BLE      |L12.986|
0003ca  f44f5100          MOV      r1,#0x2000            ;397
0003ce  4844              LDR      r0,|L12.1248|
0003d0  f7fffffe          BL       GPIO_ResetBits
0003d4  f888a000          STRB     r10,[r8,#0]           ;398
0003d8  e78c              B        |L12.756|
                  |L12.986|
0003da  f44f5100          MOV      r1,#0x2000            ;400
0003de  4840              LDR      r0,|L12.1248|
0003e0  f7fffffe          BL       GPIO_SetBits
0003e4  f8887000          STRB     r7,[r8,#0]            ;401
0003e8  e784              B        |L12.756|
                  |L12.1002|
0003ea  e0b5              B        |L12.1368|
                  |L12.1004|
0003ec  e3c2              B        |L12.2932|
0003ee  0000              DCW      0x0000
                  |L12.1008|
                          DCD      Run_Control
                  |L12.1012|
0003f4  447a0000          DCFS     0x447a0000 ; 1000
                  |L12.1016|
                          DCD      0x00d3d3d3
                  |L12.1020|
                          DCD      lang
                  |L12.1024|
                          DCD      ||.data||
                  |L12.1028|
                          DCD      r_raly
                  |L12.1032|
                          DCD      GUI_Fontsymbol
                  |L12.1036|
                          DCD      jkflag
                  |L12.1040|
000410  4a696e6b          DCB      "Jinko",0
000414  6f00    
000416  00                DCB      0
000417  00                DCB      0
                  |L12.1048|
                          DCD      GUI_Font20_ASCII
                  |L12.1052|
00041c  44495350          DCB      "DISPLAY",0
000420  4c415900
                  |L12.1060|
                          DCD      GUI_Fontunit
                  |L12.1064|
000428  c2b000            DCB      194,176,0
00042b  00                DCB      0
                  |L12.1068|
                          DCD      GUI_Font24_1
                  |L12.1072|
000430  4300              DCB      "C",0
000432  00                DCB      0
000433  00                DCB      0
                  |L12.1076|
                          DCD      GUI_FontEN40
                  |L12.1080|
000438  493a00            DCB      "I:",0
00043b  00                DCB      0
                  |L12.1084|
00043c  523a00            DCB      "R:",0
00043f  00                DCB      0
                  |L12.1088|
000440  4100              DCB      "A",0
000442  00                DCB      0
000443  00                DCB      0
                  |L12.1092|
                          DCD      GUI_Font16_1
                  |L12.1096|
000448  5600              DCB      "V",0
00044a  00                DCB      0
00044b  00                DCB      0
                  |L12.1100|
00044c  6d7300            DCB      "ms",0
00044f  00                DCB      0
                  |L12.1104|
000450  52657375          DCB      "Result",0
000454  6c7400  
000457  00                DCB      0
                  |L12.1112|
000458  53686f72          DCB      "Short Time",0
00045c  74205469
000460  6d6500  
000463  00                DCB      0
                  |L12.1124|
000464  4c6f6164          DCB      "Load V",0
000468  205600  
00046b  00                DCB      0
                  |L12.1132|
00046c  43686172          DCB      "Charge C"
000470  67652043
                  |L12.1140|
000474  00                DCB      0
000475  00                DCB      0
000476  00                DCB      0
000477  00                DCB      0
                  |L12.1144|
                          DCD      GUI_FontHZ20S
                  |L12.1148|
00047c  e6b58be9          DCB      230,181,139,233,135,143,230,152,190,231,164,186,0
000480  878fe698
000484  bee7a4ba
000488  00      
000489  00                DCB      0
00048a  00                DCB      0
00048b  00                DCB      0
                  |L12.1164|
                          DCD      GUI_FontHZ14
                  |L12.1168|
000490  e6b58be8          DCB      230,181,139,232,175,149,231,187,147,230,158,156,0
000494  af95e7bb
000498  93e69e9c
00049c  00      
00049d  00                DCB      0
00049e  00                DCB      0
00049f  00                DCB      0
                  |L12.1184|
0004a0  e79fade8          DCB      231,159,173,232,183,175,230,151,182,233,151,180,0
0004a4  b7afe697
0004a8  b6e997b4
0004ac  00      
0004ad  00                DCB      0
0004ae  00                DCB      0
0004af  00                DCB      0
                  |L12.1200|
0004b0  e8b49fe8          DCB      232,180,159,232,189,189,231,148,181,229,142,139,0
0004b4  bdbde794
0004b8  b5e58e8b
0004bc  00      
0004bd  00                DCB      0
0004be  00                DCB      0
0004bf  00                DCB      0
                  |L12.1216|
0004c0  e58585e7          DCB      229,133,133,231,148,181,231,148,181,230,181,129,0
0004c4  94b5e794
0004c8  b5e6b581
0004cc  00      
0004cd  00                DCB      0
0004ce  00                DCB      0
0004cf  00                DCB      0
                  |L12.1232|
                          DCD      lock
                  |L12.1236|
                          DCD      DISS_Voltage
                  |L12.1240|
0004d8  52616e67          DCB      "Range",0
0004dc  6500    
0004de  00                DCB      0
0004df  00                DCB      0
                  |L12.1248|
                          DCD      0x40020400
                  |L12.1252|
0004e4  32303000          DCB      "200",0
                  |L12.1256|
0004e8  6d00              DCB      "m",0
0004ea  00                DCB      0
0004eb  00                DCB      0
                  |L12.1260|
0004ec  cea900            DCB      206,169,0
0004ef  00                DCB      0
                  |L12.1264|
                          DCD      0x3e99999a
                  |L12.1268|
0004f4  00000000          DCFD     0x0000000000000000 ; 0
0004f8  00000000
                  |L12.1276|
0004fc  252e3366          DCB      "%.3f",0
000500  00      
000501  00                DCB      0
000502  00                DCB      0
000503  00                DCB      0
                  |L12.1284|
000504  25303464          DCB      "%04d",0
000508  00      
000509  00                DCB      0
00050a  00                DCB      0
00050b  00                DCB      0
                  |L12.1292|
00050c  e9948100          DCB      233,148,129,0
                  |L12.1296|
000510  4175746f          DCB      "Auto",0
000514  00      
000515  00                DCB      0
000516  00                DCB      0
000517  00                DCB      0
                  |L12.1304|
000518  f44f5100          MOV      r1,#0x2000            ;411
00051c  48fd              LDR      r0,|L12.2324|
00051e  f7fffffe          BL       GPIO_SetBits
000522  f640110b          MOV      r1,#0x90b             ;412
000526  6860              LDR      r0,[r4,#4]            ;412
000528  f7fffffe          BL       WM_GetDialogItem
00052c  a1fa              ADR      r1,|L12.2328|
00052e  f7fffffe          BL       TEXT_SetText
000532  f640110c          MOV      r1,#0x90c             ;414
000536  6860              LDR      r0,[r4,#4]            ;414
000538  f7fffffe          BL       WM_GetDialogItem
00053c  f2af0158          ADR      r1,|L12.1256|
000540  f7fffffe          BL       TEXT_SetText
000544  f640110d          MOV      r1,#0x90d             ;416
000548  6860              LDR      r0,[r4,#4]            ;416
00054a  f7fffffe          BL       WM_GetDialogItem
00054e  f2af0164          ADR      r1,|L12.1260|
000552  f7fffffe          BL       TEXT_SetText
000556  e6cd              B        |L12.756|
                  |L12.1368|
000558  f898000d          LDRB     r0,[r8,#0xd]          ;431  ; oc_mode
00055c  4af0              LDR      r2,|L12.2336|
00055e  f44f6180          MOV      r1,#0x400             ;433
000562  b120              CBZ      r0,|L12.1390|
000564  f898000d          LDRB     r0,[r8,#0xd]          ;440  ; oc_mode
000568  2801              CMP      r0,#1                 ;440
00056a  d01e              BEQ      |L12.1450|
00056c  e03a              B        |L12.1508|
                  |L12.1390|
00056e  4610              MOV      r0,r2                 ;433
000570  f7fffffe          BL       GPIO_SetBits
000574  48eb              LDR      r0,|L12.2340|
000576  6801              LDR      r1,[r0,#0]            ;434  ; flagD
000578  f0410180          ORR      r1,r1,#0x80           ;434
00057c  6001              STR      r1,[r0,#0]            ;434  ; flagD
00057e  f6401121          MOV      r1,#0x921             ;435
000582  6860              LDR      r0,[r4,#4]            ;435
000584  f7fffffe          BL       WM_GetDialogItem
000588  9002              STR      r0,[sp,#8]            ;435
00058a  f06f417f          MVN      r1,#0xff000000        ;436
00058e  9802              LDR      r0,[sp,#8]            ;436
000590  f7fffffe          BL       TEXT_SetTextColor
000594  49e4              LDR      r1,|L12.2344|
000596  9802              LDR      r0,[sp,#8]            ;437
000598  f7fffffe          BL       TEXT_SetFont
00059c  f7fffffe          BL       GUI_UC_SetEncodeUTF8
0005a0  a1e2              ADR      r1,|L12.2348|
0005a2  9802              LDR      r0,[sp,#8]            ;439
0005a4  f7fffffe          BL       TEXT_SetText
0005a8  e01c              B        |L12.1508|
                  |L12.1450|
0005aa  4610              MOV      r0,r2                 ;441
0005ac  f7fffffe          BL       GPIO_ResetBits
0005b0  48dc              LDR      r0,|L12.2340|
0005b2  6801              LDR      r1,[r0,#0]            ;442  ; flagD
0005b4  f0210180          BIC      r1,r1,#0x80           ;442
0005b8  6001              STR      r1,[r0,#0]            ;442  ; flagD
0005ba  f6401121          MOV      r1,#0x921             ;443
0005be  6860              LDR      r0,[r4,#4]            ;443
0005c0  f7fffffe          BL       WM_GetDialogItem
0005c4  9002              STR      r0,[sp,#8]            ;443
0005c6  f06f417f          MVN      r1,#0xff000000        ;444
0005ca  9802              LDR      r0,[sp,#8]            ;444
0005cc  f7fffffe          BL       TEXT_SetTextColor
0005d0  49d5              LDR      r1,|L12.2344|
0005d2  9802              LDR      r0,[sp,#8]            ;445
0005d4  f7fffffe          BL       TEXT_SetFont
0005d8  f7fffffe          BL       GUI_UC_SetEncodeUTF8
0005dc  a1d4              ADR      r1,|L12.2352|
0005de  9802              LDR      r0,[sp,#8]            ;447
0005e0  f7fffffe          BL       TEXT_SetText
                  |L12.1508|
0005e4  48d3              LDR      r0,|L12.2356|
0005e6  7bc0              LDRB     r0,[r0,#0xf]          ;450  ; staticcdc
0005e8  2801              CMP      r0,#1                 ;450
0005ea  d01a              BEQ      |L12.1570|
0005ec  f6401137          MOV      r1,#0x937             ;463
0005f0  6860              LDR      r0,[r4,#4]            ;463
0005f2  f7fffffe          BL       WM_GetDialogItem
0005f6  4680              MOV      r8,r0                 ;463
0005f8  7830              LDRB     r0,[r6,#0]            ;464  ; lang
0005fa  b350              CBZ      r0,|L12.1618|
0005fc  48ca              LDR      r0,|L12.2344|
0005fe  f7fffffe          BL       GUI_SetFont
000602  a1cd              ADR      r1,|L12.2360|
000604  4640              MOV      r0,r8                 ;470
000606  f7fffffe          BL       TEXT_SetText
                  |L12.1546|
00060a  f8df8328          LDR      r8,|L12.2356|
00060e  f8980005          LDRB     r0,[r8,#5]            ;476  ; test_start
000612  ed9faaca          VLDR     s20,|L12.2364|
000616  b320              CBZ      r0,|L12.1634|
000618  f8980005          LDRB     r0,[r8,#5]            ;579  ; test_start
00061c  2801              CMP      r0,#1                 ;579
00061e  d07d              BEQ      |L12.1820|
000620  e2da              B        |L12.3032|
                  |L12.1570|
000622  f6401137          MOV      r1,#0x937             ;452
000626  6860              LDR      r0,[r4,#4]            ;452
000628  f7fffffe          BL       WM_GetDialogItem
00062c  4680              MOV      r8,r0                 ;452
00062e  7830              LDRB     r0,[r6,#0]            ;453  ; lang
000630  b138              CBZ      r0,|L12.1602|
000632  48bd              LDR      r0,|L12.2344|
000634  f7fffffe          BL       GUI_SetFont
000638  a1c1              ADR      r1,|L12.2368|
00063a  4640              MOV      r0,r8                 ;459
00063c  f7fffffe          BL       TEXT_SetText
000640  e7e3              B        |L12.1546|
                  |L12.1602|
000642  48c0              LDR      r0,|L12.2372|
000644  f7fffffe          BL       GUI_SetFont
000648  a1bf              ADR      r1,|L12.2376|
00064a  4640              MOV      r0,r8                 ;456
00064c  f7fffffe          BL       TEXT_SetText
000650  e7db              B        |L12.1546|
                  |L12.1618|
000652  48bc              LDR      r0,|L12.2372|
000654  f7fffffe          BL       GUI_SetFont
000658  a1bc              ADR      r1,|L12.2380|
00065a  4640              MOV      r0,r8                 ;467
00065c  f7fffffe          BL       TEXT_SetText
000660  e7d3              B        |L12.1546|
                  |L12.1634|
000662  ed990a00          VLDR     s0,[r9,#0]            ;478
000666  ee100a10          VMOV     r0,s0                 ;478
00066a  ed9f8bb9          VLDR     d8,|L12.2384|
00066e  4558              CMP      r0,r11                ;478
000670  dd20              BLE      |L12.1716|
000672  edd80a07          VLDR     s1,[r8,#0x1c]         ;478
000676  eeb40ae0          VCMPE.F32 s0,s1                 ;478
00067a  eef1fa10          VMRS     APSR_nzcv,FPSCR       ;478
00067e  dd19              BLE      |L12.1716|
000680  6b68              LDR      r0,[r5,#0x34]         ;478  ; Run_Control
000682  2814              CMP      r0,#0x14              ;478
000684  d916              BLS      |L12.1716|
000686  f8980007          LDRB     r0,[r8,#7]            ;478  ; con_flag
00068a  b998              CBNZ     r0,|L12.1716|
00068c  f8887007          STRB     r7,[r8,#7]            ;480
000690  f7fffffe          BL       GUI_GetTime
000694  ee000a10          VMOV     s0,r0                 ;481
000698  eeb80ac0          VCVT.F32.S32 s0,s0                 ;481
00069c  ee100a10          VMOV     r0,s0                 ;481
0006a0  f7fffffe          BL       __aeabi_f2d
0006a4  ec532b18          VMOV     r2,r3,d8              ;481
0006a8  f7fffffe          BL       __aeabi_ddiv
0006ac  f7fffffe          BL       __aeabi_d2f
0006b0  f8c80034          STR      r0,[r8,#0x34]         ;481  ; time1
                  |L12.1716|
0006b4  f8980007          LDRB     r0,[r8,#7]            ;483  ; con_flag
0006b8  2801              CMP      r0,#1                 ;483
0006ba  d168              BNE      |L12.1934|
0006bc  48a6              LDR      r0,|L12.2392|
0006be  7801              LDRB     r1,[r0,#0]            ;485  ; test_mode
0006c0  f04f0b04          MOV      r11,#4                ;493
0006c4  b119              CBZ      r1,|L12.1742|
0006c6  7800              LDRB     r0,[r0,#0]            ;501  ; test_mode
0006c8  2801              CMP      r0,#1                 ;501
0006ca  d033              BEQ      |L12.1844|
0006cc  e05f              B        |L12.1934|
                  |L12.1742|
0006ce  f8d80034          LDR      r0,[r8,#0x34]         ;487  ; time1
0006d2  f7fffffe          BL       __aeabi_f2d
0006d6  ec410b19          VMOV     d9,r0,r1              ;487
0006da  f7fffffe          BL       GUI_GetTime
0006de  f7fffffe          BL       __aeabi_i2d
0006e2  ec532b18          VMOV     r2,r3,d8              ;487
0006e6  f7fffffe          BL       __aeabi_ddiv
0006ea  ec532b19          VMOV     r2,r3,d9              ;487
0006ee  f7fffffe          BL       __aeabi_dsub
0006f2  f7fffffe          BL       __aeabi_d2f
0006f6  f1b05f7c          CMP      r0,#0x3f000000        ;487
0006fa  dd48              BLE      |L12.1934|
0006fc  f898000f          LDRB     r0,[r8,#0xf]          ;489  ; staticcdc
000700  2801              CMP      r0,#1                 ;489
000702  d014              BEQ      |L12.1838|
000704  f888b010          STRB     r11,[r8,#0x10]        ;493
000708  6da8              LDR      r0,[r5,#0x58]         ;494  ; Run_Control
00070a  6128              STR      r0,[r5,#0x10]         ;494  ; Run_Control
00070c  f44f4100          MOV      r1,#0x8000            ;495
000710  4892              LDR      r0,|L12.2396|
000712  f7fffffe          BL       GPIO_ResetBits
                  |L12.1814|
000716  f8887005          STRB     r7,[r8,#5]            ;497
00071a  e000              B        |L12.1822|
                  |L12.1820|
00071c  e149              B        |L12.2482|
                  |L12.1822|
00071e  6b68              LDR      r0,[r5,#0x34]         ;498  ; Run_Control
000720  f8a80018          STRH     r0,[r8,#0x18]         ;498
000724  ed990a00          VLDR     s0,[r9,#0]            ;499
000728  ed880a0c          VSTR     s0,[r8,#0x30]         ;499
00072c  e02f              B        |L12.1934|
                  |L12.1838|
00072e  f8887010          STRB     r7,[r8,#0x10]         ;491
000732  e7f0              B        |L12.1814|
                  |L12.1844|
000734  f8d80034          LDR      r0,[r8,#0x34]         ;502  ; time1
000738  f7fffffe          BL       __aeabi_f2d
00073c  ec410b19          VMOV     d9,r0,r1              ;502
000740  f7fffffe          BL       GUI_GetTime
000744  f7fffffe          BL       __aeabi_i2d
000748  ec532b18          VMOV     r2,r3,d8              ;502
00074c  f7fffffe          BL       __aeabi_ddiv
000750  ec532b19          VMOV     r2,r3,d9              ;502
000754  f7fffffe          BL       __aeabi_dsub
000758  f7fffffe          BL       __aeabi_d2f
00075c  f1b05f7f          CMP      r0,#0x3fc00000        ;502
000760  dd15              BLE      |L12.1934|
000762  f898000f          LDRB     r0,[r8,#0xf]          ;504  ; staticcdc
000766  2801              CMP      r0,#1                 ;504
000768  d04a              BEQ      |L12.2048|
00076a  f888b010          STRB     r11,[r8,#0x10]        ;508
00076e  6da8              LDR      r0,[r5,#0x58]         ;509  ; Run_Control
000770  6128              STR      r0,[r5,#0x10]         ;509  ; Run_Control
000772  f44f4100          MOV      r1,#0x8000            ;510
000776  4879              LDR      r0,|L12.2396|
000778  f7fffffe          BL       GPIO_ResetBits
                  |L12.1916|
00077c  f8887005          STRB     r7,[r8,#5]            ;512
000780  6b68              LDR      r0,[r5,#0x34]         ;513  ; Run_Control
000782  f8a80018          STRH     r0,[r8,#0x18]         ;513
000786  ed990a00          VLDR     s0,[r9,#0]            ;514
00078a  ed880a0c          VSTR     s0,[r8,#0x30]         ;514
                  |L12.1934|
00078e  f6401106          MOV      r1,#0x906             ;519
000792  6860              LDR      r0,[r4,#4]            ;519
000794  f7fffffe          BL       WM_GetDialogItem
000798  4607              MOV      r7,r0                 ;519
00079a  7830              LDRB     r0,[r6,#0]            ;520  ; lang
00079c  b378              CBZ      r0,|L12.2046|
00079e  4870              LDR      r0,|L12.2400|
0007a0  f7fffffe          BL       GUI_SetFont
0007a4  a16f              ADR      r1,|L12.2404|
0007a6  4638              MOV      r0,r7                 ;526
0007a8  f7fffffe          BL       TEXT_SetText
                  |L12.1964|
0007ac  4970              LDR      r1,|L12.2416|
0007ae  f8d90000          LDR      r0,[r9,#0]            ;529  ; DISS_Voltage
0007b2  4288              CMP      r0,r1                 ;529
0007b4  da2f              BGE      |L12.2070|
0007b6  f640018d          MOV      r1,#0x88d             ;531
0007ba  6860              LDR      r0,[r4,#4]            ;531
0007bc  f7fffffe          BL       WM_GetDialogItem
0007c0  4605              MOV      r5,r0                 ;531
0007c2  ed1f0bb4          VLDR     d0,|L12.1268|
0007c6  ec532b10          VMOV     r2,r3,d0              ;532
0007ca  f2af21d0          ADR      r1,|L12.1276|
0007ce  4668              MOV      r0,sp                 ;532
0007d0  f7fffffe          BL       __2sprintf
0007d4  4669              MOV      r1,sp                 ;533
0007d6  4628              MOV      r0,r5                 ;533
0007d8  f7fffffe          BL       TEXT_SetText
0007dc  f640018e          MOV      r1,#0x88e             ;535
0007e0  6860              LDR      r0,[r4,#4]            ;535
0007e2  f7fffffe          BL       WM_GetDialogItem
0007e6  4605              MOV      r5,r0                 ;535
0007e8  2200              MOVS     r2,#0                 ;536
0007ea  f2af21e8          ADR      r1,|L12.1284|
0007ee  4668              MOV      r0,sp                 ;536
0007f0  f7fffffe          BL       __2sprintf
0007f4  4669              MOV      r1,sp                 ;537
0007f6  4628              MOV      r0,r5                 ;537
0007f8  f7fffffe          BL       TEXT_SetText
0007fc  e036              B        |L12.2156|
                  |L12.2046|
0007fe  e002              B        |L12.2054|
                  |L12.2048|
000800  f8887010          STRB     r7,[r8,#0x10]         ;506
000804  e7ba              B        |L12.1916|
                  |L12.2054|
000806  485b              LDR      r0,|L12.2420|
000808  f7fffffe          BL       GUI_SetFont
00080c  a15a              ADR      r1,|L12.2424|
00080e  4638              MOV      r0,r7                 ;523
000810  f7fffffe          BL       TEXT_SetText
000814  e7ca              B        |L12.1964|
                  |L12.2070|
000816  f640018d          MOV      r1,#0x88d             ;539
00081a  6860              LDR      r0,[r4,#4]            ;539
00081c  f7fffffe          BL       WM_GetDialogItem
000820  4606              MOV      r6,r0                 ;539
000822  f8d90000          LDR      r0,[r9,#0]            ;540  ; DISS_Voltage
000826  f7fffffe          BL       __aeabi_f2d
00082a  ec410b10          VMOV     d0,r0,r1              ;540
00082e  ec532b10          VMOV     r2,r3,d0              ;540
000832  f2af3138          ADR      r1,|L12.1276|
000836  4668              MOV      r0,sp                 ;540
000838  f7fffffe          BL       __2sprintf
00083c  4669              MOV      r1,sp                 ;541
00083e  4630              MOV      r0,r6                 ;541
000840  f7fffffe          BL       TEXT_SetText
000844  6b68              LDR      r0,[r5,#0x34]         ;543  ; Run_Control
000846  f5b06ffa          CMP      r0,#0x7d0             ;543
00084a  d20f              BCS      |L12.2156|
00084c  f640018e          MOV      r1,#0x88e             ;549
000850  6860              LDR      r0,[r4,#4]            ;549
000852  f7fffffe          BL       WM_GetDialogItem
000856  4606              MOV      r6,r0                 ;549
000858  6b6a              LDR      r2,[r5,#0x34]         ;550  ; Run_Control
00085a  f2af3158          ADR      r1,|L12.1284|
00085e  4668              MOV      r0,sp                 ;550
000860  f7fffffe          BL       __2sprintf
000864  4669              MOV      r1,sp                 ;551
000866  4630              MOV      r0,r6                 ;551
000868  f7fffffe          BL       TEXT_SetText
                  |L12.2156|
00086c  f8a8a01a          STRH     r10,[r8,#0x1a]        ;557
000870  f6401107          MOV      r1,#0x907             ;558
000874  6860              LDR      r0,[r4,#4]            ;558
000876  f7fffffe          BL       WM_GetDialogItem
00087a  4605              MOV      r5,r0                 ;558
00087c  f8b8201a          LDRH     r2,[r8,#0x1a]         ;559  ; short_time
000880  a140              ADR      r1,|L12.2436|
000882  4668              MOV      r0,sp                 ;559
000884  f7fffffe          BL       __2sprintf
000888  4927              LDR      r1,|L12.2344|
00088a  4628              MOV      r0,r5                 ;560
00088c  f7fffffe          BL       TEXT_SetFont
000890  4669              MOV      r1,sp                 ;561
000892  4628              MOV      r0,r5                 ;561
000894  f7fffffe          BL       TEXT_SetText
000898  ed88aa0b          VSTR     s20,[r8,#0x2c]        ;563
00089c  f640018f          MOV      r1,#0x88f             ;564
0008a0  6860              LDR      r0,[r4,#4]            ;564
0008a2  f7fffffe          BL       WM_GetDialogItem
0008a6  4605              MOV      r5,r0                 ;564
0008a8  f44f417f          MOV      r1,#0xff00            ;565
0008ac  4628              MOV      r0,r5                 ;565
0008ae  f7fffffe          BL       TEXT_SetTextColor
0008b2  f8d8002c          LDR      r0,[r8,#0x2c]         ;566  ; oc_data
0008b6  f7fffffe          BL       __aeabi_f2d
0008ba  ec410b10          VMOV     d0,r0,r1              ;566
0008be  ec532b10          VMOV     r2,r3,d0              ;566
0008c2  f2af31c8          ADR      r1,|L12.1276|
0008c6  4668              MOV      r0,sp                 ;566
0008c8  f7fffffe          BL       __2sprintf
0008cc  4669              MOV      r1,sp                 ;567
0008ce  4628              MOV      r0,r5                 ;567
0008d0  f7fffffe          BL       TEXT_SetText
0008d4  ed88aa0a          VSTR     s20,[r8,#0x28]        ;569
0008d8  f44f6109          MOV      r1,#0x890             ;570
0008dc  6860              LDR      r0,[r4,#4]            ;570
0008de  f7fffffe          BL       WM_GetDialogItem
0008e2  4605              MOV      r5,r0                 ;570
0008e4  f8d80028          LDR      r0,[r8,#0x28]         ;571  ; static_lv
0008e8  f7fffffe          BL       __aeabi_f2d
0008ec  ec410b10          VMOV     d0,r0,r1              ;571
0008f0  ec532b10          VMOV     r2,r3,d0              ;571
0008f4  f2af31fc          ADR      r1,|L12.1276|
0008f8  4668              MOV      r0,sp                 ;571
0008fa  f7fffffe          BL       __2sprintf
0008fe  4669              MOV      r1,sp                 ;572
000900  4628              MOV      r0,r5                 ;572
000902  f7fffffe          BL       TEXT_SetText
000906  ed88aa09          VSTR     s20,[r8,#0x24]        ;574
00090a  f6401135          MOV      r1,#0x935             ;575
00090e  6860              LDR      r0,[r4,#4]            ;575
000910  e03a              B        |L12.2440|
                  |L12.2322|
000912  e18f              B        |L12.3124|
                  |L12.2324|
                          DCD      0x40020400
                  |L12.2328|
000918  32303030          DCB      "2000",0
00091c  00      
00091d  00                DCB      0
00091e  00                DCB      0
00091f  00                DCB      0
                  |L12.2336|
                          DCD      0x40020800
                  |L12.2340|
                          DCD      flagD
                  |L12.2344|
                          DCD      GUI_Font16_1
                  |L12.2348|
00092c  434300            DCB      "CC",0
00092f  00                DCB      0
                  |L12.2352|
000930  435600            DCB      "CV",0
000933  00                DCB      0
                  |L12.2356|
                          DCD      ||.data||
                  |L12.2360|
000938  4f464600          DCB      "OFF",0
                  |L12.2364|
00093c  00000000          DCFS     0x00000000 ; 0
                  |L12.2368|
000940  4f4e00            DCB      "ON",0
000943  00                DCB      0
                  |L12.2372|
                          DCD      GUI_FontHZ14
                  |L12.2376|
000948  e5bc8000          DCB      229,188,128,0
                  |L12.2380|
00094c  e585b300          DCB      229,133,179,0
                  |L12.2384|
000950  00000000          DCFD     0x407f400000000000 ; 500
000954  407f4000
                  |L12.2392|
                          DCD      test_mode
                  |L12.2396|
                          DCD      0x40020000
                  |L12.2400|
                          DCD      GUI_Font20_ASCII
                  |L12.2404|
000964  556e7465          DCB      "Untested",0
000968  73746564
00096c  00      
00096d  00                DCB      0
00096e  00                DCB      0
00096f  00                DCB      0
                  |L12.2416|
                          DCD      0x3e99999a
                  |L12.2420|
                          DCD      GUI_Fontset_font
                  |L12.2424|
000978  e69caae6          DCB      230,156,170,230,181,139,232,175,149,0
00097c  b58be8af
000980  9500    
000982  00                DCB      0
000983  00                DCB      0
                  |L12.2436|
000984  25346400          DCB      "%4d",0
                  |L12.2440|
000988  f7fffffe          BL       WM_GetDialogItem
00098c  4605              MOV      r5,r0                 ;575
00098e  f8d80024          LDR      r0,[r8,#0x24]         ;576  ; static_pc
000992  f7fffffe          BL       __aeabi_f2d
000996  ec410b10          VMOV     d0,r0,r1              ;576
00099a  ec532b10          VMOV     r2,r3,d0              ;576
00099e  f2af41a4          ADR      r1,|L12.1276|
0009a2  4668              MOV      r0,sp                 ;576
0009a4  f7fffffe          BL       __2sprintf
0009a8  4669              MOV      r1,sp                 ;577
0009aa  4628              MOV      r0,r5                 ;577
0009ac  f7fffffe          BL       TEXT_SetText
0009b0  e112              B        |L12.3032|
                  |L12.2482|
0009b2  f8980010          LDRB     r0,[r8,#0x10]         ;580  ; step
0009b6  b180              CBZ      r0,|L12.2522|
0009b8  f6401106          MOV      r1,#0x906             ;631
0009bc  6860              LDR      r0,[r4,#4]            ;631
0009be  f7fffffe          BL       WM_GetDialogItem
0009c2  4605              MOV      r5,r0                 ;631
0009c4  7830              LDRB     r0,[r6,#0]            ;632  ; lang
0009c6  2800              CMP      r0,#0                 ;632
0009c8  d07d              BEQ      |L12.2758|
0009ca  48fe              LDR      r0,|L12.3524|
0009cc  f7fffffe          BL       GUI_SetFont
0009d0  a1fd              ADR      r1,|L12.3528|
0009d2  4628              MOV      r0,r5                 ;638
0009d4  f7fffffe          BL       TEXT_SetText
0009d8  e0fe              B        |L12.3032|
                  |L12.2522|
0009da  f6401106          MOV      r1,#0x906             ;582
0009de  6860              LDR      r0,[r4,#4]            ;582
0009e0  f7fffffe          BL       WM_GetDialogItem
0009e4  4605              MOV      r5,r0                 ;582
0009e6  7830              LDRB     r0,[r6,#0]            ;583  ; lang
0009e8  2800              CMP      r0,#0                 ;583
0009ea  d06d              BEQ      |L12.2760|
0009ec  48f5              LDR      r0,|L12.3524|
0009ee  f7fffffe          BL       GUI_SetFont
0009f2  f2af0190          ADR      r1,|L12.2404|
0009f6  4628              MOV      r0,r5                 ;589
0009f8  f7fffffe          BL       TEXT_SetText
                  |L12.2556|
0009fc  f640018e          MOV      r1,#0x88e             ;592
000a00  6860              LDR      r0,[r4,#4]            ;592
000a02  f7fffffe          BL       WM_GetDialogItem
000a06  4605              MOV      r5,r0                 ;592
000a08  f8b82018          LDRH     r2,[r8,#0x18]         ;593  ; r
000a0c  f2af510c          ADR      r1,|L12.1284|
000a10  4668              MOV      r0,sp                 ;593
000a12  f7fffffe          BL       __2sprintf
000a16  4669              MOV      r1,sp                 ;594
000a18  4628              MOV      r0,r5                 ;594
000a1a  f7fffffe          BL       TEXT_SetText
000a1e  f640018d          MOV      r1,#0x88d             ;596
000a22  6860              LDR      r0,[r4,#4]            ;596
000a24  f7fffffe          BL       WM_GetDialogItem
000a28  4605              MOV      r5,r0                 ;596
000a2a  f8d80030          LDR      r0,[r8,#0x30]         ;597  ; v
000a2e  f7fffffe          BL       __aeabi_f2d
000a32  ec410b10          VMOV     d0,r0,r1              ;597
000a36  ec532b10          VMOV     r2,r3,d0              ;597
000a3a  f2af5140          ADR      r1,|L12.1276|
000a3e  4668              MOV      r0,sp                 ;597
000a40  f7fffffe          BL       __2sprintf
000a44  4669              MOV      r1,sp                 ;598
000a46  4628              MOV      r0,r5                 ;598
000a48  f7fffffe          BL       TEXT_SetText
000a4c  f6401107          MOV      r1,#0x907             ;600
000a50  6860              LDR      r0,[r4,#4]            ;600
000a52  f7fffffe          BL       WM_GetDialogItem
000a56  4605              MOV      r5,r0                 ;600
000a58  f8b8101a          LDRH     r1,[r8,#0x1a]         ;601  ; short_time
000a5c  200a              MOVS     r0,#0xa               ;601
000a5e  fbb1f2f0          UDIV     r2,r1,r0              ;601
000a62  f2af01e0          ADR      r1,|L12.2436|
000a66  4668              MOV      r0,sp                 ;601
000a68  f7fffffe          BL       __2sprintf
000a6c  49d8              LDR      r1,|L12.3536|
000a6e  4628              MOV      r0,r5                 ;602
000a70  f7fffffe          BL       TEXT_SetFont
000a74  4669              MOV      r1,sp                 ;603
000a76  4628              MOV      r0,r5                 ;603
000a78  f7fffffe          BL       TEXT_SetText
000a7c  f640018f          MOV      r1,#0x88f             ;605
000a80  6860              LDR      r0,[r4,#4]            ;605
000a82  f7fffffe          BL       WM_GetDialogItem
000a86  4605              MOV      r5,r0                 ;605
000a88  f44f417f          MOV      r1,#0xff00            ;606
000a8c  4628              MOV      r0,r5                 ;606
000a8e  f7fffffe          BL       TEXT_SetTextColor
000a92  f8d8002c          LDR      r0,[r8,#0x2c]         ;607  ; oc_data
000a96  f7fffffe          BL       __aeabi_f2d
000a9a  ec410b10          VMOV     d0,r0,r1              ;607
000a9e  ec532b10          VMOV     r2,r3,d0              ;607
000aa2  f2af51a8          ADR      r1,|L12.1276|
000aa6  4668              MOV      r0,sp                 ;607
000aa8  f7fffffe          BL       __2sprintf
000aac  4669              MOV      r1,sp                 ;608
000aae  4628              MOV      r0,r5                 ;608
000ab0  f7fffffe          BL       TEXT_SetText
000ab4  f44f6109          MOV      r1,#0x890             ;610
000ab8  6860              LDR      r0,[r4,#4]            ;610
000aba  f7fffffe          BL       WM_GetDialogItem
000abe  4605              MOV      r5,r0                 ;610
000ac0  f8d80028          LDR      r0,[r8,#0x28]         ;611  ; static_lv
000ac4  e001              B        |L12.2762|
                  |L12.2758|
000ac6  e04d              B        |L12.2916|
                  |L12.2760|
000ac8  e02a              B        |L12.2848|
                  |L12.2762|
000aca  f7fffffe          BL       __aeabi_f2d
000ace  ec410b10          VMOV     d0,r0,r1              ;611
000ad2  ec532b10          VMOV     r2,r3,d0              ;611
000ad6  f2af51dc          ADR      r1,|L12.1276|
000ada  4668              MOV      r0,sp                 ;611
000adc  f7fffffe          BL       __2sprintf
000ae0  4669              MOV      r1,sp                 ;612
000ae2  4628              MOV      r0,r5                 ;612
000ae4  f7fffffe          BL       TEXT_SetText
000ae8  f6401135          MOV      r1,#0x935             ;614
000aec  6860              LDR      r0,[r4,#4]            ;614
000aee  f7fffffe          BL       WM_GetDialogItem
000af2  4605              MOV      r5,r0                 ;614
000af4  f8d80024          LDR      r0,[r8,#0x24]         ;615  ; static_pc
000af8  f7fffffe          BL       __aeabi_f2d
000afc  ec410b10          VMOV     d0,r0,r1              ;615
000b00  ec532b10          VMOV     r2,r3,d0              ;615
000b04  f2af610c          ADR      r1,|L12.1276|
000b08  4668              MOV      r0,sp                 ;615
000b0a  f7fffffe          BL       __2sprintf
000b0e  4669              MOV      r1,sp                 ;616
000b10  4628              MOV      r0,r5                 ;616
000b12  f7fffffe          BL       TEXT_SetText
000b16  f898000c          LDRB     r0,[r8,#0xc]          ;618  ; para_set1
000b1a  28ff              CMP      r0,#0xff              ;618
000b1c  d00a              BEQ      |L12.2868|
000b1e  e00b              B        |L12.2872|
                  |L12.2848|
000b20  48ac              LDR      r0,|L12.3540|
000b22  f7fffffe          BL       GUI_SetFont
000b26  f2af11b0          ADR      r1,|L12.2424|
000b2a  4628              MOV      r0,r5                 ;586
000b2c  f7fffffe          BL       TEXT_SetText
000b30  e764              B        |L12.2556|
                  |L12.2866|
000b32  e04b              B        |L12.3020|
                  |L12.2868|
000b34  f7fffffe          BL       test_r
                  |L12.2872|
000b38  ed990a00          VLDR     s0,[r9,#0]            ;623
000b3c  edd80a07          VLDR     s1,[r8,#0x1c]         ;623
000b40  eeb40ae0          VCMPE.F32 s0,s1                 ;623
000b44  eef1fa10          VMRS     APSR_nzcv,FPSCR       ;623
000b48  d303              BCC      |L12.2898|
000b4a  ee100a10          VMOV     r0,s0                 ;623
000b4e  4558              CMP      r0,r11                ;623
000b50  da42              BGE      |L12.3032|
                  |L12.2898|
000b52  f888a005          STRB     r10,[r8,#5]           ;625
000b56  f888a007          STRB     r10,[r8,#7]           ;626
000b5a  ed88aa0c          VSTR     s20,[r8,#0x30]        ;627
000b5e  f8a8a018          STRH     r10,[r8,#0x18]        ;628
000b62  e039              B        |L12.3032|
                  |L12.2916|
000b64  489b              LDR      r0,|L12.3540|
000b66  f7fffffe          BL       GUI_SetFont
000b6a  a19b              ADR      r1,|L12.3544|
000b6c  4628              MOV      r0,r5                 ;635
000b6e  f7fffffe          BL       TEXT_SetText
000b72  e031              B        |L12.3032|
                  |L12.2932|
000b74  f640018d          MOV      r1,#0x88d             ;655
000b78  6860              LDR      r0,[r4,#4]            ;655
000b7a  f7fffffe          BL       WM_GetDialogItem
000b7e  4606              MOV      r6,r0                 ;655
000b80  4898              LDR      r0,|L12.3556|
000b82  6800              LDR      r0,[r0,#0]            ;656  ; disloadv
000b84  f7fffffe          BL       __aeabi_f2d
000b88  ec410b10          VMOV     d0,r0,r1              ;656
000b8c  ec532b10          VMOV     r2,r3,d0              ;656
000b90  f2af6198          ADR      r1,|L12.1276|
000b94  4668              MOV      r0,sp                 ;656
000b96  f7fffffe          BL       __2sprintf
000b9a  4669              MOV      r1,sp                 ;657
000b9c  4630              MOV      r0,r6                 ;657
000b9e  f7fffffe          BL       TEXT_SetText
000ba2  6b68              LDR      r0,[r5,#0x34]         ;659  ; Run_Control
000ba4  f5b06ffa          CMP      r0,#0x7d0             ;659
000ba8  d210              BCS      |L12.3020|
000baa  f640018e          MOV      r1,#0x88e             ;665
000bae  6860              LDR      r0,[r4,#4]            ;665
000bb0  f7fffffe          BL       WM_GetDialogItem
000bb4  4605              MOV      r5,r0                 ;665
000bb6  488c              LDR      r0,|L12.3560|
000bb8  8802              LDRH     r2,[r0,#0]            ;666  ; disrvalue
000bba  f2af61b8          ADR      r1,|L12.1284|
000bbe  4668              MOV      r0,sp                 ;666
000bc0  f7fffffe          BL       __2sprintf
000bc4  4669              MOV      r1,sp                 ;667
000bc6  4628              MOV      r0,r5                 ;667
000bc8  f7fffffe          BL       TEXT_SetText
                  |L12.3020|
000bcc  f898000c          LDRB     r0,[r8,#0xc]          ;671  ; para_set1
000bd0  28ff              CMP      r0,#0xff              ;671
000bd2  d101              BNE      |L12.3032|
000bd4  f7fffffe          BL       test_r
                  |L12.3032|
000bd8  f6401109          MOV      r1,#0x909             ;677
000bdc  6860              LDR      r0,[r4,#4]            ;677
000bde  f7fffffe          BL       WM_GetDialogItem
000be2  4605              MOV      r5,r0                 ;677
000be4  4881              LDR      r0,|L12.3564|
000be6  6800              LDR      r0,[r0,#0]            ;678  ; temp
000be8  f7fffffe          BL       __aeabi_f2d
000bec  ec410b10          VMOV     d0,r0,r1              ;678
000bf0  a17f              ADR      r1,|L12.3568|
000bf2  ec532b10          VMOV     r2,r3,d0              ;678
000bf6  4668              MOV      r0,sp                 ;678
000bf8  f7fffffe          BL       __2sprintf
000bfc  4669              MOV      r1,sp                 ;679
000bfe  4628              MOV      r0,r5                 ;679
000c00  f7fffffe          BL       TEXT_SetText
000c04  f6401142          MOV      r1,#0x942             ;681
000c08  6860              LDR      r0,[r4,#4]            ;681
000c0a  f7fffffe          BL       WM_GetDialogItem
000c0e  497a              LDR      r1,|L12.3576|
000c10  6e89              LDR      r1,[r1,#0x68]         ;682  ; InFlashSave
000c12  b159              CBZ      r1,|L12.3116|
000c14  a179              ADR      r1,|L12.3580|
000c16  f7fffffe          BL       TEXT_SetText
                  |L12.3098|
000c1a  2114              MOVS     r1,#0x14              ;688
000c1c  68e0              LDR      r0,[r4,#0xc]          ;688
000c1e  f7fffffe          BL       WM_RestartTimer
                  |L12.3106|
000c22  b003              ADD      sp,sp,#0xc
000c24  ecbd8b06          VPOP     {d8-d10}
000c28  e8bd8ff0          POP      {r4-r11,pc}
                  |L12.3116|
000c2c  a176              ADR      r1,|L12.3592|
000c2e  f7fffffe          BL       TEXT_SetText
000c32  e7f2              B        |L12.3098|
                  |L12.3124|
000c34  f8d4b004          LDR      r11,[r4,#4]           ;698
000c38  2100              MOVS     r1,#0                 ;699
000c3a  4658              MOV      r0,r11                ;699
000c3c  f7fffffe          BL       WINDOW_SetBkColor
000c40  2300              MOVS     r3,#0                 ;700
000c42  f44f72fa          MOV      r2,#0x1f4             ;700
000c46  2101              MOVS     r1,#1                 ;700
000c48  4658              MOV      r0,r11                ;700
000c4a  f7fffffe          BL       WM_CreateTimer
000c4e  4651              MOV      r1,r10                ;702
000c50  6860              LDR      r0,[r4,#4]            ;702
000c52  f7fffffe          BL       WM_GetDialogItem
000c56  4682              MOV      r10,r0                ;702
000c58  21ff              MOVS     r1,#0xff              ;703
000c5a  4650              MOV      r0,r10                ;703
000c5c  f7fffffe          BL       TEXT_SetTextColor
000c60  496c              LDR      r1,|L12.3604|
000c62  4650              MOV      r0,r10                ;704
000c64  f7fffffe          BL       TEXT_SetFont
000c68  a162              ADR      r1,|L12.3572|
000c6a  4650              MOV      r0,r10                ;705
000c6c  f7fffffe          BL       TEXT_SetText
000c70  7830              LDRB     r0,[r6,#0]            ;708  ; lang
000c72  f6400119          MOV      r1,#0x819             ;710
000c76  f6400a1a          MOV      r10,#0x81a            ;717
000c7a  f6400b1b          MOV      r11,#0x81b            ;723
000c7e  2800              CMP      r0,#0                 ;708
000c80  d07d              BEQ      |L12.3454|
000c82  6860              LDR      r0,[r4,#4]            ;743
000c84  f7fffffe          BL       WM_GetDialogItem
000c88  9002              STR      r0,[sp,#8]            ;743
000c8a  2200              MOVS     r2,#0                 ;744
000c8c  4611              MOV      r1,r2                 ;744
000c8e  9802              LDR      r0,[sp,#8]            ;744
000c90  f7fffffe          BL       BUTTON_SetTextColor
000c94  2101              MOVS     r1,#1                 ;745
000c96  9802              LDR      r0,[sp,#8]            ;745
000c98  f7fffffe          BL       BUTTON_SetPressed
000c9c  495e              LDR      r1,|L12.3608|
000c9e  9802              LDR      r0,[sp,#8]            ;746
000ca0  f7fffffe          BL       BUTTON_SetFont
000ca4  f7fffffe          BL       GUI_UC_SetEncodeUTF8
000ca8  a15c              ADR      r1,|L12.3612|
000caa  9802              LDR      r0,[sp,#8]            ;748
000cac  f7fffffe          BL       BUTTON_SetText
000cb0  4651              MOV      r1,r10                ;750
000cb2  6860              LDR      r0,[r4,#4]            ;750
000cb4  f7fffffe          BL       WM_GetDialogItem
000cb8  4682              MOV      r10,r0                ;750
000cba  2200              MOVS     r2,#0                 ;751
000cbc  4611              MOV      r1,r2                 ;751
000cbe  4650              MOV      r0,r10                ;751
000cc0  f7fffffe          BL       BUTTON_SetTextColor
000cc4  4954              LDR      r1,|L12.3608|
000cc6  4650              MOV      r0,r10                ;752
000cc8  f7fffffe          BL       BUTTON_SetFont
000ccc  f7fffffe          BL       GUI_UC_SetEncodeUTF8
000cd0  a155              ADR      r1,|L12.3624|
000cd2  4650              MOV      r0,r10                ;754
000cd4  f7fffffe          BL       BUTTON_SetText
000cd8  4659              MOV      r1,r11                ;756
000cda  6860              LDR      r0,[r4,#4]            ;756
000cdc  f7fffffe          BL       WM_GetDialogItem
000ce0  4682              MOV      r10,r0                ;756
000ce2  2200              MOVS     r2,#0                 ;757
000ce4  4611              MOV      r1,r2                 ;757
000ce6  4650              MOV      r0,r10                ;757
000ce8  f7fffffe          BL       BUTTON_SetTextColor
000cec  494a              LDR      r1,|L12.3608|
000cee  4650              MOV      r0,r10                ;758
000cf0  f7fffffe          BL       BUTTON_SetFont
000cf4  f7fffffe          BL       GUI_UC_SetEncodeUTF8
000cf8  a14d              ADR      r1,|L12.3632|
000cfa  4650              MOV      r0,r10                ;760
000cfc  f7fffffe          BL       BUTTON_SetText
000d00  f640011c          MOV      r1,#0x81c             ;762
000d04  6860              LDR      r0,[r4,#4]            ;762
000d06  f7fffffe          BL       WM_GetDialogItem
000d0a  4682              MOV      r10,r0                ;762
000d0c  2200              MOVS     r2,#0                 ;763
000d0e  4611              MOV      r1,r2                 ;763
000d10  4650              MOV      r0,r10                ;763
000d12  f7fffffe          BL       BUTTON_SetTextColor
000d16  4940              LDR      r1,|L12.3608|
000d18  4650              MOV      r0,r10                ;764
000d1a  f7fffffe          BL       BUTTON_SetFont
000d1e  f7fffffe          BL       GUI_UC_SetEncodeUTF8
000d22  a145              ADR      r1,|L12.3640|
000d24  4650              MOV      r0,r10                ;766
000d26  f7fffffe          BL       BUTTON_SetText
000d2a  f640011d          MOV      r1,#0x81d             ;770
000d2e  6860              LDR      r0,[r4,#4]            ;770
000d30  f7fffffe          BL       WM_GetDialogItem
000d34  4682              MOV      r10,r0                ;770
000d36  2200              MOVS     r2,#0                 ;771
000d38  4611              MOV      r1,r2                 ;771
000d3a  4650              MOV      r0,r10                ;771
000d3c  f7fffffe          BL       BUTTON_SetTextColor
000d40  4935              LDR      r1,|L12.3608|
000d42  4650              MOV      r0,r10                ;772
000d44  f7fffffe          BL       BUTTON_SetFont
000d48  f7fffffe          BL       GUI_UC_SetEncodeUTF8
000d4c  a13c              ADR      r1,|L12.3648|
000d4e  4650              MOV      r0,r10                ;774
000d50  f7fffffe          BL       BUTTON_SetText
                  |L12.3412|
000d54  f6400113          MOV      r1,#0x813             ;779
000d58  6860              LDR      r0,[r4,#4]            ;779
000d5a  f7fffffe          BL       WM_GetDialogItem
000d5e  4682              MOV      r10,r0                ;779
000d60  4649              MOV      r1,r9                 ;780
000d62  4650              MOV      r0,r10                ;780
000d64  f7fffffe          BL       TEXT_SetTextColor
000d68  4937              LDR      r1,|L12.3656|
000d6a  4650              MOV      r0,r10                ;781
000d6c  f7fffffe          BL       TEXT_SetFont
000d70  f7fffffe          BL       GUI_UC_SetEncodeUTF8
000d74  a135              ADR      r1,|L12.3660|
000d76  4650              MOV      r0,r10                ;783
000d78  f7fffffe          BL       TEXT_SetText
000d7c  e000              B        |L12.3456|
                  |L12.3454|
000d7e  e3fd              B        |L12.5500|
                  |L12.3456|
000d80  f6400115          MOV      r1,#0x815             ;790
000d84  6860              LDR      r0,[r4,#4]            ;790
000d86  f7fffffe          BL       WM_GetDialogItem
000d8a  4682              MOV      r10,r0                ;790
000d8c  f6af1148          ADR      r1,|L12.1096|
000d90  4650              MOV      r0,r10                ;791
000d92  f7fffffe          BL       TEXT_SetText
000d96  4649              MOV      r1,r9                 ;792
000d98  4650              MOV      r0,r10                ;792
000d9a  f7fffffe          BL       TEXT_SetTextColor
000d9e  492a              LDR      r1,|L12.3656|
000da0  4650              MOV      r0,r10                ;793
000da2  f7fffffe          BL       TEXT_SetFont
000da6  f6400116          MOV      r1,#0x816             ;797
000daa  6860              LDR      r0,[r4,#4]            ;797
000dac  f7fffffe          BL       WM_GetDialogItem
000db0  4682              MOV      r10,r0                ;797
000db2  f7fffffe          BL       GUI_UC_SetEncodeUTF8
000db6  f6af01cc          ADR      r1,|L12.1260|
000dba  4650              MOV      r0,r10                ;799
000dbc  f7fffffe          BL       TEXT_SetText
000dc0  4649              MOV      r1,r9                 ;800
000dc2  e045              B        |L12.3664|
                  |L12.3524|
                          DCD      GUI_Font20_ASCII
                  |L12.3528|
000dc8  54657374          DCB      "Testing",0
000dcc  696e6700
                  |L12.3536|
                          DCD      GUI_Font16_1
                  |L12.3540|
                          DCD      GUI_Fontset_font
                  |L12.3544|
000dd8  e6b58be8          DCB      230,181,139,232,175,149,228,184,173,0
000ddc  af95e4b8
000de0  ad00    
000de2  00                DCB      0
000de3  00                DCB      0
                  |L12.3556|
                          DCD      disloadv
                  |L12.3560|
                          DCD      disrvalue
                  |L12.3564|
                          DCD      temp
                  |L12.3568|
000df0  252e3166          DCB      "%.1f"
                  |L12.3572|
000df4  00                DCB      0
000df5  00                DCB      0
000df6  00                DCB      0
000df7  00                DCB      0
                  |L12.3576|
                          DCD      InFlashSave
                  |L12.3580|
000dfc  e794b5e5          DCB      231,148,181,229,142,139,230,161,163,"H",0
000e00  8e8be6a1
000e04  a34800  
000e07  00                DCB      0
                  |L12.3592|
000e08  e794b5e5          DCB      231,148,181,229,142,139,230,161,163,"L",0
000e0c  8e8be6a1
000e10  a34c00  
000e13  00                DCB      0
                  |L12.3604|
                          DCD      GUI_FontHZ14
                  |L12.3608|
                          DCD      GUI_Font16B_ASCII
                  |L12.3612|
000e1c  492e522e          DCB      "I.R. TEST",0
000e20  20544553
000e24  5400    
000e26  00                DCB      0
000e27  00                DCB      0
                  |L12.3624|
000e28  4c4f4144          DCB      "LOAD",0
000e2c  00      
000e2d  00                DCB      0
000e2e  00                DCB      0
000e2f  00                DCB      0
                  |L12.3632|
000e30  504f5745          DCB      "POWER",0
000e34  5200    
000e36  00                DCB      0
000e37  00                DCB      0
                  |L12.3640|
000e38  43264443          DCB      "C&DC",0
000e3c  00      
000e3d  00                DCB      0
000e3e  00                DCB      0
000e3f  00                DCB      0
                  |L12.3648|
000e40  47524150          DCB      "GRAPH",0
000e44  4800    
000e46  00                DCB      0
000e47  00                DCB      0
                  |L12.3656|
                          DCD      GUI_FontEN40
                  |L12.3660|
000e4c  563a00            DCB      "V:",0
000e4f  00                DCB      0
                  |L12.3664|
000e50  4650              MOV      r0,r10                ;800
000e52  f7fffffe          BL       TEXT_SetTextColor
000e56  49fd              LDR      r1,|L12.4684|
000e58  4650              MOV      r0,r10                ;801
000e5a  f7fffffe          BL       TEXT_SetFont
000e5e  f6400117          MOV      r1,#0x817             ;805
000e62  6860              LDR      r0,[r4,#4]            ;805
000e64  f7fffffe          BL       WM_GetDialogItem
000e68  4682              MOV      r10,r0                ;805
000e6a  f7fffffe          BL       GUI_UC_SetEncodeUTF8
000e6e  f6af1188          ADR      r1,|L12.1256|
000e72  4650              MOV      r0,r10                ;807
000e74  f7fffffe          BL       TEXT_SetText
000e78  4649              MOV      r1,r9                 ;808
000e7a  4650              MOV      r0,r10                ;808
000e7c  f7fffffe          BL       TEXT_SetTextColor
000e80  49f3              LDR      r1,|L12.4688|
000e82  4650              MOV      r0,r10                ;809
000e84  f7fffffe          BL       TEXT_SetFont
000e88  f640018d          MOV      r1,#0x88d             ;811
000e8c  6860              LDR      r0,[r4,#4]            ;811
000e8e  f7fffffe          BL       WM_GetDialogItem
000e92  4681              MOV      r9,r0                 ;811
000e94  ed9f8bef          VLDR     d8,|L12.4692|
000e98  ec532b18          VMOV     r2,r3,d8              ;812
000e9c  f6af11a4          ADR      r1,|L12.1276|
000ea0  4668              MOV      r0,sp                 ;812
000ea2  f7fffffe          BL       __2sprintf
000ea6  f44f4a7f          MOV      r10,#0xff00           ;813
000eaa  4651              MOV      r1,r10                ;813
000eac  4648              MOV      r0,r9                 ;813
000eae  f7fffffe          BL       TEXT_SetTextColor
000eb2  49ea              LDR      r1,|L12.4700|
000eb4  4648              MOV      r0,r9                 ;814
000eb6  f7fffffe          BL       TEXT_SetFont
000eba  f7fffffe          BL       GUI_UC_SetEncodeUTF8
000ebe  4669              MOV      r1,sp                 ;816
000ec0  4648              MOV      r0,r9                 ;816
000ec2  f7fffffe          BL       TEXT_SetText
000ec6  f640018e          MOV      r1,#0x88e             ;818
000eca  6860              LDR      r0,[r4,#4]            ;818
000ecc  f7fffffe          BL       WM_GetDialogItem
000ed0  4681              MOV      r9,r0                 ;818
000ed2  2200              MOVS     r2,#0                 ;819
000ed4  f6af11d4          ADR      r1,|L12.1284|
000ed8  4668              MOV      r0,sp                 ;819
000eda  f7fffffe          BL       __2sprintf
000ede  4651              MOV      r1,r10                ;820
000ee0  4648              MOV      r0,r9                 ;820
000ee2  f7fffffe          BL       TEXT_SetTextColor
000ee6  49dd              LDR      r1,|L12.4700|
000ee8  4648              MOV      r0,r9                 ;821
000eea  f7fffffe          BL       TEXT_SetFont
000eee  f7fffffe          BL       GUI_UC_SetEncodeUTF8
000ef2  4669              MOV      r1,sp                 ;823
000ef4  4648              MOV      r0,r9                 ;823
000ef6  f7fffffe          BL       TEXT_SetText
000efa  f6401104          MOV      r1,#0x904             ;825
000efe  6860              LDR      r0,[r4,#4]            ;825
000f00  f7fffffe          BL       WM_GetDialogItem
000f04  4683              MOV      r11,r0                ;825
000f06  f06f497f          MVN      r9,#0xff000000        ;826
000f0a  4649              MOV      r1,r9                 ;826
000f0c  4658              MOV      r0,r11                ;826
000f0e  f7fffffe          BL       TEXT_SetTextColor
000f12  49d3              LDR      r1,|L12.4704|
000f14  4658              MOV      r0,r11                ;827
000f16  f7fffffe          BL       TEXT_SetFont
000f1a  f7fffffe          BL       GUI_UC_SetEncodeUTF8
000f1e  f2af112c          ADR      r1,|L12.3572|
000f22  4658              MOV      r0,r11                ;829
000f24  f7fffffe          BL       TEXT_SetText
000f28  f6401109          MOV      r1,#0x909             ;831
000f2c  6860              LDR      r0,[r4,#4]            ;831
000f2e  f7fffffe          BL       WM_GetDialogItem
000f32  4683              MOV      r11,r0                ;831
000f34  4651              MOV      r1,r10                ;832
000f36  4658              MOV      r0,r11                ;832
000f38  f7fffffe          BL       TEXT_SetTextColor
000f3c  49c9              LDR      r1,|L12.4708|
000f3e  4658              MOV      r0,r11                ;833
000f40  f7fffffe          BL       TEXT_SetFont
000f44  48c8              LDR      r0,|L12.4712|
000f46  6800              LDR      r0,[r0,#0]            ;834  ; temp
000f48  f7fffffe          BL       __aeabi_f2d
000f4c  ec410b10          VMOV     d0,r0,r1              ;834
000f50  ec532b10          VMOV     r2,r3,d0              ;834
000f54  f2af1168          ADR      r1,|L12.3568|
000f58  4668              MOV      r0,sp                 ;834
000f5a  f7fffffe          BL       __2sprintf
000f5e  4669              MOV      r1,sp                 ;835
000f60  4658              MOV      r0,r11                ;835
000f62  f7fffffe          BL       TEXT_SetText
000f66  7af8              LDRB     r0,[r7,#0xb]          ;837  ; manual
000f68  2800              CMP      r0,#0                 ;837
000f6a  d07d              BEQ      |L12.4200|
000f6c  f640110a          MOV      r1,#0x90a             ;862
000f70  6860              LDR      r0,[r4,#4]            ;862
000f72  f7fffffe          BL       WM_GetDialogItem
000f76  4683              MOV      r11,r0                ;862
000f78  21ff              MOVS     r1,#0xff              ;863
000f7a  4658              MOV      r0,r11                ;863
000f7c  f7fffffe          BL       TEXT_SetTextColor
000f80  49b8              LDR      r1,|L12.4708|
000f82  4658              MOV      r0,r11                ;864
000f84  f7fffffe          BL       TEXT_SetFont
000f88  f7fffffe          BL       GUI_UC_SetEncodeUTF8
000f8c  f6af21b8          ADR      r1,|L12.1240|
000f90  4658              MOV      r0,r11                ;866
000f92  f7fffffe          BL       TEXT_SetText
000f96  f8980000          LDRB     r0,[r8,#0]            ;868  ; r_raly
000f9a  2801              CMP      r0,#1                 ;868
000f9c  d07c              BEQ      |L12.4248|
000f9e  f640110b          MOV      r1,#0x90b             ;887
000fa2  6860              LDR      r0,[r4,#4]            ;887
000fa4  f7fffffe          BL       WM_GetDialogItem
000fa8  4680              MOV      r8,r0                 ;887
000faa  21ff              MOVS     r1,#0xff              ;888
000fac  4640              MOV      r0,r8                 ;888
000fae  f7fffffe          BL       TEXT_SetTextColor
000fb2  49ac              LDR      r1,|L12.4708|
000fb4  4640              MOV      r0,r8                 ;889
000fb6  f7fffffe          BL       TEXT_SetFont
000fba  f7fffffe          BL       GUI_UC_SetEncodeUTF8
000fbe  f6af21dc          ADR      r1,|L12.1252|
000fc2  4640              MOV      r0,r8                 ;891
000fc4  f7fffffe          BL       TEXT_SetText
000fc8  f640110c          MOV      r1,#0x90c             ;893
000fcc  6860              LDR      r0,[r4,#4]            ;893
000fce  f7fffffe          BL       WM_GetDialogItem
000fd2  4680              MOV      r8,r0                 ;893
000fd4  21ff              MOVS     r1,#0xff              ;894
000fd6  4640              MOV      r0,r8                 ;894
000fd8  f7fffffe          BL       TEXT_SetTextColor
000fdc  49a1              LDR      r1,|L12.4708|
000fde  4640              MOV      r0,r8                 ;895
000fe0  f7fffffe          BL       TEXT_SetFont
000fe4  f7fffffe          BL       GUI_UC_SetEncodeUTF8
000fe8  f6af3104          ADR      r1,|L12.1256|
000fec  4640              MOV      r0,r8                 ;897
000fee  f7fffffe          BL       TEXT_SetText
000ff2  f640110d          MOV      r1,#0x90d             ;898
000ff6  6860              LDR      r0,[r4,#4]            ;898
000ff8  f7fffffe          BL       WM_GetDialogItem
000ffc  4680              MOV      r8,r0                 ;898
000ffe  21ff              MOVS     r1,#0xff              ;899
001000  4640              MOV      r0,r8                 ;899
001002  f7fffffe          BL       TEXT_SetTextColor
001006  4999              LDR      r1,|L12.4716|
001008  4640              MOV      r0,r8                 ;900
00100a  f7fffffe          BL       TEXT_SetFont
00100e  f7fffffe          BL       GUI_UC_SetEncodeUTF8
001012  f6af3128          ADR      r1,|L12.1260|
001016  4640              MOV      r0,r8                 ;902
001018  f7fffffe          BL       TEXT_SetText
                  |L12.4124|
00101c  78f8              LDRB     r0,[r7,#3]            ;906  ; para_set2
00101e  f6400114          MOV      r1,#0x814             ;911
001022  f6400868          MOV      r8,#0x868             ;917
001026  f6400b69          MOV      r11,#0x869            ;923
00102a  2800              CMP      r0,#0                 ;906
00102c  d07e              BEQ      |L12.4396|
00102e  28ff              CMP      r0,#0xff              ;906
001030  f47fadf7          BNE      |L12.3106|
001034  7830              LDRB     r0,[r6,#0]            ;909  ; lang
001036  2800              CMP      r0,#0                 ;909
001038  d079              BEQ      |L12.4398|
00103a  6860              LDR      r0,[r4,#4]            ;978
00103c  f7fffffe          BL       WM_GetDialogItem
001040  9002              STR      r0,[sp,#8]            ;978
001042  f7fffffe          BL       GUI_UC_SetEncodeUTF8
001046  a18a              ADR      r1,|L12.4720|
001048  9802              LDR      r0,[sp,#8]            ;980
00104a  f7fffffe          BL       TEXT_SetText
00104e  4649              MOV      r1,r9                 ;981
001050  9802              LDR      r0,[sp,#8]            ;981
001052  f7fffffe          BL       TEXT_SetTextColor
001056  4988              LDR      r1,|L12.4728|
001058  9802              LDR      r0,[sp,#8]            ;982
00105a  f7fffffe          BL       TEXT_SetFont
00105e  4641              MOV      r1,r8                 ;984
001060  6860              LDR      r0,[r4,#4]            ;984
001062  f7fffffe          BL       WM_GetDialogItem
001066  e000              B        |L12.4202|
                  |L12.4200|
001068  e325              B        |L12.5814|
                  |L12.4202|
00106a  4680              MOV      r8,r0                 ;984
00106c  f7fffffe          BL       GUI_UC_SetEncodeUTF8
001070  a182              ADR      r1,|L12.4732|
001072  4640              MOV      r0,r8                 ;986
001074  f7fffffe          BL       TEXT_SetText
001078  4649              MOV      r1,r9                 ;987
00107a  4640              MOV      r0,r8                 ;987
00107c  f7fffffe          BL       TEXT_SetTextColor
001080  497d              LDR      r1,|L12.4728|
001082  4640              MOV      r0,r8                 ;988
001084  f7fffffe          BL       TEXT_SetFont
001088  4659              MOV      r1,r11                ;990
00108a  6860              LDR      r0,[r4,#4]            ;990
00108c  f7fffffe          BL       WM_GetDialogItem
001090  4680              MOV      r8,r0                 ;990
001092  f7fffffe          BL       GUI_UC_SetEncodeUTF8
001096  e000              B        |L12.4250|
                  |L12.4248|
001098  e397              B        |L12.6090|
                  |L12.4250|
00109a  a17b              ADR      r1,|L12.4744|
00109c  4640              MOV      r0,r8                 ;992
00109e  f7fffffe          BL       TEXT_SetText
0010a2  4649              MOV      r1,r9                 ;993
0010a4  4640              MOV      r0,r8                 ;993
0010a6  f7fffffe          BL       TEXT_SetTextColor
0010aa  4973              LDR      r1,|L12.4728|
0010ac  4640              MOV      r0,r8                 ;994
0010ae  f7fffffe          BL       TEXT_SetFont
0010b2  f640016a          MOV      r1,#0x86a             ;996
0010b6  6860              LDR      r0,[r4,#4]            ;996
0010b8  f7fffffe          BL       WM_GetDialogItem
0010bc  4680              MOV      r8,r0                 ;996
0010be  f7fffffe          BL       GUI_UC_SetEncodeUTF8
0010c2  a173              ADR      r1,|L12.4752|
0010c4  4640              MOV      r0,r8                 ;998
0010c6  f7fffffe          BL       TEXT_SetText
0010ca  4649              MOV      r1,r9                 ;999
0010cc  4640              MOV      r0,r8                 ;999
0010ce  f7fffffe          BL       TEXT_SetTextColor
0010d2  4969              LDR      r1,|L12.4728|
0010d4  4640              MOV      r0,r8                 ;1000
0010d6  f7fffffe          BL       TEXT_SetFont
0010da  f6401108          MOV      r1,#0x908             ;1002
0010de  6860              LDR      r0,[r4,#4]            ;1002
0010e0  f7fffffe          BL       WM_GetDialogItem
0010e4  4680              MOV      r8,r0                 ;1002
0010e6  f7fffffe          BL       GUI_UC_SetEncodeUTF8
0010ea  a16b              ADR      r1,|L12.4760|
0010ec  4640              MOV      r0,r8                 ;1004
0010ee  f7fffffe          BL       TEXT_SetText
0010f2  4649              MOV      r1,r9                 ;1005
0010f4  4640              MOV      r0,r8                 ;1005
0010f6  f7fffffe          BL       TEXT_SetTextColor
0010fa  495f              LDR      r1,|L12.4728|
0010fc  4640              MOV      r0,r8                 ;1006
0010fe  f7fffffe          BL       TEXT_SetFont
001102  f640112f          MOV      r1,#0x92f             ;1008
001106  6860              LDR      r0,[r4,#4]            ;1008
001108  f7fffffe          BL       WM_GetDialogItem
00110c  4680              MOV      r8,r0                 ;1008
00110e  f7fffffe          BL       GUI_UC_SetEncodeUTF8
001112  a164              ADR      r1,|L12.4772|
001114  4640              MOV      r0,r8                 ;1010
001116  f7fffffe          BL       TEXT_SetText
00111a  4649              MOV      r1,r9                 ;1011
00111c  4640              MOV      r0,r8                 ;1011
00111e  f7fffffe          BL       TEXT_SetTextColor
001122  4955              LDR      r1,|L12.4728|
001124  4640              MOV      r0,r8                 ;1012
001126  f7fffffe          BL       TEXT_SetFont
00112a  e001              B        |L12.4400|
                  |L12.4396|
00112c  e3fe              B        |L12.6444|
                  |L12.4398|
00112e  e38a              B        |L12.6214|
                  |L12.4400|
001130  f44f6113          MOV      r1,#0x930             ;1014
001134  6860              LDR      r0,[r4,#4]            ;1014
001136  f7fffffe          BL       WM_GetDialogItem
00113a  4680              MOV      r8,r0                 ;1014
00113c  f7fffffe          BL       GUI_UC_SetEncodeUTF8
001140  f6af41d8          ADR      r1,|L12.1132|
001144  4640              MOV      r0,r8                 ;1016
001146  f7fffffe          BL       TEXT_SetText
00114a  4649              MOV      r1,r9                 ;1017
00114c  4640              MOV      r0,r8                 ;1017
00114e  f7fffffe          BL       TEXT_SetTextColor
001152  4949              LDR      r1,|L12.4728|
001154  4640              MOV      r0,r8                 ;1018
001156  f7fffffe          BL       TEXT_SetFont
00115a  f6401131          MOV      r1,#0x931             ;1020
00115e  6860              LDR      r0,[r4,#4]            ;1020
001160  f7fffffe          BL       WM_GetDialogItem
001164  4680              MOV      r8,r0                 ;1020
001166  f7fffffe          BL       GUI_UC_SetEncodeUTF8
00116a  a151              ADR      r1,|L12.4784|
00116c  4640              MOV      r0,r8                 ;1022
00116e  f7fffffe          BL       TEXT_SetText
001172  4649              MOV      r1,r9                 ;1023
001174  4640              MOV      r0,r8                 ;1023
001176  f7fffffe          BL       TEXT_SetTextColor
00117a  493f              LDR      r1,|L12.4728|
00117c  4640              MOV      r0,r8                 ;1024
00117e  f7fffffe          BL       TEXT_SetFont
001182  f6401136          MOV      r1,#0x936             ;1026
001186  6860              LDR      r0,[r4,#4]            ;1026
001188  f7fffffe          BL       WM_GetDialogItem
00118c  4680              MOV      r8,r0                 ;1026
00118e  f7fffffe          BL       GUI_UC_SetEncodeUTF8
001192  a149              ADR      r1,|L12.4792|
001194  4640              MOV      r0,r8                 ;1028
001196  f7fffffe          BL       TEXT_SetText
00119a  4949              LDR      r1,|L12.4800|
00119c  4640              MOV      r0,r8                 ;1029
00119e  f7fffffe          BL       TEXT_SetBkColor
0011a2  2100              MOVS     r1,#0                 ;1030
0011a4  4640              MOV      r0,r8                 ;1030
0011a6  f7fffffe          BL       TEXT_SetTextColor
0011aa  4933              LDR      r1,|L12.4728|
0011ac  4640              MOV      r0,r8                 ;1031
0011ae  f7fffffe          BL       TEXT_SetFont
0011b2  f6401142          MOV      r1,#0x942             ;1033
0011b6  6860              LDR      r0,[r4,#4]            ;1033
0011b8  f7fffffe          BL       WM_GetDialogItem
0011bc  4680              MOV      r8,r0                 ;1033
0011be  f7fffffe          BL       GUI_UC_SetEncodeUTF8
0011c2  4840              LDR      r0,|L12.4804|
0011c4  6e80              LDR      r0,[r0,#0x68]         ;1035  ; InFlashSave
0011c6  2801              CMP      r0,#1                 ;1035
0011c8  d03f              BEQ      |L12.4682|
0011ca  a13f              ADR      r1,|L12.4808|
0011cc  4640              MOV      r0,r8                 ;1039
0011ce  f7fffffe          BL       TEXT_SetText
                  |L12.4562|
0011d2  4649              MOV      r1,r9                 ;1041
0011d4  4640              MOV      r0,r8                 ;1041
0011d6  f7fffffe          BL       TEXT_SetTextColor
0011da  4927              LDR      r1,|L12.4728|
0011dc  4640              MOV      r0,r8                 ;1042
0011de  f7fffffe          BL       TEXT_SetFont
                  |L12.4578|
0011e2  7830              LDRB     r0,[r6,#0]            ;1045  ; lang
0011e4  2800              CMP      r0,#0                 ;1045
0011e6  d071              BEQ      |L12.4812|
0011e8  7bf8              LDRB     r0,[r7,#0xf]          ;1062  ; staticcdc
0011ea  2801              CMP      r0,#1                 ;1062
0011ec  d06f              BEQ      |L12.4814|
0011ee  f6401137          MOV      r1,#0x937             ;1070
0011f2  6860              LDR      r0,[r4,#4]            ;1070
0011f4  f7fffffe          BL       WM_GetDialogItem
0011f8  4680              MOV      r8,r0                 ;1070
0011fa  f7fffffe          BL       GUI_UC_SetEncodeUTF8
0011fe  f6af01c8          ADR      r1,|L12.2360|
001202  4640              MOV      r0,r8                 ;1072
001204  f7fffffe          BL       TEXT_SetText
001208  4649              MOV      r1,r9                 ;1073
00120a  4640              MOV      r0,r8                 ;1073
00120c  f7fffffe          BL       TEXT_SetTextColor
001210  4919              LDR      r1,|L12.4728|
001212  4640              MOV      r0,r8                 ;1074
001214  f7fffffe          BL       TEXT_SetFont
                  |L12.4632|
001218  f6401105          MOV      r1,#0x905             ;1079
00121c  6860              LDR      r0,[r4,#4]            ;1079
00121e  f7fffffe          BL       WM_GetDialogItem
001222  4680              MOV      r8,r0                 ;1079
001224  69f8              LDR      r0,[r7,#0x1c]         ;1080  ; gate_v
001226  f7fffffe          BL       __aeabi_f2d
00122a  ec410b10          VMOV     d0,r0,r1              ;1080
00122e  ec532b10          VMOV     r2,r3,d0              ;1080
001232  f6af5138          ADR      r1,|L12.1276|
001236  4668              MOV      r0,sp                 ;1080
001238  f7fffffe          BL       __2sprintf
00123c  490e              LDR      r1,|L12.4728|
00123e  4640              MOV      r0,r8                 ;1081
001240  f7fffffe          BL       TEXT_SetFont
001244  4669              MOV      r1,sp                 ;1082
001246  4640              MOV      r0,r8                 ;1082
001248  e042              B        |L12.4816|
                  |L12.4682|
00124a  e3d4              B        |L12.6646|
                  |L12.4684|
                          DCD      GUI_FontHZ32
                  |L12.4688|
                          DCD      GUI_FontEN40
                  |L12.4692|
001254  00000000          DCFD     0x0000000000000000 ; 0
001258  00000000
                  |L12.4700|
                          DCD      GUI_FontD24x32
                  |L12.4704|
                          DCD      GUI_Fontset_font
                  |L12.4708|
                          DCD      GUI_Font24_1
                  |L12.4712|
                          DCD      temp
                  |L12.4716|
                          DCD      GUI_FontHZ16
                  |L12.4720|
001270  4f43204d          DCB      "OC Mode",0
001274  6f646500
                  |L12.4728|
                          DCD      GUI_Font16_1
                  |L12.4732|
00127c  53746570          DCB      "Step Time",0
001280  2054696d
001284  6500    
001286  00                DCB      0
001287  00                DCB      0
                  |L12.4744|
001288  53746172          DCB      "Start C",0
00128c  74204300
                  |L12.4752|
001290  53746570          DCB      "Step C",0
001294  204300  
001297  00                DCB      0
                  |L12.4760|
001298  54687265          DCB      "Threshold V",0
00129c  73686f6c
0012a0  64205600
                  |L12.4772|
0012a4  43686172          DCB      "Charge V",0
0012a8  67652056
0012ac  00      
0012ad  00                DCB      0
0012ae  00                DCB      0
0012af  00                DCB      0
                  |L12.4784|
0012b0  4c6f6164          DCB      "Load C",0
0012b4  204300  
0012b7  00                DCB      0
                  |L12.4792|
0012b8  43442054          DCB      "CD TEST",0
0012bc  45535400
                  |L12.4800|
                          DCD      0x00bfffff
                  |L12.4804|
                          DCD      InFlashSave
                  |L12.4808|
0012c8  564c00            DCB      "VL",0
0012cb  00                DCB      0
                  |L12.4812|
0012cc  e399              B        |L12.6658|
                  |L12.4814|
0012ce  e3c7              B        |L12.6752|
                  |L12.4816|
0012d0  f7fffffe          BL       TEXT_SetText
0012d4  4649              MOV      r1,r9                 ;1083
0012d6  4640              MOV      r0,r8                 ;1083
0012d8  f7fffffe          BL       TEXT_SetTextColor
0012dc  7830              LDRB     r0,[r6,#0]            ;1086  ; lang
0012de  2800              CMP      r0,#0                 ;1086
0012e0  d07d              BEQ      |L12.5086|
0012e2  f6401106          MOV      r1,#0x906             ;1094
0012e6  6860              LDR      r0,[r4,#4]            ;1094
0012e8  f7fffffe          BL       WM_GetDialogItem
0012ec  4606              MOV      r6,r0                 ;1094
0012ee  f7fffffe          BL       GUI_UC_SetEncodeUTF8
0012f2  f6af1190          ADR      r1,|L12.2404|
0012f6  4630              MOV      r0,r6                 ;1096
0012f8  f7fffffe          BL       TEXT_SetText
0012fc  4649              MOV      r1,r9                 ;1097
0012fe  4630              MOV      r0,r6                 ;1097
001300  f7fffffe          BL       TEXT_SetTextColor
001304  49fe              LDR      r1,|L12.5888|
001306  4630              MOV      r0,r6                 ;1098
001308  f7fffffe          BL       TEXT_SetFont
                  |L12.4876|
00130c  f640016b          MOV      r1,#0x86b             ;1101
001310  6860              LDR      r0,[r4,#4]            ;1101
001312  f7fffffe          BL       WM_GetDialogItem
001316  4606              MOV      r6,r0                 ;1101
001318  ee1a0a10          VMOV     r0,s20                ;1102
00131c  f7fffffe          BL       __aeabi_f2d
001320  ec410b10          VMOV     d0,r0,r1              ;1102
001324  ec532b10          VMOV     r2,r3,d0              ;1102
001328  f6af6130          ADR      r1,|L12.1276|
00132c  4668              MOV      r0,sp                 ;1102
00132e  f7fffffe          BL       __2sprintf
001332  4649              MOV      r1,r9                 ;1103
001334  4630              MOV      r0,r6                 ;1103
001336  f7fffffe          BL       TEXT_SetTextColor
00133a  49f2              LDR      r1,|L12.5892|
00133c  4630              MOV      r0,r6                 ;1104
00133e  f7fffffe          BL       TEXT_SetFont
001342  f7fffffe          BL       GUI_UC_SetEncodeUTF8
001346  4669              MOV      r1,sp                 ;1106
001348  4630              MOV      r0,r6                 ;1106
00134a  f7fffffe          BL       TEXT_SetText
00134e  f640016c          MOV      r1,#0x86c             ;1109
001352  6860              LDR      r0,[r4,#4]            ;1109
001354  f7fffffe          BL       WM_GetDialogItem
001358  4606              MOV      r6,r0                 ;1109
00135a  ee190a90          VMOV     r0,s19                ;1110
00135e  f7fffffe          BL       __aeabi_f2d
001362  ec410b10          VMOV     d0,r0,r1              ;1110
001366  ec532b10          VMOV     r2,r3,d0              ;1110
00136a  f6af6170          ADR      r1,|L12.1276|
00136e  4668              MOV      r0,sp                 ;1110
001370  f7fffffe          BL       __2sprintf
001374  4649              MOV      r1,r9                 ;1111
001376  4630              MOV      r0,r6                 ;1111
001378  f7fffffe          BL       TEXT_SetTextColor
00137c  49e1              LDR      r1,|L12.5892|
00137e  4630              MOV      r0,r6                 ;1112
001380  f7fffffe          BL       TEXT_SetFont
001384  f7fffffe          BL       GUI_UC_SetEncodeUTF8
001388  4669              MOV      r1,sp                 ;1114
00138a  4630              MOV      r0,r6                 ;1114
00138c  f7fffffe          BL       TEXT_SetText
001390  f640018f          MOV      r1,#0x88f             ;1116
001394  6860              LDR      r0,[r4,#4]            ;1116
001396  f7fffffe          BL       WM_GetDialogItem
00139a  4606              MOV      r6,r0                 ;1116
00139c  ec532b18          VMOV     r2,r3,d8              ;1117
0013a0  f6af61a8          ADR      r1,|L12.1276|
0013a4  4668              MOV      r0,sp                 ;1117
0013a6  f7fffffe          BL       __2sprintf
0013aa  4651              MOV      r1,r10                ;1118
0013ac  4630              MOV      r0,r6                 ;1118
0013ae  f7fffffe          BL       TEXT_SetTextColor
0013b2  49d5              LDR      r1,|L12.5896|
0013b4  4630              MOV      r0,r6                 ;1119
0013b6  f7fffffe          BL       TEXT_SetFont
0013ba  f7fffffe          BL       GUI_UC_SetEncodeUTF8
0013be  4669              MOV      r1,sp                 ;1121
0013c0  4630              MOV      r0,r6                 ;1121
0013c2  f7fffffe          BL       TEXT_SetText
0013c6  f44f6109          MOV      r1,#0x890             ;1123
0013ca  6860              LDR      r0,[r4,#4]            ;1123
0013cc  f7fffffe          BL       WM_GetDialogItem
0013d0  4606              MOV      r6,r0                 ;1123
0013d2  ec532b18          VMOV     r2,r3,d8              ;1124
0013d6  f6af61dc          ADR      r1,|L12.1276|
0013da  4668              MOV      r0,sp                 ;1124
0013dc  e000              B        |L12.5088|
                  |L12.5086|
0013de  e354              B        |L12.6794|
                  |L12.5088|
0013e0  f7fffffe          BL       __2sprintf
0013e4  4649              MOV      r1,r9                 ;1125
0013e6  4630              MOV      r0,r6                 ;1125
0013e8  f7fffffe          BL       TEXT_SetTextColor
0013ec  49c5              LDR      r1,|L12.5892|
0013ee  4630              MOV      r0,r6                 ;1126
0013f0  f7fffffe          BL       TEXT_SetFont
0013f4  f7fffffe          BL       GUI_UC_SetEncodeUTF8
0013f8  4669              MOV      r1,sp                 ;1128
0013fa  4630              MOV      r0,r6                 ;1128
0013fc  f7fffffe          BL       TEXT_SetText
001400  f6401135          MOV      r1,#0x935             ;1130
001404  6860              LDR      r0,[r4,#4]            ;1130
001406  f7fffffe          BL       WM_GetDialogItem
00140a  4606              MOV      r6,r0                 ;1130
00140c  ec532b18          VMOV     r2,r3,d8              ;1131
001410  f6af7118          ADR      r1,|L12.1276|
001414  4668              MOV      r0,sp                 ;1131
001416  f7fffffe          BL       __2sprintf
00141a  4649              MOV      r1,r9                 ;1132
00141c  4630              MOV      r0,r6                 ;1132
00141e  f7fffffe          BL       TEXT_SetTextColor
001422  49b8              LDR      r1,|L12.5892|
001424  4630              MOV      r0,r6                 ;1133
001426  f7fffffe          BL       TEXT_SetFont
00142a  f7fffffe          BL       GUI_UC_SetEncodeUTF8
00142e  4669              MOV      r1,sp                 ;1135
001430  4630              MOV      r0,r6                 ;1135
001432  f7fffffe          BL       TEXT_SetText
001436  f6401132          MOV      r1,#0x932             ;1137
00143a  6860              LDR      r0,[r4,#4]            ;1137
00143c  f7fffffe          BL       WM_GetDialogItem
001440  4606              MOV      r6,r0                 ;1137
001442  f8550fa8          LDR      r0,[r5,#0xa8]!        ;1138  ; Run_Control
001446  ee000a10          VMOV     s0,r0                 ;1138
00144a  eef80a40          VCVT.F32.U32 s1,s0                 ;1138
00144e  ed9f1aaf          VLDR     s2,|L12.5900|
001452  ee800a81          VDIV.F32 s0,s1,s2              ;1138
001456  ee100a10          VMOV     r0,s0                 ;1138
00145a  f7fffffe          BL       __aeabi_f2d
00145e  ec410b10          VMOV     d0,r0,r1              ;1138
001462  a1ab              ADR      r1,|L12.5904|
001464  ec532b10          VMOV     r2,r3,d0              ;1138
001468  4668              MOV      r0,sp                 ;1138
00146a  f7fffffe          BL       __2sprintf
00146e  4649              MOV      r1,r9                 ;1139
001470  4630              MOV      r0,r6                 ;1139
001472  f7fffffe          BL       TEXT_SetTextColor
001476  49a3              LDR      r1,|L12.5892|
001478  4630              MOV      r0,r6                 ;1140
00147a  f7fffffe          BL       TEXT_SetFont
00147e  f7fffffe          BL       GUI_UC_SetEncodeUTF8
001482  4669              MOV      r1,sp                 ;1142
001484  4630              MOV      r0,r6                 ;1142
001486  f7fffffe          BL       TEXT_SetText
00148a  f6401133          MOV      r1,#0x933             ;1144
00148e  6860              LDR      r0,[r4,#4]            ;1144
001490  f7fffffe          BL       WM_GetDialogItem
001494  4606              MOV      r6,r0                 ;1144
001496  6868              LDR      r0,[r5,#4]            ;1145  ; Run_Control
001498  ee000a10          VMOV     s0,r0                 ;1145
00149c  eef80a40          VCVT.F32.U32 s1,s0                 ;1145
0014a0  ee800a89          VDIV.F32 s0,s1,s18             ;1145
0014a4  ee100a10          VMOV     r0,s0                 ;1145
0014a8  f7fffffe          BL       __aeabi_f2d
0014ac  ec410b10          VMOV     d0,r0,r1              ;1145
0014b0  ec532b10          VMOV     r2,r3,d0              ;1145
0014b4  f6af71bc          ADR      r1,|L12.1276|
0014b8  4668              MOV      r0,sp                 ;1145
0014ba  f7fffffe          BL       __2sprintf
0014be  4649              MOV      r1,r9                 ;1146
0014c0  4630              MOV      r0,r6                 ;1146
0014c2  f7fffffe          BL       TEXT_SetTextColor
0014c6  498f              LDR      r1,|L12.5892|
0014c8  4630              MOV      r0,r6                 ;1147
0014ca  f7fffffe          BL       TEXT_SetFont
0014ce  f7fffffe          BL       GUI_UC_SetEncodeUTF8
0014d2  4669              MOV      r1,sp                 ;1149
0014d4  4630              MOV      r0,r6                 ;1149
0014d6  f7fffffe          BL       TEXT_SetText
0014da  f6401134          MOV      r1,#0x934             ;1151
0014de  6860              LDR      r0,[r4,#4]            ;1151
0014e0  f7fffffe          BL       WM_GetDialogItem
0014e4  4606              MOV      r6,r0                 ;1151
0014e6  68a8              LDR      r0,[r5,#8]            ;1152  ; Run_Control
0014e8  ee000a10          VMOV     s0,r0                 ;1152
0014ec  eef80a40          VCVT.F32.U32 s1,s0                 ;1152
0014f0  ee800a89          VDIV.F32 s0,s1,s18             ;1152
0014f4  ee100a10          VMOV     r0,s0                 ;1152
0014f8  f7fffffe          BL       __aeabi_f2d
0014fc  ec410b10          VMOV     d0,r0,r1              ;1152
001500  4985              LDR      r1,|L12.5912|
001502  ec532b10          VMOV     r2,r3,d0              ;1152
001506  4668              MOV      r0,sp                 ;1152
001508  f7fffffe          BL       __2sprintf
00150c  4649              MOV      r1,r9                 ;1153
00150e  4630              MOV      r0,r6                 ;1153
001510  f7fffffe          BL       TEXT_SetTextColor
001514  497b              LDR      r1,|L12.5892|
001516  4630              MOV      r0,r6                 ;1154
001518  f7fffffe          BL       TEXT_SetFont
00151c  f7fffffe          BL       GUI_UC_SetEncodeUTF8
001520  4669              MOV      r1,sp                 ;1156
001522  4630              MOV      r0,r6                 ;1156
001524  f7fffffe          BL       TEXT_SetText
001528  f6401107          MOV      r1,#0x907             ;1158
00152c  6860              LDR      r0,[r4,#4]            ;1158
00152e  f7fffffe          BL       WM_GetDialogItem
001532  4605              MOV      r5,r0                 ;1158
001534  8b79              LDRH     r1,[r7,#0x1a]         ;1159  ; short_time
001536  200a              MOVS     r0,#0xa               ;1159
001538  fbb1f2f0          UDIV     r2,r1,r0              ;1159
00153c  f6af31bc          ADR      r1,|L12.2436|
001540  4668              MOV      r0,sp                 ;1159
001542  f7fffffe          BL       __2sprintf
001546  4649              MOV      r1,r9                 ;1160
001548  4628              MOV      r0,r5                 ;1160
00154a  f7fffffe          BL       TEXT_SetTextColor
00154e  496d              LDR      r1,|L12.5892|
001550  4628              MOV      r0,r5                 ;1161
001552  f7fffffe          BL       TEXT_SetFont
001556  f7fffffe          BL       GUI_UC_SetEncodeUTF8
00155a  4669              MOV      r1,sp                 ;1163
00155c  4628              MOV      r0,r5                 ;1163
00155e  f7fffffe          BL       TEXT_SetText
001562  f640110e          MOV      r1,#0x90e             ;1165
001566  6860              LDR      r0,[r4,#4]            ;1165
001568  f7fffffe          BL       WM_GetDialogItem
00156c  4605              MOV      r5,r0                 ;1165
00156e  8a7a              LDRH     r2,[r7,#0x12]         ;1166  ; steptime
001570  f6af31f0          ADR      r1,|L12.2436|
001574  4668              MOV      r0,sp                 ;1166
001576  f7fffffe          BL       __2sprintf
00157a  e000              B        |L12.5502|
                  |L12.5500|
00157c  e02e              B        |L12.5596|
                  |L12.5502|
00157e  4649              MOV      r1,r9                 ;1167
001580  4628              MOV      r0,r5                 ;1167
001582  f7fffffe          BL       TEXT_SetTextColor
001586  495f              LDR      r1,|L12.5892|
001588  4628              MOV      r0,r5                 ;1168
00158a  f7fffffe          BL       TEXT_SetFont
00158e  f7fffffe          BL       GUI_UC_SetEncodeUTF8
001592  4669              MOV      r1,sp                 ;1170
001594  4628              MOV      r0,r5                 ;1170
001596  f7fffffe          BL       TEXT_SetText
00159a  7b78              LDRB     r0,[r7,#0xd]          ;1172  ; oc_mode
00159c  2800              CMP      r0,#0                 ;1172
00159e  d07d              BEQ      |L12.5788|
0015a0  7b78              LDRB     r0,[r7,#0xd]          ;1179  ; oc_mode
0015a2  2801              CMP      r0,#1                 ;1179
0015a4  f47fab3d          BNE      |L12.3106|
0015a8  f6401121          MOV      r1,#0x921             ;1180
0015ac  6860              LDR      r0,[r4,#4]            ;1180
0015ae  f7fffffe          BL       WM_GetDialogItem
0015b2  4604              MOV      r4,r0                 ;1180
0015b4  4649              MOV      r1,r9                 ;1181
0015b6  4620              MOV      r0,r4                 ;1181
0015b8  f7fffffe          BL       TEXT_SetTextColor
0015bc  4951              LDR      r1,|L12.5892|
0015be  4620              MOV      r0,r4                 ;1182
0015c0  f7fffffe          BL       TEXT_SetFont
0015c4  f7fffffe          BL       GUI_UC_SetEncodeUTF8
0015c8  f6af419c          ADR      r1,|L12.2352|
0015cc  4620              MOV      r0,r4                 ;1184
0015ce  f7fffffe          BL       TEXT_SetText
                  |L12.5586|
0015d2  b003              ADD      sp,sp,#0xc
0015d4  ecbd8b06          VPOP     {d8-d10}
0015d8  e8bd8ff0          POP      {r4-r11,pc}
                  |L12.5596|
0015dc  6860              LDR      r0,[r4,#4]            ;710
0015de  f7fffffe          BL       WM_GetDialogItem
0015e2  9002              STR      r0,[sp,#8]            ;710
0015e4  2200              MOVS     r2,#0                 ;711
0015e6  4611              MOV      r1,r2                 ;711
0015e8  9802              LDR      r0,[sp,#8]            ;711
0015ea  f7fffffe          BL       BUTTON_SetTextColor
0015ee  2101              MOVS     r1,#1                 ;712
0015f0  9802              LDR      r0,[sp,#8]            ;712
0015f2  f7fffffe          BL       BUTTON_SetPressed
0015f6  4949              LDR      r1,|L12.5916|
0015f8  9802              LDR      r0,[sp,#8]            ;713
0015fa  f7fffffe          BL       BUTTON_SetFont
0015fe  f7fffffe          BL       GUI_UC_SetEncodeUTF8
001602  a147              ADR      r1,|L12.5920|
001604  9802              LDR      r0,[sp,#8]            ;715
001606  f7fffffe          BL       BUTTON_SetText
00160a  4651              MOV      r1,r10                ;717
00160c  6860              LDR      r0,[r4,#4]            ;717
00160e  f7fffffe          BL       WM_GetDialogItem
001612  4682              MOV      r10,r0                ;717
001614  2200              MOVS     r2,#0                 ;718
001616  4611              MOV      r1,r2                 ;718
001618  4650              MOV      r0,r10                ;718
00161a  f7fffffe          BL       BUTTON_SetTextColor
00161e  493f              LDR      r1,|L12.5916|
001620  4650              MOV      r0,r10                ;719
001622  f7fffffe          BL       BUTTON_SetFont
001626  f7fffffe          BL       GUI_UC_SetEncodeUTF8
00162a  a141              ADR      r1,|L12.5936|
00162c  4650              MOV      r0,r10                ;721
00162e  f7fffffe          BL       BUTTON_SetText
001632  4659              MOV      r1,r11                ;723
001634  6860              LDR      r0,[r4,#4]            ;723
001636  f7fffffe          BL       WM_GetDialogItem
00163a  4682              MOV      r10,r0                ;723
00163c  2200              MOVS     r2,#0                 ;724
00163e  4611              MOV      r1,r2                 ;724
001640  4650              MOV      r0,r10                ;724
001642  f7fffffe          BL       BUTTON_SetTextColor
001646  4935              LDR      r1,|L12.5916|
001648  4650              MOV      r0,r10                ;725
00164a  f7fffffe          BL       BUTTON_SetFont
00164e  f7fffffe          BL       GUI_UC_SetEncodeUTF8
001652  a13b              ADR      r1,|L12.5952|
001654  4650              MOV      r0,r10                ;727
001656  f7fffffe          BL       BUTTON_SetText
00165a  f640011c          MOV      r1,#0x81c             ;729
00165e  6860              LDR      r0,[r4,#4]            ;729
001660  f7fffffe          BL       WM_GetDialogItem
001664  4682              MOV      r10,r0                ;729
001666  2200              MOVS     r2,#0                 ;730
001668  4611              MOV      r1,r2                 ;730
00166a  4650              MOV      r0,r10                ;730
00166c  f7fffffe          BL       BUTTON_SetTextColor
001670  492a              LDR      r1,|L12.5916|
001672  4650              MOV      r0,r10                ;731
001674  f7fffffe          BL       BUTTON_SetFont
001678  f7fffffe          BL       GUI_UC_SetEncodeUTF8
00167c  a134              ADR      r1,|L12.5968|
00167e  4650              MOV      r0,r10                ;733
001680  f7fffffe          BL       BUTTON_SetText
001684  f640011d          MOV      r1,#0x81d             ;737
001688  6860              LDR      r0,[r4,#4]            ;737
00168a  f7fffffe          BL       WM_GetDialogItem
00168e  4682              MOV      r10,r0                ;737
001690  2200              MOVS     r2,#0                 ;738
001692  4611              MOV      r1,r2                 ;738
001694  4650              MOV      r0,r10                ;738
001696  f7fffffe          BL       BUTTON_SetTextColor
00169a  e000              B        |L12.5790|
                  |L12.5788|
00169c  e20b              B        |L12.6838|
                  |L12.5790|
00169e  491f              LDR      r1,|L12.5916|
0016a0  4650              MOV      r0,r10                ;739
0016a2  f7fffffe          BL       BUTTON_SetFont
0016a6  f7fffffe          BL       GUI_UC_SetEncodeUTF8
0016aa  a12c              ADR      r1,|L12.5980|
0016ac  4650              MOV      r0,r10                ;741
0016ae  f7fffffe          BL       BUTTON_SetText
0016b2  f7ffbb4f          B        |L12.3412|
                  |L12.5814|
0016b6  f640110a          MOV      r1,#0x90a             ;839
0016ba  6860              LDR      r0,[r4,#4]            ;839
0016bc  f7fffffe          BL       WM_GetDialogItem
0016c0  4680              MOV      r8,r0                 ;839
0016c2  21ff              MOVS     r1,#0xff              ;840
0016c4  4640              MOV      r0,r8                 ;840
0016c6  f7fffffe          BL       TEXT_SetTextColor
0016ca  4926              LDR      r1,|L12.5988|
0016cc  4640              MOV      r0,r8                 ;841
0016ce  f7fffffe          BL       TEXT_SetFont
0016d2  f7fffffe          BL       GUI_UC_SetEncodeUTF8
0016d6  4910              LDR      r1,|L12.5912|
0016d8  4640              MOV      r0,r8                 ;843
0016da  3924              SUBS     r1,r1,#0x24           ;843
0016dc  f7fffffe          BL       TEXT_SetText
0016e0  f640110b          MOV      r1,#0x90b             ;844
0016e4  6860              LDR      r0,[r4,#4]            ;844
0016e6  f7fffffe          BL       WM_GetDialogItem
0016ea  4680              MOV      r8,r0                 ;844
0016ec  21ff              MOVS     r1,#0xff              ;845
0016ee  4640              MOV      r0,r8                 ;845
0016f0  f7fffffe          BL       TEXT_SetTextColor
0016f4  491b              LDR      r1,|L12.5988|
0016f6  4640              MOV      r0,r8                 ;846
0016f8  f7fffffe          BL       TEXT_SetFont
0016fc  e034              B        |L12.5992|
0016fe  0000              DCW      0x0000
                  |L12.5888|
                          DCD      GUI_Font20_ASCII
                  |L12.5892|
                          DCD      GUI_Font16_1
                  |L12.5896|
                          DCD      GUI_FontD24x32
                  |L12.5900|
00170c  42c80000          DCFS     0x42c80000 ; 100
                  |L12.5904|
001710  252e3266          DCB      "%.2f"
                  |L12.5908|
001714  00                DCB      0
001715  00                DCB      0
001716  00                DCB      0
001717  00                DCB      0
                  |L12.5912|
                          DCD      ||i._cbDialog||+0x4fc
                  |L12.5916|
                          DCD      GUI_FontHZ16
                  |L12.5920|
001720  e58685e9          DCB      229,134,133,233,152,187,230,181,139,232,175,149,0
001724  98bbe6b5
001728  8be8af95
00172c  00      
00172d  00                DCB      0
00172e  00                DCB      0
00172f  00                DCB      0
                  |L12.5936|
001730  e7a88be6          DCB      231,168,139,230,142,167,232,180,159,232,189,189,0
001734  8ea7e8b4
001738  9fe8bdbd
00173c  00      
00173d  00                DCB      0
00173e  00                DCB      0
00173f  00                DCB      0
                  |L12.5952|
001740  e7a88be6          DCB      231,168,139,230,142,167,231,148,181,230,186,144,0
001744  8ea7e794
001748  b5e6ba90
00174c  00      
00174d  00                DCB      0
00174e  00                DCB      0
00174f  00                DCB      0
                  |L12.5968|
001750  e58585e6          DCB      229,133,133,230,148,190,231,148,181,0
001754  94bee794
001758  b500    
00175a  00                DCB      0
00175b  00                DCB      0
                  |L12.5980|
00175c  e69bb2e7          DCB      230,155,178,231,186,191,0
001760  babf00  
001763  00                DCB      0
                  |L12.5988|
                          DCD      GUI_Font24_1
                  |L12.5992|
001768  f7fffffe          BL       GUI_UC_SetEncodeUTF8
00176c  49fe              LDR      r1,|L12.7016|
00176e  4640              MOV      r0,r8                 ;848
001770  f7fffffe          BL       TEXT_SetText
001774  f640110c          MOV      r1,#0x90c             ;850
001778  6860              LDR      r0,[r4,#4]            ;850
00177a  f7fffffe          BL       WM_GetDialogItem
00177e  4680              MOV      r8,r0                 ;850
001780  21ff              MOVS     r1,#0xff              ;851
001782  4640              MOV      r0,r8                 ;851
001784  f7fffffe          BL       TEXT_SetTextColor
001788  49f8              LDR      r1,|L12.7020|
00178a  4640              MOV      r0,r8                 ;852
00178c  f7fffffe          BL       TEXT_SetFont
001790  f7fffffe          BL       GUI_UC_SetEncodeUTF8
001794  f2af0184          ADR      r1,|L12.5908|
001798  4640              MOV      r0,r8                 ;854
00179a  f7fffffe          BL       TEXT_SetText
00179e  f640110d          MOV      r1,#0x90d             ;855
0017a2  6860              LDR      r0,[r4,#4]            ;855
0017a4  f7fffffe          BL       WM_GetDialogItem
0017a8  4680              MOV      r8,r0                 ;855
0017aa  21ff              MOVS     r1,#0xff              ;856
0017ac  4640              MOV      r0,r8                 ;856
0017ae  f7fffffe          BL       TEXT_SetTextColor
0017b2  49ef              LDR      r1,|L12.7024|
0017b4  4640              MOV      r0,r8                 ;857
0017b6  f7fffffe          BL       TEXT_SetFont
0017ba  f7fffffe          BL       GUI_UC_SetEncodeUTF8
0017be  f2af01ac          ADR      r1,|L12.5908|
0017c2  4640              MOV      r0,r8                 ;859
0017c4  f7fffffe          BL       TEXT_SetText
                  |L12.6088|
0017c8  e428              B        |L12.4124|
                  |L12.6090|
0017ca  f640110b          MOV      r1,#0x90b             ;870
0017ce  6860              LDR      r0,[r4,#4]            ;870
0017d0  f7fffffe          BL       WM_GetDialogItem
0017d4  4680              MOV      r8,r0                 ;870
0017d6  21ff              MOVS     r1,#0xff              ;871
0017d8  4640              MOV      r0,r8                 ;871
0017da  f7fffffe          BL       TEXT_SetTextColor
0017de  49e3              LDR      r1,|L12.7020|
0017e0  4640              MOV      r0,r8                 ;872
0017e2  f7fffffe          BL       TEXT_SetFont
0017e6  f7fffffe          BL       GUI_UC_SetEncodeUTF8
0017ea  f6af61d4          ADR      r1,|L12.2328|
0017ee  4640              MOV      r0,r8                 ;874
0017f0  f7fffffe          BL       TEXT_SetText
0017f4  f640110c          MOV      r1,#0x90c             ;876
0017f8  6860              LDR      r0,[r4,#4]            ;876
0017fa  f7fffffe          BL       WM_GetDialogItem
0017fe  4680              MOV      r8,r0                 ;876
001800  21ff              MOVS     r1,#0xff              ;877
001802  4640              MOV      r0,r8                 ;877
001804  f7fffffe          BL       TEXT_SetTextColor
001808  49d8              LDR      r1,|L12.7020|
00180a  4640              MOV      r0,r8                 ;878
00180c  f7fffffe          BL       TEXT_SetFont
001810  f7fffffe          BL       GUI_UC_SetEncodeUTF8
001814  a1d7              ADR      r1,|L12.7028|
001816  4640              MOV      r0,r8                 ;880
001818  f7fffffe          BL       TEXT_SetText
00181c  f640110d          MOV      r1,#0x90d             ;881
001820  6860              LDR      r0,[r4,#4]            ;881
001822  f7fffffe          BL       WM_GetDialogItem
001826  4680              MOV      r8,r0                 ;881
001828  21ff              MOVS     r1,#0xff              ;882
00182a  4640              MOV      r0,r8                 ;882
00182c  f7fffffe          BL       TEXT_SetTextColor
001830  49cf              LDR      r1,|L12.7024|
001832  4640              MOV      r0,r8                 ;883
001834  f7fffffe          BL       TEXT_SetFont
001838  f7fffffe          BL       GUI_UC_SetEncodeUTF8
00183c  a1ce              ADR      r1,|L12.7032|
00183e  4640              MOV      r0,r8                 ;885
001840  f7fffffe          BL       TEXT_SetText
001844  e7c0              B        |L12.6088|
                  |L12.6214|
001846  6860              LDR      r0,[r4,#4]            ;911
001848  f7fffffe          BL       WM_GetDialogItem
00184c  9002              STR      r0,[sp,#8]            ;911
00184e  f7fffffe          BL       GUI_UC_SetEncodeUTF8
001852  a1ca              ADR      r1,|L12.7036|
001854  9802              LDR      r0,[sp,#8]            ;913
001856  f7fffffe          BL       TEXT_SetText
00185a  4649              MOV      r1,r9                 ;914
00185c  9802              LDR      r0,[sp,#8]            ;914
00185e  f7fffffe          BL       TEXT_SetTextColor
001862  49ca              LDR      r1,|L12.7052|
001864  9802              LDR      r0,[sp,#8]            ;915
001866  f7fffffe          BL       TEXT_SetFont
00186a  4641              MOV      r1,r8                 ;917
00186c  6860              LDR      r0,[r4,#4]            ;917
00186e  f7fffffe          BL       WM_GetDialogItem
001872  4680              MOV      r8,r0                 ;917
001874  f7fffffe          BL       GUI_UC_SetEncodeUTF8
001878  a1c5              ADR      r1,|L12.7056|
00187a  4640              MOV      r0,r8                 ;919
00187c  f7fffffe          BL       TEXT_SetText
001880  4649              MOV      r1,r9                 ;920
001882  4640              MOV      r0,r8                 ;920
001884  f7fffffe          BL       TEXT_SetTextColor
001888  49c0              LDR      r1,|L12.7052|
00188a  4640              MOV      r0,r8                 ;921
00188c  f7fffffe          BL       TEXT_SetFont
001890  4659              MOV      r1,r11                ;923
001892  6860              LDR      r0,[r4,#4]            ;923
001894  f7fffffe          BL       WM_GetDialogItem
001898  4680              MOV      r8,r0                 ;923
00189a  f7fffffe          BL       GUI_UC_SetEncodeUTF8
00189e  a1c0              ADR      r1,|L12.7072|
0018a0  4640              MOV      r0,r8                 ;925
0018a2  f7fffffe          BL       TEXT_SetText
0018a6  4649              MOV      r1,r9                 ;926
0018a8  4640              MOV      r0,r8                 ;926
0018aa  f7fffffe          BL       TEXT_SetTextColor
0018ae  49b7              LDR      r1,|L12.7052|
0018b0  4640              MOV      r0,r8                 ;927
0018b2  f7fffffe          BL       TEXT_SetFont
0018b6  f640016a          MOV      r1,#0x86a             ;929
0018ba  6860              LDR      r0,[r4,#4]            ;929
0018bc  f7fffffe          BL       WM_GetDialogItem
0018c0  4680              MOV      r8,r0                 ;929
0018c2  f7fffffe          BL       GUI_UC_SetEncodeUTF8
0018c6  a1ba              ADR      r1,|L12.7088|
0018c8  4640              MOV      r0,r8                 ;931
0018ca  f7fffffe          BL       TEXT_SetText
0018ce  4649              MOV      r1,r9                 ;932
0018d0  4640              MOV      r0,r8                 ;932
0018d2  f7fffffe          BL       TEXT_SetTextColor
0018d6  49ad              LDR      r1,|L12.7052|
0018d8  4640              MOV      r0,r8                 ;933
0018da  f7fffffe          BL       TEXT_SetFont
0018de  f6401108          MOV      r1,#0x908             ;935
0018e2  6860              LDR      r0,[r4,#4]            ;935
0018e4  f7fffffe          BL       WM_GetDialogItem
0018e8  4680              MOV      r8,r0                 ;935
0018ea  f7fffffe          BL       GUI_UC_SetEncodeUTF8
0018ee  a1b4              ADR      r1,|L12.7104|
0018f0  4640              MOV      r0,r8                 ;937
0018f2  f7fffffe          BL       TEXT_SetText
0018f6  4649              MOV      r1,r9                 ;938
0018f8  4640              MOV      r0,r8                 ;938
0018fa  f7fffffe          BL       TEXT_SetTextColor
0018fe  49a3              LDR      r1,|L12.7052|
001900  4640              MOV      r0,r8                 ;939
001902  f7fffffe          BL       TEXT_SetFont
001906  f640112f          MOV      r1,#0x92f             ;941
00190a  6860              LDR      r0,[r4,#4]            ;941
00190c  f7fffffe          BL       WM_GetDialogItem
001910  4680              MOV      r8,r0                 ;941
001912  f7fffffe          BL       GUI_UC_SetEncodeUTF8
001916  a1ae              ADR      r1,|L12.7120|
001918  4640              MOV      r0,r8                 ;943
00191a  f7fffffe          BL       TEXT_SetText
00191e  4649              MOV      r1,r9                 ;944
001920  4640              MOV      r0,r8                 ;944
001922  f7fffffe          BL       TEXT_SetTextColor
001926  4999              LDR      r1,|L12.7052|
001928  4640              MOV      r0,r8                 ;945
00192a  e000              B        |L12.6446|
                  |L12.6444|
00192c  e0d8              B        |L12.6880|
                  |L12.6446|
00192e  f7fffffe          BL       TEXT_SetFont
001932  f44f6113          MOV      r1,#0x930             ;947
001936  6860              LDR      r0,[r4,#4]            ;947
001938  f7fffffe          BL       WM_GetDialogItem
00193c  4680              MOV      r8,r0                 ;947
00193e  f7fffffe          BL       GUI_UC_SetEncodeUTF8
001942  4989              LDR      r1,|L12.7016|
001944  4640              MOV      r0,r8                 ;949
001946  3950              SUBS     r1,r1,#0x50           ;949
001948  f7fffffe          BL       TEXT_SetText
00194c  4649              MOV      r1,r9                 ;950
00194e  4640              MOV      r0,r8                 ;950
001950  f7fffffe          BL       TEXT_SetTextColor
001954  498d              LDR      r1,|L12.7052|
001956  4640              MOV      r0,r8                 ;951
001958  f7fffffe          BL       TEXT_SetFont
00195c  f6401131          MOV      r1,#0x931             ;953
001960  6860              LDR      r0,[r4,#4]            ;953
001962  f7fffffe          BL       WM_GetDialogItem
001966  4680              MOV      r8,r0                 ;953
001968  f7fffffe          BL       GUI_UC_SetEncodeUTF8
00196c  a19c              ADR      r1,|L12.7136|
00196e  4640              MOV      r0,r8                 ;955
001970  f7fffffe          BL       TEXT_SetText
001974  4649              MOV      r1,r9                 ;956
001976  4640              MOV      r0,r8                 ;956
001978  f7fffffe          BL       TEXT_SetTextColor
00197c  4983              LDR      r1,|L12.7052|
00197e  4640              MOV      r0,r8                 ;957
001980  f7fffffe          BL       TEXT_SetFont
001984  f6401136          MOV      r1,#0x936             ;959
001988  6860              LDR      r0,[r4,#4]            ;959
00198a  f7fffffe          BL       WM_GetDialogItem
00198e  4680              MOV      r8,r0                 ;959
001990  f7fffffe          BL       GUI_UC_SetEncodeUTF8
001994  a196              ADR      r1,|L12.7152|
001996  4640              MOV      r0,r8                 ;961
001998  f7fffffe          BL       TEXT_SetText
00199c  4998              LDR      r1,|L12.7168|
00199e  4640              MOV      r0,r8                 ;962
0019a0  f7fffffe          BL       TEXT_SetBkColor
0019a4  2100              MOVS     r1,#0                 ;963
0019a6  4640              MOV      r0,r8                 ;963
0019a8  f7fffffe          BL       TEXT_SetTextColor
0019ac  4977              LDR      r1,|L12.7052|
0019ae  4640              MOV      r0,r8                 ;964
0019b0  f7fffffe          BL       TEXT_SetFont
0019b4  f6401142          MOV      r1,#0x942             ;966
0019b8  6860              LDR      r0,[r4,#4]            ;966
0019ba  f7fffffe          BL       WM_GetDialogItem
0019be  4680              MOV      r8,r0                 ;966
0019c0  f7fffffe          BL       GUI_UC_SetEncodeUTF8
0019c4  488f              LDR      r0,|L12.7172|
0019c6  6e80              LDR      r0,[r0,#0x68]         ;968  ; InFlashSave
0019c8  2801              CMP      r0,#1                 ;968
0019ca  d00e              BEQ      |L12.6634|
0019cc  f6af31c8          ADR      r1,|L12.3592|
0019d0  4640              MOV      r0,r8                 ;972
0019d2  f7fffffe          BL       TEXT_SetText
                  |L12.6614|
0019d6  4649              MOV      r1,r9                 ;974
0019d8  4640              MOV      r0,r8                 ;974
0019da  f7fffffe          BL       TEXT_SetTextColor
0019de  496b              LDR      r1,|L12.7052|
0019e0  4640              MOV      r0,r8                 ;975
0019e2  f7fffffe          BL       TEXT_SetFont
0019e6  f7ffbbfc          B        |L12.4578|
                  |L12.6634|
0019ea  f6af31f0          ADR      r1,|L12.3580|
0019ee  4640              MOV      r0,r8                 ;970
0019f0  f7fffffe          BL       TEXT_SetText
0019f4  e7ef              B        |L12.6614|
                  |L12.6646|
0019f6  a184              ADR      r1,|L12.7176|
0019f8  4640              MOV      r0,r8                 ;1037
0019fa  f7fffffe          BL       TEXT_SetText
0019fe  f7ffbbe8          B        |L12.4562|
                  |L12.6658|
001a02  7bf8              LDRB     r0,[r7,#0xf]          ;1047  ; staticcdc
001a04  2801              CMP      r0,#1                 ;1047
001a06  d015              BEQ      |L12.6708|
001a08  f6401137          MOV      r1,#0x937             ;1055
001a0c  6860              LDR      r0,[r4,#4]            ;1055
001a0e  f7fffffe          BL       WM_GetDialogItem
001a12  4680              MOV      r8,r0                 ;1055
001a14  f7fffffe          BL       GUI_UC_SetEncodeUTF8
001a18  497c              LDR      r1,|L12.7180|
001a1a  4640              MOV      r0,r8                 ;1057
001a1c  f7fffffe          BL       TEXT_SetText
001a20  4649              MOV      r1,r9                 ;1058
001a22  4640              MOV      r0,r8                 ;1058
001a24  f7fffffe          BL       TEXT_SetTextColor
001a28  4958              LDR      r1,|L12.7052|
001a2a  4640              MOV      r0,r8                 ;1059
001a2c  f7fffffe          BL       TEXT_SetFont
                  |L12.6704|
001a30  f7ffbbf2          B        |L12.4632|
                  |L12.6708|
001a34  f6401137          MOV      r1,#0x937             ;1049
001a38  6860              LDR      r0,[r4,#4]            ;1049
001a3a  f7fffffe          BL       WM_GetDialogItem
001a3e  4680              MOV      r8,r0                 ;1049
001a40  f7fffffe          BL       GUI_UC_SetEncodeUTF8
001a44  4971              LDR      r1,|L12.7180|
001a46  4640              MOV      r0,r8                 ;1051
001a48  1f09              SUBS     r1,r1,#4              ;1051
001a4a  f7fffffe          BL       TEXT_SetText
001a4e  4649              MOV      r1,r9                 ;1052
001a50  4640              MOV      r0,r8                 ;1052
001a52  f7fffffe          BL       TEXT_SetTextColor
001a56  494d              LDR      r1,|L12.7052|
001a58  4640              MOV      r0,r8                 ;1053
001a5a  f7fffffe          BL       TEXT_SetFont
001a5e  e7e7              B        |L12.6704|
                  |L12.6752|
001a60  f6401137          MOV      r1,#0x937             ;1064
001a64  6860              LDR      r0,[r4,#4]            ;1064
001a66  f7fffffe          BL       WM_GetDialogItem
001a6a  4680              MOV      r8,r0                 ;1064
001a6c  f7fffffe          BL       GUI_UC_SetEncodeUTF8
001a70  a167              ADR      r1,|L12.7184|
001a72  4640              MOV      r0,r8                 ;1066
001a74  f7fffffe          BL       TEXT_SetText
001a78  4649              MOV      r1,r9                 ;1067
001a7a  4640              MOV      r0,r8                 ;1067
001a7c  f7fffffe          BL       TEXT_SetTextColor
001a80  4964              LDR      r1,|L12.7188|
001a82  4640              MOV      r0,r8                 ;1068
001a84  f7fffffe          BL       TEXT_SetFont
001a88  e7d2              B        |L12.6704|
                  |L12.6794|
001a8a  f6401106          MOV      r1,#0x906             ;1088
001a8e  6860              LDR      r0,[r4,#4]            ;1088
001a90  f7fffffe          BL       WM_GetDialogItem
001a94  4606              MOV      r6,r0                 ;1088
001a96  f7fffffe          BL       GUI_UC_SetEncodeUTF8
001a9a  495c              LDR      r1,|L12.7180|
001a9c  4630              MOV      r0,r6                 ;1090
001a9e  312c              ADDS     r1,r1,#0x2c           ;1090
001aa0  f7fffffe          BL       TEXT_SetText
001aa4  4649              MOV      r1,r9                 ;1091
001aa6  4630              MOV      r0,r6                 ;1091
001aa8  f7fffffe          BL       TEXT_SetTextColor
001aac  495a              LDR      r1,|L12.7192|
001aae  4630              MOV      r0,r6                 ;1092
001ab0  f7fffffe          BL       TEXT_SetFont
001ab4  e42a              B        |L12.4876|
                  |L12.6838|
001ab6  f6401121          MOV      r1,#0x921             ;1174
001aba  6860              LDR      r0,[r4,#4]            ;1174
001abc  f7fffffe          BL       WM_GetDialogItem
001ac0  4604              MOV      r4,r0                 ;1174
001ac2  4649              MOV      r1,r9                 ;1175
001ac4  4620              MOV      r0,r4                 ;1175
001ac6  f7fffffe          BL       TEXT_SetTextColor
001aca  4952              LDR      r1,|L12.7188|
001acc  4620              MOV      r0,r4                 ;1176
001ace  f7fffffe          BL       TEXT_SetFont
001ad2  f7fffffe          BL       GUI_UC_SetEncodeUTF8
001ad6  a151              ADR      r1,|L12.7196|
001ad8  4620              MOV      r0,r4                 ;1178
001ada  f7fffffe          BL       TEXT_SetText
001ade  e578              B        |L12.5586|
                  |L12.6880|
001ae0  6860              LDR      r0,[r4,#4]            ;1193
001ae2  f7fffffe          BL       WM_GetDialogItem
001ae6  4606              MOV      r6,r0                 ;1193
001ae8  a127              ADR      r1,|L12.7048|
001aea  4630              MOV      r0,r6                 ;1194
001aec  f7fffffe          BL       TEXT_SetText
001af0  f06f4570          MVN      r5,#0xf0000000        ;1195
001af4  4629              MOV      r1,r5                 ;1195
001af6  4630              MOV      r0,r6                 ;1195
001af8  f7fffffe          BL       TEXT_SetTextColor
001afc  4641              MOV      r1,r8                 ;1197
001afe  6860              LDR      r0,[r4,#4]            ;1197
001b00  f7fffffe          BL       WM_GetDialogItem
001b04  4606              MOV      r6,r0                 ;1197
001b06  a120              ADR      r1,|L12.7048|
001b08  4630              MOV      r0,r6                 ;1198
001b0a  f7fffffe          BL       TEXT_SetText
001b0e  4629              MOV      r1,r5                 ;1199
001b10  4630              MOV      r0,r6                 ;1199
001b12  f7fffffe          BL       TEXT_SetTextColor
001b16  4659              MOV      r1,r11                ;1201
001b18  6860              LDR      r0,[r4,#4]            ;1201
001b1a  f7fffffe          BL       WM_GetDialogItem
001b1e  4606              MOV      r6,r0                 ;1201
001b20  a119              ADR      r1,|L12.7048|
001b22  4630              MOV      r0,r6                 ;1202
001b24  f7fffffe          BL       TEXT_SetText
001b28  4629              MOV      r1,r5                 ;1203
001b2a  4630              MOV      r0,r6                 ;1203
001b2c  f7fffffe          BL       TEXT_SetTextColor
001b30  f640016a          MOV      r1,#0x86a             ;1206
001b34  6860              LDR      r0,[r4,#4]            ;1206
001b36  f7fffffe          BL       WM_GetDialogItem
001b3a  4606              MOV      r6,r0                 ;1206
001b3c  a112              ADR      r1,|L12.7048|
001b3e  4630              MOV      r0,r6                 ;1207
001b40  f7fffffe          BL       TEXT_SetText
001b44  4629              MOV      r1,r5                 ;1208
001b46  4630              MOV      r0,r6                 ;1208
001b48  f7fffffe          BL       TEXT_SetTextColor
001b4c  f640016b          MOV      r1,#0x86b             ;1210
001b50  6860              LDR      r0,[r4,#4]            ;1210
001b52  f7fffffe          BL       WM_GetDialogItem
001b56  4606              MOV      r6,r0                 ;1210
001b58  a10b              ADR      r1,|L12.7048|
001b5a  4630              MOV      r0,r6                 ;1211
001b5c  f7fffffe          BL       TEXT_SetText
001b60  4629              MOV      r1,r5                 ;1212
001b62  4630              MOV      r0,r6                 ;1212
001b64  e05c              B        |L12.7200|
001b66  0000              DCW      0x0000
                  |L12.7016|
                          DCD      ||i._cbDialog||+0x510
                  |L12.7020|
                          DCD      GUI_Font24_1
                  |L12.7024|
                          DCD      GUI_FontHZ16
                  |L12.7028|
001b74  6d00              DCB      "m",0
001b76  00                DCB      0
001b77  00                DCB      0
                  |L12.7032|
001b78  cea900            DCB      206,169,0
001b7b  00                DCB      0
                  |L12.7036|
001b7c  e8bf87e6          DCB      232,191,135,230,181,129,230,168,161,229,188,143
001b80  b581e6a8
001b84  a1e5bc8f
                  |L12.7048|
001b88  00                DCB      0
001b89  00                DCB      0
001b8a  00                DCB      0
001b8b  00                DCB      0
                  |L12.7052|
                          DCD      GUI_FontHZ14
                  |L12.7056|
001b90  e6ada5e8          DCB      230,173,165,232,191,155,230,151,182,233,151,180,0
001b94  bf9be697
001b98  b6e997b4
001b9c  00      
001b9d  00                DCB      0
001b9e  00                DCB      0
001b9f  00                DCB      0
                  |L12.7072|
001ba0  e8b5b7e5          DCB      232,181,183,229,167,139,231,148,181,230,181,129,0
001ba4  a78be794
001ba8  b5e6b581
001bac  00      
001bad  00                DCB      0
001bae  00                DCB      0
001baf  00                DCB      0
                  |L12.7088|
001bb0  e6ada5e8          DCB      230,173,165,232,191,155,231,148,181,230,181,129,0
001bb4  bf9be794
001bb8  b5e6b581
001bbc  00      
001bbd  00                DCB      0
001bbe  00                DCB      0
001bbf  00                DCB      0
                  |L12.7104|
001bc0  e997a8e6          DCB      233,151,168,230,167,155,231,148,181,229,142,139,0
001bc4  a79be794
001bc8  b5e58e8b
001bcc  00      
001bcd  00                DCB      0
001bce  00                DCB      0
001bcf  00                DCB      0
                  |L12.7120|
001bd0  e58585e7          DCB      229,133,133,231,148,181,231,148,181,229,142,139,0
001bd4  94b5e794
001bd8  b5e58e8b
001bdc  00      
001bdd  00                DCB      0
001bde  00                DCB      0
001bdf  00                DCB      0
                  |L12.7136|
001be0  e8b49fe8          DCB      232,180,159,232,189,189,231,148,181,230,181,129,0
001be4  bdbde794
001be8  b5e6b581
001bec  00      
001bed  00                DCB      0
001bee  00                DCB      0
001bef  00                DCB      0
                  |L12.7152|
001bf0  e58585e6          DCB      229,133,133,230,148,190,230,181,139,232,175,149,0
001bf4  94bee6b5
001bf8  8be8af95
001bfc  00      
001bfd  00                DCB      0
001bfe  00                DCB      0
001bff  00                DCB      0
                  |L12.7168|
                          DCD      0x00bfffff
                  |L12.7172|
                          DCD      InFlashSave
                  |L12.7176|
001c08  564800            DCB      "VH",0
001c0b  00                DCB      0
                  |L12.7180|
                          DCD      ||i._cbDialog||+0x94c
                  |L12.7184|
001c10  4f4e00            DCB      "ON",0
001c13  00                DCB      0
                  |L12.7188|
                          DCD      GUI_Font16_1
                  |L12.7192|
                          DCD      GUI_Fontset_font
                  |L12.7196|
001c1c  434300            DCB      "CC",0
001c1f  00                DCB      0
                  |L12.7200|
001c20  f7fffffe          BL       TEXT_SetTextColor
001c24  f640016c          MOV      r1,#0x86c             ;1214
001c28  6860              LDR      r0,[r4,#4]            ;1214
001c2a  f7fffffe          BL       WM_GetDialogItem
001c2e  4606              MOV      r6,r0                 ;1214
001c30  f2af01ac          ADR      r1,|L12.7048|
001c34  4630              MOV      r0,r6                 ;1215
001c36  f7fffffe          BL       TEXT_SetText
001c3a  4629              MOV      r1,r5                 ;1216
001c3c  4630              MOV      r0,r6                 ;1216
001c3e  f7fffffe          BL       TEXT_SetTextColor
001c42  f6401105          MOV      r1,#0x905             ;1218
001c46  6860              LDR      r0,[r4,#4]            ;1218
001c48  f7fffffe          BL       WM_GetDialogItem
001c4c  4606              MOV      r6,r0                 ;1218
001c4e  f2af01c8          ADR      r1,|L12.7048|
001c52  4630              MOV      r0,r6                 ;1219
001c54  f7fffffe          BL       TEXT_SetText
001c58  4629              MOV      r1,r5                 ;1220
001c5a  4630              MOV      r0,r6                 ;1220
001c5c  f7fffffe          BL       TEXT_SetTextColor
001c60  f6401108          MOV      r1,#0x908             ;1222
001c64  6860              LDR      r0,[r4,#4]            ;1222
001c66  f7fffffe          BL       WM_GetDialogItem
001c6a  4606              MOV      r6,r0                 ;1222
001c6c  f2af01e8          ADR      r1,|L12.7048|
001c70  4630              MOV      r0,r6                 ;1223
001c72  f7fffffe          BL       TEXT_SetText
001c76  4629              MOV      r1,r5                 ;1224
001c78  4630              MOV      r0,r6                 ;1224
001c7a  f7fffffe          BL       TEXT_SetTextColor
001c7e  f6401106          MOV      r1,#0x906             ;1226
001c82  6860              LDR      r0,[r4,#4]            ;1226
001c84  f7fffffe          BL       WM_GetDialogItem
001c88  4606              MOV      r6,r0                 ;1226
001c8a  f2af1104          ADR      r1,|L12.7048|
001c8e  4630              MOV      r0,r6                 ;1227
001c90  f7fffffe          BL       TEXT_SetText
001c94  4629              MOV      r1,r5                 ;1228
001c96  4630              MOV      r0,r6                 ;1228
001c98  f7fffffe          BL       TEXT_SetTextColor
001c9c  f6401107          MOV      r1,#0x907             ;1230
001ca0  6860              LDR      r0,[r4,#4]            ;1230
001ca2  f7fffffe          BL       WM_GetDialogItem
001ca6  4606              MOV      r6,r0                 ;1230
001ca8  f2af1124          ADR      r1,|L12.7048|
001cac  4630              MOV      r0,r6                 ;1231
001cae  f7fffffe          BL       TEXT_SetText
001cb2  4629              MOV      r1,r5                 ;1232
001cb4  4630              MOV      r0,r6                 ;1232
001cb6  f7fffffe          BL       TEXT_SetTextColor
001cba  f640110e          MOV      r1,#0x90e             ;1234
001cbe  6860              LDR      r0,[r4,#4]            ;1234
001cc0  f7fffffe          BL       WM_GetDialogItem
001cc4  4606              MOV      r6,r0                 ;1234
001cc6  f2af1140          ADR      r1,|L12.7048|
001cca  4630              MOV      r0,r6                 ;1235
001ccc  f7fffffe          BL       TEXT_SetText
001cd0  4629              MOV      r1,r5                 ;1236
001cd2  4630              MOV      r0,r6                 ;1236
001cd4  f7fffffe          BL       TEXT_SetTextColor
001cd8  f6401121          MOV      r1,#0x921             ;1238
001cdc  6860              LDR      r0,[r4,#4]            ;1238
001cde  f7fffffe          BL       WM_GetDialogItem
001ce2  4604              MOV      r4,r0                 ;1238
001ce4  f2af1160          ADR      r1,|L12.7048|
001ce8  4620              MOV      r0,r4                 ;1239
001cea  f7fffffe          BL       TEXT_SetText
001cee  4629              MOV      r1,r5                 ;1240
001cf0  4620              MOV      r0,r4                 ;1240
001cf2  f7fffffe          BL       TEXT_SetTextColor
001cf6  e46c              B        |L12.5586|
;;;1256   
                          ENDP


                          AREA ||i.test_r||, CODE, READONLY, ALIGN=2

                  test_r PROC
;;;3255   
;;;3256   void test_r(void)
000000  e92d5ff0          PUSH     {r4-r12,lr}
;;;3257   {
000004  ed2d8b02          VPUSH    {d8}
;;;3258       WM_HWIN hItem;
;;;3259   	u32 rcomp;
;;;3260       if(para_set2 == set_2_off)
000008  4dfe              LDR      r5,|L13.1028|
00000a  78e9              LDRB     r1,[r5,#3]  ; para_set2
;;;3261       {
;;;3262   		if(DISS_Voltage < 0.3)
00000c  4ffe              LDR      r7,|L13.1032|
00000e  4628              MOV      r0,r5                 ;3260
;;;3263   		{
;;;3264   			rcomp = 0;
;;;3265   		}else{
;;;3266   			rcomp = R_VLUE;
;;;3267   		}
;;;3268   		if(rcomp != 0)
;;;3269   		{
;;;3270   			if(rcomp > set_max_r || rcomp < set_min_r || DISS_Voltage*1000 > set_max_v || DISS_Voltage*1000 < set_min_v)
;;;3271   			{
;;;3272   				if(para_set4 == set_4_on){
;;;3273   					BEEP_Tiggr();
;;;3274   				}
;;;3275   				TM1650_SET_LED(0x68,0x70);//FAIL灯
;;;3276   				GPIO_SetBits(GPIOD,GPIO_Pin_12);//
000010  f44f5880          MOV      r8,#0x1000
;;;3277   				if(R_VLUE > set_max_r || R_VLUE < set_min_r)
;;;3278   				{
;;;3279   					hItem = WM_GetDialogItem(hWinR, ID_TEXT_81);
000014  6a00              LDR      r0,[r0,#0x20]
000016  edd70a00          VLDR     s1,[r7,#0]            ;3262
00001a  ed9f8afc          VLDR     s16,|L13.1036|
00001e  4efc              LDR      r6,|L13.1040|
;;;3280   					TEXT_SetTextColor(hItem, GUI_RED);
;;;3281   				}else{
;;;3282   					hItem = WM_GetDialogItem(hWinR, ID_TEXT_81);
;;;3283   					TEXT_SetTextColor(hItem, GUI_GREEN);
000020  f44f447f          MOV      r4,#0xff00
000024  ee200a88          VMUL.F32 s0,s1,s16             ;3270
000028  2900              CMP      r1,#0                 ;3260
00002a  d073              BEQ      |L13.276|
;;;3284   				}
;;;3285   				if(DISS_Voltage*1000 > set_max_v || DISS_Voltage*1000 < set_min_v){
;;;3286   					hItem = WM_GetDialogItem(hWinR, ID_TEXT_80);
;;;3287   					TEXT_SetTextColor(hItem, GUI_RED);
;;;3288   				}else{
;;;3289   					hItem = WM_GetDialogItem(hWinR, ID_TEXT_80);
;;;3290   					TEXT_SetTextColor(hItem, GUI_GREEN);
;;;3291   				}
;;;3292   			}else{
;;;3293   				hItem = WM_GetDialogItem(hWinR, ID_TEXT_80);
;;;3294   				TEXT_SetTextColor(hItem, GUI_GREEN);
;;;3295   				hItem = WM_GetDialogItem(hWinR, ID_TEXT_81);
;;;3296   				TEXT_SetTextColor(hItem, GUI_GREEN);
;;;3297   				
;;;3298   				GPIO_ResetBits(GPIOD,GPIO_Pin_12);
;;;3299   				TM1650_SET_LED(0x48,0x71);
;;;3300   				TM1650_SET_LED(0x68,0xF2);//PASS灯
;;;3301   			}
;;;3302   		}else{
;;;3303   			hItem = WM_GetDialogItem(hWinR, ID_TEXT_80);
;;;3304   			TEXT_SetTextColor(hItem, GUI_GREEN);
;;;3305   			hItem = WM_GetDialogItem(hWinR, ID_TEXT_81);
;;;3306   			TEXT_SetTextColor(hItem, GUI_GREEN);
;;;3307   			
;;;3308   			TM1650_SET_LED(0x68,0x70);
;;;3309   			GPIO_ResetBits(GPIOD,GPIO_Pin_12);//灭灯
;;;3310   		}
;;;3311       }else{
;;;3312           if(finish == 0)
00002c  7a29              LDRB     r1,[r5,#8]  ; finish
00002e  2900              CMP      r1,#0
000030  d06f              BEQ      |L13.274|
;;;3313           {
;;;3314               if(r > set_max_r || r < set_min_r || DISS_Voltage*1000 > set_max_v || DISS_Voltage*1000 < set_min_v)
;;;3315               {
;;;3316                   if(para_set4 == set_4_on){
;;;3317                       BEEP_Tiggr();
;;;3318                   }
;;;3319                   TM1650_SET_LED(0x68,0x70);//FAIL灯
;;;3320                   GPIO_SetBits(GPIOD,GPIO_Pin_12);//
;;;3321                   if(r > set_max_r || r < set_min_r)
;;;3322                   {
;;;3323                       hItem = WM_GetDialogItem(hWinR, ID_TEXT_81);
;;;3324                       TEXT_SetTextColor(hItem, GUI_RED);
;;;3325                   }else{
;;;3326                       hItem = WM_GetDialogItem(hWinR, ID_TEXT_81);
;;;3327                       TEXT_SetTextColor(hItem, GUI_GREEN);
;;;3328                   }
;;;3329                   if(DISS_Voltage*1000 > set_max_v || DISS_Voltage*1000 < set_min_v){
;;;3330                       hItem = WM_GetDialogItem(hWinR, ID_TEXT_80);
;;;3331                       TEXT_SetTextColor(hItem, GUI_RED);
;;;3332                   }else{
;;;3333                       hItem = WM_GetDialogItem(hWinR, ID_TEXT_80);
;;;3334                       TEXT_SetTextColor(hItem, GUI_GREEN);
;;;3335                   }
;;;3336               }else{
;;;3337                   hItem = WM_GetDialogItem(hWinR, ID_TEXT_80);
;;;3338                   TEXT_SetTextColor(hItem, GUI_GREEN);
;;;3339                   hItem = WM_GetDialogItem(hWinR, ID_TEXT_81);
;;;3340                   TEXT_SetTextColor(hItem, GUI_GREEN);
;;;3341                   
;;;3342                   GPIO_ResetBits(GPIOD,GPIO_Pin_12);
;;;3343                   TM1650_SET_LED(0x48,0x71);
;;;3344                   TM1650_SET_LED(0x68,0xF2);//PASS灯
;;;3345               }
;;;3346           }else{
;;;3347               if(r > set_max_r || r < set_min_r || v*1000 > set_max_v || v*1000 < set_min_v || oc_data*1000 > set_max_c || oc_data*1000 < set_min_c || static_lv*1000 > set_max_lv || static_lv*1000 < set_min_lv || static_pc*1000 > set_max_pc || static_pc*1000 < set_min_pc)
000032  6c31              LDR      r1,[r6,#0x40]  ; Run_Control
000034  8b2a              LDRH     r2,[r5,#0x18]  ; r
000036  4ff7              LDR      r7,|L13.1044|
;;;3348               {
;;;3349                   if(para_set4 == set_4_on){
;;;3350                       BEEP_Tiggr();
;;;3351                   }
;;;3352                   TM1650_SET_LED(0x68,0x70);//FAIL灯
;;;3353                   GPIO_SetBits(GPIOD,GPIO_Pin_12);//
;;;3354                   if(r > set_max_r || r < set_min_r)
;;;3355                   {
;;;3356                       hItem = WM_GetDialogItem(hWinR, ID_TEXT_81);
;;;3357                       TEXT_SetTextColor(hItem, GUI_RED);
;;;3358                   }else{
;;;3359                       hItem = WM_GetDialogItem(hWinR, ID_TEXT_81);
;;;3360                       TEXT_SetTextColor(hItem, GUI_GREEN);
;;;3361                   }
;;;3362                   if(v*1000 > set_max_v || v*1000 < set_min_v){
;;;3363                       hItem = WM_GetDialogItem(hWinR, ID_TEXT_80);
;;;3364                       TEXT_SetTextColor(hItem, GUI_RED);
;;;3365                   }else{
;;;3366                       hItem = WM_GetDialogItem(hWinR, ID_TEXT_80);
;;;3367                       TEXT_SetTextColor(hItem, GUI_GREEN);
;;;3368                   }
;;;3369                   if(oc_data*1000 > set_max_c || oc_data*1000 < set_min_c){
;;;3370                       hItem = WM_GetDialogItem(hWinR, ID_TEXT_82);
000038  f640098f          MOV      r9,#0x88f
;;;3371                       TEXT_SetTextColor(hItem, GUI_RED);
;;;3372                   }else{
;;;3373                       hItem = WM_GetDialogItem(hWinR, ID_TEXT_82);
;;;3374                       TEXT_SetTextColor(hItem, GUI_GREEN);
;;;3375                   }
;;;3376   				
;;;3377   				if(static_lv*1000 > set_max_lv || static_lv*1000 < set_min_lv)
;;;3378   				{
;;;3379   					hItem = WM_GetDialogItem(hWinR, ID_TEXT_83);
00003c  f44f6a09          MOV      r10,#0x890
;;;3380                       TEXT_SetTextColor(hItem, GUI_RED);
;;;3381   				}else{
;;;3382   					hItem = WM_GetDialogItem(hWinR, ID_TEXT_83);
;;;3383                       TEXT_SetTextColor(hItem, GUI_GREEN);
;;;3384   				}
;;;3385   				
;;;3386   				if(static_pc*1000 > set_max_pc || static_pc*1000 < set_min_pc)
;;;3387   				{
;;;3388   					hItem = WM_GetDialogItem(hWinR, ID_TEXT_151);
000040  f6401b35          MOV      r11,#0x935
000044  4291              CMP      r1,r2                 ;3347
000046  d35f              BCC      |L13.264|
000048  6c71              LDR      r1,[r6,#0x44]         ;3347  ; Run_Control
00004a  8b2a              LDRH     r2,[r5,#0x18]         ;3347  ; r
00004c  4291              CMP      r1,r2                 ;3347
00004e  d85b              BHI      |L13.264|
000050  ed950a0c          VLDR     s0,[r5,#0x30]         ;3347
000054  6bb1              LDR      r1,[r6,#0x38]         ;3347  ; Run_Control
000056  ee200a08          VMUL.F32 s0,s0,s16             ;3347
00005a  ee001a90          VMOV     s1,r1                 ;3347
00005e  eef80a60          VCVT.F32.U32 s1,s1                 ;3347
000062  eeb40ae0          VCMPE.F32 s0,s1                 ;3347
000066  eef1fa10          VMRS     APSR_nzcv,FPSCR       ;3347
00006a  dc4d              BGT      |L13.264|
00006c  6bf1              LDR      r1,[r6,#0x3c]         ;3347  ; Run_Control
00006e  ee001a90          VMOV     s1,r1                 ;3347
000072  eef80a60          VCVT.F32.U32 s1,s1                 ;3347
000076  eeb40ae0          VCMPE.F32 s0,s1                 ;3347
00007a  eef1fa10          VMRS     APSR_nzcv,FPSCR       ;3347
00007e  d343              BCC      |L13.264|
000080  ed950a0b          VLDR     s0,[r5,#0x2c]         ;3347
000084  6cb1              LDR      r1,[r6,#0x48]         ;3347  ; Run_Control
000086  ee200a08          VMUL.F32 s0,s0,s16             ;3347
00008a  ee001a90          VMOV     s1,r1                 ;3347
00008e  eef80a60          VCVT.F32.U32 s1,s1                 ;3347
000092  eeb40ae0          VCMPE.F32 s0,s1                 ;3347
000096  eef1fa10          VMRS     APSR_nzcv,FPSCR       ;3347
00009a  dc35              BGT      |L13.264|
00009c  6cf1              LDR      r1,[r6,#0x4c]         ;3347  ; Run_Control
00009e  ee001a90          VMOV     s1,r1                 ;3347
0000a2  eef80a60          VCVT.F32.U32 s1,s1                 ;3347
0000a6  eeb40ae0          VCMPE.F32 s0,s1                 ;3347
0000aa  eef1fa10          VMRS     APSR_nzcv,FPSCR       ;3347
0000ae  d32b              BCC      |L13.264|
0000b0  ed950a0a          VLDR     s0,[r5,#0x28]         ;3347
0000b4  edd70a00          VLDR     s1,[r7,#0]            ;3347
0000b8  ee200a08          VMUL.F32 s0,s0,s16             ;3347
0000bc  eef80ae0          VCVT.F32.S32 s1,s1                 ;3347
0000c0  eeb40ae0          VCMPE.F32 s0,s1                 ;3347
0000c4  eef1fa10          VMRS     APSR_nzcv,FPSCR       ;3347
0000c8  dc1e              BGT      |L13.264|
0000ca  edd70a01          VLDR     s1,[r7,#4]            ;3347
0000ce  eef80ae0          VCVT.F32.S32 s1,s1                 ;3347
0000d2  eeb40ae0          VCMPE.F32 s0,s1                 ;3347
0000d6  eef1fa10          VMRS     APSR_nzcv,FPSCR       ;3347
0000da  d315              BCC      |L13.264|
0000dc  ed950a09          VLDR     s0,[r5,#0x24]         ;3347
0000e0  edd70a02          VLDR     s1,[r7,#8]            ;3347
0000e4  ee200a08          VMUL.F32 s0,s0,s16             ;3347
0000e8  eef80ae0          VCVT.F32.S32 s1,s1                 ;3347
0000ec  eeb40ae0          VCMPE.F32 s0,s1                 ;3347
0000f0  eef1fa10          VMRS     APSR_nzcv,FPSCR       ;3347
0000f4  dc08              BGT      |L13.264|
0000f6  edd70a03          VLDR     s1,[r7,#0xc]          ;3347
0000fa  eef80ae0          VCVT.F32.S32 s1,s1                 ;3347
0000fe  eeb40ae0          VCMPE.F32 s0,s1                 ;3347
000102  eef1fa10          VMRS     APSR_nzcv,FPSCR       ;3347
000106  d27c              BCS      |L13.514|
                  |L13.264|
000108  7928              LDRB     r0,[r5,#4]            ;3349  ; para_set4
00010a  28ff              CMP      r0,#0xff              ;3349
00010c  d07a              BEQ      |L13.516|
00010e  e14c              B        |L13.938|
000110  e000              B        |L13.276|
                  |L13.274|
000112  e0b7              B        |L13.644|
                  |L13.276|
000114  ee101a90          VMOV     r1,s1                 ;3262
000118  4abf              LDR      r2,|L13.1048|
00011a  4291              CMP      r1,r2                 ;3262
00011c  da01              BGE      |L13.290|
00011e  2200              MOVS     r2,#0                 ;3264
000120  e000              B        |L13.292|
                  |L13.290|
000122  6b72              LDR      r2,[r6,#0x34]         ;3266  ; Run_Control
                  |L13.292|
000124  2a00              CMP      r2,#0                 ;3268
000126  d06e              BEQ      |L13.518|
000128  6c31              LDR      r1,[r6,#0x40]         ;3270  ; Run_Control
00012a  4291              CMP      r1,r2                 ;3270
00012c  d316              BCC      |L13.348|
00012e  6c71              LDR      r1,[r6,#0x44]         ;3270  ; Run_Control
000130  4291              CMP      r1,r2                 ;3270
000132  d813              BHI      |L13.348|
000134  6bb1              LDR      r1,[r6,#0x38]         ;3270  ; Run_Control
000136  ee001a90          VMOV     s1,r1                 ;3270
00013a  eef80a60          VCVT.F32.U32 s1,s1                 ;3270
00013e  eeb40ae0          VCMPE.F32 s0,s1                 ;3270
000142  eef1fa10          VMRS     APSR_nzcv,FPSCR       ;3270
000146  dc09              BGT      |L13.348|
000148  6bf1              LDR      r1,[r6,#0x3c]         ;3270  ; Run_Control
00014a  ee001a90          VMOV     s1,r1                 ;3270
00014e  eef80a60          VCVT.F32.U32 s1,s1                 ;3270
000152  eeb40ae0          VCMPE.F32 s0,s1                 ;3270
000156  eef1fa10          VMRS     APSR_nzcv,FPSCR       ;3270
00015a  d259              BCS      |L13.528|
                  |L13.348|
00015c  7928              LDRB     r0,[r5,#4]            ;3272  ; para_set4
00015e  28ff              CMP      r0,#0xff              ;3272
000160  d101              BNE      |L13.358|
000162  f7fffffe          BL       BEEP_Tiggr
                  |L13.358|
000166  2170              MOVS     r1,#0x70              ;3275
000168  2068              MOVS     r0,#0x68              ;3275
00016a  f7fffffe          BL       TM1650_SET_LED
00016e  4641              MOV      r1,r8                 ;3276
000170  48aa              LDR      r0,|L13.1052|
000172  f7fffffe          BL       GPIO_SetBits
000176  6b70              LDR      r0,[r6,#0x34]         ;3277  ; Run_Control
000178  6c31              LDR      r1,[r6,#0x40]         ;3277  ; Run_Control
00017a  4288              CMP      r0,r1                 ;3277
00017c  d803              BHI      |L13.390|
00017e  6b70              LDR      r0,[r6,#0x34]         ;3277  ; Run_Control
000180  6c71              LDR      r1,[r6,#0x44]         ;3277  ; Run_Control
000182  4288              CMP      r0,r1                 ;3277
000184  d208              BCS      |L13.408|
                  |L13.390|
000186  f640018e          MOV      r1,#0x88e             ;3279
00018a  6a28              LDR      r0,[r5,#0x20]         ;3279  ; hWinR
00018c  f7fffffe          BL       WM_GetDialogItem
000190  21ff              MOVS     r1,#0xff              ;3280
000192  f7fffffe          BL       TEXT_SetTextColor
000196  e007              B        |L13.424|
                  |L13.408|
000198  f640018e          MOV      r1,#0x88e             ;3282
00019c  6a28              LDR      r0,[r5,#0x20]         ;3282  ; hWinR
00019e  f7fffffe          BL       WM_GetDialogItem
0001a2  4621              MOV      r1,r4                 ;3283
0001a4  f7fffffe          BL       TEXT_SetTextColor
                  |L13.424|
0001a8  ed970a00          VLDR     s0,[r7,#0]            ;3285
0001ac  6bb0              LDR      r0,[r6,#0x38]         ;3285  ; Run_Control
0001ae  ee200a08          VMUL.F32 s0,s0,s16             ;3285
0001b2  ee000a90          VMOV     s1,r0                 ;3285
0001b6  eef80a60          VCVT.F32.U32 s1,s1                 ;3285
0001ba  eeb40ae0          VCMPE.F32 s0,s1                 ;3285
0001be  eef1fa10          VMRS     APSR_nzcv,FPSCR       ;3285
0001c2  dc09              BGT      |L13.472|
0001c4  6bf0              LDR      r0,[r6,#0x3c]         ;3285  ; Run_Control
0001c6  ee000a90          VMOV     s1,r0                 ;3285
0001ca  eef80a60          VCVT.F32.U32 s1,s1                 ;3285
0001ce  eeb40ae0          VCMPE.F32 s0,s1                 ;3285
0001d2  eef1fa10          VMRS     APSR_nzcv,FPSCR       ;3285
0001d6  d20b              BCS      |L13.496|
                  |L13.472|
0001d8  f640018d          MOV      r1,#0x88d             ;3286
0001dc  6a28              LDR      r0,[r5,#0x20]         ;3286  ; hWinR
0001de  f7fffffe          BL       WM_GetDialogItem
0001e2  ecbd8b02          VPOP     {d8}                  ;3287
0001e6  21ff              MOVS     r1,#0xff              ;3287
0001e8  e8bd5ff0          POP      {r4-r12,lr}           ;3287
0001ec  f7ffbffe          B.W      TEXT_SetTextColor
                  |L13.496|
0001f0  f640018d          MOV      r1,#0x88d             ;3289
0001f4  6a28              LDR      r0,[r5,#0x20]         ;3289  ; hWinR
0001f6  f7fffffe          BL       WM_GetDialogItem
0001fa  4621              MOV      r1,r4                 ;3290
0001fc  ecbd8b02          VPOP     {d8}                  ;3290
000200  e002              B        |L13.520|
                  |L13.514|
000202  e1a3              B        |L13.1356|
                  |L13.516|
000204  e0cf              B        |L13.934|
                  |L13.518|
000206  e022              B        |L13.590|
                  |L13.520|
000208  e8bd5ff0          POP      {r4-r12,lr}           ;3290
00020c  f7ffbffe          B.W      TEXT_SetTextColor
                  |L13.528|
000210  f640018d          MOV      r1,#0x88d             ;3293
000214  f7fffffe          BL       WM_GetDialogItem
000218  4621              MOV      r1,r4                 ;3294
00021a  f7fffffe          BL       TEXT_SetTextColor
00021e  f640018e          MOV      r1,#0x88e             ;3295
000222  6a28              LDR      r0,[r5,#0x20]         ;3295  ; hWinR
000224  f7fffffe          BL       WM_GetDialogItem
000228  4621              MOV      r1,r4                 ;3296
00022a  f7fffffe          BL       TEXT_SetTextColor
00022e  4641              MOV      r1,r8                 ;3298
000230  487a              LDR      r0,|L13.1052|
000232  f7fffffe          BL       GPIO_ResetBits
000236  2171              MOVS     r1,#0x71              ;3299
000238  2048              MOVS     r0,#0x48              ;3299
00023a  f7fffffe          BL       TM1650_SET_LED
00023e  ecbd8b02          VPOP     {d8}                  ;3300
000242  21f2              MOVS     r1,#0xf2              ;3300
000244  e8bd5ff0          POP      {r4-r12,lr}           ;3300
000248  2068              MOVS     r0,#0x68              ;3300
00024a  f7ffbffe          B.W      TM1650_SET_LED
                  |L13.590|
00024e  f640018d          MOV      r1,#0x88d             ;3303
000252  f7fffffe          BL       WM_GetDialogItem
000256  4621              MOV      r1,r4                 ;3304
000258  f7fffffe          BL       TEXT_SetTextColor
00025c  f640018e          MOV      r1,#0x88e             ;3305
000260  6a28              LDR      r0,[r5,#0x20]         ;3305  ; hWinR
000262  f7fffffe          BL       WM_GetDialogItem
000266  4621              MOV      r1,r4                 ;3306
000268  f7fffffe          BL       TEXT_SetTextColor
00026c  2170              MOVS     r1,#0x70              ;3308
00026e  2068              MOVS     r0,#0x68              ;3308
000270  f7fffffe          BL       TM1650_SET_LED
000274  ecbd8b02          VPOP     {d8}                  ;3309
000278  4641              MOV      r1,r8                 ;3309
00027a  e8bd5ff0          POP      {r4-r12,lr}           ;3309
00027e  4867              LDR      r0,|L13.1052|
000280  f7ffbffe          B.W      GPIO_ResetBits
                  |L13.644|
000284  6c31              LDR      r1,[r6,#0x40]         ;3314  ; Run_Control
000286  8b2a              LDRH     r2,[r5,#0x18]         ;3314  ; r
000288  4291              CMP      r1,r2                 ;3314
00028a  d317              BCC      |L13.700|
00028c  6c71              LDR      r1,[r6,#0x44]         ;3314  ; Run_Control
00028e  8b2a              LDRH     r2,[r5,#0x18]         ;3314  ; r
000290  4291              CMP      r1,r2                 ;3314
000292  d813              BHI      |L13.700|
000294  6bb1              LDR      r1,[r6,#0x38]         ;3314  ; Run_Control
000296  ee001a90          VMOV     s1,r1                 ;3314
00029a  eef80a60          VCVT.F32.U32 s1,s1                 ;3314
00029e  eeb40ae0          VCMPE.F32 s0,s1                 ;3314
0002a2  eef1fa10          VMRS     APSR_nzcv,FPSCR       ;3314
0002a6  dc09              BGT      |L13.700|
0002a8  6bf1              LDR      r1,[r6,#0x3c]         ;3314  ; Run_Control
0002aa  ee001a90          VMOV     s1,r1                 ;3314
0002ae  eef80a60          VCVT.F32.U32 s1,s1                 ;3314
0002b2  eeb40ae0          VCMPE.F32 s0,s1                 ;3314
0002b6  eef1fa10          VMRS     APSR_nzcv,FPSCR       ;3314
0002ba  d255              BCS      |L13.872|
                  |L13.700|
0002bc  7928              LDRB     r0,[r5,#4]            ;3316  ; para_set4
0002be  28ff              CMP      r0,#0xff              ;3316
0002c0  d101              BNE      |L13.710|
0002c2  f7fffffe          BL       BEEP_Tiggr
                  |L13.710|
0002c6  2170              MOVS     r1,#0x70              ;3319
0002c8  2068              MOVS     r0,#0x68              ;3319
0002ca  f7fffffe          BL       TM1650_SET_LED
0002ce  4641              MOV      r1,r8                 ;3320
0002d0  4852              LDR      r0,|L13.1052|
0002d2  f7fffffe          BL       GPIO_SetBits
0002d6  6c30              LDR      r0,[r6,#0x40]         ;3321  ; Run_Control
0002d8  8b29              LDRH     r1,[r5,#0x18]         ;3321  ; r
0002da  4288              CMP      r0,r1                 ;3321
0002dc  d303              BCC      |L13.742|
0002de  6c70              LDR      r0,[r6,#0x44]         ;3321  ; Run_Control
0002e0  8b29              LDRH     r1,[r5,#0x18]         ;3321  ; r
0002e2  4288              CMP      r0,r1                 ;3321
0002e4  d908              BLS      |L13.760|
                  |L13.742|
0002e6  f640018e          MOV      r1,#0x88e             ;3323
0002ea  6a28              LDR      r0,[r5,#0x20]         ;3323  ; hWinR
0002ec  f7fffffe          BL       WM_GetDialogItem
0002f0  21ff              MOVS     r1,#0xff              ;3324
0002f2  f7fffffe          BL       TEXT_SetTextColor
0002f6  e007              B        |L13.776|
                  |L13.760|
0002f8  f640018e          MOV      r1,#0x88e             ;3326
0002fc  6a28              LDR      r0,[r5,#0x20]         ;3326  ; hWinR
0002fe  f7fffffe          BL       WM_GetDialogItem
000302  4621              MOV      r1,r4                 ;3327
000304  f7fffffe          BL       TEXT_SetTextColor
                  |L13.776|
000308  ed970a00          VLDR     s0,[r7,#0]            ;3329
00030c  6bb0              LDR      r0,[r6,#0x38]         ;3329  ; Run_Control
00030e  ee200a08          VMUL.F32 s0,s0,s16             ;3329
000312  ee000a90          VMOV     s1,r0                 ;3329
000316  eef80a60          VCVT.F32.U32 s1,s1                 ;3329
00031a  eeb40ae0          VCMPE.F32 s0,s1                 ;3329
00031e  eef1fa10          VMRS     APSR_nzcv,FPSCR       ;3329
000322  dc09              BGT      |L13.824|
000324  6bf0              LDR      r0,[r6,#0x3c]         ;3329  ; Run_Control
000326  ee000a90          VMOV     s1,r0                 ;3329
00032a  eef80a60          VCVT.F32.U32 s1,s1                 ;3329
00032e  eeb40ae0          VCMPE.F32 s0,s1                 ;3329
000332  eef1fa10          VMRS     APSR_nzcv,FPSCR       ;3329
000336  d20b              BCS      |L13.848|
                  |L13.824|
000338  f640018d          MOV      r1,#0x88d             ;3330
00033c  6a28              LDR      r0,[r5,#0x20]         ;3330  ; hWinR
00033e  f7fffffe          BL       WM_GetDialogItem
000342  ecbd8b02          VPOP     {d8}                  ;3331
000346  21ff              MOVS     r1,#0xff              ;3331
000348  e8bd5ff0          POP      {r4-r12,lr}           ;3331
00034c  f7ffbffe          B.W      TEXT_SetTextColor
                  |L13.848|
000350  f640018d          MOV      r1,#0x88d             ;3333
000354  6a28              LDR      r0,[r5,#0x20]         ;3333  ; hWinR
000356  f7fffffe          BL       WM_GetDialogItem
00035a  ecbd8b02          VPOP     {d8}                  ;3334
00035e  4621              MOV      r1,r4                 ;3334
000360  e8bd5ff0          POP      {r4-r12,lr}           ;3334
000364  f7ffbffe          B.W      TEXT_SetTextColor
                  |L13.872|
000368  f640018d          MOV      r1,#0x88d             ;3337
00036c  f7fffffe          BL       WM_GetDialogItem
000370  4621              MOV      r1,r4                 ;3338
000372  f7fffffe          BL       TEXT_SetTextColor
000376  f640018e          MOV      r1,#0x88e             ;3339
00037a  6a28              LDR      r0,[r5,#0x20]         ;3339  ; hWinR
00037c  f7fffffe          BL       WM_GetDialogItem
000380  4621              MOV      r1,r4                 ;3340
000382  f7fffffe          BL       TEXT_SetTextColor
000386  4641              MOV      r1,r8                 ;3342
000388  4824              LDR      r0,|L13.1052|
00038a  f7fffffe          BL       GPIO_ResetBits
00038e  2171              MOVS     r1,#0x71              ;3343
000390  2048              MOVS     r0,#0x48              ;3343
000392  f7fffffe          BL       TM1650_SET_LED
000396  ecbd8b02          VPOP     {d8}                  ;3344
00039a  21f2              MOVS     r1,#0xf2              ;3344
00039c  e8bd5ff0          POP      {r4-r12,lr}           ;3344
0003a0  2068              MOVS     r0,#0x68              ;3344
0003a2  f7ffbffe          B.W      TM1650_SET_LED
                  |L13.934|
0003a6  f7fffffe          BL       BEEP_Tiggr
                  |L13.938|
0003aa  2170              MOVS     r1,#0x70              ;3352
0003ac  2068              MOVS     r0,#0x68              ;3352
0003ae  f7fffffe          BL       TM1650_SET_LED
0003b2  4641              MOV      r1,r8                 ;3353
0003b4  4819              LDR      r0,|L13.1052|
0003b6  f7fffffe          BL       GPIO_SetBits
0003ba  6c30              LDR      r0,[r6,#0x40]         ;3354  ; Run_Control
0003bc  8b29              LDRH     r1,[r5,#0x18]         ;3354  ; r
0003be  4288              CMP      r0,r1                 ;3354
0003c0  d303              BCC      |L13.970|
0003c2  6c70              LDR      r0,[r6,#0x44]         ;3354  ; Run_Control
0003c4  8b29              LDRH     r1,[r5,#0x18]         ;3354  ; r
0003c6  4288              CMP      r0,r1                 ;3354
0003c8  d908              BLS      |L13.988|
                  |L13.970|
0003ca  f640018e          MOV      r1,#0x88e             ;3356
0003ce  6a28              LDR      r0,[r5,#0x20]         ;3356  ; hWinR
0003d0  f7fffffe          BL       WM_GetDialogItem
0003d4  21ff              MOVS     r1,#0xff              ;3357
0003d6  f7fffffe          BL       TEXT_SetTextColor
0003da  e007              B        |L13.1004|
                  |L13.988|
0003dc  f640018e          MOV      r1,#0x88e             ;3359
0003e0  6a28              LDR      r0,[r5,#0x20]         ;3359  ; hWinR
0003e2  f7fffffe          BL       WM_GetDialogItem
0003e6  4621              MOV      r1,r4                 ;3360
0003e8  f7fffffe          BL       TEXT_SetTextColor
                  |L13.1004|
0003ec  ed950a0c          VLDR     s0,[r5,#0x30]         ;3362
0003f0  6bb0              LDR      r0,[r6,#0x38]         ;3362  ; Run_Control
0003f2  ee200a08          VMUL.F32 s0,s0,s16             ;3362
0003f6  ee000a90          VMOV     s1,r0                 ;3362
0003fa  eef80a60          VCVT.F32.U32 s1,s1                 ;3362
0003fe  eeb40ae0          VCMPE.F32 s0,s1                 ;3362
000402  e00d              B        |L13.1056|
                  |L13.1028|
                          DCD      ||.data||
                  |L13.1032|
                          DCD      DISS_Voltage
                  |L13.1036|
00040c  447a0000          DCFS     0x447a0000 ; 1000
                  |L13.1040|
                          DCD      Run_Control
                  |L13.1044|
                          DCD      InFlashSave
                  |L13.1048|
                          DCD      0x3e99999a
                  |L13.1052|
                          DCD      0x40020c00
                  |L13.1056|
000420  eef1fa10          VMRS     APSR_nzcv,FPSCR       ;3362
000424  dc09              BGT      |L13.1082|
000426  6bf0              LDR      r0,[r6,#0x3c]         ;3362  ; Run_Control
000428  ee000a90          VMOV     s1,r0                 ;3362
00042c  eef80a60          VCVT.F32.U32 s1,s1                 ;3362
000430  eeb40ae0          VCMPE.F32 s0,s1                 ;3362
000434  eef1fa10          VMRS     APSR_nzcv,FPSCR       ;3362
000438  d208              BCS      |L13.1100|
                  |L13.1082|
00043a  f640018d          MOV      r1,#0x88d             ;3363
00043e  6a28              LDR      r0,[r5,#0x20]         ;3363  ; hWinR
000440  f7fffffe          BL       WM_GetDialogItem
000444  21ff              MOVS     r1,#0xff              ;3364
000446  f7fffffe          BL       TEXT_SetTextColor
00044a  e007              B        |L13.1116|
                  |L13.1100|
00044c  f640018d          MOV      r1,#0x88d             ;3366
000450  6a28              LDR      r0,[r5,#0x20]         ;3366  ; hWinR
000452  f7fffffe          BL       WM_GetDialogItem
000456  4621              MOV      r1,r4                 ;3367
000458  f7fffffe          BL       TEXT_SetTextColor
                  |L13.1116|
00045c  ed950a0b          VLDR     s0,[r5,#0x2c]         ;3369
000460  6cb0              LDR      r0,[r6,#0x48]         ;3369  ; Run_Control
000462  ee200a08          VMUL.F32 s0,s0,s16             ;3369
000466  ee000a90          VMOV     s1,r0                 ;3369
00046a  eef80a60          VCVT.F32.U32 s1,s1                 ;3369
00046e  eeb40ae0          VCMPE.F32 s0,s1                 ;3369
000472  eef1fa10          VMRS     APSR_nzcv,FPSCR       ;3369
000476  dc09              BGT      |L13.1164|
000478  6cf0              LDR      r0,[r6,#0x4c]         ;3369  ; Run_Control
00047a  ee000a90          VMOV     s1,r0                 ;3369
00047e  eef80a60          VCVT.F32.U32 s1,s1                 ;3369
000482  eeb40ae0          VCMPE.F32 s0,s1                 ;3369
000486  eef1fa10          VMRS     APSR_nzcv,FPSCR       ;3369
00048a  d207              BCS      |L13.1180|
                  |L13.1164|
00048c  4649              MOV      r1,r9                 ;3370
00048e  6a28              LDR      r0,[r5,#0x20]         ;3370  ; hWinR
000490  f7fffffe          BL       WM_GetDialogItem
000494  21ff              MOVS     r1,#0xff              ;3371
000496  f7fffffe          BL       TEXT_SetTextColor
00049a  e006              B        |L13.1194|
                  |L13.1180|
00049c  4649              MOV      r1,r9                 ;3373
00049e  6a28              LDR      r0,[r5,#0x20]         ;3373  ; hWinR
0004a0  f7fffffe          BL       WM_GetDialogItem
0004a4  4621              MOV      r1,r4                 ;3374
0004a6  f7fffffe          BL       TEXT_SetTextColor
                  |L13.1194|
0004aa  ed950a0a          VLDR     s0,[r5,#0x28]         ;3377
0004ae  edd70a00          VLDR     s1,[r7,#0]            ;3377
0004b2  ee200a08          VMUL.F32 s0,s0,s16             ;3377
0004b6  eef80ae0          VCVT.F32.S32 s1,s1                 ;3377
0004ba  eeb40ae0          VCMPE.F32 s0,s1                 ;3377
0004be  eef1fa10          VMRS     APSR_nzcv,FPSCR       ;3377
0004c2  dc08              BGT      |L13.1238|
0004c4  edd70a01          VLDR     s1,[r7,#4]            ;3377
0004c8  eef80ae0          VCVT.F32.S32 s1,s1                 ;3377
0004cc  eeb40ae0          VCMPE.F32 s0,s1                 ;3377
0004d0  eef1fa10          VMRS     APSR_nzcv,FPSCR       ;3377
0004d4  d207              BCS      |L13.1254|
                  |L13.1238|
0004d6  4651              MOV      r1,r10                ;3379
0004d8  6a28              LDR      r0,[r5,#0x20]         ;3379  ; hWinR
0004da  f7fffffe          BL       WM_GetDialogItem
0004de  21ff              MOVS     r1,#0xff              ;3380
0004e0  f7fffffe          BL       TEXT_SetTextColor
0004e4  e006              B        |L13.1268|
                  |L13.1254|
0004e6  4651              MOV      r1,r10                ;3382
0004e8  6a28              LDR      r0,[r5,#0x20]         ;3382  ; hWinR
0004ea  f7fffffe          BL       WM_GetDialogItem
0004ee  4621              MOV      r1,r4                 ;3383
0004f0  f7fffffe          BL       TEXT_SetTextColor
                  |L13.1268|
0004f4  ed950a09          VLDR     s0,[r5,#0x24]         ;3386
0004f8  edd70a02          VLDR     s1,[r7,#8]            ;3386
0004fc  ee200a08          VMUL.F32 s0,s0,s16             ;3386
000500  eef80ae0          VCVT.F32.S32 s1,s1                 ;3386
000504  eeb40ae0          VCMPE.F32 s0,s1                 ;3386
000508  eef1fa10          VMRS     APSR_nzcv,FPSCR       ;3386
00050c  dc08              BGT      |L13.1312|
00050e  edd70a03          VLDR     s1,[r7,#0xc]          ;3386
000512  eef80ae0          VCVT.F32.S32 s1,s1                 ;3386
000516  eeb40ae0          VCMPE.F32 s0,s1                 ;3386
00051a  eef1fa10          VMRS     APSR_nzcv,FPSCR       ;3386
00051e  d20a              BCS      |L13.1334|
                  |L13.1312|
000520  4659              MOV      r1,r11
000522  6a28              LDR      r0,[r5,#0x20]  ; hWinR
000524  f7fffffe          BL       WM_GetDialogItem
;;;3389                       TEXT_SetTextColor(hItem, GUI_RED);
000528  ecbd8b02          VPOP     {d8}
00052c  21ff              MOVS     r1,#0xff
00052e  e8bd5ff0          POP      {r4-r12,lr}
000532  f7ffbffe          B.W      TEXT_SetTextColor
                  |L13.1334|
;;;3390   				}else{
;;;3391   					hItem = WM_GetDialogItem(hWinR, ID_TEXT_151);
000536  4659              MOV      r1,r11
000538  6a28              LDR      r0,[r5,#0x20]  ; hWinR
00053a  f7fffffe          BL       WM_GetDialogItem
;;;3392                       TEXT_SetTextColor(hItem, GUI_GREEN);
00053e  ecbd8b02          VPOP     {d8}
000542  4621              MOV      r1,r4
000544  e8bd5ff0          POP      {r4-r12,lr}
000548  f7ffbffe          B.W      TEXT_SetTextColor
                  |L13.1356|
;;;3393   				}
;;;3394   				
;;;3395               }else{
;;;3396                   hItem = WM_GetDialogItem(hWinR, ID_TEXT_80);
00054c  f640018d          MOV      r1,#0x88d
000550  f7fffffe          BL       WM_GetDialogItem
;;;3397                   TEXT_SetTextColor(hItem, GUI_GREEN);
000554  4621              MOV      r1,r4
000556  f7fffffe          BL       TEXT_SetTextColor
;;;3398                   hItem = WM_GetDialogItem(hWinR, ID_TEXT_81);
00055a  f640018e          MOV      r1,#0x88e
00055e  6a28              LDR      r0,[r5,#0x20]  ; hWinR
000560  f7fffffe          BL       WM_GetDialogItem
;;;3399                   TEXT_SetTextColor(hItem, GUI_GREEN);
000564  4621              MOV      r1,r4
000566  f7fffffe          BL       TEXT_SetTextColor
;;;3400                   hItem = WM_GetDialogItem(hWinR, ID_TEXT_82);
00056a  4649              MOV      r1,r9
00056c  6a28              LDR      r0,[r5,#0x20]  ; hWinR
00056e  f7fffffe          BL       WM_GetDialogItem
;;;3401                   TEXT_SetTextColor(hItem, GUI_GREEN);				
000572  4621              MOV      r1,r4
000574  f7fffffe          BL       TEXT_SetTextColor
;;;3402   				hItem = WM_GetDialogItem(hWinR, ID_TEXT_83);
000578  4651              MOV      r1,r10
00057a  6a28              LDR      r0,[r5,#0x20]  ; hWinR
00057c  f7fffffe          BL       WM_GetDialogItem
;;;3403                   TEXT_SetTextColor(hItem, GUI_GREEN);
000580  4621              MOV      r1,r4
000582  f7fffffe          BL       TEXT_SetTextColor
;;;3404   				hItem = WM_GetDialogItem(hWinR, ID_TEXT_151);
000586  4659              MOV      r1,r11
000588  6a28              LDR      r0,[r5,#0x20]  ; hWinR
00058a  f7fffffe          BL       WM_GetDialogItem
;;;3405                   TEXT_SetTextColor(hItem, GUI_GREEN);
00058e  4621              MOV      r1,r4
000590  f7fffffe          BL       TEXT_SetTextColor
;;;3406                   
;;;3407                   GPIO_ResetBits(GPIOD,GPIO_Pin_12);
000594  4641              MOV      r1,r8
000596  4807              LDR      r0,|L13.1460|
000598  f7fffffe          BL       GPIO_ResetBits
;;;3408                   TM1650_SET_LED(0x48,0x71);
00059c  2171              MOVS     r1,#0x71
00059e  2048              MOVS     r0,#0x48
0005a0  f7fffffe          BL       TM1650_SET_LED
;;;3409                   TM1650_SET_LED(0x68,0xF2);//PASS灯
0005a4  ecbd8b02          VPOP     {d8}
0005a8  21f2              MOVS     r1,#0xf2
0005aa  e8bd5ff0          POP      {r4-r12,lr}
0005ae  2068              MOVS     r0,#0x68
0005b0  f7ffbffe          B.W      TM1650_SET_LED
;;;3410               }
;;;3411           }
;;;3412                  
;;;3413       }
;;;3414   //     else
;;;3415   //     {
;;;3416   //         TM1650_SET_LED(0x68,0x70);
;;;3417   //         GPIO_ResetBits(GPIOD,GPIO_Pin_12);//灭灯
;;;3418   //     }
;;;3419   }
;;;3420   
                          ENDP

                  |L13.1460|
                          DCD      0x40020c00

                          AREA ||.constdata||, DATA, READONLY, ALIGN=2

                  _aDialogCreate
                          DCD      WINDOW_CreateIndirect
                          DCD      ||.conststring||
000008  08120000          DCW      0x0812,0x0000
00000c  000001e0          DCW      0x0000,0x01e0
000010  01100000          DCW      0x0110,0x0000
                          DCD      0x00000000
                          DCD      0x00000000
                          DCD      TEXT_CreateIndirect
                          DCD      ||.conststring||+0x4
000024  0813001c          DCW      0x0813,0x001c
000028  00320040          DCW      0x0032,0x0040
00002c  00200000          DCW      0x0020,0x0000
                          DCD      0x00000064
                          DCD      0x00000000
                          DCD      TEXT_CreateIndirect
                          DCD      ||.conststring||+0x4
000040  0814010e          DCW      0x0814,0x010e
000044  003c003c          DCW      0x003c,0x003c
000048  000e0000          DCW      0x000e,0x0000
                          DCD      0x00000000
                          DCD      0x00000000
                          DCD      TEXT_CreateIndirect
                          DCD      ||.conststring||+0x4
00005c  081500f0          DCW      0x0815,0x00f0
000060  00320020          DCW      0x0032,0x0020
000064  001e0000          DCW      0x001e,0x0000
                          DCD      0x00000000
                          DCD      0x00000000
                          DCD      TEXT_CreateIndirect
                          DCD      ||.conststring||+0x4
000078  081600ef          DCW      0x0816,0x00ef
00007c  00790020          DCW      0x0079,0x0020
000080  00200000          DCW      0x0020,0x0000
                          DCD      0x00000000
                          DCD      0x00000000
                          DCD      TEXT_CreateIndirect
                          DCD      ||.conststring||+0x4
000094  081700d9          DCW      0x0817,0x00d9
000098  00800020          DCW      0x0080,0x0020
00009c  00140000          DCW      0x0014,0x0000
                          DCD      0x00000000
                          DCD      0x00000000
                          DCD      TEXT_CreateIndirect
                          DCD      ||.conststring||+0x4
0000b0  0868010e          DCW      0x0868,0x010e
0000b4  008c003c          DCW      0x008c,0x003c
0000b8  000e0000          DCW      0x000e,0x0000
                          DCD      0x00000000
                          DCD      0x00000000
                          DCD      TEXT_CreateIndirect
                          DCD      ||.conststring||+0x4
0000cc  0869010e          DCW      0x0869,0x010e
0000d0  0050003c          DCW      0x0050,0x003c
0000d4  000e0000          DCW      0x000e,0x0000
                          DCD      0x00000000
                          DCD      0x00000000
                          DCD      TEXT_CreateIndirect
                          DCD      ||.conststring||+0x4
0000e8  086a010e          DCW      0x086a,0x010e
0000ec  0064003c          DCW      0x0064,0x003c
0000f0  000e0000          DCW      0x000e,0x0000
                          DCD      0x00000000
                          DCD      0x00000000
                          DCD      TEXT_CreateIndirect
                          DCD      ||.conststring||+0x4
000104  086b014f          DCW      0x086b,0x014f
000108  00500028          DCW      0x0050,0x0028
00010c  000f0000          DCW      0x000f,0x0000
                          DCD      0x00000000
                          DCD      0x00000000
                          DCD      TEXT_CreateIndirect
                          DCD      ||.conststring||+0x4
000120  086c014f          DCW      0x086c,0x014f
000124  00640028          DCW      0x0064,0x0028
000128  000f0000          DCW      0x000f,0x0000
                          DCD      0x00000000
                          DCD      0x00000000
                          DCD      TEXT_CreateIndirect
                          DCD      ||.conststring||+0x4
00013c  088d005f          DCW      0x088d,0x005f
000140  00300096          DCW      0x0030,0x0096
000144  00280000          DCW      0x0028,0x0000
                          DCD      0x00000000
                          DCD      0x00000000
                          DCD      TEXT_CreateIndirect
                          DCD      ||.conststring||+0x4
000158  088e005f          DCW      0x088e,0x005f
00015c  00740096          DCW      0x0074,0x0096
000160  00280000          DCW      0x0028,0x0000
                          DCD      0x00000000
                          DCD      0x00000000
                          DCD      TEXT_CreateIndirect
                          DCD      ||.conststring||+0x4
000174  088f005f          DCW      0x088f,0x005f
000178  00b80096          DCW      0x00b8,0x0096
00017c  00280000          DCW      0x0028,0x0000
                          DCD      0x00000000
                          DCD      0x00000000
                          DCD      TEXT_CreateIndirect
                          DCD      ||.conststring||+0x4
000190  08900190          DCW      0x0890,0x0190
000194  00820028          DCW      0x0082,0x0028
000198  000f0000          DCW      0x000f,0x0000
                          DCD      0x00000000
                          DCD      0x00000000
                          DCD      TEXT_CreateIndirect
                          DCD      ||.conststring||+0x4
0001ac  090400f0          DCW      0x0904,0x00f0
0001b0  00050078          DCW      0x0005,0x0078
0001b4  00140000          DCW      0x0014,0x0000
                          DCD      0x00000000
                          DCD      0x00000000
                          DCD      TEXT_CreateIndirect
                          DCD      ||.conststring||+0x4
0001c8  0905014f          DCW      0x0905,0x014f
0001cc  00780028          DCW      0x0078,0x0028
0001d0  000e0000          DCW      0x000e,0x0000
                          DCD      0x00000000
                          DCD      0x00000000
                          DCD      TEXT_CreateIndirect
                          DCD      ||.conststring||+0x4
0001e4  09060195          DCW      0x0906,0x0195
0001e8  00050050          DCW      0x0005,0x0050
0001ec  00140000          DCW      0x0014,0x0000
                          DCD      0x00000000
                          DCD      0x00000000
                          DCD      TEXT_CreateIndirect
                          DCD      ||.conststring||+0x4
000200  09070190          DCW      0x0907,0x0190
000204  005a003c          DCW      0x005a,0x003c
000208  000e0000          DCW      0x000e,0x0000
                          DCD      0x00000000
                          DCD      0x00000000
                          DCD      TEXT_CreateIndirect
                          DCD      ||.conststring||+0x4
00021c  0908010e          DCW      0x0908,0x010e
000220  0078003c          DCW      0x0078,0x003c
000224  000e0000          DCW      0x000e,0x0000
                          DCD      0x00000000
                          DCD      0x00000000
                          DCD      TEXT_CreateIndirect
                          DCD      ||.conststring||+0x4
000238  0909012c          DCW      0x0909,0x012c
00023c  00020050          DCW      0x0002,0x0050
000240  00140000          DCW      0x0014,0x0000
                          DCD      0x00000000
                          DCD      0x00000000
                          DCD      TEXT_CreateIndirect
                          DCD      ||.conststring||+0x4
000254  090a0005          DCW      0x090a,0x0005
000258  00e10050          DCW      0x00e1,0x0050
00025c  001e0000          DCW      0x001e,0x0000
                          DCD      0x00000000
                          DCD      0x00000000
                          DCD      TEXT_CreateIndirect
                          DCD      ||.conststring||+0x4
000270  090e014f          DCW      0x090e,0x014f
000274  008c0028          DCW      0x008c,0x0028
000278  000f0000          DCW      0x000f,0x0000
                          DCD      0x00000000
                          DCD      0x00000000
                          DCD      TEXT_CreateIndirect
                          DCD      ||.conststring||+0x4
00028c  090b0005          DCW      0x090b,0x0005
000290  00ff0032          DCW      0x00ff,0x0032
000294  00140014          DCW      0x0014,0x0014
                          DCD      0x00000000
                          DCD      0x00000000
                          DCD      TEXT_CreateIndirect
                          DCD      ||.conststring||+0x4
0002a8  090c0036          DCW      0x090c,0x0036
0002ac  00ff0014          DCW      0x00ff,0x0014
0002b0  00140014          DCW      0x0014,0x0014
                          DCD      0x00000000
                          DCD      0x00000000
                          DCD      TEXT_CreateIndirect
                          DCD      ||.conststring||+0x4
0002c4  090d0044          DCW      0x090d,0x0044
0002c8  00fe0014          DCW      0x00fe,0x0014
0002cc  00140014          DCW      0x0014,0x0014
                          DCD      0x00000000
                          DCD      0x00000000
                          DCD      TEXT_CreateIndirect
                          DCD      ||.conststring||+0x4
0002e0  0921014f          DCW      0x0921,0x014f
0002e4  003c0028          DCW      0x003c,0x0028
0002e8  000f0014          DCW      0x000f,0x0014
                          DCD      0x00000000
                          DCD      0x00000000
                          DCD      TEXT_CreateIndirect
                          DCD      ||.conststring||+0x4
0002fc  092f010e          DCW      0x092f,0x010e
000300  00a0003c          DCW      0x00a0,0x003c
000304  000e0000          DCW      0x000e,0x0000
                          DCD      0x00000000
                          DCD      0x00000000
                          DCD      TEXT_CreateIndirect
                          DCD      ||.conststring||+0x4
000318  0930010e          DCW      0x0930,0x010e
00031c  00b4003c          DCW      0x00b4,0x003c
000320  000e0000          DCW      0x000e,0x0000
                          DCD      0x00000000
                          DCD      0x00000000
                          DCD      TEXT_CreateIndirect
                          DCD      ||.conststring||+0x4
000334  0931010e          DCW      0x0931,0x010e
000338  00c8003c          DCW      0x00c8,0x003c
00033c  000e0000          DCW      0x000e,0x0000
                          DCD      0x00000000
                          DCD      0x00000000
                          DCD      TEXT_CreateIndirect
                          DCD      ||.conststring||+0x4
000350  0932014f          DCW      0x0932,0x014f
000354  00a00028          DCW      0x00a0,0x0028
000358  000f0000          DCW      0x000f,0x0000
                          DCD      0x00000000
                          DCD      0x00000000
                          DCD      TEXT_CreateIndirect
                          DCD      ||.conststring||+0x4
00036c  0933014f          DCW      0x0933,0x014f
000370  00b40028          DCW      0x00b4,0x0028
000374  000f0000          DCW      0x000f,0x0000
                          DCD      0x00000000
                          DCD      0x00000000
                          DCD      TEXT_CreateIndirect
                          DCD      ||.conststring||+0x4
000388  0934014f          DCW      0x0934,0x014f
00038c  00c80028          DCW      0x00c8,0x0028
000390  000f0000          DCW      0x000f,0x0000
                          DCD      0x00000000
                          DCD      0x00000000
                          DCD      TEXT_CreateIndirect
                          DCD      ||.conststring||+0x4
0003a4  09350190          DCW      0x0935,0x0190
0003a8  00aa0028          DCW      0x00aa,0x0028
0003ac  000f0000          DCW      0x000f,0x0000
                          DCD      0x00000000
                          DCD      0x00000000
                          DCD      TEXT_CreateIndirect
                          DCD      ||.conststring||+0x4
0003c0  0936010e          DCW      0x0936,0x010e
0003c4  0028003c          DCW      0x0028,0x003c
0003c8  000f0000          DCW      0x000f,0x0000
                          DCD      0x00000000
                          DCD      0x00000000
                          DCD      TEXT_CreateIndirect
                          DCD      ||.conststring||+0x4
0003dc  0937014f          DCW      0x0937,0x014f
0003e0  00280028          DCW      0x0028,0x0028
0003e4  000f0000          DCW      0x000f,0x0000
                          DCD      0x00000000
                          DCD      0x00000000
                          DCD      TEXT_CreateIndirect
                          DCD      ||.conststring||+0x4
0003f8  093b017c          DCW      0x093b,0x017c
0003fc  00080014          DCW      0x0008,0x0014
000400  000f0000          DCW      0x000f,0x0000
                          DCD      0x00000000
                          DCD      0x00000000
                          DCD      TEXT_CreateIndirect
                          DCD      ||.conststring||+0x4
000414  09420190          DCW      0x0942,0x0190
000418  00c80050          DCW      0x00c8,0x0050
00041c  000f0000          DCW      0x000f,0x0000
                          DCD      0x00000000
                          DCD      0x00000000
                          DCD      BUTTON_CreateIndirect
                          DCD      ||.conststring||+0xc
000430  08190053          DCW      0x0819,0x0053
000434  00e2004d          DCW      0x00e2,0x004d
000438  002d0000          DCW      0x002d,0x0000
                          DCD      0x00000000
                          DCD      0x00000000
                          DCD      BUTTON_CreateIndirect
                          DCD      ||.conststring||+0xc
00044c  081a00a3          DCW      0x081a,0x00a3
000450  00e2004d          DCW      0x00e2,0x004d
000454  002d0000          DCW      0x002d,0x0000
                          DCD      0x00000000
                          DCD      0x00000000
                          DCD      BUTTON_CreateIndirect
                          DCD      ||.conststring||+0xc
000468  081b00f3          DCW      0x081b,0x00f3
00046c  00e2004d          DCW      0x00e2,0x004d
000470  002d0000          DCW      0x002d,0x0000
                          DCD      0x00000000
                          DCD      0x00000000
                          DCD      BUTTON_CreateIndirect
                          DCD      ||.conststring||+0xc
000484  081c0143          DCW      0x081c,0x0143
000488  00e2004d          DCW      0x00e2,0x004d
00048c  002d0000          DCW      0x002d,0x0000
                          DCD      0x00000000
                          DCD      0x00000000
                          DCD      BUTTON_CreateIndirect
                          DCD      ||.conststring||+0xc
0004a0  081d0193          DCW      0x081d,0x0193
0004a4  00e2004d          DCW      0x00e2,0x004d
0004a8  002d0000          DCW      0x002d,0x0000
                          DCD      0x00000000
                          DCD      0x00000000

                          AREA ||.conststring||, DATA, READONLY, MERGE=1, STRINGS, ALIGN=2

000000  5200              DCB      "R",0
000002  00                DCB      0
000003  00                DCB      0
000004  54657874          DCB      "Text",0
000008  00      
000009  00                DCB      0
00000a  00                DCB      0
00000b  00                DCB      0
00000c  42757474          DCB      "Button",0
000010  6f6e00  

                          AREA ||.data||, DATA, ALIGN=2

                  bit
000000  00                DCB      0x00
                  dot_flag
000001  00                DCB      0x00
                  page_sw
000002  03                DCB      0x03
                  para_set2
000003  ff                DCB      0xff
                  para_set4
000004  00                DCB      0x00
                  test_start
000005  00                DCB      0x00
                  oc_sw
000006  13                DCB      0x13
                  con_flag
000007  00                DCB      0x00
                  finish
000008  00                DCB      0x00
                  oct_sw
000009  00                DCB      0x00
                  oc_test
00000a  00                DCB      0x00
                  manual
00000b  00                DCB      0x00
                  para_set1
00000c  00                DCB      0x00
                  oc_mode
00000d  00                DCB      0x00
                  rpow
00000e  00                DCB      0x00
                  staticcdc
00000f  00                DCB      0x00
                  step
000010  0000              DCB      0x00,0x00
                  steptime
000012  0001              DCW      0x0001
                  stepcount
000014  0000              DCB      0x00,0x00
                  dis_gate_v
000016  0000              DCB      0x00,0x00
                  r
000018  0000              DCB      0x00,0x00
                  short_time
00001a  0000              DCB      0x00,0x00
                  gate_v
00001c  00000000          DCFS     0x00000000 ; 0
                  hWinR
                          DCD      0x00000000
                  static_pc
                          DCD      0x00000000
                  static_lv
                          DCD      0x00000000
                  oc_data
                          DCD      0x00000000
                  v
                          DCD      0x00000000
                  time1
                          DCD      0x00000000
                  crec1
                          DCD      0x00000000
                  crec2
                          DCD      0x00000000
                  set_limit
                          DCD      0x00000000
000044  0000              DCB      0x00,0x00

                          AREA ||area_number.19||, DATA, ALIGN=0

                          EXPORTAS ||area_number.19||, ||.data||
                  r_stable
000000  00                DCB      0x00

                          AREA ||area_number.20||, DATA, ALIGN=0

                          EXPORTAS ||area_number.20||, ||.data||
                  test_num
000000  00                DCB      0x00

                          AREA ||area_number.21||, DATA, ALIGN=0

                          EXPORTAS ||area_number.21||, ||.data||
                  short_flag
000000  00                DCB      0x00

                          AREA ||area_number.22||, DATA, ALIGN=0

                          EXPORTAS ||area_number.22||, ||.data||
                  short_finish
000000  00                DCB      0x00

                          AREA ||area_number.23||, DATA, ALIGN=0

                          EXPORTAS ||area_number.23||, ||.data||
                  test_finish
000000  00                DCB      0x00

                          AREA ||area_number.24||, DATA, ALIGN=0

                          EXPORTAS ||area_number.24||, ||.data||
                  ocstop
000000  00                DCB      0x00

                          AREA ||area_number.25||, DATA, ALIGN=0

                          EXPORTAS ||area_number.25||, ||.data||
                  para_set3
000000  00                DCB      0x00

                          AREA ||area_number.26||, DATA, ALIGN=1

                          EXPORTAS ||area_number.26||, ||.data||
                  stable_time
000000  0000              DCB      0x00,0x00

                          AREA ||area_number.27||, DATA, ALIGN=0

                          EXPORTAS ||area_number.27||, ||.data||
                  alert_flag
000000  00                DCB      0x00

                          AREA ||area_number.28||, DATA, ALIGN=0

                          EXPORTAS ||area_number.28||, ||.data||
                  mode_sw
000000  00                DCB      0x00

                          AREA ||area_number.29||, DATA, ALIGN=0

                          EXPORTAS ||area_number.29||, ||.data||
                  b_type
000000  00                DCB      0x00

                          AREA ||area_number.30||, DATA, ALIGN=0

                          EXPORTAS ||area_number.30||, ||.data||
                  buffer
000000  00                DCB      0x00

                          AREA ||area_number.31||, DATA, ALIGN=0

                          EXPORTAS ||area_number.31||, ||.data||
                  set_sw
000000  00                DCB      0x00

                          AREA ||area_number.32||, DATA, ALIGN=2

                          EXPORTAS ||area_number.32||, ||.data||
                  DISS_R
                          DCD      0x00000000

                          AREA ||area_number.33||, DATA, ALIGN=1

                          EXPORTAS ||area_number.33||, ||.data||
                  s_time
000000  0000              DCB      0x00,0x00

                          AREA ||area_number.34||, DATA, ALIGN=0

                          EXPORTAS ||area_number.34||, ||.data||
                  wait_flag
000000  00                DCB      0x00

                          AREA ||area_number.35||, DATA, ALIGN=1

                          EXPORTAS ||area_number.35||, ||.data||
                  short_start
000000  0000              DCB      0x00,0x00

                          AREA ||area_number.36||, DATA, ALIGN=2

                          EXPORTAS ||area_number.36||, ||.data||
                  test_ftime
                          DCD      0x00000000

                          AREA ||area_number.37||, DATA, ALIGN=0

                          EXPORTAS ||area_number.37||, ||.data||
                  lockstat1
000000  00                DCB      0x00

                          AREA ||area_number.38||, DATA, ALIGN=0

                          EXPORTAS ||area_number.38||, ||.data||
                  lockstat2
000000  00                DCB      0x00

;*** Start embedded assembler ***

#line 1 "..\\APP\\R_Face.c"
	AREA ||.rev16_text||, CODE
	THUMB
	EXPORT |__asm___8_R_Face_c_bit____REV16|
#line 129 "D:\\Keil_v5\\ARM\\CMSIS\\Include\\core_cmInstr.h"
|__asm___8_R_Face_c_bit____REV16| PROC
#line 130

 rev16 r0, r0
 bx lr
	ENDP
	AREA ||.revsh_text||, CODE
	THUMB
	EXPORT |__asm___8_R_Face_c_bit____REVSH|
#line 144
|__asm___8_R_Face_c_bit____REVSH| PROC
#line 145

 revsh r0, r0
 bx lr
	ENDP

;*** End   embedded assembler ***
