; generated by Component: ARM Compiler 5.06 update 6 (build 750) Tool: ArmCC [4d3637]
; commandline ArmCC [--list --split_sections --debug -c --asm --interleave -o..\output\settings.o --asm_dir=..\Listing\ --list_dir=..\Listing\ --depend=..\output\settings.d --cpu=Cortex-M4.fp --apcs=interwork -O1 --diag_suppress=9931,870 -I..\APP -I..\drive -I..\Include -I..\Libraries\CMSIS\inc -I..\Libraries\CMSIS\src -I..\Libraries\FWlib\inc -I..\Libraries\FWlib\src -I..\Listing -I..\Output -I..\Project -I..\STemWinLibrary522\Config -I..\STemWinLibrary522\emWinTask -I..\STemWinLibrary522\GUILib -I..\STemWinLibrary522\inc -I..\User -I..\USB\STM32_USB_HOST_Library\Class\HID\inc -I..\USB\STM32_USB_HOST_Library\Class\MSC\src -I..\USB\STM32_USB_HOST_Library\Core\src -I..\USB\USB_APP -I..\USB\STM32_USB_HOST_Library\Class\HID\src -I..\USB\STM32_USB_HOST_Library\Class\MSC\inc -I..\USB\STM32_USB_HOST_Library\Core\inc -I..\USB\STM32_USB_OTG_Driver\inc -I..\FATFS\exfuns -I..\FATFS\src\option -I..\FATFS\src -I..\MALLOC -I..\FATFS -I..\IAP -ID:\Keil_v5\ARM\RV31\INC -ID:\Keil_v5\ARM\CMSIS\Include -ID:\Keil_v5\ARM\INC\ST\STM32F4xx -D__UVISION_VERSION=525 -DUSE_STDPERIPH_DRIVER -DSTM32F40XX -DUSE_USB_OTG_FS -DUSE_EMBEDDED_PHY -DUSE_USB_OTG_HS -DSTM32F40XX --omf_browse=..\output\settings.crf --no_multibyte_chars ..\APP\settings.c]
                          THUMB

                          AREA ||i.CreateSET||, CODE, READONLY, ALIGN=2

                  CreateSET PROC
;;;578    WM_HWIN CreateSET(void);
;;;579    WM_HWIN CreateSET(void) {
000000  b51c              PUSH     {r2-r4,lr}
;;;580      page_sw = face_set;
000002  490f              LDR      r1,|L1.64|
000004  2005              MOVS     r0,#5
000006  7008              STRB     r0,[r1,#0]
;;;581      set_sw = set_1;
000008  480e              LDR      r0,|L1.68|
00000a  2400              MOVS     r4,#0
00000c  7004              STRB     r4,[r0,#0]
;;;582      pass = 0;
00000e  480e              LDR      r0,|L1.72|
000010  7004              STRB     r4,[r0,#0]
;;;583      TM1650_SET_LED(0x68,0x70);
000012  2170              MOVS     r1,#0x70
000014  2068              MOVS     r0,#0x68
000016  f7fffffe          BL       TM1650_SET_LED
;;;584      GPIO_ResetBits(GPIOD,GPIO_Pin_12);//√µ∆
00001a  f44f5180          MOV      r1,#0x1000
00001e  480b              LDR      r0,|L1.76|
000020  f7fffffe          BL       GPIO_ResetBits
;;;585      hWinset = GUI_CreateDialogBox(_aDialogCreate5, GUI_COUNTOF(_aDialogCreate5), _cbDialog, WM_HBKWIN, 0, 0);
000024  f7fffffe          BL       WM_GetDesktopWindow
000028  4603              MOV      r3,r0
00002a  9400              STR      r4,[sp,#0]
00002c  4a08              LDR      r2,|L1.80|
00002e  2125              MOVS     r1,#0x25
000030  4808              LDR      r0,|L1.84|
000032  9401              STR      r4,[sp,#4]
000034  f7fffffe          BL       GUI_CreateDialogBox
000038  4907              LDR      r1,|L1.88|
00003a  6048              STR      r0,[r1,#4]  ; hWinset
;;;586      return hWinset;
;;;587    }
00003c  bd1c              POP      {r2-r4,pc}
;;;588    
                          ENDP

00003e  0000              DCW      0x0000
                  |L1.64|
                          DCD      page_sw
                  |L1.68|
                          DCD      set_sw
                  |L1.72|
                          DCD      pass
                  |L1.76|
                          DCD      0x40020c00
                  |L1.80|
                          DCD      _cbDialog
                  |L1.84|
                          DCD      ||.constdata||
                  |L1.88|
                          DCD      ||.data||

                          AREA ||i.DEL_NUM||, CODE, READONLY, ALIGN=2

                  DEL_NUM PROC
;;;3217   
;;;3218   void DEL_NUM(void){
000000  e92d41f0          PUSH     {r4-r8,lr}
;;;3219       u8 i;
;;;3220       switch(set_sw){
000004  4888              LDR      r0,|L2.552|
000006  7801              LDRB     r1,[r0,#0]  ; set_sw
;;;3221           case set_12:
;;;3222           {
;;;3223               WM_HWIN hItem;
;;;3224   //            WM_InvalidateWindow(hWinset);
;;;3225               hItem = WM_GetDialogItem(hWinset, ID_TEXT_35);
000008  4888              LDR      r0,|L2.556|
;;;3226               if(bit > 1)
;;;3227   			{
;;;3228   				bit --;
;;;3229   				set_limit[bit-1] = '\0';
00000a  4f89              LDR      r7,|L2.560|
00000c  2400              MOVS     r4,#0                 ;3225
00000e  6840              LDR      r0,[r0,#4]            ;3225
000010  4d88              LDR      r5,|L2.564|
;;;3230   			}
;;;3231   			if(bit == dot_flag)
000012  4e89              LDR      r6,|L2.568|
000014  2910              CMP      r1,#0x10              ;3220
000016  d07d              BEQ      |L2.276|
000018  dc08              BGT      |L2.44|
00001a  f1a1010b          SUB      r1,r1,#0xb            ;3220
00001e  2905              CMP      r1,#5                 ;3220
000020  d279              BCS      |L2.278|
000022  e8dff001          TBB      [pc,r1]               ;3220
000026  233b              DCB      0x23,0x3b
000028  879fb700          DCB      0x87,0x9f,0xb7,0x00
                  |L2.44|
00002c  2951              CMP      r1,#0x51              ;3220
00002e  d04d              BEQ      |L2.204|
000030  2952              CMP      r1,#0x52              ;3220
000032  d063              BEQ      |L2.252|
000034  2953              CMP      r1,#0x53              ;3220
000036  d06f              BEQ      |L2.280|
000038  2954              CMP      r1,#0x54              ;3220
00003a  d16c              BNE      |L2.278|
;;;3232   			{
;;;3233   				dot_flag = 0;
;;;3234   			}
;;;3235   			TEXT_SetText(hItem,set_limit);
;;;3236               break;
;;;3237           }
;;;3238           case set_13:
;;;3239           {
;;;3240               WM_HWIN hItem;
;;;3241   //            WM_InvalidateWindow(hWinset);
;;;3242               hItem = WM_GetDialogItem(hWinset, ID_TEXT_36);
;;;3243               if(bit > 1)
;;;3244   			{
;;;3245   				bit --;
;;;3246   				set_limit[bit-1] = '\0';
;;;3247   			}
;;;3248   			if(bit == dot_flag)
;;;3249   			{
;;;3250   				dot_flag = 0;
;;;3251   			}
;;;3252   			TEXT_SetText(hItem,set_limit);
;;;3253               break;
;;;3254           }
;;;3255   		case set_82:
;;;3256           {
;;;3257               WM_HWIN hItem;
;;;3258   //            WM_InvalidateWindow(hWinset);
;;;3259               hItem = WM_GetDialogItem(hWinset, ID_TEXT_154);
;;;3260               if(bit > 1)
;;;3261   			{
;;;3262   				bit --;
;;;3263   				set_limit[bit-1] = '\0';
;;;3264   			}
;;;3265   			if(bit == dot_flag)
;;;3266   			{
;;;3267   				dot_flag = 0;
;;;3268   			}
;;;3269   			TEXT_SetText(hItem,set_limit);
;;;3270               break;
;;;3271           }
;;;3272           case set_83:
;;;3273           {
;;;3274               WM_HWIN hItem;
;;;3275   //            WM_InvalidateWindow(hWinset);
;;;3276               hItem = WM_GetDialogItem(hWinset, ID_TEXT_155);
;;;3277              if(bit > 1)
;;;3278   			{
;;;3279   				bit --;
;;;3280   				set_limit[bit-1] = '\0';
;;;3281   			}
;;;3282   			if(bit == dot_flag)
;;;3283   			{
;;;3284   				dot_flag = 0;
;;;3285   			}
;;;3286   			TEXT_SetText(hItem,set_limit);
;;;3287               break;
;;;3288           }
;;;3289   		
;;;3290           case set_14:
;;;3291           {
;;;3292               WM_HWIN hItem;
;;;3293   //            WM_InvalidateWindow(hWinset);
;;;3294               hItem = WM_GetDialogItem(hWinset, ID_TEXT_37);
;;;3295               if(bit > 1)
;;;3296   			{
;;;3297   				bit --;
;;;3298   				set_limit[bit-1] = '\0';
;;;3299   			}
;;;3300   			if(bit == dot_flag)
;;;3301   			{
;;;3302   				dot_flag = 0;
;;;3303   			}
;;;3304   			TEXT_SetText(hItem,set_limit);
;;;3305               break;           
;;;3306           }
;;;3307           case set_15:
;;;3308           {
;;;3309               WM_HWIN hItem;
;;;3310   //            WM_InvalidateWindow(hWinset);
;;;3311               hItem = WM_GetDialogItem(hWinset, ID_TEXT_38);
;;;3312               if(bit > 1)
;;;3313   			{
;;;3314   				bit --;
;;;3315   				set_limit[bit-1] = '\0';
;;;3316   			}
;;;3317   			if(bit == dot_flag)
;;;3318   			{
;;;3319   				dot_flag = 0;
;;;3320   			}
;;;3321   			TEXT_SetText(hItem,set_limit);
;;;3322               break;
;;;3323           }
;;;3324           case set_16:
;;;3325           {
;;;3326               WM_HWIN hItem;
;;;3327   //            WM_InvalidateWindow(hWinset);
;;;3328               hItem = WM_GetDialogItem(hWinset, ID_TEXT_39);
;;;3329               if(bit > 1)
;;;3330   			{
;;;3331   				bit --;
;;;3332   				set_limit[bit-1] = '\0';
;;;3333   			}
;;;3334   			if(bit == dot_flag)
;;;3335   			{
;;;3336   				dot_flag = 0;
;;;3337   			}
;;;3338   			TEXT_SetText(hItem,set_limit);
;;;3339               break;
;;;3340           }
;;;3341           case set_17:
;;;3342           {
;;;3343               WM_HWIN hItem;
;;;3344   //            WM_InvalidateWindow(hWinset);
;;;3345               hItem = WM_GetDialogItem(hWinset, ID_TEXT_40);
;;;3346               if(bit > 1)
;;;3347   			{
;;;3348   				bit --;
;;;3349   				set_limit[bit-1] = '\0';
;;;3350   			}
;;;3351   			if(bit == dot_flag)
;;;3352   			{
;;;3353   				dot_flag = 0;
;;;3354   			}
;;;3355   			TEXT_SetText(hItem,set_limit);
;;;3356               break;
;;;3357   		}
;;;3358   		case set_84:
;;;3359   		{
;;;3360               WM_HWIN hItem;
;;;3361   //            WM_InvalidateWindow(hWinset);
;;;3362               hItem = WM_GetDialogItem(hWinset, ID_TEXT_156);
;;;3363               if(bit > 1)
;;;3364   			{
;;;3365   				bit --;
;;;3366   				set_limit[bit-1] = '\0';
;;;3367   			}
;;;3368   			if(bit == dot_flag)
;;;3369   			{
;;;3370   				dot_flag = 0;
;;;3371   			}
;;;3372   			TEXT_SetText(hItem,set_limit);
;;;3373               break;
;;;3374           }
;;;3375           case set_85:
;;;3376           {
;;;3377               WM_HWIN hItem;
;;;3378   //            WM_InvalidateWindow(hWinset);
;;;3379               hItem = WM_GetDialogItem(hWinset, ID_TEXT_157);
00003c  f6401138          MOV      r1,#0x938
000040  f7fffffe          BL       WM_GetDialogItem
;;;3380               if(bit > 1)
000044  7829              LDRB     r1,[r5,#0]  ; bit
000046  2901              CMP      r1,#1
000048  d906              BLS      |L2.88|
;;;3381   			{
;;;3382   				bit --;
00004a  7829              LDRB     r1,[r5,#0]  ; bit
00004c  1e49              SUBS     r1,r1,#1
00004e  7029              STRB     r1,[r5,#0]
;;;3383   				set_limit[bit-1] = '\0';
000050  7829              LDRB     r1,[r5,#0]  ; bit
000052  4439              ADD      r1,r1,r7
000054  f8014c01          STRB     r4,[r1,#-1]
                  |L2.88|
;;;3384   			}
;;;3385   			if(bit == dot_flag)
000058  7829              LDRB     r1,[r5,#0]  ; bit
00005a  7832              LDRB     r2,[r6,#0]  ; dot_flag
00005c  4291              CMP      r1,r2
00005e  d100              BNE      |L2.98|
;;;3386   			{
;;;3387   				dot_flag = 0;
000060  7034              STRB     r4,[r6,#0]
                  |L2.98|
;;;3388   			}
;;;3389   			TEXT_SetText(hItem,set_limit);
000062  e8bd41f0          POP      {r4-r8,lr}
000066  4972              LDR      r1,|L2.560|
000068  f7ffbffe          B.W      TEXT_SetText
00006c  f44f6106          MOV      r1,#0x860             ;3225
000070  f7fffffe          BL       WM_GetDialogItem
000074  7829              LDRB     r1,[r5,#0]            ;3226  ; bit
000076  2901              CMP      r1,#1                 ;3226
000078  d906              BLS      |L2.136|
00007a  7829              LDRB     r1,[r5,#0]            ;3228  ; bit
00007c  1e49              SUBS     r1,r1,#1              ;3228
00007e  7029              STRB     r1,[r5,#0]            ;3228
000080  7829              LDRB     r1,[r5,#0]            ;3229  ; bit
000082  4439              ADD      r1,r1,r7              ;3229
000084  f8014c01          STRB     r4,[r1,#-1]           ;3229
                  |L2.136|
000088  7829              LDRB     r1,[r5,#0]            ;3231  ; bit
00008a  7832              LDRB     r2,[r6,#0]            ;3231  ; dot_flag
00008c  4291              CMP      r1,r2                 ;3231
00008e  d100              BNE      |L2.146|
000090  7034              STRB     r4,[r6,#0]            ;3233
                  |L2.146|
000092  e8bd41f0          POP      {r4-r8,lr}            ;3235
000096  4966              LDR      r1,|L2.560|
000098  f7ffbffe          B.W      TEXT_SetText
00009c  f6400161          MOV      r1,#0x861             ;3242
0000a0  f7fffffe          BL       WM_GetDialogItem
0000a4  7829              LDRB     r1,[r5,#0]            ;3243  ; bit
0000a6  2901              CMP      r1,#1                 ;3243
0000a8  d906              BLS      |L2.184|
0000aa  7829              LDRB     r1,[r5,#0]            ;3245  ; bit
0000ac  1e49              SUBS     r1,r1,#1              ;3245
0000ae  7029              STRB     r1,[r5,#0]            ;3245
0000b0  7829              LDRB     r1,[r5,#0]            ;3246  ; bit
0000b2  4439              ADD      r1,r1,r7              ;3246
0000b4  f8014c01          STRB     r4,[r1,#-1]           ;3246
                  |L2.184|
0000b8  7829              LDRB     r1,[r5,#0]            ;3248  ; bit
0000ba  7832              LDRB     r2,[r6,#0]            ;3248  ; dot_flag
0000bc  4291              CMP      r1,r2                 ;3248
0000be  d100              BNE      |L2.194|
0000c0  7034              STRB     r4,[r6,#0]            ;3250
                  |L2.194|
0000c2  e8bd41f0          POP      {r4-r8,lr}            ;3252
0000c6  495a              LDR      r1,|L2.560|
0000c8  f7ffbffe          B.W      TEXT_SetText
                  |L2.204|
0000cc  f6401135          MOV      r1,#0x935             ;3259
0000d0  f7fffffe          BL       WM_GetDialogItem
0000d4  7829              LDRB     r1,[r5,#0]            ;3260  ; bit
0000d6  2901              CMP      r1,#1                 ;3260
0000d8  d906              BLS      |L2.232|
0000da  7829              LDRB     r1,[r5,#0]            ;3262  ; bit
0000dc  1e49              SUBS     r1,r1,#1              ;3262
0000de  7029              STRB     r1,[r5,#0]            ;3262
0000e0  7829              LDRB     r1,[r5,#0]            ;3263  ; bit
0000e2  4439              ADD      r1,r1,r7              ;3263
0000e4  f8014c01          STRB     r4,[r1,#-1]           ;3263
                  |L2.232|
0000e8  7829              LDRB     r1,[r5,#0]            ;3265  ; bit
0000ea  7832              LDRB     r2,[r6,#0]            ;3265  ; dot_flag
0000ec  4291              CMP      r1,r2                 ;3265
0000ee  d100              BNE      |L2.242|
0000f0  7034              STRB     r4,[r6,#0]            ;3267
                  |L2.242|
0000f2  e8bd41f0          POP      {r4-r8,lr}            ;3269
0000f6  494e              LDR      r1,|L2.560|
0000f8  f7ffbffe          B.W      TEXT_SetText
                  |L2.252|
0000fc  f6401136          MOV      r1,#0x936             ;3276
000100  f7fffffe          BL       WM_GetDialogItem
000104  7829              LDRB     r1,[r5,#0]            ;3277  ; bit
000106  2901              CMP      r1,#1                 ;3277
000108  d90a              BLS      |L2.288|
00010a  7829              LDRB     r1,[r5,#0]            ;3279  ; bit
00010c  1e49              SUBS     r1,r1,#1              ;3279
00010e  7029              STRB     r1,[r5,#0]            ;3279
000110  7829              LDRB     r1,[r5,#0]            ;3280  ; bit
000112  e002              B        |L2.282|
                  |L2.276|
000114  e056              B        |L2.452|
                  |L2.278|
000116  e085              B        |L2.548|
                  |L2.280|
000118  e06c              B        |L2.500|
                  |L2.282|
00011a  4439              ADD      r1,r1,r7              ;3280
00011c  f8014c01          STRB     r4,[r1,#-1]           ;3280
                  |L2.288|
000120  7829              LDRB     r1,[r5,#0]            ;3282  ; bit
000122  7832              LDRB     r2,[r6,#0]            ;3282  ; dot_flag
000124  4291              CMP      r1,r2                 ;3282
000126  d100              BNE      |L2.298|
000128  7034              STRB     r4,[r6,#0]            ;3284
                  |L2.298|
00012a  e8bd41f0          POP      {r4-r8,lr}            ;3286
00012e  4940              LDR      r1,|L2.560|
000130  f7ffbffe          B.W      TEXT_SetText
000134  f6400162          MOV      r1,#0x862             ;3294
000138  f7fffffe          BL       WM_GetDialogItem
00013c  7829              LDRB     r1,[r5,#0]            ;3295  ; bit
00013e  2901              CMP      r1,#1                 ;3295
000140  d906              BLS      |L2.336|
000142  7829              LDRB     r1,[r5,#0]            ;3297  ; bit
000144  1e49              SUBS     r1,r1,#1              ;3297
000146  7029              STRB     r1,[r5,#0]            ;3297
000148  7829              LDRB     r1,[r5,#0]            ;3298  ; bit
00014a  4439              ADD      r1,r1,r7              ;3298
00014c  f8014c01          STRB     r4,[r1,#-1]           ;3298
                  |L2.336|
000150  7829              LDRB     r1,[r5,#0]            ;3300  ; bit
000152  7832              LDRB     r2,[r6,#0]            ;3300  ; dot_flag
000154  4291              CMP      r1,r2                 ;3300
000156  d100              BNE      |L2.346|
000158  7034              STRB     r4,[r6,#0]            ;3302
                  |L2.346|
00015a  e8bd41f0          POP      {r4-r8,lr}            ;3304
00015e  4934              LDR      r1,|L2.560|
000160  f7ffbffe          B.W      TEXT_SetText
000164  f6400163          MOV      r1,#0x863             ;3311
000168  f7fffffe          BL       WM_GetDialogItem
00016c  7829              LDRB     r1,[r5,#0]            ;3312  ; bit
00016e  2901              CMP      r1,#1                 ;3312
000170  d906              BLS      |L2.384|
000172  7829              LDRB     r1,[r5,#0]            ;3314  ; bit
000174  1e49              SUBS     r1,r1,#1              ;3314
000176  7029              STRB     r1,[r5,#0]            ;3314
000178  7829              LDRB     r1,[r5,#0]            ;3315  ; bit
00017a  4439              ADD      r1,r1,r7              ;3315
00017c  f8014c01          STRB     r4,[r1,#-1]           ;3315
                  |L2.384|
000180  7829              LDRB     r1,[r5,#0]            ;3317  ; bit
000182  7832              LDRB     r2,[r6,#0]            ;3317  ; dot_flag
000184  4291              CMP      r1,r2                 ;3317
000186  d100              BNE      |L2.394|
000188  7034              STRB     r4,[r6,#0]            ;3319
                  |L2.394|
00018a  e8bd41f0          POP      {r4-r8,lr}            ;3321
00018e  4928              LDR      r1,|L2.560|
000190  f7ffbffe          B.W      TEXT_SetText
000194  f6400164          MOV      r1,#0x864             ;3328
000198  f7fffffe          BL       WM_GetDialogItem
00019c  7829              LDRB     r1,[r5,#0]            ;3329  ; bit
00019e  2901              CMP      r1,#1                 ;3329
0001a0  d906              BLS      |L2.432|
0001a2  7829              LDRB     r1,[r5,#0]            ;3331  ; bit
0001a4  1e49              SUBS     r1,r1,#1              ;3331
0001a6  7029              STRB     r1,[r5,#0]            ;3331
0001a8  7829              LDRB     r1,[r5,#0]            ;3332  ; bit
0001aa  4439              ADD      r1,r1,r7              ;3332
0001ac  f8014c01          STRB     r4,[r1,#-1]           ;3332
                  |L2.432|
0001b0  7829              LDRB     r1,[r5,#0]            ;3334  ; bit
0001b2  7832              LDRB     r2,[r6,#0]            ;3334  ; dot_flag
0001b4  4291              CMP      r1,r2                 ;3334
0001b6  d100              BNE      |L2.442|
0001b8  7034              STRB     r4,[r6,#0]            ;3336
                  |L2.442|
0001ba  e8bd41f0          POP      {r4-r8,lr}            ;3338
0001be  491c              LDR      r1,|L2.560|
0001c0  f7ffbffe          B.W      TEXT_SetText
                  |L2.452|
0001c4  f6400165          MOV      r1,#0x865             ;3345
0001c8  f7fffffe          BL       WM_GetDialogItem
0001cc  7829              LDRB     r1,[r5,#0]            ;3346  ; bit
0001ce  2901              CMP      r1,#1                 ;3346
0001d0  d906              BLS      |L2.480|
0001d2  7829              LDRB     r1,[r5,#0]            ;3348  ; bit
0001d4  1e49              SUBS     r1,r1,#1              ;3348
0001d6  7029              STRB     r1,[r5,#0]            ;3348
0001d8  7829              LDRB     r1,[r5,#0]            ;3349  ; bit
0001da  4439              ADD      r1,r1,r7              ;3349
0001dc  f8014c01          STRB     r4,[r1,#-1]           ;3349
                  |L2.480|
0001e0  7829              LDRB     r1,[r5,#0]            ;3351  ; bit
0001e2  7832              LDRB     r2,[r6,#0]            ;3351  ; dot_flag
0001e4  4291              CMP      r1,r2                 ;3351
0001e6  d100              BNE      |L2.490|
0001e8  7034              STRB     r4,[r6,#0]            ;3353
                  |L2.490|
0001ea  e8bd41f0          POP      {r4-r8,lr}            ;3355
0001ee  4910              LDR      r1,|L2.560|
0001f0  f7ffbffe          B.W      TEXT_SetText
                  |L2.500|
0001f4  f6401137          MOV      r1,#0x937             ;3362
0001f8  f7fffffe          BL       WM_GetDialogItem
0001fc  7829              LDRB     r1,[r5,#0]            ;3363  ; bit
0001fe  2901              CMP      r1,#1                 ;3363
000200  d906              BLS      |L2.528|
000202  7829              LDRB     r1,[r5,#0]            ;3365  ; bit
000204  1e49              SUBS     r1,r1,#1              ;3365
000206  7029              STRB     r1,[r5,#0]            ;3365
000208  7829              LDRB     r1,[r5,#0]            ;3366  ; bit
00020a  4439              ADD      r1,r1,r7              ;3366
00020c  f8014c01          STRB     r4,[r1,#-1]           ;3366
                  |L2.528|
000210  7829              LDRB     r1,[r5,#0]            ;3368  ; bit
000212  7832              LDRB     r2,[r6,#0]            ;3368  ; dot_flag
000214  4291              CMP      r1,r2                 ;3368
000216  d100              BNE      |L2.538|
000218  7034              STRB     r4,[r6,#0]            ;3370
                  |L2.538|
00021a  e8bd41f0          POP      {r4-r8,lr}            ;3372
00021e  4904              LDR      r1,|L2.560|
000220  f7ffbffe          B.W      TEXT_SetText
                  |L2.548|
;;;3390               break;
;;;3391           }
;;;3392   	}
;;;3393           
;;;3394   }
000224  e8bd81f0          POP      {r4-r8,pc}
;;;3395   //Á≥ªÁªüËÆæÁΩÆÁïåÈù¢Êï∞ÊçÆËæìÂÖ•
                          ENDP

                  |L2.552|
                          DCD      set_sw
                  |L2.556|
                          DCD      ||.data||
                  |L2.560|
                          DCD      set_limit
                  |L2.564|
                          DCD      bit
                  |L2.568|
                          DCD      dot_flag

                          AREA ||i.INPUT_NUM||, CODE, READONLY, ALIGN=2

                  INPUT_NUM PROC
;;;3396   void INPUT_NUM(char* num);            
;;;3397   void INPUT_NUM(char* num){
000000  e92d41f0          PUSH     {r4-r8,lr}
000004  4606              MOV      r6,r0
;;;3398       u8 i;
;;;3399       switch(set_sw){
000006  48cd              LDR      r0,|L3.828|
000008  7802              LDRB     r2,[r0,#0]  ; set_sw
;;;3400           case set_12:
;;;3401           {
;;;3402               WM_HWIN hItem;
;;;3403   //            WM_InvalidateWindow(hWinset);
;;;3404               hItem = WM_GetDialogItem(hWinset, ID_TEXT_35);
00000a  48cd              LDR      r0,|L3.832|
;;;3405               if(bit < 7)
;;;3406   			{
;;;3407   				strcat(set_limit,num);
;;;3408   			}
;;;3409   			if(dot_flag != 0 && strcmp(num,".") == 0)
00000c  4dcd              LDR      r5,|L3.836|
00000e  4cce              LDR      r4,|L3.840|
000010  6840              LDR      r0,[r0,#4]            ;3404
000012  2a10              CMP      r2,#0x10              ;3399
000014  d07e              BEQ      |L3.276|
000016  dc08              BGT      |L3.42|
000018  f1a2020b          SUB      r2,r2,#0xb            ;3399
00001c  2a05              CMP      r2,#5                 ;3399
00001e  d27a              BCS      |L3.278|
000020  e8dff002          TBB      [pc,r2]               ;3399
000024  2348bfe4          DCB      0x23,0x48,0xbf,0xe4
000028  fe00              DCB      0xfe,0x00
                  |L3.42|
00002a  2a51              CMP      r2,#0x51              ;3399
00002c  d067              BEQ      |L3.254|
00002e  2a52              CMP      r2,#0x52              ;3399
000030  d072              BEQ      |L3.280|
000032  2a53              CMP      r2,#0x53              ;3399
000034  d071              BEQ      |L3.282|
000036  2a54              CMP      r2,#0x54              ;3399
000038  d16d              BNE      |L3.278|
;;;3410   			{
;;;3411   				
;;;3412   			}else{			
;;;3413   				
;;;3414   				if(dot_flag == 0 && strcmp(num,".") == 0)
;;;3415   				{
;;;3416   					dot_flag = bit;
;;;3417   				}
;;;3418   				bit ++;
;;;3419   			}
;;;3420   			TEXT_SetText(hItem,set_limit);
;;;3421               break;
;;;3422           }
;;;3423           case set_13:
;;;3424           {
;;;3425               WM_HWIN hItem;
;;;3426   //            WM_InvalidateWindow(hWinset);
;;;3427               hItem = WM_GetDialogItem(hWinset, ID_TEXT_36);
;;;3428               if(bit < 7)
;;;3429   			{
;;;3430   				strcat(set_limit,num);
;;;3431   			}
;;;3432   			if(dot_flag != 0 && strcmp(num,".") == 0)
;;;3433   			{
;;;3434   				
;;;3435   			}else{			
;;;3436   				
;;;3437   				if(dot_flag == 0 && strcmp(num,".") == 0)
;;;3438   				{
;;;3439   					dot_flag = bit;
;;;3440   				}
;;;3441   				bit ++;
;;;3442   			}
;;;3443   			TEXT_SetText(hItem,set_limit);
;;;3444               break;
;;;3445           }
;;;3446   		case set_82:
;;;3447           {
;;;3448               WM_HWIN hItem;
;;;3449   //            WM_InvalidateWindow(hWinset);
;;;3450               hItem = WM_GetDialogItem(hWinset, ID_TEXT_154);
;;;3451               if(bit < 7)
;;;3452   			{
;;;3453   				strcat(set_limit,num);
;;;3454   			}
;;;3455   			if(dot_flag != 0 && strcmp(num,".") == 0)
;;;3456   			{
;;;3457   				
;;;3458   			}else{			
;;;3459   				
;;;3460   				if(dot_flag == 0 && strcmp(num,".") == 0)
;;;3461   				{
;;;3462   					dot_flag = bit;
;;;3463   				}
;;;3464   				bit ++;
;;;3465   			}
;;;3466   			TEXT_SetText(hItem,set_limit);
;;;3467               break;
;;;3468           }
;;;3469           case set_83:
;;;3470           {
;;;3471               WM_HWIN hItem;
;;;3472   //            WM_InvalidateWindow(hWinset);
;;;3473               hItem = WM_GetDialogItem(hWinset, ID_TEXT_155);
;;;3474               if(bit < 7)
;;;3475   			{
;;;3476   				strcat(set_limit,num);
;;;3477   			}
;;;3478   			if(dot_flag != 0 && strcmp(num,".") == 0)
;;;3479   			{
;;;3480   				
;;;3481   			}else{			
;;;3482   				
;;;3483   				if(dot_flag == 0 && strcmp(num,".") == 0)
;;;3484   				{
;;;3485   					dot_flag = bit;
;;;3486   				}
;;;3487   				bit ++;
;;;3488   			}
;;;3489   			TEXT_SetText(hItem,set_limit);
;;;3490               break;
;;;3491           }
;;;3492   		
;;;3493           case set_14:
;;;3494           {
;;;3495               WM_HWIN hItem;
;;;3496   //            WM_InvalidateWindow(hWinset);
;;;3497               hItem = WM_GetDialogItem(hWinset, ID_TEXT_37);
;;;3498               if(bit < 7)
;;;3499   			{
;;;3500   				strcat(set_limit,num);
;;;3501   			}
;;;3502   			if(dot_flag != 0 && strcmp(num,".") == 0)
;;;3503   			{
;;;3504   				
;;;3505   			}else{			
;;;3506   				
;;;3507   				if(dot_flag == 0 && strcmp(num,".") == 0)
;;;3508   				{
;;;3509   					dot_flag = bit;
;;;3510   				}
;;;3511   				bit ++;
;;;3512   			}
;;;3513   			TEXT_SetText(hItem,set_limit);
;;;3514               break;           
;;;3515           }
;;;3516           case set_15:
;;;3517           {
;;;3518               WM_HWIN hItem;
;;;3519   //            WM_InvalidateWindow(hWinset);
;;;3520               hItem = WM_GetDialogItem(hWinset, ID_TEXT_38);
;;;3521               if(bit < 7)
;;;3522   			{
;;;3523   				strcat(set_limit,num);
;;;3524   			}
;;;3525   			if(dot_flag != 0 && strcmp(num,".") == 0)
;;;3526   			{
;;;3527   				
;;;3528   			}else{			
;;;3529   				
;;;3530   				if(dot_flag == 0 && strcmp(num,".") == 0)
;;;3531   				{
;;;3532   					dot_flag = bit;
;;;3533   				}
;;;3534   				bit ++;
;;;3535   			}
;;;3536   			TEXT_SetText(hItem,set_limit);
;;;3537               break;
;;;3538           }
;;;3539           case set_16:
;;;3540           {
;;;3541               WM_HWIN hItem;
;;;3542   //            WM_InvalidateWindow(hWinset);
;;;3543               hItem = WM_GetDialogItem(hWinset, ID_TEXT_39);
;;;3544               if(bit < 7)
;;;3545   			{
;;;3546   				strcat(set_limit,num);
;;;3547   			}
;;;3548   			if(dot_flag != 0 && strcmp(num,".") == 0)
;;;3549   			{
;;;3550   				
;;;3551   			}else{			
;;;3552   				
;;;3553   				if(dot_flag == 0 && strcmp(num,".") == 0)
;;;3554   				{
;;;3555   					dot_flag = bit;
;;;3556   				}
;;;3557   				bit ++;
;;;3558   			}
;;;3559   			TEXT_SetText(hItem,set_limit);
;;;3560               break;
;;;3561           }
;;;3562           case set_17:
;;;3563           {
;;;3564               WM_HWIN hItem;
;;;3565   //            WM_InvalidateWindow(hWinset);
;;;3566               hItem = WM_GetDialogItem(hWinset, ID_TEXT_40);
;;;3567               if(bit < 7)
;;;3568   			{
;;;3569   				strcat(set_limit,num);
;;;3570   			}
;;;3571   			if(dot_flag != 0 && strcmp(num,".") == 0)
;;;3572   			{
;;;3573   				
;;;3574   			}else{			
;;;3575   				
;;;3576   				if(dot_flag == 0 && strcmp(num,".") == 0)
;;;3577   				{
;;;3578   					dot_flag = bit;
;;;3579   				}
;;;3580   				bit ++;
;;;3581   			}
;;;3582   			TEXT_SetText(hItem,set_limit);
;;;3583               break;
;;;3584   		}
;;;3585   		case set_84:
;;;3586   		{
;;;3587               WM_HWIN hItem;
;;;3588   //            WM_InvalidateWindow(hWinset);
;;;3589               hItem = WM_GetDialogItem(hWinset, ID_TEXT_156);
;;;3590               if(bit < 7)
;;;3591   			{
;;;3592   				strcat(set_limit,num);
;;;3593   			}
;;;3594   			if(dot_flag != 0 && strcmp(num,".") == 0)
;;;3595   			{
;;;3596   				
;;;3597   			}else{			
;;;3598   				
;;;3599   				if(dot_flag == 0 && strcmp(num,".") == 0)
;;;3600   				{
;;;3601   					dot_flag = bit;
;;;3602   				}
;;;3603   				bit ++;
;;;3604   			}
;;;3605   			TEXT_SetText(hItem,set_limit);
;;;3606               break;
;;;3607           }
;;;3608           case set_85:
;;;3609           {
;;;3610               WM_HWIN hItem;
;;;3611   //            WM_InvalidateWindow(hWinset);
;;;3612               hItem = WM_GetDialogItem(hWinset, ID_TEXT_157);
00003a  f6401138          MOV      r1,#0x938
00003e  f7fffffe          BL       WM_GetDialogItem
000042  4607              MOV      r7,r0
;;;3613               if(bit < 7)
000044  7820              LDRB     r0,[r4,#0]  ; bit
000046  2807              CMP      r0,#7
000048  d203              BCS      |L3.82|
;;;3614   			{
;;;3615   				strcat(set_limit,num);
00004a  4631              MOV      r1,r6
00004c  48bf              LDR      r0,|L3.844|
00004e  f7fffffe          BL       strcat
                  |L3.82|
;;;3616   			}
;;;3617   			if(dot_flag != 0 && strcmp(num,".") == 0)
000052  7828              LDRB     r0,[r5,#0]  ; dot_flag
000054  b128              CBZ      r0,|L3.98|
000056  a1be              ADR      r1,|L3.848|
000058  4630              MOV      r0,r6
00005a  f7fffffe          BL       strcmp
00005e  2800              CMP      r0,#0
000060  d07e              BEQ      |L3.352|
                  |L3.98|
;;;3618   			{
;;;3619   				
;;;3620   			}else{			
;;;3621   				
;;;3622   				if(dot_flag == 0 && strcmp(num,".") == 0)
000062  7828              LDRB     r0,[r5,#0]  ; dot_flag
000064  2800              CMP      r0,#0
000066  d07c              BEQ      |L3.354|
000068  e15d              B        |L3.806|
00006a  f44f6106          MOV      r1,#0x860             ;3404
00006e  f7fffffe          BL       WM_GetDialogItem
000072  4607              MOV      r7,r0                 ;3404
000074  7820              LDRB     r0,[r4,#0]            ;3405  ; bit
000076  2807              CMP      r0,#7                 ;3405
000078  d203              BCS      |L3.130|
00007a  4631              MOV      r1,r6                 ;3407
00007c  48b3              LDR      r0,|L3.844|
00007e  f7fffffe          BL       strcat
                  |L3.130|
000082  7828              LDRB     r0,[r5,#0]            ;3409  ; dot_flag
000084  b120              CBZ      r0,|L3.144|
000086  a1b2              ADR      r1,|L3.848|
000088  4630              MOV      r0,r6                 ;3409
00008a  f7fffffe          BL       strcmp
00008e  b158              CBZ      r0,|L3.168|
                  |L3.144|
000090  7828              LDRB     r0,[r5,#0]            ;3414  ; dot_flag
000092  b930              CBNZ     r0,|L3.162|
000094  a1ae              ADR      r1,|L3.848|
000096  4630              MOV      r0,r6                 ;3414
000098  f7fffffe          BL       strcmp
00009c  b908              CBNZ     r0,|L3.162|
00009e  7820              LDRB     r0,[r4,#0]            ;3416  ; bit
0000a0  7028              STRB     r0,[r5,#0]            ;3416
                  |L3.162|
0000a2  7820              LDRB     r0,[r4,#0]            ;3418  ; bit
0000a4  1c40              ADDS     r0,r0,#1              ;3418
0000a6  7020              STRB     r0,[r4,#0]            ;3418
                  |L3.168|
0000a8  4638              MOV      r0,r7                 ;3420
0000aa  e8bd41f0          POP      {r4-r8,lr}            ;3420
0000ae  49a7              LDR      r1,|L3.844|
0000b0  f7ffbffe          B.W      TEXT_SetText
0000b4  f6400161          MOV      r1,#0x861             ;3427
0000b8  f7fffffe          BL       WM_GetDialogItem
0000bc  4607              MOV      r7,r0                 ;3427
0000be  7820              LDRB     r0,[r4,#0]            ;3428  ; bit
0000c0  2807              CMP      r0,#7                 ;3428
0000c2  d203              BCS      |L3.204|
0000c4  4631              MOV      r1,r6                 ;3430
0000c6  48a1              LDR      r0,|L3.844|
0000c8  f7fffffe          BL       strcat
                  |L3.204|
0000cc  7828              LDRB     r0,[r5,#0]            ;3432  ; dot_flag
0000ce  b120              CBZ      r0,|L3.218|
0000d0  a19f              ADR      r1,|L3.848|
0000d2  4630              MOV      r0,r6                 ;3432
0000d4  f7fffffe          BL       strcmp
0000d8  b158              CBZ      r0,|L3.242|
                  |L3.218|
0000da  7828              LDRB     r0,[r5,#0]            ;3437  ; dot_flag
0000dc  b930              CBNZ     r0,|L3.236|
0000de  a19c              ADR      r1,|L3.848|
0000e0  4630              MOV      r0,r6                 ;3437
0000e2  f7fffffe          BL       strcmp
0000e6  b908              CBNZ     r0,|L3.236|
0000e8  7820              LDRB     r0,[r4,#0]            ;3439  ; bit
0000ea  7028              STRB     r0,[r5,#0]            ;3439
                  |L3.236|
0000ec  7820              LDRB     r0,[r4,#0]            ;3441  ; bit
0000ee  1c40              ADDS     r0,r0,#1              ;3441
0000f0  7020              STRB     r0,[r4,#0]            ;3441
                  |L3.242|
0000f2  4638              MOV      r0,r7                 ;3443
0000f4  e8bd41f0          POP      {r4-r8,lr}            ;3443
0000f8  4994              LDR      r1,|L3.844|
0000fa  f7ffbffe          B.W      TEXT_SetText
                  |L3.254|
0000fe  f6401135          MOV      r1,#0x935             ;3450
000102  f7fffffe          BL       WM_GetDialogItem
000106  4607              MOV      r7,r0                 ;3450
000108  7820              LDRB     r0,[r4,#0]            ;3451  ; bit
00010a  2807              CMP      r0,#7                 ;3451
00010c  d208              BCS      |L3.288|
00010e  4631              MOV      r1,r6                 ;3453
000110  488e              LDR      r0,|L3.844|
000112  e003              B        |L3.284|
                  |L3.276|
000114  e0b6              B        |L3.644|
                  |L3.278|
000116  e10f              B        |L3.824|
                  |L3.280|
000118  e01b              B        |L3.338|
                  |L3.282|
00011a  e0d8              B        |L3.718|
                  |L3.284|
00011c  f7fffffe          BL       strcat
                  |L3.288|
000120  7828              LDRB     r0,[r5,#0]            ;3455  ; dot_flag
000122  b120              CBZ      r0,|L3.302|
000124  a18a              ADR      r1,|L3.848|
000126  4630              MOV      r0,r6                 ;3455
000128  f7fffffe          BL       strcmp
00012c  b158              CBZ      r0,|L3.326|
                  |L3.302|
00012e  7828              LDRB     r0,[r5,#0]            ;3460  ; dot_flag
000130  b930              CBNZ     r0,|L3.320|
000132  a187              ADR      r1,|L3.848|
000134  4630              MOV      r0,r6                 ;3460
000136  f7fffffe          BL       strcmp
00013a  b908              CBNZ     r0,|L3.320|
00013c  7820              LDRB     r0,[r4,#0]            ;3462  ; bit
00013e  7028              STRB     r0,[r5,#0]            ;3462
                  |L3.320|
000140  7820              LDRB     r0,[r4,#0]            ;3464  ; bit
000142  1c40              ADDS     r0,r0,#1              ;3464
000144  7020              STRB     r0,[r4,#0]            ;3464
                  |L3.326|
000146  4638              MOV      r0,r7                 ;3466
000148  e8bd41f0          POP      {r4-r8,lr}            ;3466
00014c  497f              LDR      r1,|L3.844|
00014e  f7ffbffe          B.W      TEXT_SetText
                  |L3.338|
000152  f6401136          MOV      r1,#0x936             ;3473
000156  f7fffffe          BL       WM_GetDialogItem
00015a  4607              MOV      r7,r0                 ;3473
00015c  7820              LDRB     r0,[r4,#0]            ;3474  ; bit
00015e  e001              B        |L3.356|
                  |L3.352|
000160  e0e4              B        |L3.812|
                  |L3.354|
000162  e0d9              B        |L3.792|
                  |L3.356|
000164  2807              CMP      r0,#7                 ;3474
000166  d203              BCS      |L3.368|
000168  4631              MOV      r1,r6                 ;3476
00016a  4878              LDR      r0,|L3.844|
00016c  f7fffffe          BL       strcat
                  |L3.368|
000170  7828              LDRB     r0,[r5,#0]            ;3478  ; dot_flag
000172  b120              CBZ      r0,|L3.382|
000174  a176              ADR      r1,|L3.848|
000176  4630              MOV      r0,r6                 ;3478
000178  f7fffffe          BL       strcmp
00017c  b158              CBZ      r0,|L3.406|
                  |L3.382|
00017e  7828              LDRB     r0,[r5,#0]            ;3483  ; dot_flag
000180  b930              CBNZ     r0,|L3.400|
000182  a173              ADR      r1,|L3.848|
000184  4630              MOV      r0,r6                 ;3483
000186  f7fffffe          BL       strcmp
00018a  b908              CBNZ     r0,|L3.400|
00018c  7820              LDRB     r0,[r4,#0]            ;3485  ; bit
00018e  7028              STRB     r0,[r5,#0]            ;3485
                  |L3.400|
000190  7820              LDRB     r0,[r4,#0]            ;3487  ; bit
000192  1c40              ADDS     r0,r0,#1              ;3487
000194  7020              STRB     r0,[r4,#0]            ;3487
                  |L3.406|
000196  4638              MOV      r0,r7                 ;3489
000198  e8bd41f0          POP      {r4-r8,lr}            ;3489
00019c  496b              LDR      r1,|L3.844|
00019e  f7ffbffe          B.W      TEXT_SetText
0001a2  f6400162          MOV      r1,#0x862             ;3497
0001a6  f7fffffe          BL       WM_GetDialogItem
0001aa  4607              MOV      r7,r0                 ;3497
0001ac  7820              LDRB     r0,[r4,#0]            ;3498  ; bit
0001ae  2807              CMP      r0,#7                 ;3498
0001b0  d203              BCS      |L3.442|
0001b2  4631              MOV      r1,r6                 ;3500
0001b4  4865              LDR      r0,|L3.844|
0001b6  f7fffffe          BL       strcat
                  |L3.442|
0001ba  7828              LDRB     r0,[r5,#0]            ;3502  ; dot_flag
0001bc  b120              CBZ      r0,|L3.456|
0001be  a164              ADR      r1,|L3.848|
0001c0  4630              MOV      r0,r6                 ;3502
0001c2  f7fffffe          BL       strcmp
0001c6  b158              CBZ      r0,|L3.480|
                  |L3.456|
0001c8  7828              LDRB     r0,[r5,#0]            ;3507  ; dot_flag
0001ca  b930              CBNZ     r0,|L3.474|
0001cc  a160              ADR      r1,|L3.848|
0001ce  4630              MOV      r0,r6                 ;3507
0001d0  f7fffffe          BL       strcmp
0001d4  b908              CBNZ     r0,|L3.474|
0001d6  7820              LDRB     r0,[r4,#0]            ;3509  ; bit
0001d8  7028              STRB     r0,[r5,#0]            ;3509
                  |L3.474|
0001da  7820              LDRB     r0,[r4,#0]            ;3511  ; bit
0001dc  1c40              ADDS     r0,r0,#1              ;3511
0001de  7020              STRB     r0,[r4,#0]            ;3511
                  |L3.480|
0001e0  4638              MOV      r0,r7                 ;3513
0001e2  e8bd41f0          POP      {r4-r8,lr}            ;3513
0001e6  4959              LDR      r1,|L3.844|
0001e8  f7ffbffe          B.W      TEXT_SetText
0001ec  f6400163          MOV      r1,#0x863             ;3520
0001f0  f7fffffe          BL       WM_GetDialogItem
0001f4  4607              MOV      r7,r0                 ;3520
0001f6  7820              LDRB     r0,[r4,#0]            ;3521  ; bit
0001f8  2807              CMP      r0,#7                 ;3521
0001fa  d203              BCS      |L3.516|
0001fc  4631              MOV      r1,r6                 ;3523
0001fe  4853              LDR      r0,|L3.844|
000200  f7fffffe          BL       strcat
                  |L3.516|
000204  7828              LDRB     r0,[r5,#0]            ;3525  ; dot_flag
000206  b120              CBZ      r0,|L3.530|
000208  a151              ADR      r1,|L3.848|
00020a  4630              MOV      r0,r6                 ;3525
00020c  f7fffffe          BL       strcmp
000210  b168              CBZ      r0,|L3.558|
                  |L3.530|
000212  7828              LDRB     r0,[r5,#0]            ;3530  ; dot_flag
000214  b940              CBNZ     r0,|L3.552|
000216  a14e              ADR      r1,|L3.848|
000218  4630              MOV      r0,r6                 ;3530
00021a  f7fffffe          BL       strcmp
00021e  e000              B        |L3.546|
000220  e00b              B        |L3.570|
                  |L3.546|
000222  b908              CBNZ     r0,|L3.552|
000224  7820              LDRB     r0,[r4,#0]            ;3532  ; bit
000226  7028              STRB     r0,[r5,#0]            ;3532
                  |L3.552|
000228  7820              LDRB     r0,[r4,#0]            ;3534  ; bit
00022a  1c40              ADDS     r0,r0,#1              ;3534
00022c  7020              STRB     r0,[r4,#0]            ;3534
                  |L3.558|
00022e  4638              MOV      r0,r7                 ;3536
000230  e8bd41f0          POP      {r4-r8,lr}            ;3536
000234  4945              LDR      r1,|L3.844|
000236  f7ffbffe          B.W      TEXT_SetText
                  |L3.570|
00023a  f6400164          MOV      r1,#0x864             ;3543
00023e  f7fffffe          BL       WM_GetDialogItem
000242  4607              MOV      r7,r0                 ;3543
000244  7820              LDRB     r0,[r4,#0]            ;3544  ; bit
000246  2807              CMP      r0,#7                 ;3544
000248  d203              BCS      |L3.594|
00024a  4631              MOV      r1,r6                 ;3546
00024c  483f              LDR      r0,|L3.844|
00024e  f7fffffe          BL       strcat
                  |L3.594|
000252  7828              LDRB     r0,[r5,#0]            ;3548  ; dot_flag
000254  b120              CBZ      r0,|L3.608|
000256  a13e              ADR      r1,|L3.848|
000258  4630              MOV      r0,r6                 ;3548
00025a  f7fffffe          BL       strcmp
00025e  b158              CBZ      r0,|L3.632|
                  |L3.608|
000260  7828              LDRB     r0,[r5,#0]            ;3553  ; dot_flag
000262  b930              CBNZ     r0,|L3.626|
000264  a13a              ADR      r1,|L3.848|
000266  4630              MOV      r0,r6                 ;3553
000268  f7fffffe          BL       strcmp
00026c  b908              CBNZ     r0,|L3.626|
00026e  7820              LDRB     r0,[r4,#0]            ;3555  ; bit
000270  7028              STRB     r0,[r5,#0]            ;3555
                  |L3.626|
000272  7820              LDRB     r0,[r4,#0]            ;3557  ; bit
000274  1c40              ADDS     r0,r0,#1              ;3557
000276  7020              STRB     r0,[r4,#0]            ;3557
                  |L3.632|
000278  4638              MOV      r0,r7                 ;3559
00027a  e8bd41f0          POP      {r4-r8,lr}            ;3559
00027e  4933              LDR      r1,|L3.844|
000280  f7ffbffe          B.W      TEXT_SetText
                  |L3.644|
000284  f6400165          MOV      r1,#0x865             ;3566
000288  f7fffffe          BL       WM_GetDialogItem
00028c  4607              MOV      r7,r0                 ;3566
00028e  7820              LDRB     r0,[r4,#0]            ;3567  ; bit
000290  2807              CMP      r0,#7                 ;3567
000292  d203              BCS      |L3.668|
000294  4631              MOV      r1,r6                 ;3569
000296  482d              LDR      r0,|L3.844|
000298  f7fffffe          BL       strcat
                  |L3.668|
00029c  7828              LDRB     r0,[r5,#0]            ;3571  ; dot_flag
00029e  b120              CBZ      r0,|L3.682|
0002a0  a12b              ADR      r1,|L3.848|
0002a2  4630              MOV      r0,r6                 ;3571
0002a4  f7fffffe          BL       strcmp
0002a8  b158              CBZ      r0,|L3.706|
                  |L3.682|
0002aa  7828              LDRB     r0,[r5,#0]            ;3576  ; dot_flag
0002ac  b930              CBNZ     r0,|L3.700|
0002ae  a128              ADR      r1,|L3.848|
0002b0  4630              MOV      r0,r6                 ;3576
0002b2  f7fffffe          BL       strcmp
0002b6  b908              CBNZ     r0,|L3.700|
0002b8  7820              LDRB     r0,[r4,#0]            ;3578  ; bit
0002ba  7028              STRB     r0,[r5,#0]            ;3578
                  |L3.700|
0002bc  7820              LDRB     r0,[r4,#0]            ;3580  ; bit
0002be  1c40              ADDS     r0,r0,#1              ;3580
0002c0  7020              STRB     r0,[r4,#0]            ;3580
                  |L3.706|
0002c2  4638              MOV      r0,r7                 ;3582
0002c4  e8bd41f0          POP      {r4-r8,lr}            ;3582
0002c8  4920              LDR      r1,|L3.844|
0002ca  f7ffbffe          B.W      TEXT_SetText
                  |L3.718|
0002ce  f6401137          MOV      r1,#0x937             ;3589
0002d2  f7fffffe          BL       WM_GetDialogItem
0002d6  4607              MOV      r7,r0                 ;3589
0002d8  7820              LDRB     r0,[r4,#0]            ;3590  ; bit
0002da  2807              CMP      r0,#7                 ;3590
0002dc  d203              BCS      |L3.742|
0002de  4631              MOV      r1,r6                 ;3592
0002e0  481a              LDR      r0,|L3.844|
0002e2  f7fffffe          BL       strcat
                  |L3.742|
0002e6  7828              LDRB     r0,[r5,#0]            ;3594  ; dot_flag
0002e8  b120              CBZ      r0,|L3.756|
0002ea  a119              ADR      r1,|L3.848|
0002ec  4630              MOV      r0,r6                 ;3594
0002ee  f7fffffe          BL       strcmp
0002f2  b158              CBZ      r0,|L3.780|
                  |L3.756|
0002f4  7828              LDRB     r0,[r5,#0]            ;3599  ; dot_flag
0002f6  b930              CBNZ     r0,|L3.774|
0002f8  a115              ADR      r1,|L3.848|
0002fa  4630              MOV      r0,r6                 ;3599
0002fc  f7fffffe          BL       strcmp
000300  b908              CBNZ     r0,|L3.774|
000302  7820              LDRB     r0,[r4,#0]            ;3601  ; bit
000304  7028              STRB     r0,[r5,#0]            ;3601
                  |L3.774|
000306  7820              LDRB     r0,[r4,#0]            ;3603  ; bit
000308  1c40              ADDS     r0,r0,#1              ;3603
00030a  7020              STRB     r0,[r4,#0]            ;3603
                  |L3.780|
00030c  4638              MOV      r0,r7                 ;3605
00030e  e8bd41f0          POP      {r4-r8,lr}            ;3605
000312  490e              LDR      r1,|L3.844|
000314  f7ffbffe          B.W      TEXT_SetText
                  |L3.792|
000318  a10d              ADR      r1,|L3.848|
00031a  4630              MOV      r0,r6
00031c  f7fffffe          BL       strcmp
000320  b908              CBNZ     r0,|L3.806|
;;;3623   				{
;;;3624   					dot_flag = bit;
000322  7820              LDRB     r0,[r4,#0]  ; bit
000324  7028              STRB     r0,[r5,#0]
                  |L3.806|
;;;3625   				}
;;;3626   				bit ++;
000326  7820              LDRB     r0,[r4,#0]  ; bit
000328  1c40              ADDS     r0,r0,#1
00032a  7020              STRB     r0,[r4,#0]
                  |L3.812|
;;;3627   			}
;;;3628   			TEXT_SetText(hItem,set_limit);
00032c  4638              MOV      r0,r7
00032e  e8bd41f0          POP      {r4-r8,lr}
000332  4906              LDR      r1,|L3.844|
000334  f7ffbffe          B.W      TEXT_SetText
                  |L3.824|
;;;3629               break;
;;;3630           }
;;;3631   	}
;;;3632           
;;;3633   }
000338  e8bd81f0          POP      {r4-r8,pc}
;;;3634   
                          ENDP

                  |L3.828|
                          DCD      set_sw
                  |L3.832|
                          DCD      ||.data||
                  |L3.836|
                          DCD      dot_flag
                  |L3.840|
                          DCD      bit
                  |L3.844|
                          DCD      set_limit
                  |L3.848|
000350  2e00              DCB      ".",0
000352  00                DCB      0
000353  00                DCB      0

                          AREA ||i.PARA_SET||, CODE, READONLY, ALIGN=2

                          REQUIRE _printf_percent
                          REQUIRE _printf_widthprec
                          REQUIRE _printf_f
                          REQUIRE _printf_fp_dec
                          REQUIRE _printf_pre_padding
                          REQUIRE _printf_d
                          REQUIRE _printf_int_dec
                  PARA_SET PROC
;;;1962   
;;;1963   void PARA_SET(void) {
000000  e92d4ff0          PUSH     {r4-r11,lr}
000004  ed2d8b06          VPUSH    {d8-d10}
000008  b087              SUB      sp,sp,#0x1c
;;;1964                   vu8 i;
;;;1965                   char buf[5];
;;;1966     
;;;1967   
;;;1968                   float dis_max_v = (float)set_max_v/1000;
00000a  4ffd              LDR      r7,|L4.1024|
00000c  6bb8              LDR      r0,[r7,#0x38]  ; Run_Control
00000e  ee000a10          VMOV     s0,r0
000012  eeb80a40          VCVT.F32.U32 s0,s0
000016  eddf0afb          VLDR     s1,|L4.1028|
00001a  ee80aa20          VDIV.F32 s20,s0,s1
;;;1969                   float dis_min_v = (float)set_min_v/1000;
00001e  6bf8              LDR      r0,[r7,#0x3c]  ; Run_Control
000020  ee000a10          VMOV     s0,r0
000024  eeb80a40          VCVT.F32.U32 s0,s0
000028  eddf0af6          VLDR     s1,|L4.1028|
00002c  ee809a20          VDIV.F32 s18,s0,s1
;;;1970                   vu16 dis_max_r = set_max_r;
000030  6c38              LDR      r0,[r7,#0x40]  ; Run_Control
000032  9003              STR      r0,[sp,#0xc]
;;;1971                   vu16 dis_min_r = set_min_r;
000034  6c78              LDR      r0,[r7,#0x44]  ; Run_Control
000036  9002              STR      r0,[sp,#8]
;;;1972                   float dis_max_c = (float)set_max_c/1000;
000038  6cb8              LDR      r0,[r7,#0x48]  ; Run_Control
00003a  ee000a10          VMOV     s0,r0
00003e  eeb80a40          VCVT.F32.U32 s0,s0
000042  eddf0af0          VLDR     s1,|L4.1028|
000046  eec0aa20          VDIV.F32 s21,s0,s1
;;;1973                   float dis_min_c = (float)set_min_c/1000;
00004a  6cf8              LDR      r0,[r7,#0x4c]  ; Run_Control
00004c  ee000a10          VMOV     s0,r0
000050  eeb80a40          VCVT.F32.U32 s0,s0
000054  eddf0aeb          VLDR     s1,|L4.1028|
000058  eec09a20          VDIV.F32 s19,s0,s1
;;;1974       
;;;1975                   switch(set_sw){
00005c  48ea              LDR      r0,|L4.1032|
00005e  7801              LDRB     r1,[r0,#0]  ; set_sw
;;;1976                       case set_1:
;;;1977                       {
;;;1978                           switch(para_set1){
;;;1979                               case set_1_on:
;;;1980                               {
;;;1981                                   WM_HWIN hItem;
;;;1982   //                                WM_InvalidateWindow(hWinset);
;;;1983                                   hItem = WM_GetDialogItem(hWinset, ID_TEXT_28);
;;;1984                                   TEXT_SetText(hItem,"OFF");
;;;1985                                   para_set1 = set_1_off;
;;;1986                                   Wrtite_S();
;;;1987                                   break;
;;;1988                               }
;;;1989                               case set_1_off:
;;;1990                               {
;;;1991                                   WM_HWIN hItem;
;;;1992   //                                WM_InvalidateWindow(hWinset);
;;;1993                                   hItem = WM_GetDialogItem(hWinset, ID_TEXT_28);
;;;1994                                   TEXT_SetText(hItem,"ON");
;;;1995                                   para_set1 = set_1_on;
;;;1996                                   Wrtite_S();
;;;1997                                   break;
;;;1998                               }
;;;1999                           }                        
;;;2000                           break;
;;;2001                       }
;;;2002                       case set_2:
;;;2003                       {
;;;2004                           switch(para_set2){
;;;2005                               case set_2_on:
;;;2006                               {
;;;2007                                   WM_HWIN hItem;
;;;2008   //                                WM_InvalidateWindow(hWinset);
;;;2009                                   hItem = WM_GetDialogItem(hWinset, ID_TEXT_29);
;;;2010                                   TEXT_SetText(hItem,"OFF");
;;;2011                                   para_set2 = set_2_off;
;;;2012                                   Write_oct();
;;;2013                                   break;
;;;2014                               }
;;;2015                               case set_2_off:
;;;2016                               {
;;;2017                                   WM_HWIN hItem;
;;;2018   //                                WM_InvalidateWindow(hWinset);
;;;2019                                   hItem = WM_GetDialogItem(hWinset, ID_TEXT_29);
;;;2020                                   TEXT_SetText(hItem,"ON");
;;;2021                                   para_set2 = set_2_on;
;;;2022                                   Write_oct();
;;;2023                                   break;
;;;2024                               }                       
;;;2025                           }
;;;2026                           break;
;;;2027                       }
;;;2028                       case set_3:
;;;2029                       {
;;;2030                           switch(para_set4){
;;;2031                           case set_4_on:
;;;2032                           {
;;;2033                               WM_HWIN hItem;
;;;2034   //                            WM_InvalidateWindow(hWinset);
;;;2035                               hItem = WM_GetDialogItem(hWinset, ID_TEXT_30);
;;;2036                               TEXT_SetText(hItem,"OFF");
;;;2037                               para_set4 = set_4_off;
;;;2038                               Write_alarm();
;;;2039                               break;
;;;2040                           }
;;;2041                           case set_4_off:
;;;2042                           {
;;;2043                               WM_HWIN hItem;
;;;2044   //                            WM_InvalidateWindow(hWinset);
;;;2045                               hItem = WM_GetDialogItem(hWinset, ID_TEXT_30);
;;;2046                               TEXT_SetText(hItem,"ON");
;;;2047                               para_set4 = set_4_on;
;;;2048                               Write_alarm();
;;;2049                               break;
;;;2050                           }
;;;2051   //                        break;
;;;2052                           }
;;;2053                       break;
;;;2054                       }
;;;2055                       case set_4:
;;;2056                       {
;;;2057                               WM_HWIN hItem;
;;;2058   //                            WM_InvalidateWindow(hWinset);
;;;2059                               hItem = WM_GetDialogItem(hWinset, ID_TEXT_24);
;;;2060                               TEXT_SetBkColor(hItem,GUI_INVALID_COLOR);//ÈÄâÈ°πËÉåÊôØËâ≤ËÆæ‰∏∫ÈÄèÊòé
;;;2061                               TEXT_SetTextColor(hItem, GUI_WHITE);
;;;2062                  
;;;2063                               hItem = WM_GetDialogItem(hWinset, ID_TEXT_35);
;;;2064                               TEXT_SetBkColor(hItem,0x00BFFFFF);//ÈÄâÈ°πËÉåÊôØËâ≤ËÆæ‰∏∫Á±≥Ëâ≤
;;;2065                               TEXT_SetTextColor(hItem, GUI_BLACK);
;;;2066                               
;;;2067                               for(i=0;i<6;i++){
;;;2068                                   set_limit[i] = '\0';
;;;2069                               }
;;;2070                               set_sw = set_12;
;;;2071                               break;                        
;;;2072                       }
;;;2073                       case set_12:
;;;2074                       {
;;;2075                           WM_HWIN hItem;
;;;2076   //                        WM_InvalidateWindow(hWinset);
;;;2077   
;;;2078                           hItem = WM_GetDialogItem(hWinset, ID_TEXT_35);
;;;2079                           TEXT_SetBkColor(hItem,GUI_INVALID_COLOR);//ÈÄâÈ°πËÉåÊôØËâ≤ËÆæ‰∏∫ÈÄèÊòé
;;;2080                           TEXT_SetTextColor(hItem, GUI_WHITE);
;;;2081   						if(dot_flag == 0){
;;;2082   							set_max_v = atoi(set_limit)*1000;					
;;;2083   						}else if(dot_flag != 0){
;;;2084   							memset(buf, '\0', sizeof(buf));
;;;2085   							strncpy(buf,set_limit,dot_flag + 2);
;;;2086   							set_max_v = atof(buf)*1000;
000060  ed9f8bea          VLDR     d8,|L4.1036|
000064  48ec              LDR      r0,|L4.1048|
;;;2087   						}
;;;2088   						if(set_max_v > 62000)
;;;2089   						{
;;;2090   							set_max_v = 62000;
;;;2091   						}
;;;2092   						dis_max_v = (float)set_max_v/1000;
;;;2093   //                        if(set_max_v > 80000)
;;;2094   //                        {
;;;2095   //                            set_max_v = 80000;
;;;2096   //                            TEXT_SetText(hItem,"80.00");                                                       
;;;2097   //                        }
;;;2098                           sprintf(buf,"%.3f",dis_max_v);
;;;2099                           TEXT_SetText(hItem,buf);
;;;2100   						
;;;2101   						hItem = WM_GetDialogItem(hWinset, ID_TEXT_36);
;;;2102                           TEXT_SetBkColor(hItem,GUI_INVALID_COLOR);//ÈÄâÈ°πËÉåÊôØËâ≤ËÆæ‰∏∫ÈÄèÊòé
;;;2103                           TEXT_SetTextColor(hItem, GUI_WHITE);
;;;2104                          
;;;2105                           sprintf(buf,"%.3f",dis_min_v);
;;;2106                           TEXT_SetText(hItem,buf);
;;;2107                           
;;;2108                           hItem = WM_GetDialogItem(hWinset, ID_TEXT_24);
;;;2109                           TEXT_SetBkColor(hItem,0x00BFFFFF);//ÈÄâÈ°πËÉåÊôØËâ≤ËÆæ‰∏∫Á±≥Ëâ≤
;;;2110                           TEXT_SetTextColor(hItem, GUI_BLACK);
;;;2111                           Write_Limits();
;;;2112                           set_sw = set_4;
;;;2113                           bit = 1;
000066  f8df93ac          LDR      r9,|L4.1044|
00006a  2400              MOVS     r4,#0                 ;1983
00006c  2601              MOVS     r6,#1
00006e  6842              LDR      r2,[r0,#4]            ;1975
000070  f06f487f          MVN      r8,#0xff000000        ;2061
000074  f06f4a70          MVN      r10,#0xf0000000       ;2060
000078  290f              CMP      r1,#0xf               ;1975
00007a  d07d              BEQ      |L4.376|
00007c  dc0e              BGT      |L4.156|
00007e  4de7              LDR      r5,|L4.1052|
000080  f04f0bff          MOV      r11,#0xff             ;1995
000084  290f              CMP      r1,#0xf               ;1975
000086  d278              BCS      |L4.378|
000088  e8dff001          TBB      [pc,r1]               ;1975
00008c  eeedeceb          DCB      0xee,0xed,0xec,0xeb
000090  eae9e8e7          DCB      0xea,0xe9,0xe8,0xe7
000094  e67777e5          DCB      0xe6,0x77,0x77,0xe5
000098  e4e3e200          DCB      0xe4,0xe3,0xe2,0x00
                  |L4.156|
;;;2114                           dot_flag = 0;
;;;2115                           break; 
;;;2116                       }
;;;2117   					 case set_13:
;;;2118                       {
;;;2119                           WM_HWIN hItem;
;;;2120   //                        WM_InvalidateWindow(hWinset);
;;;2121   
;;;2122                           hItem = WM_GetDialogItem(hWinset, ID_TEXT_35);
;;;2123                           TEXT_SetBkColor(hItem,GUI_INVALID_COLOR);//ÈÄâÈ°πËÉåÊôØËâ≤ËÆæ‰∏∫ÈÄèÊòé
;;;2124                           TEXT_SetTextColor(hItem, GUI_WHITE);
;;;2125   //                        if(set_max_v > 80000)
;;;2126   //                        {
;;;2127   //                            set_max_v = 80000;
;;;2128   //                            TEXT_SetText(hItem,"80.00");                                                       
;;;2129   //                        }
;;;2130   						if(dot_flag == 0){
;;;2131   							set_min_v = atoi(set_limit)*1000;					
;;;2132   						}else if(dot_flag != 0){
;;;2133   							memset(buf, '\0', sizeof(buf));
;;;2134   							strncpy(buf,set_limit,dot_flag + 2);
;;;2135   							set_min_v = atof(buf)*1000;
;;;2136   						}
;;;2137   						if(set_min_v > 62000)
;;;2138   						{
;;;2139   							set_min_v = 62000;
;;;2140   						}
;;;2141   						dis_min_v = (float)set_min_v/1000;
;;;2142                           sprintf(buf,"%.3f",dis_max_v);
;;;2143                           TEXT_SetText(hItem,buf);
;;;2144   						
;;;2145   						hItem = WM_GetDialogItem(hWinset, ID_TEXT_36);
;;;2146                           TEXT_SetBkColor(hItem,GUI_INVALID_COLOR);//ÈÄâÈ°πËÉåÊôØËâ≤ËÆæ‰∏∫ÈÄèÊòé
;;;2147                           TEXT_SetTextColor(hItem, GUI_WHITE);
;;;2148                          
;;;2149                           sprintf(buf,"%.3f",dis_min_v);
;;;2150                           TEXT_SetText(hItem,buf);
;;;2151   						
;;;2152                       
;;;2153                           hItem = WM_GetDialogItem(hWinset, ID_TEXT_24);
;;;2154                           TEXT_SetBkColor(hItem,0x00BFFFFF);//ÈÄâÈ°πËÉåÊôØËâ≤ËÆæ‰∏∫Á±≥Ëâ≤
;;;2155                           TEXT_SetTextColor(hItem, GUI_BLACK);
;;;2156      
;;;2157                           Write_Limits();
;;;2158                           set_sw = set_4;
;;;2159                           bit = 1;
;;;2160                           dot_flag = 0;
;;;2161                           break; 
;;;2162                       }
;;;2163   					
;;;2164   					case set_82:
;;;2165                       {
;;;2166                           WM_HWIN hItem;
;;;2167   //                        WM_InvalidateWindow(hWinset);
;;;2168   
;;;2169                           hItem = WM_GetDialogItem(hWinset, ID_TEXT_154);
;;;2170                           TEXT_SetBkColor(hItem,GUI_INVALID_COLOR);//ÈÄâÈ°πËÉåÊôØËâ≤ËÆæ‰∏∫ÈÄèÊòé
;;;2171                           TEXT_SetTextColor(hItem, GUI_WHITE);
;;;2172   						if(dot_flag == 0){
;;;2173   							set_max_lv = atoi(set_limit)*1000;					
;;;2174   						}else if(dot_flag != 0){
;;;2175   							memset(buf, '\0', sizeof(buf));
;;;2176   							strncpy(buf,set_limit,dot_flag + 3);
;;;2177   							set_max_lv = atof(buf)*1000;
;;;2178   						}
;;;2179                           sprintf(buf,"%.3f",(float)set_max_lv/1000);
;;;2180                           TEXT_SetText(hItem,buf);
;;;2181   						
;;;2182   						hItem = WM_GetDialogItem(hWinset, ID_TEXT_155);
;;;2183                           TEXT_SetBkColor(hItem,GUI_INVALID_COLOR);//ÈÄâÈ°πËÉåÊôØËâ≤ËÆæ‰∏∫ÈÄèÊòé
;;;2184                           TEXT_SetTextColor(hItem, GUI_WHITE);
;;;2185                          
;;;2186                           sprintf(buf,"%.3f",(float)set_min_lv/1000);
;;;2187                           TEXT_SetText(hItem,buf);
;;;2188                           
;;;2189                           hItem = WM_GetDialogItem(hWinset, ID_TEXT_25);
;;;2190                           TEXT_SetBkColor(hItem,0x00BFFFFF);//ÈÄâÈ°πËÉåÊôØËâ≤ËÆæ‰∏∫Á±≥Ëâ≤
;;;2191                           TEXT_SetTextColor(hItem, GUI_BLACK);
;;;2192                           Flash_Write16BitDatas(FLASH_USER_START_ADDR,20, InFlashSave);
;;;2193                           set_sw = set_5;
;;;2194                           bit = 1;
;;;2195                           dot_flag = 0;
;;;2196                           break; 
;;;2197                       }
;;;2198   					 case set_83:
;;;2199                       {
;;;2200                           WM_HWIN hItem;
;;;2201   //                        WM_InvalidateWindow(hWinset);
;;;2202   
;;;2203                           hItem = WM_GetDialogItem(hWinset, ID_TEXT_154);
;;;2204                           TEXT_SetBkColor(hItem,GUI_INVALID_COLOR);//ÈÄâÈ°πËÉåÊôØËâ≤ËÆæ‰∏∫ÈÄèÊòé
;;;2205                           TEXT_SetTextColor(hItem, GUI_WHITE);
;;;2206   						if(dot_flag == 0){
;;;2207   							set_min_lv = atoi(set_limit)*1000;					
;;;2208   						}else if(dot_flag != 0){
;;;2209   							memset(buf, '\0', sizeof(buf));
;;;2210   							strncpy(buf,set_limit,dot_flag + 3);
;;;2211   							set_min_lv = atof(buf)*1000;
;;;2212   						}
;;;2213                           sprintf(buf,"%.3f",(float)set_max_lv/1000);
;;;2214                           TEXT_SetText(hItem,buf);
;;;2215   						
;;;2216   						hItem = WM_GetDialogItem(hWinset, ID_TEXT_155);
;;;2217                           TEXT_SetBkColor(hItem,GUI_INVALID_COLOR);//ÈÄâÈ°πËÉåÊôØËâ≤ËÆæ‰∏∫ÈÄèÊòé
;;;2218                           TEXT_SetTextColor(hItem, GUI_WHITE);
;;;2219                          
;;;2220                           sprintf(buf,"%.3f",(float)set_min_lv/1000);
;;;2221                           TEXT_SetText(hItem,buf);
;;;2222   						
;;;2223                       
;;;2224                           hItem = WM_GetDialogItem(hWinset, ID_TEXT_25);
;;;2225                           TEXT_SetBkColor(hItem,0x00BFFFFF);//ÈÄâÈ°πËÉåÊôØËâ≤ËÆæ‰∏∫Á±≥Ëâ≤
;;;2226                           TEXT_SetTextColor(hItem, GUI_BLACK);
;;;2227      
;;;2228                           Flash_Write16BitDatas(FLASH_USER_START_ADDR,20, InFlashSave);
;;;2229                           set_sw = set_5;
;;;2230                           bit = 1;
;;;2231                           dot_flag = 0;
;;;2232                           break; 
;;;2233                       }
;;;2234   					
;;;2235                       case set_5:
;;;2236                       {
;;;2237                               WM_HWIN hItem;
;;;2238   //                            WM_InvalidateWindow(hWinset);
;;;2239                               hItem = WM_GetDialogItem(hWinset, ID_TEXT_25);
;;;2240                               TEXT_SetBkColor(hItem,GUI_INVALID_COLOR);//ÈÄâÈ°πËÉåÊôØËâ≤ËÆæ‰∏∫ÈÄèÊòé
;;;2241                               TEXT_SetTextColor(hItem, GUI_WHITE);
;;;2242                  
;;;2243                               hItem = WM_GetDialogItem(hWinset, ID_TEXT_154);
;;;2244                               TEXT_SetBkColor(hItem,0x00BFFFFF);//ÈÄâÈ°πËÉåÊôØËâ≤ËÆæ‰∏∫Á±≥Ëâ≤
;;;2245                               TEXT_SetTextColor(hItem, GUI_BLACK);
;;;2246   
;;;2247                               for(i=0;i<6;i++){
;;;2248                                   set_limit[i] = '\0';
;;;2249                               }
;;;2250                               set_sw = set_82;
;;;2251                               break;                        
;;;2252                       }
;;;2253                      
;;;2254                       case set_6:
;;;2255                       {
;;;2256                               WM_HWIN hItem;
;;;2257   //                            WM_InvalidateWindow(hWinset);
;;;2258                               hItem = WM_GetDialogItem(hWinset, ID_TEXT_26);
;;;2259                               TEXT_SetBkColor(hItem,GUI_INVALID_COLOR);//ÈÄâÈ°πËÉåÊôØËâ≤ËÆæ‰∏∫ÈÄèÊòé
;;;2260                               TEXT_SetTextColor(hItem, GUI_WHITE);
;;;2261                  
;;;2262                               hItem = WM_GetDialogItem(hWinset, ID_TEXT_37);
;;;2263                               TEXT_SetBkColor(hItem,0x00BFFFFF);//ÈÄâÈ°πËÉåÊôØËâ≤ËÆæ‰∏∫Á±≥Ëâ≤
;;;2264                               TEXT_SetTextColor(hItem, GUI_BLACK);
;;;2265                               
;;;2266                               for(i=0;i<6;i++){
;;;2267                                   set_limit[i] = '\0';
;;;2268                               }
;;;2269                               set_sw = set_14;
;;;2270                               break;                        
;;;2271                       }
;;;2272                       case set_14:
;;;2273                       {
;;;2274                           WM_HWIN hItem;
;;;2275   //                        WM_InvalidateWindow(hWinset);
;;;2276                           hItem = WM_GetDialogItem(hWinset, ID_TEXT_37);
;;;2277                           TEXT_SetBkColor(hItem,GUI_INVALID_COLOR);//ÈÄâÈ°πËÉåÊôØËâ≤ËÆæ‰∏∫ÈÄèÊòé
;;;2278                           TEXT_SetTextColor(hItem, GUI_WHITE);
;;;2279   						if(dot_flag == 0){
;;;2280   							dis_max_r = atoi(set_limit);					
;;;2281   						}else if(dot_flag != 0){
;;;2282   							memset(buf, '\0', sizeof(buf));
;;;2283   							strncpy(buf,set_limit,dot_flag);
;;;2284   							dis_max_r = atof(buf);
;;;2285   						}
;;;2286                           sprintf(buf,"%4d",dis_max_r);
;;;2287                           TEXT_SetText(hItem,buf);
;;;2288                  
;;;2289                           hItem = WM_GetDialogItem(hWinset, ID_TEXT_26);
;;;2290                           TEXT_SetBkColor(hItem,0x00BFFFFF);//ÈÄâÈ°πËÉåÊôØËâ≤ËÆæ‰∏∫Á±≥Ëâ≤
;;;2291                           TEXT_SetTextColor(hItem, GUI_BLACK);
;;;2292   
;;;2293                           Write_Limits();
;;;2294                           set_sw = set_6;
;;;2295                           bit = 1;
;;;2296                           dot_flag = 0;
;;;2297                           break; 
;;;2298                       }
;;;2299                       case set_7:
;;;2300                       {
;;;2301                               WM_HWIN hItem;
;;;2302   //                            WM_InvalidateWindow(hWinset);
;;;2303                               hItem = WM_GetDialogItem(hWinset, ID_TEXT_27);
;;;2304                               TEXT_SetBkColor(hItem,GUI_INVALID_COLOR);//ÈÄâÈ°πËÉåÊôØËâ≤ËÆæ‰∏∫ÈÄèÊòé
;;;2305                               TEXT_SetTextColor(hItem, GUI_WHITE);
;;;2306                  
;;;2307                               hItem = WM_GetDialogItem(hWinset, ID_TEXT_38);
;;;2308                               TEXT_SetBkColor(hItem,0x00BFFFFF);//ÈÄâÈ°πËÉåÊôØËâ≤ËÆæ‰∏∫Á±≥Ëâ≤
;;;2309                               TEXT_SetTextColor(hItem, GUI_BLACK);
;;;2310                               
;;;2311                               for(i=0;i<6;i++){
;;;2312                                   set_limit[i] = '\0';
;;;2313                               }
;;;2314                               set_sw = set_15;
;;;2315                               break;                        
;;;2316                       }
;;;2317                       case set_15:
;;;2318                       {
;;;2319                           WM_HWIN hItem;
;;;2320   //                        WM_InvalidateWindow(hWinset);
;;;2321                           hItem = WM_GetDialogItem(hWinset, ID_TEXT_38);
;;;2322                           TEXT_SetBkColor(hItem,GUI_INVALID_COLOR);//ÈÄâÈ°πËÉåÊôØËâ≤ËÆæ‰∏∫ÈÄèÊòé
;;;2323                           TEXT_SetTextColor(hItem, GUI_WHITE);
;;;2324                           if(dot_flag == 0){
;;;2325   							dis_min_r = atoi(set_limit);					
;;;2326   						}else if(dot_flag != 0){
;;;2327   							memset(buf, '\0', sizeof(buf));
;;;2328   							strncpy(buf,set_limit,dot_flag);
;;;2329   							dis_min_r = atof(buf);
;;;2330   						}
;;;2331                           sprintf(buf,"%4d",dis_min_r);
;;;2332                           TEXT_SetText(hItem,buf);
;;;2333                           
;;;2334                           hItem = WM_GetDialogItem(hWinset, ID_TEXT_27);
;;;2335                           TEXT_SetBkColor(hItem,0x00BFFFFF);//ÈÄâÈ°πËÉåÊôØËâ≤ËÆæ‰∏∫Á±≥Ëâ≤
;;;2336                           TEXT_SetTextColor(hItem, GUI_BLACK);
;;;2337   
;;;2338                           Write_Limits();
;;;2339                           set_sw = set_7;
;;;2340                           bit = 1;
;;;2341                           dot_flag = 0;
;;;2342                           break; 
;;;2343                       }
;;;2344                       case set_8:
;;;2345                       {
;;;2346                               WM_HWIN hItem;
;;;2347   //                            WM_InvalidateWindow(hWinset);
;;;2348                               hItem = WM_GetDialogItem(hWinset, ID_TEXT_31);
;;;2349                               TEXT_SetBkColor(hItem,GUI_INVALID_COLOR);//ÈÄâÈ°πËÉåÊôØËâ≤ËÆæ‰∏∫ÈÄèÊòé
;;;2350                               TEXT_SetTextColor(hItem, GUI_WHITE);
;;;2351                  
;;;2352                               hItem = WM_GetDialogItem(hWinset, ID_TEXT_39);
;;;2353                               TEXT_SetBkColor(hItem,0x00BFFFFF);//ÈÄâÈ°πËÉåÊôØËâ≤ËÆæ‰∏∫Á±≥Ëâ≤
;;;2354                               TEXT_SetTextColor(hItem, GUI_BLACK);
;;;2355   
;;;2356                               for(i=0;i<6;i++){
;;;2357                                   set_limit[i] = '\0';
;;;2358                               }
;;;2359                               set_sw = set_16;
;;;2360                               break;                        
;;;2361                       }
;;;2362                       case set_16:
;;;2363                       {
;;;2364                           WM_HWIN hItem;
;;;2365   //                        WM_InvalidateWindow(hWinset);
;;;2366                           hItem = WM_GetDialogItem(hWinset, ID_TEXT_39);
;;;2367                           TEXT_SetBkColor(hItem,GUI_INVALID_COLOR);//ÈÄâÈ°πËÉåÊôØËâ≤ËÆæ‰∏∫ÈÄèÊòé
;;;2368                           TEXT_SetTextColor(hItem, GUI_WHITE);
;;;2369   						if(dot_flag == 0){
;;;2370   							set_max_c = atoi(set_limit)*1000;					
;;;2371   						}else if(dot_flag != 0){
;;;2372   							memset(buf, '\0', sizeof(buf));
;;;2373   							strncpy(buf,set_limit,dot_flag + 3);
;;;2374   							set_max_c = atof(buf)*1000;
;;;2375   						}
;;;2376                           if(set_max_c > 30000)
;;;2377                           {
;;;2378                               set_max_c = 30000;
;;;2379                           }
;;;2380   						dis_max_c = (float)set_max_c/1000;
;;;2381                           sprintf(buf,"%.3f",dis_max_c);
;;;2382                           TEXT_SetText(hItem,buf);
;;;2383   						
;;;2384   						 hItem = WM_GetDialogItem(hWinset, ID_TEXT_40);
;;;2385                           TEXT_SetBkColor(hItem,GUI_INVALID_COLOR);//ÈÄâÈ°πËÉåÊôØËâ≤ËÆæ‰∏∫ÈÄèÊòé
;;;2386                           TEXT_SetTextColor(hItem, GUI_WHITE);
;;;2387                           if(set_min_c >= set_max_c)
;;;2388                           {
;;;2389                               set_min_c = 0;
;;;2390                               TEXT_SetText(hItem,"0.000");
;;;2391                           }
;;;2392                           
;;;2393                           sprintf(buf,"%.3f",dis_min_c);
;;;2394                           TEXT_SetText(hItem,buf);
;;;2395   						
;;;2396   						
;;;2397                           
;;;2398                           hItem = WM_GetDialogItem(hWinset, ID_TEXT_31);
;;;2399                           TEXT_SetBkColor(hItem,0x00BFFFFF);//ÈÄâÈ°πËÉåÊôØËâ≤ËÆæ‰∏∫Á±≥Ëâ≤
;;;2400                           TEXT_SetTextColor(hItem, GUI_BLACK);
;;;2401   
;;;2402                           Write_Limits();
;;;2403                           set_sw = set_8;
;;;2404                           bit = 1;
;;;2405                           dot_flag = 0;
;;;2406                           break; 
;;;2407                       }
;;;2408   					
;;;2409   					case set_17:
;;;2410                       {
;;;2411                           WM_HWIN hItem;
;;;2412   //                        WM_InvalidateWindow(hWinset);
;;;2413                           hItem = WM_GetDialogItem(hWinset, ID_TEXT_39);
;;;2414                           TEXT_SetBkColor(hItem,GUI_INVALID_COLOR);//ÈÄâÈ°πËÉåÊôØËâ≤ËÆæ‰∏∫ÈÄèÊòé
;;;2415                           TEXT_SetTextColor(hItem, GUI_WHITE);
;;;2416   //                        if(set_max_c > 60000)
;;;2417   //                        {
;;;2418   //                            set_max_c = 60000;
;;;2419   //                            TEXT_SetText(hItem,"60.00");
;;;2420   //                        }
;;;2421                           sprintf(buf,"%.3f",dis_max_c);
;;;2422                           TEXT_SetText(hItem,buf);
;;;2423   						
;;;2424   						 hItem = WM_GetDialogItem(hWinset, ID_TEXT_40);
;;;2425                           TEXT_SetBkColor(hItem,GUI_INVALID_COLOR);//ÈÄâÈ°πËÉåÊôØËâ≤ËÆæ‰∏∫ÈÄèÊòé
;;;2426                           TEXT_SetTextColor(hItem, GUI_WHITE);
;;;2427   						if(dot_flag == 0){
;;;2428   							set_min_c = atoi(set_limit)*1000;					
;;;2429   						}else if(dot_flag != 0){
;;;2430   							memset(buf, '\0', sizeof(buf));
;;;2431   							strncpy(buf,set_limit,dot_flag + 3);
;;;2432   							set_min_c = atof(buf)*1000;
;;;2433   						}
;;;2434                           if(set_max_c > 30000)
;;;2435                           {
;;;2436                               set_max_c = 30000;
;;;2437                           }
;;;2438                           if(set_min_c >= set_max_c)
;;;2439                           {
;;;2440                               set_min_c = 0;
;;;2441                           }
;;;2442                           dis_min_c = (float)set_min_c/1000;
;;;2443                           sprintf(buf,"%.3f",dis_min_c);
;;;2444                           TEXT_SetText(hItem,buf);
;;;2445   						
;;;2446                           hItem = WM_GetDialogItem(hWinset, ID_TEXT_31);
;;;2447                           TEXT_SetBkColor(hItem,0x00BFFFFF);//ÈÄâÈ°πËÉåÊôØËâ≤ËÆæ‰∏∫Á±≥Ëâ≤
;;;2448                           TEXT_SetTextColor(hItem, GUI_BLACK);
;;;2449   
;;;2450                           Write_Limits();
;;;2451                           set_sw = set_8;
;;;2452                           bit = 1;
;;;2453                           dot_flag = 0;
;;;2454                           break; 
;;;2455                       }
;;;2456   					
;;;2457                       case set_9:
;;;2458                       {
;;;2459                               WM_HWIN hItem;
;;;2460   //                            WM_InvalidateWindow(hWinset);
;;;2461                               hItem = WM_GetDialogItem(hWinset, ID_TEXT_32);
;;;2462                               TEXT_SetBkColor(hItem,GUI_INVALID_COLOR);//ÈÄâÈ°πËÉåÊôØËâ≤ËÆæ‰∏∫ÈÄèÊòé
;;;2463                               TEXT_SetTextColor(hItem, GUI_WHITE);
;;;2464                               
;;;2465                               hItem = WM_GetDialogItem(hWinset, ID_TEXT_156);
;;;2466                               TEXT_SetBkColor(hItem,0x00BFFFFF);//ÈÄâÈ°πËÉåÊôØËâ≤ËÆæ‰∏∫Á±≥Ëâ≤
;;;2467                               TEXT_SetTextColor(hItem, GUI_BLACK);
;;;2468   
;;;2469                               for(i=0;i<6;i++){
;;;2470                                   set_limit[i] = '\0';
;;;2471                               }
;;;2472                               set_sw = set_84;
;;;2473                               break;                        
;;;2474                       }
;;;2475   					
;;;2476   					case set_84:
;;;2477                       {
;;;2478                           WM_HWIN hItem;
;;;2479   //                        WM_InvalidateWindow(hWinset);
;;;2480                           hItem = WM_GetDialogItem(hWinset, ID_TEXT_156);
;;;2481                           TEXT_SetBkColor(hItem,GUI_INVALID_COLOR);//ÈÄâÈ°πËÉåÊôØËâ≤ËÆæ‰∏∫ÈÄèÊòé
;;;2482                           TEXT_SetTextColor(hItem, GUI_WHITE);
;;;2483   						if(dot_flag == 0){
;;;2484   							set_max_pc = atoi(set_limit)*1000;					
;;;2485   						}else if(dot_flag != 0){
;;;2486   							memset(buf, '\0', sizeof(buf));
;;;2487   							strncpy(buf,set_limit,dot_flag + 3);
;;;2488   							set_max_pc = atof(buf)*1000;
;;;2489   						}
;;;2490                           if(set_max_pc > 10000)
;;;2491                           {
;;;2492                               set_max_pc = 10000;
;;;2493                           }
;;;2494   //						dis_max_c = (float)set_max_c/1000;
;;;2495   //                        if(set_max_pc > 60000)
;;;2496   //                        {
;;;2497   //                            set_max_pc = 60000;
;;;2498   //                            TEXT_SetText(hItem,"60.000");
;;;2499   //                        }
;;;2500                           sprintf(buf,"%.3f",(float)set_max_pc/1000);
;;;2501                           TEXT_SetText(hItem,buf);
;;;2502   						
;;;2503   						 hItem = WM_GetDialogItem(hWinset, ID_TEXT_157);
;;;2504                           TEXT_SetBkColor(hItem,GUI_INVALID_COLOR);//ÈÄâÈ°πËÉåÊôØËâ≤ËÆæ‰∏∫ÈÄèÊòé
;;;2505                           TEXT_SetTextColor(hItem, GUI_WHITE);
;;;2506                           if(set_min_pc >= set_max_pc)
;;;2507                           {
;;;2508                               set_min_pc = 0;
;;;2509                               TEXT_SetText(hItem,"0.000");
;;;2510                           }
;;;2511                           
;;;2512                           sprintf(buf,"%.3f",(float)set_min_pc/1000);
;;;2513                           TEXT_SetText(hItem,buf);
;;;2514   						
;;;2515   						
;;;2516                           
;;;2517                           hItem = WM_GetDialogItem(hWinset, ID_TEXT_32);
;;;2518                           TEXT_SetBkColor(hItem,0x00BFFFFF);//ÈÄâÈ°πËÉåÊôØËâ≤ËÆæ‰∏∫Á±≥Ëâ≤
;;;2519                           TEXT_SetTextColor(hItem, GUI_BLACK);
;;;2520   
;;;2521                           Flash_Write16BitDatas(FLASH_USER_START_ADDR,20, InFlashSave);
;;;2522                           set_sw = set_9;
;;;2523                           bit = 1;
;;;2524                           dot_flag = 0;
;;;2525                           break; 
;;;2526                       }
;;;2527   					
;;;2528   					case set_85:
;;;2529                       {
;;;2530                           WM_HWIN hItem;
;;;2531   //                        WM_InvalidateWindow(hWinset);
;;;2532                           hItem = WM_GetDialogItem(hWinset, ID_TEXT_156);
;;;2533                           TEXT_SetBkColor(hItem,GUI_INVALID_COLOR);//ÈÄâÈ°πËÉåÊôØËâ≤ËÆæ‰∏∫ÈÄèÊòé
;;;2534                           TEXT_SetTextColor(hItem, GUI_WHITE);
;;;2535   //                        if(set_max_pc > 60000)
;;;2536   //                        {
;;;2537   //                            set_max_pc = 60000;
;;;2538   //                            TEXT_SetText(hItem,"60.000");
;;;2539   //                        }
;;;2540                           sprintf(buf,"%.3f",(float)set_max_pc/1000);
;;;2541                           TEXT_SetText(hItem,buf);
;;;2542   						
;;;2543   						 hItem = WM_GetDialogItem(hWinset, ID_TEXT_157);
;;;2544                           TEXT_SetBkColor(hItem,GUI_INVALID_COLOR);//ÈÄâÈ°πËÉåÊôØËâ≤ËÆæ‰∏∫ÈÄèÊòé
;;;2545                           TEXT_SetTextColor(hItem, GUI_WHITE);
;;;2546   						if(dot_flag == 0){
;;;2547   							set_min_pc = atoi(set_limit)*1000;					
;;;2548   						}else if(dot_flag != 0){
;;;2549   							memset(buf, '\0', sizeof(buf));
;;;2550   							strncpy(buf,set_limit,dot_flag + 3);
;;;2551   							set_min_pc = atof(buf)*1000;
;;;2552   						}
;;;2553                           if(set_min_pc > 10000)
;;;2554                           {
;;;2555                               set_min_pc = 10000;
;;;2556                           }
;;;2557                           if(set_min_pc >= set_max_pc)
;;;2558                           {
;;;2559                               set_min_pc = 0;
;;;2560   //                            TEXT_SetText(hItem,"0.000");
;;;2561                           }
;;;2562                           
;;;2563                           sprintf(buf,"%.3f",(float)set_min_pc/1000);
;;;2564                           TEXT_SetText(hItem,buf);
;;;2565   						
;;;2566                           hItem = WM_GetDialogItem(hWinset, ID_TEXT_32);
;;;2567                           TEXT_SetBkColor(hItem,0x00BFFFFF);//ÈÄâÈ°πËÉåÊôØËâ≤ËÆæ‰∏∫Á±≥Ëâ≤
;;;2568                           TEXT_SetTextColor(hItem, GUI_BLACK);
;;;2569   
;;;2570                           Flash_Write16BitDatas(FLASH_USER_START_ADDR,20, InFlashSave);
;;;2571                           set_sw = set_9;
;;;2572                           bit = 1;
;;;2573                           dot_flag = 0;
;;;2574                           break; 
;;;2575                       }
;;;2576                       
;;;2577                       case set_73:
;;;2578                       {
;;;2579                           if(test_mode > 1)
;;;2580                           {
;;;2581                               test_mode = 1;
;;;2582                           }
;;;2583                           if(test_mode == 1)
;;;2584                           {
;;;2585                               WM_HWIN hItem;
;;;2586                               hItem = WM_GetDialogItem(hWinset, ID_TEXT_134);
;;;2587                               TEXT_SetTextColor(hItem, GUI_WHITE);//ËÆæÁΩÆÂ≠ó‰ΩìÈ¢úËâ≤
;;;2588                               TEXT_SetFont(hItem,&GUI_Fontset_font);//ËÆæÂÆöÊñáÊú¨Â≠ó‰Ωì
;;;2589                               GUI_UC_SetEncodeUTF8();
;;;2590                               TEXT_SetText(hItem,"Âø´ÈÄü");
;;;2591                               test_mode = 0;
;;;2592                               Wrtite_S();
;;;2593                           }else if(test_mode == 0){
;;;2594                               WM_HWIN hItem;
;;;2595                               hItem = WM_GetDialogItem(hWinset, ID_TEXT_134);
;;;2596                               TEXT_SetTextColor(hItem, GUI_WHITE);//ËÆæÁΩÆÂ≠ó‰ΩìÈ¢úËâ≤
;;;2597                               TEXT_SetFont(hItem,&GUI_Fontset_font);//ËÆæÂÆöÊñáÊú¨Â≠ó‰Ωì
;;;2598                               GUI_UC_SetEncodeUTF8();
;;;2599                               TEXT_SetText(hItem,"Á≤æÂáÜ");
;;;2600                               test_mode = 1;
;;;2601                               Wrtite_S();
;;;2602                           }
;;;2603                       }break;
;;;2604                       case set_42:
;;;2605                       {
;;;2606                               WM_HWIN hItem;
;;;2607   //                            WM_InvalidateWindow(hWinset);
;;;2608                               hItem = WM_GetDialogItem(hWinset, ID_TEXT_90);
;;;2609                               TEXT_SetBkColor(hItem,GUI_INVALID_COLOR);//ÈÄâÈ°πËÉåÊôØËâ≤ËÆæ‰∏∫ÈÄèÊòé
;;;2610                               TEXT_SetTextColor(hItem, GUI_WHITE);
;;;2611                  
;;;2612                               hItem = WM_GetDialogItem(hWinset, ID_TEXT_91);
;;;2613                               TEXT_SetBkColor(hItem,0x00BFFFFF);//ÈÄâÈ°πËÉåÊôØËâ≤ËÆæ‰∏∫Á±≥Ëâ≤
;;;2614                               TEXT_SetTextColor(hItem, GUI_BLACK);
;;;2615                           
;;;2616                               hItem = WM_GetDialogItem(hWinset, ID_TEXT_134);
;;;2617                               TEXT_SetText(hItem,"");
;;;2618                               if(b_type > 5)
00009c  4de0              LDR      r5,|L4.1056|
00009e  f04f0b04          MOV      r11,#4                ;2193
0000a2  f640039e          MOV      r3,#0x89e             ;2608
0000a6  292e              CMP      r1,#0x2e              ;1975
0000a8  f00184ed          BEQ.W    |L4.6790|
0000ac  dc4a              BGT      |L4.324|
0000ae  292b              CMP      r1,#0x2b              ;1975
0000b0  f0018283          BEQ.W    |L4.5562|
0000b4  dc23              BGT      |L4.254|
0000b6  2910              CMP      r1,#0x10              ;1975
0000b8  d07e              BEQ      |L4.440|
0000ba  2929              CMP      r1,#0x29              ;1975
0000bc  d07d              BEQ      |L4.442|
0000be  292a              CMP      r1,#0x2a              ;1975
                  |L4.192|
0000c0  d15b              BNE      |L4.378|
;;;2619                               {
;;;2620                                   b_type = 1;
;;;2621                               }
;;;2622                               
;;;2623                               switch(b_type)
;;;2624                               {
;;;2625                                   case Lion:
;;;2626                                   {
;;;2627                                       hItem = WM_GetDialogItem(hWinset, ID_TEXT_92);
;;;2628                                       TEXT_SetTextColor(hItem, GUI_WHITE);//ËÆæÁΩÆÂ≠ó‰ΩìÈ¢úËâ≤
;;;2629                                       TEXT_SetFont(hItem,&GUI_Fontset_font);//ËÆæÂÆöÊñáÊú¨Â≠ó‰Ωì
;;;2630                                       GUI_UC_SetEncodeUTF8();
;;;2631                                       TEXT_SetText(hItem,"ÈïçÊ∞¢ÁîµÊ±†");
;;;2632                                   
;;;2633                                       hItem = WM_GetDialogItem(hWinset, ID_TEXT_93);
;;;2634                                       TEXT_SetTextColor(hItem, GUI_WHITE);//ËÆæÁΩÆÂ≠ó‰ΩìÈ¢úËâ≤
;;;2635                                       TEXT_SetFont(hItem,&GUI_Fontset_font);//ËÆæÂÆöÊñáÊú¨Â≠ó‰Ωì
;;;2636                                       GUI_UC_SetEncodeUTF8();
;;;2637                                       TEXT_SetText(hItem,"ÈïçÈïâÁîµÊ±†");
;;;2638                                       
;;;2639                                       hItem = WM_GetDialogItem(hWinset, ID_TEXT_94);
;;;2640                                       TEXT_SetTextColor(hItem, GUI_WHITE);//ËÆæÁΩÆÂ≠ó‰ΩìÈ¢úËâ≤
;;;2641                                       TEXT_SetFont(hItem,&GUI_Fontset_font);//ËÆæÂÆöÊñáÊú¨Â≠ó‰Ωì
;;;2642                                       GUI_UC_SetEncodeUTF8();
;;;2643                                       TEXT_SetText(hItem,"Â∞èÂûãÈìÖÈÖ∏ÁîµÊ±†");
;;;2644                                       
;;;2645                                       hItem = WM_GetDialogItem(hWinset, ID_TEXT_95);
;;;2646                                       TEXT_SetTextColor(hItem, GUI_WHITE);//ËÆæÁΩÆÂ≠ó‰ΩìÈ¢úËâ≤
;;;2647                                       TEXT_SetFont(hItem,&GUI_Fontset_font);//ËÆæÂÆöÊñáÊú¨Â≠ó‰Ωì
;;;2648                                       GUI_UC_SetEncodeUTF8();
;;;2649                                       TEXT_SetText(hItem,"ÈîÇÈî∞ÁîµÊ±†");
;;;2650                                       break;
;;;2651                                   }
;;;2652                                   case NiMH:
;;;2653                                   {
;;;2654                                       hItem = WM_GetDialogItem(hWinset, ID_TEXT_92);
;;;2655                                       TEXT_SetTextColor(hItem, GUI_WHITE);//ËÆæÁΩÆÂ≠ó‰ΩìÈ¢úËâ≤
;;;2656                                       TEXT_SetFont(hItem,&GUI_Fontset_font);//ËÆæÂÆöÊñáÊú¨Â≠ó‰Ωì
;;;2657                                       GUI_UC_SetEncodeUTF8();
;;;2658                                       TEXT_SetText(hItem,"ÈîÇÁîµÊ±†");
;;;2659                                   
;;;2660                                       hItem = WM_GetDialogItem(hWinset, ID_TEXT_93);
;;;2661                                       TEXT_SetTextColor(hItem, GUI_WHITE);//ËÆæÁΩÆÂ≠ó‰ΩìÈ¢úËâ≤
;;;2662                                       TEXT_SetFont(hItem,&GUI_Fontset_font);//ËÆæÂÆöÊñáÊú¨Â≠ó‰Ωì
;;;2663                                       GUI_UC_SetEncodeUTF8();
;;;2664                                       TEXT_SetText(hItem,"ÈïçÈïâÁîµÊ±†");
;;;2665                                       
;;;2666                                       hItem = WM_GetDialogItem(hWinset, ID_TEXT_94);
;;;2667                                       TEXT_SetTextColor(hItem, GUI_WHITE);//ËÆæÁΩÆÂ≠ó‰ΩìÈ¢úËâ≤
;;;2668                                       TEXT_SetFont(hItem,&GUI_Fontset_font);//ËÆæÂÆöÊñáÊú¨Â≠ó‰Ωì
;;;2669                                       GUI_UC_SetEncodeUTF8();
;;;2670                                       TEXT_SetText(hItem,"Â∞èÂûãÈìÖÈÖ∏ÁîµÊ±†");
;;;2671                                       
;;;2672                                       hItem = WM_GetDialogItem(hWinset, ID_TEXT_95);
;;;2673                                       TEXT_SetTextColor(hItem, GUI_WHITE);//ËÆæÁΩÆÂ≠ó‰ΩìÈ¢úËâ≤
;;;2674                                       TEXT_SetFont(hItem,&GUI_Fontset_font);//ËÆæÂÆöÊñáÊú¨Â≠ó‰Ωì
;;;2675                                       GUI_UC_SetEncodeUTF8();
;;;2676                                       TEXT_SetText(hItem,"ÈîÇÈî∞ÁîµÊ±†");
;;;2677                                       break;
;;;2678                                   }
;;;2679                                   case NiCd:
;;;2680                                   {
;;;2681                                       hItem = WM_GetDialogItem(hWinset, ID_TEXT_92);
;;;2682                                       TEXT_SetTextColor(hItem, GUI_WHITE);//ËÆæÁΩÆÂ≠ó‰ΩìÈ¢úËâ≤
;;;2683                                       TEXT_SetFont(hItem,&GUI_Fontset_font);//ËÆæÂÆöÊñáÊú¨Â≠ó‰Ωì
;;;2684                                       GUI_UC_SetEncodeUTF8();
;;;2685                                       TEXT_SetText(hItem,"ÈîÇÁîµÊ±†");
;;;2686                                   
;;;2687                                       hItem = WM_GetDialogItem(hWinset, ID_TEXT_93);
;;;2688                                       TEXT_SetTextColor(hItem, GUI_WHITE);//ËÆæÁΩÆÂ≠ó‰ΩìÈ¢úËâ≤
;;;2689                                       TEXT_SetFont(hItem,&GUI_Fontset_font);//ËÆæÂÆöÊñáÊú¨Â≠ó‰Ωì
;;;2690                                       GUI_UC_SetEncodeUTF8();
;;;2691                                       TEXT_SetText(hItem,"ÈïçÊ∞¢ÁîµÊ±†");
;;;2692                                       
;;;2693                                       hItem = WM_GetDialogItem(hWinset, ID_TEXT_94);
;;;2694                                       TEXT_SetTextColor(hItem, GUI_WHITE);//ËÆæÁΩÆÂ≠ó‰ΩìÈ¢úËâ≤
;;;2695                                       TEXT_SetFont(hItem,&GUI_Fontset_font);//ËÆæÂÆöÊñáÊú¨Â≠ó‰Ωì
;;;2696                                       GUI_UC_SetEncodeUTF8();
;;;2697                                       TEXT_SetText(hItem,"Â∞èÂûãÈìÖÈÖ∏ÁîµÊ±†");
;;;2698                                       
;;;2699                                       hItem = WM_GetDialogItem(hWinset, ID_TEXT_95);
;;;2700                                       TEXT_SetTextColor(hItem, GUI_WHITE);//ËÆæÁΩÆÂ≠ó‰ΩìÈ¢úËâ≤
;;;2701                                       TEXT_SetFont(hItem,&GUI_Fontset_font);//ËÆæÂÆöÊñáÊú¨Â≠ó‰Ωì
;;;2702                                       GUI_UC_SetEncodeUTF8();
;;;2703                                       TEXT_SetText(hItem,"ÈîÇÈî∞ÁîµÊ±†");
;;;2704                                       break;
;;;2705                                   }
;;;2706                                   case SLA:
;;;2707                                   {
;;;2708                                       hItem = WM_GetDialogItem(hWinset, ID_TEXT_92);
;;;2709                                       TEXT_SetTextColor(hItem, GUI_WHITE);//ËÆæÁΩÆÂ≠ó‰ΩìÈ¢úËâ≤
;;;2710                                       TEXT_SetFont(hItem,&GUI_Fontset_font);//ËÆæÂÆöÊñáÊú¨Â≠ó‰Ωì
;;;2711                                       GUI_UC_SetEncodeUTF8();
;;;2712                                       TEXT_SetText(hItem,"ÈîÇÁîµÊ±†");
;;;2713                                   
;;;2714                                       hItem = WM_GetDialogItem(hWinset, ID_TEXT_93);
;;;2715                                       TEXT_SetTextColor(hItem, GUI_WHITE);//ËÆæÁΩÆÂ≠ó‰ΩìÈ¢úËâ≤
;;;2716                                       TEXT_SetFont(hItem,&GUI_Fontset_font);//ËÆæÂÆöÊñáÊú¨Â≠ó‰Ωì
;;;2717                                       GUI_UC_SetEncodeUTF8();
;;;2718                                       TEXT_SetText(hItem,"ÈïçÊ∞¢ÁîµÊ±†");
;;;2719                                       
;;;2720                                       hItem = WM_GetDialogItem(hWinset, ID_TEXT_94);
;;;2721                                       TEXT_SetTextColor(hItem, GUI_WHITE);//ËÆæÁΩÆÂ≠ó‰ΩìÈ¢úËâ≤
;;;2722                                       TEXT_SetFont(hItem,&GUI_Fontset_font);//ËÆæÂÆöÊñáÊú¨Â≠ó‰Ωì
;;;2723                                       GUI_UC_SetEncodeUTF8();
;;;2724                                       TEXT_SetText(hItem,"ÈïçÈïâÁîµÊ±†");
;;;2725                                       
;;;2726                                       hItem = WM_GetDialogItem(hWinset, ID_TEXT_95);
;;;2727                                       TEXT_SetTextColor(hItem, GUI_WHITE);//ËÆæÁΩÆÂ≠ó‰ΩìÈ¢úËâ≤
;;;2728                                       TEXT_SetFont(hItem,&GUI_Fontset_font);//ËÆæÂÆöÊñáÊú¨Â≠ó‰Ωì
;;;2729                                       GUI_UC_SetEncodeUTF8();
;;;2730                                       TEXT_SetText(hItem,"ÈîÇÈî∞ÁîµÊ±†");
;;;2731                                       break;
;;;2732                                   }
;;;2733                                   case LiMH:
;;;2734                                   {
;;;2735                                       hItem = WM_GetDialogItem(hWinset, ID_TEXT_92);
;;;2736                                       TEXT_SetTextColor(hItem, GUI_WHITE);//ËÆæÁΩÆÂ≠ó‰ΩìÈ¢úËâ≤
;;;2737                                       TEXT_SetFont(hItem,&GUI_Fontset_font);//ËÆæÂÆöÊñáÊú¨Â≠ó‰Ωì
;;;2738                                       GUI_UC_SetEncodeUTF8();
;;;2739                                       TEXT_SetText(hItem,"ÈîÇÁîµÊ±†");
;;;2740                                   
;;;2741                                       hItem = WM_GetDialogItem(hWinset, ID_TEXT_93);
;;;2742                                       TEXT_SetTextColor(hItem, GUI_WHITE);//ËÆæÁΩÆÂ≠ó‰ΩìÈ¢úËâ≤
;;;2743                                       TEXT_SetFont(hItem,&GUI_Fontset_font);//ËÆæÂÆöÊñáÊú¨Â≠ó‰Ωì
;;;2744                                       GUI_UC_SetEncodeUTF8();
;;;2745                                       TEXT_SetText(hItem,"ÈïçÊ∞¢ÁîµÊ±†");
;;;2746                                       
;;;2747                                       hItem = WM_GetDialogItem(hWinset, ID_TEXT_94);
;;;2748                                       TEXT_SetTextColor(hItem, GUI_WHITE);//ËÆæÁΩÆÂ≠ó‰ΩìÈ¢úËâ≤
;;;2749                                       TEXT_SetFont(hItem,&GUI_Fontset_font);//ËÆæÂÆöÊñáÊú¨Â≠ó‰Ωì
;;;2750                                       GUI_UC_SetEncodeUTF8();
;;;2751                                       TEXT_SetText(hItem,"ÈïçÈïâÁîµÊ±†");
;;;2752                                       
;;;2753                                       hItem = WM_GetDialogItem(hWinset, ID_TEXT_95);
;;;2754                                       TEXT_SetTextColor(hItem, GUI_WHITE);//ËÆæÁΩÆÂ≠ó‰ΩìÈ¢úËâ≤
;;;2755                                       TEXT_SetFont(hItem,&GUI_Fontset_font);//ËÆæÂÆöÊñáÊú¨Â≠ó‰Ωì
;;;2756                                       GUI_UC_SetEncodeUTF8();
;;;2757                                       TEXT_SetText(hItem,"Â∞èÂûãÈìÖÈÖ∏ÁîµÊ±†");
;;;2758                                       break;
;;;2759                                   }
;;;2760                               }
;;;2761                               
;;;2762   
;;;2763                               set_sw = set_43;
;;;2764                               break;                        
;;;2765                       }
;;;2766                       case set_43:
;;;2767                       {
;;;2768                               WM_HWIN hItem;
;;;2769   //                            WM_InvalidateWindow(hWinset);
;;;2770                               
;;;2771                  
;;;2772                               hItem = WM_GetDialogItem(hWinset, ID_TEXT_90);
0000c2  4604              MOV      r4,r0
0000c4  4619              MOV      r1,r3
0000c6  4610              MOV      r0,r2
0000c8  f7fffffe          BL       WM_GetDialogItem
0000cc  4607              MOV      r7,r0
;;;2773                               TEXT_SetBkColor(hItem,0x00BFFFFF);//ÈÄâÈ°πËÉåÊôØËâ≤ËÆæ‰∏∫Á±≥Ëâ≤
0000ce  49d5              LDR      r1,|L4.1060|
0000d0  4638              MOV      r0,r7
0000d2  f7fffffe          BL       TEXT_SetBkColor
;;;2774                               TEXT_SetTextColor(hItem, GUI_BLACK);
0000d6  2100              MOVS     r1,#0
0000d8  4638              MOV      r0,r7
0000da  f7fffffe          BL       TEXT_SetTextColor
;;;2775                           
;;;2776                               hItem = WM_GetDialogItem(hWinset, ID_TEXT_134);
0000de  f6401123          MOV      r1,#0x923
0000e2  6860              LDR      r0,[r4,#4]  ; hWinset
0000e4  f7fffffe          BL       WM_GetDialogItem
0000e8  4607              MOV      r7,r0
;;;2777                               if(test_mode == 1)
0000ea  7820              LDRB     r0,[r4,#0]  ; test_mode
0000ec  2801              CMP      r0,#1
0000ee  f0018188          BEQ.W    |L4.5122|
;;;2778                               {
;;;2779                                   TEXT_SetFont(hItem,&GUI_Fontset_font);//ËÆæÂÆöÊñáÊú¨Â≠ó‰Ωì
;;;2780                                   TEXT_SetText(hItem,"Á≤æÂáÜ");
;;;2781                               }else if(test_mode == 0){
0000f2  7820              LDRB     r0,[r4,#0]  ; test_mode
0000f4  2800              CMP      r0,#0
0000f6  f001818e          BEQ.W    |L4.5142|
0000fa  f001b995          B.W      |L4.5160|
                  |L4.254|
0000fe  292c              CMP      r1,#0x2c              ;1975
000100  f001832d          BEQ.W    |L4.5982|
000104  292d              CMP      r1,#0x2d              ;1975
000106  d1db              BNE      |L4.192|
;;;2782                                   TEXT_SetFont(hItem,&GUI_Fontset_font);//ËÆæÂÆöÊñáÊú¨Â≠ó‰Ωì
;;;2783                                   TEXT_SetText(hItem,"Âø´ÈÄü");
;;;2784                               }
;;;2785                                                      
;;;2786                               switch(buffer)
;;;2787                               {
;;;2788                                   case Lion:
;;;2789                                   {
;;;2790                                       hItem = WM_GetDialogItem(hWinset, ID_TEXT_91);
;;;2791                                       TEXT_SetBkColor(hItem,GUI_INVALID_COLOR);//ÈÄâÈ°πËÉåÊôØËâ≤ËÆæ‰∏∫ÈÄèÊòé
;;;2792                                       TEXT_SetTextColor(hItem, GUI_WHITE);
;;;2793                                       TEXT_SetText(hItem,"ÈîÇÁîµÊ±†");
;;;2794                                       b_type = Lion;      
;;;2795                                       break;
;;;2796                                   }
;;;2797                                   case NiMH:
;;;2798                                   {
;;;2799                                       hItem = WM_GetDialogItem(hWinset, ID_TEXT_91);
;;;2800                                       TEXT_SetBkColor(hItem,GUI_INVALID_COLOR);//ÈÄâÈ°πËÉåÊôØËâ≤ËÆæ‰∏∫ÈÄèÊòé
;;;2801                                       TEXT_SetTextColor(hItem, GUI_WHITE);
;;;2802                                       TEXT_SetText(hItem,"ÈïçÊ∞¢ÁîµÊ±†");
;;;2803                                       b_type = NiMH;
;;;2804                                       break;
;;;2805                                   }
;;;2806                                   case NiCd:
;;;2807                                   {
;;;2808                                       hItem = WM_GetDialogItem(hWinset, ID_TEXT_91);
;;;2809                                       TEXT_SetBkColor(hItem,GUI_INVALID_COLOR);//ÈÄâÈ°πËÉåÊôØËâ≤ËÆæ‰∏∫ÈÄèÊòé
;;;2810                                       TEXT_SetTextColor(hItem, GUI_WHITE);
;;;2811                                       TEXT_SetText(hItem,"ÈïçÈïâÁîµÊ±†");
;;;2812                                       b_type = NiCd;
;;;2813                                       break;
;;;2814                                   }
;;;2815                                   case SLA:
;;;2816                                   {
;;;2817                                       hItem = WM_GetDialogItem(hWinset, ID_TEXT_91);
;;;2818                                       TEXT_SetBkColor(hItem,GUI_INVALID_COLOR);//ÈÄâÈ°πËÉåÊôØËâ≤ËÆæ‰∏∫ÈÄèÊòé
;;;2819                                       TEXT_SetTextColor(hItem, GUI_WHITE);
;;;2820                                       TEXT_SetText(hItem,"Â∞èÂûãÈìÖÈÖ∏ÁîµÊ±†");
;;;2821                                       b_type = SLA;
;;;2822                                       break;
;;;2823                                   }
;;;2824                                   case LiMH:
;;;2825                                   {
;;;2826                                       hItem = WM_GetDialogItem(hWinset, ID_TEXT_91);
;;;2827                                       TEXT_SetBkColor(hItem,GUI_INVALID_COLOR);//ÈÄâÈ°πËÉåÊôØËâ≤ËÆæ‰∏∫ÈÄèÊòé
;;;2828                                       TEXT_SetTextColor(hItem, GUI_WHITE);
;;;2829                                       TEXT_SetText(hItem,"ÈîÇÈî∞ÁîµÊ±†");
;;;2830                                       b_type = LiMH;
;;;2831                                       break;
;;;2832                                   }
;;;2833                               }
;;;2834   
;;;2835                               hItem = WM_GetDialogItem(hWinset, ID_TEXT_92);
;;;2836                               TEXT_SetText(hItem,"");
;;;2837                           
;;;2838                               hItem = WM_GetDialogItem(hWinset, ID_TEXT_93);
;;;2839                               TEXT_SetText(hItem,"");
;;;2840                               
;;;2841                               hItem = WM_GetDialogItem(hWinset, ID_TEXT_94);
;;;2842                               TEXT_SetText(hItem,"");
;;;2843                               
;;;2844                               hItem = WM_GetDialogItem(hWinset, ID_TEXT_95);
;;;2845                               TEXT_SetText(hItem,"");
;;;2846                               
;;;2847                               Write_btype();
;;;2848                               set_sw = set_42;
;;;2849                               break;                        
;;;2850                       }
;;;2851                       case set_44:
;;;2852                       {
;;;2853                               WM_HWIN hItem;
;;;2854   //                            WM_InvalidateWindow(hWinset);
;;;2855                  
;;;2856                               hItem = WM_GetDialogItem(hWinset, ID_TEXT_90);
;;;2857                               TEXT_SetBkColor(hItem,0x00BFFFFF);//ÈÄâÈ°πËÉåÊôØËâ≤ËÆæ‰∏∫Á±≥Ëâ≤
;;;2858                               TEXT_SetTextColor(hItem, GUI_BLACK);
;;;2859                           
;;;2860                               hItem = WM_GetDialogItem(hWinset, ID_TEXT_134);
;;;2861                               if(test_mode == 1)
;;;2862                               {
;;;2863                                   TEXT_SetFont(hItem,&GUI_Fontset_font);//ËÆæÂÆöÊñáÊú¨Â≠ó‰Ωì
;;;2864                                   TEXT_SetText(hItem,"Á≤æÂáÜ");
;;;2865                               }else if(test_mode == 0){
;;;2866                                   TEXT_SetFont(hItem,&GUI_Fontset_font);//ËÆæÂÆöÊñáÊú¨Â≠ó‰Ωì
;;;2867                                   TEXT_SetText(hItem,"Âø´ÈÄü");
;;;2868                               }
;;;2869                           
;;;2870                               switch(buffer)
;;;2871                               {
;;;2872                                   case Lion:
;;;2873                                   {
;;;2874                                       hItem = WM_GetDialogItem(hWinset, ID_TEXT_91);
;;;2875                                       TEXT_SetBkColor(hItem,GUI_INVALID_COLOR);//ÈÄâÈ°πËÉåÊôØËâ≤ËÆæ‰∏∫ÈÄèÊòé
;;;2876                                       TEXT_SetTextColor(hItem, GUI_WHITE);
;;;2877                                       TEXT_SetText(hItem,"ÈîÇÁîµÊ±†");
;;;2878                                       b_type = Lion;
;;;2879                                       break;
;;;2880                                   }
;;;2881                                   case NiMH:
;;;2882                                   {
;;;2883                                       hItem = WM_GetDialogItem(hWinset, ID_TEXT_91);
;;;2884                                       TEXT_SetBkColor(hItem,GUI_INVALID_COLOR);//ÈÄâÈ°πËÉåÊôØËâ≤ËÆæ‰∏∫ÈÄèÊòé
;;;2885                                       TEXT_SetTextColor(hItem, GUI_WHITE);
;;;2886                                       TEXT_SetText(hItem,"ÈïçÊ∞¢ÁîµÊ±†");
;;;2887                                       b_type = NiMH;
;;;2888                                       break;
;;;2889                                   }
;;;2890                                   case NiCd:
;;;2891                                   {
;;;2892                                       hItem = WM_GetDialogItem(hWinset, ID_TEXT_91);
;;;2893                                       TEXT_SetBkColor(hItem,GUI_INVALID_COLOR);//ÈÄâÈ°πËÉåÊôØËâ≤ËÆæ‰∏∫ÈÄèÊòé
;;;2894                                       TEXT_SetTextColor(hItem, GUI_WHITE);
;;;2895                                       TEXT_SetText(hItem,"ÈïçÈïâÁîµÊ±†");
;;;2896                                       b_type = NiCd;
;;;2897                                       break;
;;;2898                                   }
;;;2899                                   case SLA:
;;;2900                                   {
;;;2901                                       hItem = WM_GetDialogItem(hWinset, ID_TEXT_91);
;;;2902                                       TEXT_SetBkColor(hItem,GUI_INVALID_COLOR);//ÈÄâÈ°πËÉåÊôØËâ≤ËÆæ‰∏∫ÈÄèÊòé
;;;2903                                       TEXT_SetTextColor(hItem, GUI_WHITE);
;;;2904                                       TEXT_SetText(hItem,"Â∞èÂûãÈìÖÈÖ∏ÁîµÊ±†");
;;;2905                                       b_type = SLA;
;;;2906                                       break;
;;;2907                                   }
;;;2908                                   case LiMH:
;;;2909                                   {
;;;2910                                       hItem = WM_GetDialogItem(hWinset, ID_TEXT_91);
;;;2911                                       TEXT_SetBkColor(hItem,GUI_INVALID_COLOR);//ÈÄâÈ°πËÉåÊôØËâ≤ËÆæ‰∏∫ÈÄèÊòé
;;;2912                                       TEXT_SetTextColor(hItem, GUI_WHITE);
;;;2913                                       TEXT_SetText(hItem,"ÈîÇÈî∞ÁîµÊ±†");
;;;2914                                       b_type = LiMH;
;;;2915                                       break;
;;;2916                                   }
;;;2917                               }
;;;2918                           
;;;2919                               hItem = WM_GetDialogItem(hWinset, ID_TEXT_92);
;;;2920                               TEXT_SetText(hItem,"");
;;;2921                               TEXT_SetBkColor(hItem,GUI_INVALID_COLOR);//ÈÄâÈ°πËÉåÊôØËâ≤ËÆæ‰∏∫ÈÄèÊòé
;;;2922                           
;;;2923                               hItem = WM_GetDialogItem(hWinset, ID_TEXT_93);
;;;2924                               TEXT_SetText(hItem,"");
;;;2925                               
;;;2926                               hItem = WM_GetDialogItem(hWinset, ID_TEXT_94);
;;;2927                               TEXT_SetText(hItem,"");
;;;2928                               
;;;2929                               hItem = WM_GetDialogItem(hWinset, ID_TEXT_95);
;;;2930                               TEXT_SetText(hItem,"");
;;;2931   
;;;2932                               Write_btype();
;;;2933                               set_sw = set_42;
;;;2934                               break;                        
;;;2935                       }
;;;2936                       case set_45:
;;;2937                       {
;;;2938                               WM_HWIN hItem;
;;;2939   //                            WM_InvalidateWindow(hWinset);
;;;2940                  
;;;2941                               hItem = WM_GetDialogItem(hWinset, ID_TEXT_90);
;;;2942                               TEXT_SetBkColor(hItem,0x00BFFFFF);//ÈÄâÈ°πËÉåÊôØËâ≤ËÆæ‰∏∫Á±≥Ëâ≤
;;;2943                               TEXT_SetTextColor(hItem, GUI_BLACK);
;;;2944                           
;;;2945                               hItem = WM_GetDialogItem(hWinset, ID_TEXT_134);
;;;2946                               if(test_mode == 1)
;;;2947                               {
;;;2948                                   TEXT_SetFont(hItem,&GUI_Fontset_font);//ËÆæÂÆöÊñáÊú¨Â≠ó‰Ωì
;;;2949                                   TEXT_SetText(hItem,"Á≤æÂáÜ");
;;;2950                               }else if(test_mode == 0){
;;;2951                                   TEXT_SetFont(hItem,&GUI_Fontset_font);//ËÆæÂÆöÊñáÊú¨Â≠ó‰Ωì
;;;2952                                   TEXT_SetText(hItem,"Âø´ÈÄü");
;;;2953                               }
;;;2954                           
;;;2955                               switch(buffer)
;;;2956                               {
;;;2957                                   case Lion:
;;;2958                                   {
;;;2959                                       hItem = WM_GetDialogItem(hWinset, ID_TEXT_91);
;;;2960                                       TEXT_SetBkColor(hItem,GUI_INVALID_COLOR);//ÈÄâÈ°πËÉåÊôØËâ≤ËÆæ‰∏∫ÈÄèÊòé
;;;2961                                       TEXT_SetTextColor(hItem, GUI_WHITE);
;;;2962                                       TEXT_SetText(hItem,"ÈîÇÁîµÊ±†");
;;;2963                                       b_type = Lion;
;;;2964                                       break;
;;;2965                                   }
;;;2966                                   case NiMH:
;;;2967                                   {
;;;2968                                       hItem = WM_GetDialogItem(hWinset, ID_TEXT_91);
;;;2969                                       TEXT_SetBkColor(hItem,GUI_INVALID_COLOR);//ÈÄâÈ°πËÉåÊôØËâ≤ËÆæ‰∏∫ÈÄèÊòé
;;;2970                                       TEXT_SetTextColor(hItem, GUI_WHITE);
;;;2971                                       TEXT_SetText(hItem,"ÈïçÊ∞¢ÁîµÊ±†");
;;;2972                                       b_type = NiMH;
;;;2973                                       break;
;;;2974                                   }
;;;2975                                   case NiCd:
;;;2976                                   {
;;;2977                                       hItem = WM_GetDialogItem(hWinset, ID_TEXT_91);
;;;2978                                       TEXT_SetBkColor(hItem,GUI_INVALID_COLOR);//ÈÄâÈ°πËÉåÊôØËâ≤ËÆæ‰∏∫ÈÄèÊòé
;;;2979                                       TEXT_SetTextColor(hItem, GUI_WHITE);
;;;2980                                       TEXT_SetText(hItem,"ÈïçÈïâÁîµÊ±†");
;;;2981                                       b_type = NiCd;
;;;2982                                       break;
;;;2983                                   }
;;;2984                                   case SLA:
;;;2985                                   {
;;;2986                                       hItem = WM_GetDialogItem(hWinset, ID_TEXT_91);
;;;2987                                       TEXT_SetBkColor(hItem,GUI_INVALID_COLOR);//ÈÄâÈ°πËÉåÊôØËâ≤ËÆæ‰∏∫ÈÄèÊòé
;;;2988                                       TEXT_SetTextColor(hItem, GUI_WHITE);
;;;2989                                       TEXT_SetText(hItem,"Â∞èÂûãÈìÖÈÖ∏ÁîµÊ±†");
;;;2990                                       b_type = SLA;
;;;2991                                       break;
;;;2992                                   }
;;;2993                                   case LiMH:
;;;2994                                   {
;;;2995                                       hItem = WM_GetDialogItem(hWinset, ID_TEXT_91);
;;;2996                                       TEXT_SetBkColor(hItem,GUI_INVALID_COLOR);//ÈÄâÈ°πËÉåÊôØËâ≤ËÆæ‰∏∫ÈÄèÊòé
;;;2997                                       TEXT_SetTextColor(hItem, GUI_WHITE);
;;;2998                                       TEXT_SetText(hItem,"ÈîÇÈî∞ÁîµÊ±†");
;;;2999                                       b_type = LiMH;
;;;3000                                       break;
;;;3001                                   }
;;;3002                               }
;;;3003                           
;;;3004                               hItem = WM_GetDialogItem(hWinset, ID_TEXT_92);
;;;3005                               TEXT_SetText(hItem,"");
;;;3006                           
;;;3007                               hItem = WM_GetDialogItem(hWinset, ID_TEXT_93);
;;;3008                               TEXT_SetText(hItem,"");
;;;3009                               TEXT_SetBkColor(hItem,GUI_INVALID_COLOR);//ÈÄâÈ°πËÉåÊôØËâ≤ËÆæ‰∏∫ÈÄèÊòé
;;;3010                               
;;;3011                               hItem = WM_GetDialogItem(hWinset, ID_TEXT_94);
;;;3012                               TEXT_SetText(hItem,"");
;;;3013                               
;;;3014                               hItem = WM_GetDialogItem(hWinset, ID_TEXT_95);
;;;3015                               TEXT_SetText(hItem,"");
;;;3016   
;;;3017                               Write_btype();
;;;3018                               set_sw = set_42;
;;;3019                               break;                        
;;;3020                       }
;;;3021                       case set_46:
;;;3022                       {
;;;3023                               WM_HWIN hItem;
;;;3024   //                            WM_InvalidateWindow(hWinset);
;;;3025                  
;;;3026                               hItem = WM_GetDialogItem(hWinset, ID_TEXT_90);
000108  4604              MOV      r4,r0
00010a  4619              MOV      r1,r3
00010c  4610              MOV      r0,r2
00010e  f7fffffe          BL       WM_GetDialogItem
000112  4607              MOV      r7,r0
;;;3027                               TEXT_SetBkColor(hItem,0x00BFFFFF);//ÈÄâÈ°πËÉåÊôØËâ≤ËÆæ‰∏∫Á±≥Ëâ≤
000114  49c3              LDR      r1,|L4.1060|
000116  4638              MOV      r0,r7
000118  f7fffffe          BL       TEXT_SetBkColor
;;;3028                               TEXT_SetTextColor(hItem, GUI_BLACK);
00011c  2100              MOVS     r1,#0
00011e  4638              MOV      r0,r7
000120  f7fffffe          BL       TEXT_SetTextColor
;;;3029                           
;;;3030                               hItem = WM_GetDialogItem(hWinset, ID_TEXT_134);
000124  f6401123          MOV      r1,#0x923
000128  6860              LDR      r0,[r4,#4]  ; hWinset
00012a  f7fffffe          BL       WM_GetDialogItem
00012e  4607              MOV      r7,r0
;;;3031                               if(test_mode == 1)
000130  7820              LDRB     r0,[r4,#0]  ; test_mode
000132  2801              CMP      r0,#1
000134  f00183e5          BEQ.W    |L4.6402|
;;;3032                               {
;;;3033                                   TEXT_SetFont(hItem,&GUI_Fontset_font);//ËÆæÂÆöÊñáÊú¨Â≠ó‰Ωì
;;;3034                                   TEXT_SetText(hItem,"Á≤æÂáÜ");
;;;3035                               }else if(test_mode == 0){
000138  7820              LDRB     r0,[r4,#0]  ; test_mode
00013a  2800              CMP      r0,#0
00013c  f00183eb          BEQ.W    |L4.6422|
000140  f001bbf2          B.W      |L4.6440|
                  |L4.324|
000144  4db8              LDR      r5,|L4.1064|
000146  2952              CMP      r1,#0x52              ;1975
000148  d07e              BEQ      |L4.584|
00014a  dc7e              BGT      |L4.586|
00014c  2948              CMP      r1,#0x48              ;1975
00014e  d07d              BEQ      |L4.588|
000150  2951              CMP      r1,#0x51              ;1975
000152  d1b5              BNE      |L4.192|
000154  f6401135          MOV      r1,#0x935             ;2169
000158  4610              MOV      r0,r2                 ;2169
00015a  f7fffffe          BL       WM_GetDialogItem
00015e  9001              STR      r0,[sp,#4]            ;2169
000160  f06f4170          MVN      r1,#0xf0000000        ;2170
000164  9801              LDR      r0,[sp,#4]            ;2170
000166  f7fffffe          BL       TEXT_SetBkColor
00016a  f06f417f          MVN      r1,#0xff000000        ;2171
00016e  9801              LDR      r0,[sp,#4]            ;2171
000170  f7fffffe          BL       TEXT_SetTextColor
000174  4fad              LDR      r7,|L4.1068|
000176  e001              B        |L4.380|
                  |L4.376|
000178  e3f1              B        |L4.2398|
                  |L4.378|
00017a  e08c              B        |L4.662|
                  |L4.380|
00017c  7838              LDRB     r0,[r7,#0]            ;2172  ; dot_flag
00017e  2800              CMP      r0,#0                 ;2172
000180  d065              BEQ      |L4.590|
000182  7838              LDRB     r0,[r7,#0]            ;2174  ; dot_flag
000184  b198              CBZ      r0,|L4.430|
000186  9404              STR      r4,[sp,#0x10]         ;2175
000188  9405              STR      r4,[sp,#0x14]         ;2175
00018a  783a              LDRB     r2,[r7,#0]            ;2176  ; dot_flag
00018c  49a3              LDR      r1,|L4.1052|
00018e  1cd2              ADDS     r2,r2,#3              ;2176
000190  a804              ADD      r0,sp,#0x10           ;2176
000192  f7fffffe          BL       strncpy
000196  a804              ADD      r0,sp,#0x10           ;2177
000198  f7fffffe          BL       __hardfp_atof
00019c  ec532b18          VMOV     r2,r3,d8              ;2177
0001a0  ec510b10          VMOV     r0,r1,d0              ;2177
0001a4  f7fffffe          BL       __aeabi_dmul
0001a8  f7fffffe          BL       __aeabi_d2iz
0001ac  8028              STRH     r0,[r5,#0]            ;2177
                  |L4.430|
0001ae  f9b50000          LDRSH    r0,[r5,#0]            ;2179  ; InFlashSave
0001b2  ee000a10          VMOV     s0,r0                 ;2179
0001b6  e001              B        |L4.444|
                  |L4.440|
0001b8  e3fe              B        |L4.2488|
                  |L4.442|
0001ba  e3fe              B        |L4.2490|
                  |L4.444|
0001bc  eef80ac0          VCVT.F32.S32 s1,s0                 ;2179
0001c0  ed9f8a90          VLDR     s16,|L4.1028|
0001c4  ee800a88          VDIV.F32 s0,s1,s16             ;2179
0001c8  ee100a10          VMOV     r0,s0                 ;2179
0001cc  f7fffffe          BL       __aeabi_f2d
0001d0  ec410b10          VMOV     d0,r0,r1              ;2179
0001d4  a196              ADR      r1,|L4.1072|
0001d6  ec532b10          VMOV     r2,r3,d0              ;2179
0001da  a804              ADD      r0,sp,#0x10           ;2179
0001dc  f7fffffe          BL       __2sprintf
0001e0  a904              ADD      r1,sp,#0x10           ;2180
0001e2  9801              LDR      r0,[sp,#4]            ;2180
0001e4  f7fffffe          BL       TEXT_SetText
0001e8  f8df822c          LDR      r8,|L4.1048|
0001ec  f6401136          MOV      r1,#0x936             ;2182
0001f0  f8d80004          LDR      r0,[r8,#4]            ;2182  ; hWinset
0001f4  f7fffffe          BL       WM_GetDialogItem
0001f8  4682              MOV      r10,r0                ;2182
0001fa  f06f4170          MVN      r1,#0xf0000000        ;2183
0001fe  4650              MOV      r0,r10                ;2183
000200  f7fffffe          BL       TEXT_SetBkColor
000204  f06f417f          MVN      r1,#0xff000000        ;2184
000208  4650              MOV      r0,r10                ;2184
00020a  f7fffffe          BL       TEXT_SetTextColor
00020e  f9b50002          LDRSH    r0,[r5,#2]            ;2186  ; InFlashSave
000212  ee000a10          VMOV     s0,r0                 ;2186
000216  eef80ac0          VCVT.F32.S32 s1,s0                 ;2186
00021a  ee800a88          VDIV.F32 s0,s1,s16             ;2186
00021e  ee100a10          VMOV     r0,s0                 ;2186
000222  f7fffffe          BL       __aeabi_f2d
000226  ec410b10          VMOV     d0,r0,r1              ;2186
00022a  a181              ADR      r1,|L4.1072|
00022c  ec532b10          VMOV     r2,r3,d0              ;2186
000230  a804              ADD      r0,sp,#0x10           ;2186
000232  f7fffffe          BL       __2sprintf
000236  a904              ADD      r1,sp,#0x10           ;2187
000238  4650              MOV      r0,r10                ;2187
00023a  f7fffffe          BL       TEXT_SetText
00023e  f640012f          MOV      r1,#0x82f             ;2189
000242  f8d80004          LDR      r0,[r8,#4]            ;2189  ; hWinset
000246  e010              B        |L4.618|
                  |L4.584|
000248  e296              B        |L4.1912|
                  |L4.586|
00024a  e029              B        |L4.672|
                  |L4.588|
00024c  e3fe              B        |L4.2636|
                  |L4.590|
00024e  e28b              B        |L4.1896|
000250  e3fd              B        |L4.2638|
000252  e394              B        |L4.2430|
000254  e1f9              B        |L4.1610|
000256  e169              B        |L4.1324|
000258  e3fa              B        |L4.2640|
00025a  e3fa              B        |L4.2642|
00025c  e3e1              B        |L4.2594|
00025e  e35f              B        |L4.2336|
000260  e330              B        |L4.2244|
000262  e135              B        |L4.1232|
000264  e117              B        |L4.1174|
000266  e0f9              B        |L4.1116|
000268  e0b8              B        |L4.988|
                  |L4.618|
00026a  f7fffffe          BL       WM_GetDialogItem
00026e  4605              MOV      r5,r0                 ;2189
000270  496c              LDR      r1,|L4.1060|
000272  4628              MOV      r0,r5                 ;2190
000274  f7fffffe          BL       TEXT_SetBkColor
000278  2100              MOVS     r1,#0                 ;2191
00027a  4628              MOV      r0,r5                 ;2191
00027c  f7fffffe          BL       TEXT_SetTextColor
000280  4a69              LDR      r2,|L4.1064|
000282  2114              MOVS     r1,#0x14              ;2192
000284  486c              LDR      r0,|L4.1080|
000286  f7fffffe          BL       Flash_Write16BitDatas
00028a  485f              LDR      r0,|L4.1032|
00028c  f880b000          STRB     r11,[r0,#0]           ;2193
000290  f8896000          STRB     r6,[r9,#0]            ;2194
000294  703c              STRB     r4,[r7,#0]            ;2195
                  |L4.662|
;;;3036                                   TEXT_SetFont(hItem,&GUI_Fontset_font);//ËÆæÂÆöÊñáÊú¨Â≠ó‰Ωì
;;;3037                                   TEXT_SetText(hItem,"Âø´ÈÄü");
;;;3038                               }
;;;3039                           
;;;3040                               switch(buffer)
;;;3041                               {
;;;3042                                   case Lion:
;;;3043                                   {
;;;3044                                       hItem = WM_GetDialogItem(hWinset, ID_TEXT_91);
;;;3045                                       TEXT_SetBkColor(hItem,GUI_INVALID_COLOR);//ÈÄâÈ°πËÉåÊôØËâ≤ËÆæ‰∏∫ÈÄèÊòé
;;;3046                                       TEXT_SetTextColor(hItem, GUI_WHITE);
;;;3047                                       TEXT_SetText(hItem,"ÈîÇÁîµÊ±†");
;;;3048                                       b_type = Lion;
;;;3049                                       break;
;;;3050                                   }
;;;3051                                   case NiMH:
;;;3052                                   {
;;;3053                                       hItem = WM_GetDialogItem(hWinset, ID_TEXT_91);
;;;3054                                       TEXT_SetBkColor(hItem,GUI_INVALID_COLOR);//ÈÄâÈ°πËÉåÊôØËâ≤ËÆæ‰∏∫ÈÄèÊòé
;;;3055                                       TEXT_SetTextColor(hItem, GUI_WHITE);
;;;3056                                       TEXT_SetText(hItem,"ÈïçÊ∞¢ÁîµÊ±†");
;;;3057                                       b_type = NiMH;
;;;3058                                       break;
;;;3059                                   }
;;;3060                                   case NiCd:
;;;3061                                   {
;;;3062                                       hItem = WM_GetDialogItem(hWinset, ID_TEXT_91);
;;;3063                                       TEXT_SetBkColor(hItem,GUI_INVALID_COLOR);//ÈÄâÈ°πËÉåÊôØËâ≤ËÆæ‰∏∫ÈÄèÊòé
;;;3064                                       TEXT_SetTextColor(hItem, GUI_WHITE);
;;;3065                                       TEXT_SetText(hItem,"ÈïçÈïâÁîµÊ±†");
;;;3066                                       b_type = NiCd;
;;;3067                                       break;
;;;3068                                   }
;;;3069                                   case SLA:
;;;3070                                   {
;;;3071                                       hItem = WM_GetDialogItem(hWinset, ID_TEXT_91);
;;;3072                                       TEXT_SetBkColor(hItem,GUI_INVALID_COLOR);//ÈÄâÈ°πËÉåÊôØËâ≤ËÆæ‰∏∫ÈÄèÊòé
;;;3073                                       TEXT_SetTextColor(hItem, GUI_WHITE);
;;;3074                                       TEXT_SetText(hItem,"Â∞èÂûãÈìÖÈÖ∏ÁîµÊ±†");
;;;3075                                       b_type = SLA;
;;;3076                                       break;
;;;3077                                   }
;;;3078                                   case LiMH:
;;;3079                                   {
;;;3080                                       hItem = WM_GetDialogItem(hWinset, ID_TEXT_91);
;;;3081                                       TEXT_SetBkColor(hItem,GUI_INVALID_COLOR);//ÈÄâÈ°πËÉåÊôØËâ≤ËÆæ‰∏∫ÈÄèÊòé
;;;3082                                       TEXT_SetTextColor(hItem, GUI_WHITE);
;;;3083                                       TEXT_SetText(hItem,"ÈîÇÈî∞ÁîµÊ±†");
;;;3084                                       b_type = LiMH;
;;;3085                                       break;
;;;3086                                   }
;;;3087                               }
;;;3088                           
;;;3089                               hItem = WM_GetDialogItem(hWinset, ID_TEXT_92);
;;;3090                               TEXT_SetText(hItem,"");
;;;3091                           
;;;3092                               hItem = WM_GetDialogItem(hWinset, ID_TEXT_93);
;;;3093                               TEXT_SetText(hItem,"");
;;;3094                               
;;;3095                               hItem = WM_GetDialogItem(hWinset, ID_TEXT_94);
;;;3096                               TEXT_SetText(hItem,"");
;;;3097                               TEXT_SetBkColor(hItem,GUI_INVALID_COLOR);//ÈÄâÈ°πËÉåÊôØËâ≤ËÆæ‰∏∫ÈÄèÊòé
;;;3098                               
;;;3099                               hItem = WM_GetDialogItem(hWinset, ID_TEXT_95);
;;;3100                               TEXT_SetText(hItem,"");
;;;3101   
;;;3102                               Write_btype();
;;;3103                               set_sw = set_42;
;;;3104                               break;                        
;;;3105                       }
;;;3106                       case set_47:
;;;3107                       {
;;;3108                               WM_HWIN hItem;
;;;3109   //                            WM_InvalidateWindow(hWinset);
;;;3110                  
;;;3111                               hItem = WM_GetDialogItem(hWinset, ID_TEXT_90);
;;;3112                               TEXT_SetBkColor(hItem,0x00BFFFFF);//ÈÄâÈ°πËÉåÊôØËâ≤ËÆæ‰∏∫Á±≥Ëâ≤
;;;3113                               TEXT_SetTextColor(hItem, GUI_BLACK);
;;;3114                           
;;;3115                               hItem = WM_GetDialogItem(hWinset, ID_TEXT_134);
;;;3116                               if(test_mode == 1)
;;;3117                               {
;;;3118                                   TEXT_SetFont(hItem,&GUI_Fontset_font);//ËÆæÂÆöÊñáÊú¨Â≠ó‰Ωì
;;;3119                                   TEXT_SetText(hItem,"Á≤æÂáÜ");
;;;3120                               }else if(test_mode == 0){
;;;3121                                   TEXT_SetFont(hItem,&GUI_Fontset_font);//ËÆæÂÆöÊñáÊú¨Â≠ó‰Ωì
;;;3122                                   TEXT_SetText(hItem,"Âø´ÈÄü");
;;;3123                               }
;;;3124                           
;;;3125                               switch(buffer)
;;;3126                               {
;;;3127                                   case Lion:
;;;3128                                   {
;;;3129                                       hItem = WM_GetDialogItem(hWinset, ID_TEXT_91);
;;;3130                                       TEXT_SetBkColor(hItem,GUI_INVALID_COLOR);//ÈÄâÈ°πËÉåÊôØËâ≤ËÆæ‰∏∫ÈÄèÊòé
;;;3131                                       TEXT_SetTextColor(hItem, GUI_WHITE);
;;;3132                                       TEXT_SetText(hItem,"ÈîÇÁîµÊ±†");
;;;3133                                       b_type = Lion;
;;;3134                                       break;
;;;3135                                   }
;;;3136                                   case NiMH:
;;;3137                                   {
;;;3138                                       hItem = WM_GetDialogItem(hWinset, ID_TEXT_91);
;;;3139                                       TEXT_SetBkColor(hItem,GUI_INVALID_COLOR);//ÈÄâÈ°πËÉåÊôØËâ≤ËÆæ‰∏∫ÈÄèÊòé
;;;3140                                       TEXT_SetTextColor(hItem, GUI_WHITE);
;;;3141                                       TEXT_SetText(hItem,"ÈïçÊ∞¢ÁîµÊ±†");
;;;3142                                       b_type = NiMH;
;;;3143                                       break;
;;;3144                                   }
;;;3145                                   case NiCd:
;;;3146                                   {
;;;3147                                       hItem = WM_GetDialogItem(hWinset, ID_TEXT_91);
;;;3148                                       TEXT_SetBkColor(hItem,GUI_INVALID_COLOR);//ÈÄâÈ°πËÉåÊôØËâ≤ËÆæ‰∏∫ÈÄèÊòé
;;;3149                                       TEXT_SetTextColor(hItem, GUI_WHITE);
;;;3150                                       TEXT_SetText(hItem,"ÈïçÈïâÁîµÊ±†");
;;;3151                                       b_type = NiCd;
;;;3152                                       break;
;;;3153                                   }
;;;3154                                   case SLA:
;;;3155                                   {
;;;3156                                       hItem = WM_GetDialogItem(hWinset, ID_TEXT_91);
;;;3157                                       TEXT_SetBkColor(hItem,GUI_INVALID_COLOR);//ÈÄâÈ°πËÉåÊôØËâ≤ËÆæ‰∏∫ÈÄèÊòé
;;;3158                                       TEXT_SetTextColor(hItem, GUI_WHITE);
;;;3159                                       TEXT_SetText(hItem,"Â∞èÂûãÈìÖÈÖ∏ÁîµÊ±†");
;;;3160                                       b_type = SLA;
;;;3161                                       break;
;;;3162                                   }
;;;3163                                   case LiMH:
;;;3164                                   {
;;;3165                                       hItem = WM_GetDialogItem(hWinset, ID_TEXT_91);
;;;3166                                       TEXT_SetBkColor(hItem,GUI_INVALID_COLOR);//ÈÄâÈ°πËÉåÊôØËâ≤ËÆæ‰∏∫ÈÄèÊòé
;;;3167                                       TEXT_SetTextColor(hItem, GUI_WHITE);
;;;3168                                       TEXT_SetText(hItem,"ÈîÇÈî∞ÁîµÊ±†");
;;;3169                                       b_type = LiMH;
;;;3170                                       break;
;;;3171                                   }
;;;3172                               }
;;;3173                           
;;;3174                               hItem = WM_GetDialogItem(hWinset, ID_TEXT_92);
;;;3175                               TEXT_SetText(hItem,"");
;;;3176                           
;;;3177                               hItem = WM_GetDialogItem(hWinset, ID_TEXT_93);
;;;3178                               TEXT_SetText(hItem,"");
;;;3179                               
;;;3180                               hItem = WM_GetDialogItem(hWinset, ID_TEXT_94);
;;;3181                               TEXT_SetText(hItem,"");
;;;3182                               
;;;3183                               hItem = WM_GetDialogItem(hWinset, ID_TEXT_95);
;;;3184                               TEXT_SetText(hItem,"");
;;;3185                               TEXT_SetBkColor(hItem,GUI_INVALID_COLOR);//ÈÄâÈ°πËÉåÊôØËâ≤ËÆæ‰∏∫ÈÄèÊòé
;;;3186   
;;;3187                               Write_btype();
;;;3188                               set_sw = set_42;
;;;3189                               break;                        
;;;3190                       }
;;;3191                       
;;;3192                       default:break;
;;;3193   //                    return Beep_Flag;
;;;3194                   }
;;;3195               }
000296  b007              ADD      sp,sp,#0x1c
000298  ecbd8b06          VPOP     {d8-d10}
00029c  e8bd8ff0          POP      {r4-r11,pc}
                  |L4.672|
0002a0  f2427710          MOV      r7,#0x2710            ;2490
0002a4  2953              CMP      r1,#0x53              ;1975
0002a6  d07c              BEQ      |L4.930|
0002a8  2954              CMP      r1,#0x54              ;1975
0002aa  d1f4              BNE      |L4.662|
0002ac  4683              MOV      r11,r0                ;2532
0002ae  f6401137          MOV      r1,#0x937             ;2532
0002b2  4610              MOV      r0,r2                 ;2532
0002b4  f7fffffe          BL       WM_GetDialogItem
0002b8  9001              STR      r0,[sp,#4]            ;2532
0002ba  4651              MOV      r1,r10                ;2533
0002bc  9801              LDR      r0,[sp,#4]            ;2533
0002be  f7fffffe          BL       TEXT_SetBkColor
0002c2  4641              MOV      r1,r8                 ;2534
0002c4  9801              LDR      r0,[sp,#4]            ;2534
0002c6  f7fffffe          BL       TEXT_SetTextColor
0002ca  f9b50004          LDRSH    r0,[r5,#4]            ;2540  ; InFlashSave
0002ce  ee000a10          VMOV     s0,r0                 ;2540
0002d2  eef80ac0          VCVT.F32.S32 s1,s0                 ;2540
0002d6  ed9f9a4b          VLDR     s18,|L4.1028|
0002da  ee800a89          VDIV.F32 s0,s1,s18             ;2540
0002de  ee100a10          VMOV     r0,s0                 ;2540
0002e2  f7fffffe          BL       __aeabi_f2d
0002e6  ec410b10          VMOV     d0,r0,r1              ;2540
0002ea  a151              ADR      r1,|L4.1072|
0002ec  ec532b10          VMOV     r2,r3,d0              ;2540
0002f0  a804              ADD      r0,sp,#0x10           ;2540
0002f2  f7fffffe          BL       __2sprintf
0002f6  a904              ADD      r1,sp,#0x10           ;2541
0002f8  9801              LDR      r0,[sp,#4]            ;2541
0002fa  f7fffffe          BL       TEXT_SetText
0002fe  f6401138          MOV      r1,#0x938             ;2543
000302  f8db0004          LDR      r0,[r11,#4]           ;2543  ; hWinset
000306  f7fffffe          BL       WM_GetDialogItem
00030a  9001              STR      r0,[sp,#4]            ;2543
00030c  4651              MOV      r1,r10                ;2544
00030e  9801              LDR      r0,[sp,#4]            ;2544
000310  f7fffffe          BL       TEXT_SetBkColor
000314  4641              MOV      r1,r8                 ;2545
000316  9801              LDR      r0,[sp,#4]            ;2545
000318  f7fffffe          BL       TEXT_SetTextColor
00031c  f8df810c          LDR      r8,|L4.1068|
000320  f8980000          LDRB     r0,[r8,#0]            ;2546  ; dot_flag
000324  2800              CMP      r0,#0                 ;2546
000326  d06a              BEQ      |L4.1022|
000328  f8980000          LDRB     r0,[r8,#0]            ;2548  ; dot_flag
00032c  b1a0              CBZ      r0,|L4.856|
00032e  9404              STR      r4,[sp,#0x10]         ;2549
000330  9405              STR      r4,[sp,#0x14]         ;2549
000332  f8982000          LDRB     r2,[r8,#0]            ;2550  ; dot_flag
000336  4939              LDR      r1,|L4.1052|
000338  1cd2              ADDS     r2,r2,#3              ;2550
00033a  a804              ADD      r0,sp,#0x10           ;2550
00033c  f7fffffe          BL       strncpy
000340  a804              ADD      r0,sp,#0x10           ;2551
000342  f7fffffe          BL       __hardfp_atof
000346  ec532b18          VMOV     r2,r3,d8              ;2551
00034a  ec510b10          VMOV     r0,r1,d0              ;2551
00034e  f7fffffe          BL       __aeabi_dmul
000352  f7fffffe          BL       __aeabi_d2iz
000356  80e8              STRH     r0,[r5,#6]            ;2551
                  |L4.856|
000358  f9b50006          LDRSH    r0,[r5,#6]            ;2553  ; InFlashSave
00035c  42b8              CMP      r0,r7                 ;2553
00035e  dd00              BLE      |L4.866|
000360  80ef              STRH     r7,[r5,#6]            ;2555
                  |L4.866|
000362  f9b50006          LDRSH    r0,[r5,#6]            ;2557  ; InFlashSave
000366  f9b51004          LDRSH    r1,[r5,#4]            ;2557  ; InFlashSave
00036a  4288              CMP      r0,r1                 ;2557
00036c  db00              BLT      |L4.880|
00036e  80ec              STRH     r4,[r5,#6]            ;2559
                  |L4.880|
000370  f9b50006          LDRSH    r0,[r5,#6]            ;2563  ; InFlashSave
000374  ee000a10          VMOV     s0,r0                 ;2563
000378  eef80ac0          VCVT.F32.S32 s1,s0                 ;2563
00037c  ee800a89          VDIV.F32 s0,s1,s18             ;2563
000380  ee100a10          VMOV     r0,s0                 ;2563
000384  f7fffffe          BL       __aeabi_f2d
000388  ec410b10          VMOV     d0,r0,r1              ;2563
00038c  a128              ADR      r1,|L4.1072|
00038e  ec532b10          VMOV     r2,r3,d0              ;2563
000392  a804              ADD      r0,sp,#0x10           ;2563
000394  f7fffffe          BL       __2sprintf
000398  a904              ADD      r1,sp,#0x10           ;2564
00039a  9801              LDR      r0,[sp,#4]            ;2564
00039c  f7fffffe          BL       TEXT_SetText
0003a0  e000              B        |L4.932|
                  |L4.930|
0003a2  e3ee              B        |L4.2946|
                  |L4.932|
0003a4  f640013c          MOV      r1,#0x83c             ;2566
0003a8  f8db0004          LDR      r0,[r11,#4]           ;2566  ; hWinset
0003ac  f7fffffe          BL       WM_GetDialogItem
0003b0  4605              MOV      r5,r0                 ;2566
0003b2  491c              LDR      r1,|L4.1060|
0003b4  4628              MOV      r0,r5                 ;2567
0003b6  f7fffffe          BL       TEXT_SetBkColor
0003ba  2100              MOVS     r1,#0                 ;2568
0003bc  4628              MOV      r0,r5                 ;2568
0003be  f7fffffe          BL       TEXT_SetTextColor
0003c2  4a19              LDR      r2,|L4.1064|
0003c4  2114              MOVS     r1,#0x14              ;2570
0003c6  481c              LDR      r0,|L4.1080|
0003c8  f7fffffe          BL       Flash_Write16BitDatas
0003cc  490e              LDR      r1,|L4.1032|
0003ce  2008              MOVS     r0,#8                 ;2571
0003d0  7008              STRB     r0,[r1,#0]            ;2571
0003d2  f8896000          STRB     r6,[r9,#0]            ;2572
0003d6  f8884000          STRB     r4,[r8,#0]            ;2573
                  |L4.986|
0003da  e75c              B        |L4.662|
                  |L4.988|
0003dc  4d17              LDR      r5,|L4.1084|
0003de  7828              LDRB     r0,[r5,#0]            ;1978  ; para_set1
0003e0  f6400132          MOV      r1,#0x832             ;1983
0003e4  b370              CBZ      r0,|L4.1092|
0003e6  28ff              CMP      r0,#0xff              ;1978
0003e8  d1f7              BNE      |L4.986|
0003ea  4610              MOV      r0,r2                 ;1983
0003ec  f7fffffe          BL       WM_GetDialogItem
0003f0  a113              ADR      r1,|L4.1088|
0003f2  f7fffffe          BL       TEXT_SetText
0003f6  702c              STRB     r4,[r5,#0]            ;1985
0003f8  f7fffffe          BL       Wrtite_S
0003fc  e74b              B        |L4.662|
                  |L4.1022|
0003fe  e3fb              B        |L4.3064|
                  |L4.1024|
                          DCD      Run_Control
                  |L4.1028|
000404  447a0000          DCFS     0x447a0000 ; 1000
                  |L4.1032|
                          DCD      set_sw
                  |L4.1036|
00040c  00000000          DCFD     0x408f400000000000 ; 1000
000410  408f4000
                  |L4.1044|
                          DCD      bit
                  |L4.1048|
                          DCD      ||.data||
                  |L4.1052|
                          DCD      set_limit
                  |L4.1056|
                          DCD      b_type
                  |L4.1060|
                          DCD      0x00bfffff
                  |L4.1064|
                          DCD      ||.bss||
                  |L4.1068|
                          DCD      dot_flag
                  |L4.1072|
000430  252e3366          DCB      "%.3f"
                  |L4.1076|
000434  00                DCB      0
000435  00                DCB      0
000436  00                DCB      0
000437  00                DCB      0
                  |L4.1080|
                          DCD      0x080e0000
                  |L4.1084|
                          DCD      para_set1
                  |L4.1088|
000440  4f464600          DCB      "OFF",0
                  |L4.1092|
000444  e7ff              B        |L4.1094|
                  |L4.1094|
000446  4610              MOV      r0,r2                 ;1993
000448  f7fffffe          BL       WM_GetDialogItem
00044c  a1fe              ADR      r1,|L4.2120|
00044e  f7fffffe          BL       TEXT_SetText
000452  f885b000          STRB     r11,[r5,#0]           ;1995
000456  f7fffffe          BL       Wrtite_S
00045a  e71c              B        |L4.662|
                  |L4.1116|
00045c  4dfb              LDR      r5,|L4.2124|
00045e  7828              LDRB     r0,[r5,#0]            ;2004  ; para_set2
000460  f6400133          MOV      r1,#0x833             ;2009
000464  b160              CBZ      r0,|L4.1152|
000466  28ff              CMP      r0,#0xff              ;2004
000468  d1b7              BNE      |L4.986|
00046a  4610              MOV      r0,r2                 ;2009
00046c  f7fffffe          BL       WM_GetDialogItem
000470  f2af0134          ADR      r1,|L4.1088|
000474  f7fffffe          BL       TEXT_SetText
000478  702c              STRB     r4,[r5,#0]            ;2011
00047a  f7fffffe          BL       Write_oct
00047e  e70a              B        |L4.662|
                  |L4.1152|
000480  4610              MOV      r0,r2                 ;2019
000482  f7fffffe          BL       WM_GetDialogItem
000486  a1f0              ADR      r1,|L4.2120|
000488  f7fffffe          BL       TEXT_SetText
00048c  f885b000          STRB     r11,[r5,#0]           ;2021
000490  f7fffffe          BL       Write_oct
000494  e6ff              B        |L4.662|
                  |L4.1174|
000496  4dee              LDR      r5,|L4.2128|
000498  7828              LDRB     r0,[r5,#0]            ;2030  ; para_set4
00049a  f6400134          MOV      r1,#0x834             ;2035
00049e  b160              CBZ      r0,|L4.1210|
0004a0  28ff              CMP      r0,#0xff              ;2030
0004a2  d19a              BNE      |L4.986|
0004a4  4610              MOV      r0,r2                 ;2035
0004a6  f7fffffe          BL       WM_GetDialogItem
0004aa  f2af016c          ADR      r1,|L4.1088|
0004ae  f7fffffe          BL       TEXT_SetText
0004b2  702c              STRB     r4,[r5,#0]            ;2037
0004b4  f7fffffe          BL       Write_alarm
0004b8  e6ed              B        |L4.662|
                  |L4.1210|
0004ba  4610              MOV      r0,r2                 ;2045
0004bc  f7fffffe          BL       WM_GetDialogItem
0004c0  a1e1              ADR      r1,|L4.2120|
0004c2  f7fffffe          BL       TEXT_SetText
0004c6  f885b000          STRB     r11,[r5,#0]           ;2047
0004ca  f7fffffe          BL       Write_alarm
0004ce  e6e2              B        |L4.662|
                  |L4.1232|
0004d0  4606              MOV      r6,r0                 ;2059
0004d2  f640012e          MOV      r1,#0x82e             ;2059
0004d6  4610              MOV      r0,r2                 ;2059
0004d8  f7fffffe          BL       WM_GetDialogItem
0004dc  4607              MOV      r7,r0                 ;2059
0004de  4651              MOV      r1,r10                ;2060
0004e0  4638              MOV      r0,r7                 ;2060
0004e2  f7fffffe          BL       TEXT_SetBkColor
0004e6  4641              MOV      r1,r8                 ;2061
0004e8  4638              MOV      r0,r7                 ;2061
0004ea  f7fffffe          BL       TEXT_SetTextColor
0004ee  f44f6106          MOV      r1,#0x860             ;2063
0004f2  6870              LDR      r0,[r6,#4]            ;2063  ; hWinset
0004f4  f7fffffe          BL       WM_GetDialogItem
0004f8  4606              MOV      r6,r0                 ;2063
0004fa  49d6              LDR      r1,|L4.2132|
0004fc  4630              MOV      r0,r6                 ;2064
0004fe  f7fffffe          BL       TEXT_SetBkColor
000502  2100              MOVS     r1,#0                 ;2065
000504  4630              MOV      r0,r6                 ;2065
000506  f7fffffe          BL       TEXT_SetTextColor
00050a  9406              STR      r4,[sp,#0x18]         ;2067
00050c  e006              B        |L4.1308|
                  |L4.1294|
00050e  f89d0018          LDRB     r0,[sp,#0x18]         ;2068
000512  542c              STRB     r4,[r5,r0]            ;2068
000514  f89d0018          LDRB     r0,[sp,#0x18]         ;2067
000518  1c40              ADDS     r0,r0,#1              ;2067
00051a  9006              STR      r0,[sp,#0x18]         ;2067
                  |L4.1308|
00051c  f89d0018          LDRB     r0,[sp,#0x18]         ;2067
000520  2806              CMP      r0,#6                 ;2067
000522  d3f4              BCC      |L4.1294|
000524  49cc              LDR      r1,|L4.2136|
000526  200b              MOVS     r0,#0xb               ;2070
000528  7008              STRB     r0,[r1,#0]            ;2070
                  |L4.1322|
00052a  e6b4              B        |L4.662|
                  |L4.1324|
00052c  4605              MOV      r5,r0                 ;2078
00052e  f44f6106          MOV      r1,#0x860             ;2078
000532  4610              MOV      r0,r2                 ;2078
000534  f7fffffe          BL       WM_GetDialogItem
000538  9001              STR      r0,[sp,#4]            ;2078
00053a  46d3              MOV      r11,r10               ;2079
00053c  4659              MOV      r1,r11                ;2079
00053e  9801              LDR      r0,[sp,#4]            ;2079
000540  f7fffffe          BL       TEXT_SetBkColor
000544  46c2              MOV      r10,r8                ;2080
000546  4651              MOV      r1,r10                ;2080
000548  9801              LDR      r0,[sp,#4]            ;2080
00054a  f7fffffe          BL       TEXT_SetTextColor
00054e  f8df830c          LDR      r8,|L4.2140|
000552  f8980000          LDRB     r0,[r8,#0]            ;2081  ; dot_flag
000556  b3e8              CBZ      r0,|L4.1492|
000558  f8980000          LDRB     r0,[r8,#0]            ;2083  ; dot_flag
00055c  b1a0              CBZ      r0,|L4.1416|
00055e  9404              STR      r4,[sp,#0x10]         ;2084
000560  9405              STR      r4,[sp,#0x14]         ;2084
000562  f8982000          LDRB     r2,[r8,#0]            ;2085  ; dot_flag
000566  49be              LDR      r1,|L4.2144|
000568  1c92              ADDS     r2,r2,#2              ;2085
00056a  a804              ADD      r0,sp,#0x10           ;2085
00056c  f7fffffe          BL       strncpy
000570  a804              ADD      r0,sp,#0x10           ;2086
000572  f7fffffe          BL       __hardfp_atof
000576  ec532b18          VMOV     r2,r3,d8              ;2086
00057a  ec510b10          VMOV     r0,r1,d0              ;2086
00057e  f7fffffe          BL       __aeabi_dmul
000582  f7fffffe          BL       __aeabi_d2uiz
000586  63b8              STR      r0,[r7,#0x38]         ;2086  ; Run_Control
                  |L4.1416|
000588  6bb9              LDR      r1,[r7,#0x38]         ;2088  ; Run_Control
00058a  f24f2030          MOV      r0,#0xf230            ;2088
00058e  4281              CMP      r1,r0                 ;2088
000590  d900              BLS      |L4.1428|
000592  63b8              STR      r0,[r7,#0x38]         ;2090  ; Run_Control
                  |L4.1428|
000594  6bb8              LDR      r0,[r7,#0x38]         ;2092  ; Run_Control
000596  ee000a10          VMOV     s0,r0                 ;2092
00059a  eef80a40          VCVT.F32.U32 s1,s0                 ;2092
00059e  ed1f1a67          VLDR     s2,|L4.1028|
0005a2  ee800a81          VDIV.F32 s0,s1,s2              ;2092
0005a6  ee100a10          VMOV     r0,s0                 ;2098
0005aa  f7fffffe          BL       __aeabi_f2d
0005ae  ec410b10          VMOV     d0,r0,r1              ;2098
0005b2  ec532b10          VMOV     r2,r3,d0              ;2098
0005b6  f2af1188          ADR      r1,|L4.1072|
0005ba  a804              ADD      r0,sp,#0x10           ;2098
0005bc  f7fffffe          BL       __2sprintf
0005c0  a904              ADD      r1,sp,#0x10           ;2099
0005c2  9801              LDR      r0,[sp,#4]            ;2099
0005c4  f7fffffe          BL       TEXT_SetText
0005c8  f6400161          MOV      r1,#0x861             ;2101
0005cc  6868              LDR      r0,[r5,#4]            ;2101  ; hWinset
0005ce  f7fffffe          BL       WM_GetDialogItem
0005d2  e000              B        |L4.1494|
                  |L4.1492|
0005d4  e031              B        |L4.1594|
                  |L4.1494|
0005d6  4607              MOV      r7,r0                 ;2101
0005d8  4659              MOV      r1,r11                ;2102
0005da  4638              MOV      r0,r7                 ;2102
0005dc  f7fffffe          BL       TEXT_SetBkColor
0005e0  4651              MOV      r1,r10                ;2103
0005e2  4638              MOV      r0,r7                 ;2103
0005e4  f7fffffe          BL       TEXT_SetTextColor
0005e8  ee190a10          VMOV     r0,s18                ;2105
0005ec  f7fffffe          BL       __aeabi_f2d
0005f0  ec410b10          VMOV     d0,r0,r1              ;2105
0005f4  ec532b10          VMOV     r2,r3,d0              ;2105
0005f8  f2af11cc          ADR      r1,|L4.1072|
0005fc  a804              ADD      r0,sp,#0x10           ;2105
0005fe  f7fffffe          BL       __2sprintf
000602  a904              ADD      r1,sp,#0x10           ;2106
000604  4638              MOV      r0,r7                 ;2106
000606  f7fffffe          BL       TEXT_SetText
00060a  f640012e          MOV      r1,#0x82e             ;2108
00060e  6868              LDR      r0,[r5,#4]            ;2108  ; hWinset
000610  f7fffffe          BL       WM_GetDialogItem
000614  4605              MOV      r5,r0                 ;2108
000616  498f              LDR      r1,|L4.2132|
000618  4628              MOV      r0,r5                 ;2109
00061a  f7fffffe          BL       TEXT_SetBkColor
00061e  2100              MOVS     r1,#0                 ;2110
000620  4628              MOV      r0,r5                 ;2110
000622  f7fffffe          BL       TEXT_SetTextColor
000626  f7fffffe          BL       Write_Limits
00062a  498b              LDR      r1,|L4.2136|
00062c  2003              MOVS     r0,#3                 ;2112
00062e  7008              STRB     r0,[r1,#0]            ;2112
000630  f8896000          STRB     r6,[r9,#0]            ;2113
000634  f8884000          STRB     r4,[r8,#0]            ;2114
                  |L4.1592|
000638  e62d              B        |L4.662|
                  |L4.1594|
00063a  4889              LDR      r0,|L4.2144|
00063c  f7fffffe          BL       atoi
000640  f44f717a          MOV      r1,#0x3e8             ;2082
000644  4348              MULS     r0,r1,r0              ;2082
000646  63b8              STR      r0,[r7,#0x38]         ;2082  ; Run_Control
000648  e79e              B        |L4.1416|
                  |L4.1610|
00064a  4605              MOV      r5,r0                 ;2122
00064c  f44f6106          MOV      r1,#0x860             ;2122
000650  4610              MOV      r0,r2                 ;2122
000652  f7fffffe          BL       WM_GetDialogItem
000656  9001              STR      r0,[sp,#4]            ;2122
000658  46d3              MOV      r11,r10               ;2123
00065a  4659              MOV      r1,r11                ;2123
00065c  9801              LDR      r0,[sp,#4]            ;2123
00065e  f7fffffe          BL       TEXT_SetBkColor
000662  46c2              MOV      r10,r8                ;2124
000664  4651              MOV      r1,r10                ;2124
000666  9801              LDR      r0,[sp,#4]            ;2124
000668  f7fffffe          BL       TEXT_SetTextColor
00066c  f8df81ec          LDR      r8,|L4.2140|
000670  f8980000          LDRB     r0,[r8,#0]            ;2130  ; dot_flag
000674  b3f0              CBZ      r0,|L4.1780|
000676  f8980000          LDRB     r0,[r8,#0]            ;2132  ; dot_flag
00067a  b1a0              CBZ      r0,|L4.1702|
00067c  9404              STR      r4,[sp,#0x10]         ;2133
00067e  9405              STR      r4,[sp,#0x14]         ;2133
000680  f8982000          LDRB     r2,[r8,#0]            ;2134  ; dot_flag
000684  4976              LDR      r1,|L4.2144|
000686  1c92              ADDS     r2,r2,#2              ;2134
000688  a804              ADD      r0,sp,#0x10           ;2134
00068a  f7fffffe          BL       strncpy
00068e  a804              ADD      r0,sp,#0x10           ;2135
000690  f7fffffe          BL       __hardfp_atof
000694  ec532b18          VMOV     r2,r3,d8              ;2135
000698  ec510b10          VMOV     r0,r1,d0              ;2135
00069c  f7fffffe          BL       __aeabi_dmul
0006a0  f7fffffe          BL       __aeabi_d2uiz
0006a4  63f8              STR      r0,[r7,#0x3c]         ;2135  ; Run_Control
                  |L4.1702|
0006a6  6bf9              LDR      r1,[r7,#0x3c]         ;2137  ; Run_Control
0006a8  f24f2030          MOV      r0,#0xf230            ;2137
0006ac  4281              CMP      r1,r0                 ;2137
0006ae  d900              BLS      |L4.1714|
0006b0  63f8              STR      r0,[r7,#0x3c]         ;2139  ; Run_Control
                  |L4.1714|
0006b2  6bf8              LDR      r0,[r7,#0x3c]         ;2141  ; Run_Control
0006b4  ee000a10          VMOV     s0,r0                 ;2141
0006b8  eeb80a40          VCVT.F32.U32 s0,s0                 ;2141
0006bc  ed5f0aaf          VLDR     s1,|L4.1028|
0006c0  ee808a20          VDIV.F32 s16,s0,s1             ;2141
0006c4  ee1a0a10          VMOV     r0,s20                ;2142
0006c8  f7fffffe          BL       __aeabi_f2d
0006cc  ec410b10          VMOV     d0,r0,r1              ;2142
0006d0  ec532b10          VMOV     r2,r3,d0              ;2142
0006d4  f2af21a8          ADR      r1,|L4.1072|
0006d8  a804              ADD      r0,sp,#0x10           ;2142
0006da  f7fffffe          BL       __2sprintf
0006de  a904              ADD      r1,sp,#0x10           ;2143
0006e0  9801              LDR      r0,[sp,#4]            ;2143
0006e2  f7fffffe          BL       TEXT_SetText
0006e6  f6400161          MOV      r1,#0x861             ;2145
0006ea  6868              LDR      r0,[r5,#4]            ;2145  ; hWinset
0006ec  f7fffffe          BL       WM_GetDialogItem
0006f0  4607              MOV      r7,r0                 ;2145
0006f2  e000              B        |L4.1782|
                  |L4.1780|
0006f4  e030              B        |L4.1880|
                  |L4.1782|
0006f6  4659              MOV      r1,r11                ;2146
0006f8  4638              MOV      r0,r7                 ;2146
0006fa  f7fffffe          BL       TEXT_SetBkColor
0006fe  4651              MOV      r1,r10                ;2147
000700  4638              MOV      r0,r7                 ;2147
000702  f7fffffe          BL       TEXT_SetTextColor
000706  ee180a10          VMOV     r0,s16                ;2149
00070a  f7fffffe          BL       __aeabi_f2d
00070e  ec410b10          VMOV     d0,r0,r1              ;2149
000712  ec532b10          VMOV     r2,r3,d0              ;2149
000716  f2af21e8          ADR      r1,|L4.1072|
00071a  a804              ADD      r0,sp,#0x10           ;2149
00071c  f7fffffe          BL       __2sprintf
000720  a904              ADD      r1,sp,#0x10           ;2150
000722  4638              MOV      r0,r7                 ;2150
000724  f7fffffe          BL       TEXT_SetText
000728  f640012e          MOV      r1,#0x82e             ;2153
00072c  6868              LDR      r0,[r5,#4]            ;2153  ; hWinset
00072e  f7fffffe          BL       WM_GetDialogItem
000732  4605              MOV      r5,r0                 ;2153
000734  4947              LDR      r1,|L4.2132|
000736  4628              MOV      r0,r5                 ;2154
000738  f7fffffe          BL       TEXT_SetBkColor
00073c  2100              MOVS     r1,#0                 ;2155
00073e  4628              MOV      r0,r5                 ;2155
000740  f7fffffe          BL       TEXT_SetTextColor
000744  f7fffffe          BL       Write_Limits
000748  4943              LDR      r1,|L4.2136|
00074a  2003              MOVS     r0,#3                 ;2158
00074c  7008              STRB     r0,[r1,#0]            ;2158
00074e  f8896000          STRB     r6,[r9,#0]            ;2159
000752  f8884000          STRB     r4,[r8,#0]            ;2160
                  |L4.1878|
000756  e59e              B        |L4.662|
                  |L4.1880|
000758  4841              LDR      r0,|L4.2144|
00075a  f7fffffe          BL       atoi
00075e  f44f717a          MOV      r1,#0x3e8             ;2131
000762  4348              MULS     r0,r1,r0              ;2131
000764  63f8              STR      r0,[r7,#0x3c]         ;2131  ; Run_Control
000766  e79e              B        |L4.1702|
                  |L4.1896|
000768  483d              LDR      r0,|L4.2144|
00076a  f7fffffe          BL       atoi
00076e  f44f717a          MOV      r1,#0x3e8             ;2173
000772  4348              MULS     r0,r1,r0              ;2173
000774  8028              STRH     r0,[r5,#0]            ;2173
000776  e51a              B        |L4.430|
                  |L4.1912|
000778  f6401135          MOV      r1,#0x935             ;2203
00077c  4610              MOV      r0,r2                 ;2203
00077e  f7fffffe          BL       WM_GetDialogItem
000782  9001              STR      r0,[sp,#4]            ;2203
000784  f06f4170          MVN      r1,#0xf0000000        ;2204
000788  9801              LDR      r0,[sp,#4]            ;2204
00078a  f7fffffe          BL       TEXT_SetBkColor
00078e  f06f417f          MVN      r1,#0xff000000        ;2205
000792  9801              LDR      r0,[sp,#4]            ;2205
000794  f7fffffe          BL       TEXT_SetTextColor
000798  4f30              LDR      r7,|L4.2140|
00079a  7838              LDRB     r0,[r7,#0]            ;2206  ; dot_flag
00079c  b3e8              CBZ      r0,|L4.2074|
00079e  7838              LDRB     r0,[r7,#0]            ;2208  ; dot_flag
0007a0  b198              CBZ      r0,|L4.1994|
0007a2  9404              STR      r4,[sp,#0x10]         ;2209
0007a4  9405              STR      r4,[sp,#0x14]         ;2209
0007a6  783a              LDRB     r2,[r7,#0]            ;2210  ; dot_flag
0007a8  492d              LDR      r1,|L4.2144|
0007aa  1cd2              ADDS     r2,r2,#3              ;2210
0007ac  a804              ADD      r0,sp,#0x10           ;2210
0007ae  f7fffffe          BL       strncpy
0007b2  a804              ADD      r0,sp,#0x10           ;2211
0007b4  f7fffffe          BL       __hardfp_atof
0007b8  ec532b18          VMOV     r2,r3,d8              ;2211
0007bc  ec510b10          VMOV     r0,r1,d0              ;2211
0007c0  f7fffffe          BL       __aeabi_dmul
0007c4  f7fffffe          BL       __aeabi_d2iz
0007c8  8068              STRH     r0,[r5,#2]            ;2211
                  |L4.1994|
0007ca  f9b50000          LDRSH    r0,[r5,#0]            ;2213  ; InFlashSave
0007ce  ee000a10          VMOV     s0,r0                 ;2213
0007d2  eef80ac0          VCVT.F32.S32 s1,s0                 ;2213
0007d6  ed1f8af5          VLDR     s16,|L4.1028|
0007da  ee800a88          VDIV.F32 s0,s1,s16             ;2213
0007de  ee100a10          VMOV     r0,s0                 ;2213
0007e2  f7fffffe          BL       __aeabi_f2d
0007e6  ec410b10          VMOV     d0,r0,r1              ;2213
0007ea  ec532b10          VMOV     r2,r3,d0              ;2213
0007ee  f2af31c0          ADR      r1,|L4.1072|
0007f2  a804              ADD      r0,sp,#0x10           ;2213
0007f4  f7fffffe          BL       __2sprintf
0007f8  a904              ADD      r1,sp,#0x10           ;2214
0007fa  9801              LDR      r0,[sp,#4]            ;2214
0007fc  f7fffffe          BL       TEXT_SetText
000800  f8df8060          LDR      r8,|L4.2148|
000804  f6401136          MOV      r1,#0x936             ;2216
000808  f8d80004          LDR      r0,[r8,#4]            ;2216  ; hWinset
00080c  f7fffffe          BL       WM_GetDialogItem
000810  4682              MOV      r10,r0                ;2216
000812  f06f4170          MVN      r1,#0xf0000000        ;2217
000816  4650              MOV      r0,r10                ;2217
000818  e000              B        |L4.2076|
                  |L4.2074|
00081a  e04b              B        |L4.2228|
                  |L4.2076|
00081c  f7fffffe          BL       TEXT_SetBkColor
000820  f06f417f          MVN      r1,#0xff000000        ;2218
000824  4650              MOV      r0,r10                ;2218
000826  f7fffffe          BL       TEXT_SetTextColor
00082a  f9b50002          LDRSH    r0,[r5,#2]            ;2220  ; InFlashSave
00082e  ee000a10          VMOV     s0,r0                 ;2220
000832  eef80ac0          VCVT.F32.S32 s1,s0                 ;2220
000836  ee800a88          VDIV.F32 s0,s1,s16             ;2220
00083a  ee100a10          VMOV     r0,s0                 ;2220
00083e  f7fffffe          BL       __aeabi_f2d
000842  ec410b10          VMOV     d0,r0,r1              ;2220
000846  e00f              B        |L4.2152|
                  |L4.2120|
000848  4f4e00            DCB      "ON",0
00084b  00                DCB      0
                  |L4.2124|
                          DCD      para_set2
                  |L4.2128|
                          DCD      para_set4
                  |L4.2132|
                          DCD      0x00bfffff
                  |L4.2136|
                          DCD      set_sw
                  |L4.2140|
                          DCD      dot_flag
                  |L4.2144|
                          DCD      set_limit
                  |L4.2148|
                          DCD      ||.data||
                  |L4.2152|
000868  ec532b10          VMOV     r2,r3,d0              ;2220
00086c  f2af4140          ADR      r1,|L4.1072|
000870  a804              ADD      r0,sp,#0x10           ;2220
000872  f7fffffe          BL       __2sprintf
000876  a904              ADD      r1,sp,#0x10           ;2221
000878  4650              MOV      r0,r10                ;2221
00087a  f7fffffe          BL       TEXT_SetText
00087e  f640012f          MOV      r1,#0x82f             ;2224
000882  f8d80004          LDR      r0,[r8,#4]            ;2224  ; hWinset
000886  f7fffffe          BL       WM_GetDialogItem
00088a  4605              MOV      r5,r0                 ;2224
00088c  49fe              LDR      r1,|L4.3208|
00088e  4628              MOV      r0,r5                 ;2225
000890  f7fffffe          BL       TEXT_SetBkColor
000894  2100              MOVS     r1,#0                 ;2226
000896  4628              MOV      r0,r5                 ;2226
000898  f7fffffe          BL       TEXT_SetTextColor
00089c  4afb              LDR      r2,|L4.3212|
00089e  2114              MOVS     r1,#0x14              ;2228
0008a0  48fb              LDR      r0,|L4.3216|
0008a2  f7fffffe          BL       Flash_Write16BitDatas
0008a6  48fb              LDR      r0,|L4.3220|
0008a8  f880b000          STRB     r11,[r0,#0]           ;2229
0008ac  f8896000          STRB     r6,[r9,#0]            ;2230
0008b0  703c              STRB     r4,[r7,#0]            ;2231
                  |L4.2226|
0008b2  e4f0              B        |L4.662|
                  |L4.2228|
0008b4  48f8              LDR      r0,|L4.3224|
0008b6  f7fffffe          BL       atoi
0008ba  f44f717a          MOV      r1,#0x3e8             ;2207
0008be  4348              MULS     r0,r1,r0              ;2207
0008c0  8068              STRH     r0,[r5,#2]            ;2207
0008c2  e782              B        |L4.1994|
                  |L4.2244|
0008c4  4606              MOV      r6,r0                 ;2239
0008c6  f640012f          MOV      r1,#0x82f             ;2239
0008ca  4610              MOV      r0,r2                 ;2239
0008cc  f7fffffe          BL       WM_GetDialogItem
0008d0  4607              MOV      r7,r0                 ;2239
0008d2  4651              MOV      r1,r10                ;2240
0008d4  4638              MOV      r0,r7                 ;2240
0008d6  f7fffffe          BL       TEXT_SetBkColor
0008da  4641              MOV      r1,r8                 ;2241
0008dc  4638              MOV      r0,r7                 ;2241
0008de  f7fffffe          BL       TEXT_SetTextColor
0008e2  f6401135          MOV      r1,#0x935             ;2243
0008e6  6870              LDR      r0,[r6,#4]            ;2243  ; hWinset
0008e8  f7fffffe          BL       WM_GetDialogItem
0008ec  4606              MOV      r6,r0                 ;2243
0008ee  49e6              LDR      r1,|L4.3208|
0008f0  4630              MOV      r0,r6                 ;2244
0008f2  f7fffffe          BL       TEXT_SetBkColor
0008f6  2100              MOVS     r1,#0                 ;2245
0008f8  4630              MOV      r0,r6                 ;2245
0008fa  f7fffffe          BL       TEXT_SetTextColor
0008fe  9406              STR      r4,[sp,#0x18]         ;2247
000900  e006              B        |L4.2320|
                  |L4.2306|
000902  f89d0018          LDRB     r0,[sp,#0x18]         ;2248
000906  542c              STRB     r4,[r5,r0]            ;2248
000908  f89d0018          LDRB     r0,[sp,#0x18]         ;2247
00090c  1c40              ADDS     r0,r0,#1              ;2247
00090e  9006              STR      r0,[sp,#0x18]         ;2247
                  |L4.2320|
000910  f89d0018          LDRB     r0,[sp,#0x18]         ;2247
000914  2806              CMP      r0,#6                 ;2247
000916  d3f4              BCC      |L4.2306|
000918  49de              LDR      r1,|L4.3220|
00091a  2051              MOVS     r0,#0x51              ;2250
00091c  7008              STRB     r0,[r1,#0]            ;2250
00091e  e4ba              B        |L4.662|
                  |L4.2336|
000920  4606              MOV      r6,r0                 ;2258
000922  f44f6103          MOV      r1,#0x830             ;2258
000926  4610              MOV      r0,r2                 ;2258
000928  f7fffffe          BL       WM_GetDialogItem
00092c  4607              MOV      r7,r0                 ;2258
00092e  4651              MOV      r1,r10                ;2259
000930  4638              MOV      r0,r7                 ;2259
000932  f7fffffe          BL       TEXT_SetBkColor
000936  4641              MOV      r1,r8                 ;2260
000938  4638              MOV      r0,r7                 ;2260
00093a  f7fffffe          BL       TEXT_SetTextColor
00093e  f6400162          MOV      r1,#0x862             ;2262
000942  6870              LDR      r0,[r6,#4]            ;2262  ; hWinset
000944  f7fffffe          BL       WM_GetDialogItem
000948  4606              MOV      r6,r0                 ;2262
00094a  49cf              LDR      r1,|L4.3208|
00094c  4630              MOV      r0,r6                 ;2263
00094e  f7fffffe          BL       TEXT_SetBkColor
000952  2100              MOVS     r1,#0                 ;2264
000954  4630              MOV      r0,r6                 ;2264
000956  f7fffffe          BL       TEXT_SetTextColor
00095a  9406              STR      r4,[sp,#0x18]         ;2266
00095c  e007              B        |L4.2414|
                  |L4.2398|
00095e  e111              B        |L4.2948|
                  |L4.2400|
000960  f89d0018          LDRB     r0,[sp,#0x18]         ;2267
000964  542c              STRB     r4,[r5,r0]            ;2267
000966  f89d0018          LDRB     r0,[sp,#0x18]         ;2266
00096a  1c40              ADDS     r0,r0,#1              ;2266
00096c  9006              STR      r0,[sp,#0x18]         ;2266
                  |L4.2414|
00096e  f89d0018          LDRB     r0,[sp,#0x18]         ;2266
000972  2806              CMP      r0,#6                 ;2266
000974  d3f4              BCC      |L4.2400|
000976  49c7              LDR      r1,|L4.3220|
000978  200d              MOVS     r0,#0xd               ;2269
00097a  7008              STRB     r0,[r1,#0]            ;2269
00097c  e48b              B        |L4.662|
                  |L4.2430|
00097e  4605              MOV      r5,r0                 ;2276
000980  f6400162          MOV      r1,#0x862             ;2276
000984  4610              MOV      r0,r2                 ;2276
000986  f7fffffe          BL       WM_GetDialogItem
00098a  4607              MOV      r7,r0                 ;2276
00098c  4651              MOV      r1,r10                ;2277
00098e  4638              MOV      r0,r7                 ;2277
000990  f7fffffe          BL       TEXT_SetBkColor
000994  4641              MOV      r1,r8                 ;2278
000996  4638              MOV      r0,r7                 ;2278
000998  f7fffffe          BL       TEXT_SetTextColor
00099c  f8df82fc          LDR      r8,|L4.3228|
0009a0  f8980000          LDRB     r0,[r8,#0]            ;2279  ; dot_flag
0009a4  b3b8              CBZ      r0,|L4.2582|
0009a6  f8980000          LDRB     r0,[r8,#0]            ;2281  ; dot_flag
0009aa  b190              CBZ      r0,|L4.2514|
0009ac  9404              STR      r4,[sp,#0x10]         ;2282
0009ae  9405              STR      r4,[sp,#0x14]         ;2282
0009b0  f8982000          LDRB     r2,[r8,#0]            ;2283  ; dot_flag
0009b4  49b8              LDR      r1,|L4.3224|
0009b6  e001              B        |L4.2492|
                  |L4.2488|
0009b8  e193              B        |L4.3298|
                  |L4.2490|
0009ba  e33f              B        |L4.4156|
                  |L4.2492|
0009bc  a804              ADD      r0,sp,#0x10           ;2283
0009be  f7fffffe          BL       strncpy
0009c2  a804              ADD      r0,sp,#0x10           ;2284
0009c4  f7fffffe          BL       __hardfp_atof
0009c8  ec510b10          VMOV     r0,r1,d0              ;2284
0009cc  f7fffffe          BL       __aeabi_d2uiz
0009d0  9003              STR      r0,[sp,#0xc]          ;2284
                  |L4.2514|
0009d2  f8bd200c          LDRH     r2,[sp,#0xc]          ;2286
0009d6  a1b2              ADR      r1,|L4.3232|
0009d8  a804              ADD      r0,sp,#0x10           ;2286
0009da  f7fffffe          BL       __2sprintf
0009de  a904              ADD      r1,sp,#0x10           ;2287
0009e0  4638              MOV      r0,r7                 ;2287
0009e2  f7fffffe          BL       TEXT_SetText
0009e6  f44f6103          MOV      r1,#0x830             ;2289
0009ea  6868              LDR      r0,[r5,#4]            ;2289  ; hWinset
0009ec  f7fffffe          BL       WM_GetDialogItem
0009f0  4605              MOV      r5,r0                 ;2289
0009f2  49a5              LDR      r1,|L4.3208|
0009f4  4628              MOV      r0,r5                 ;2290
0009f6  f7fffffe          BL       TEXT_SetBkColor
0009fa  2100              MOVS     r1,#0                 ;2291
0009fc  4628              MOV      r0,r5                 ;2291
0009fe  f7fffffe          BL       TEXT_SetTextColor
000a02  f7fffffe          BL       Write_Limits
000a06  49a3              LDR      r1,|L4.3220|
000a08  2005              MOVS     r0,#5                 ;2294
000a0a  7008              STRB     r0,[r1,#0]            ;2294
000a0c  f8896000          STRB     r6,[r9,#0]            ;2295
000a10  f8884000          STRB     r4,[r8,#0]            ;2296
000a14  e43f              B        |L4.662|
                  |L4.2582|
000a16  e7ff              B        |L4.2584|
                  |L4.2584|
000a18  489f              LDR      r0,|L4.3224|
000a1a  f7fffffe          BL       atoi
000a1e  9003              STR      r0,[sp,#0xc]          ;2280
000a20  e7d7              B        |L4.2514|
                  |L4.2594|
000a22  4606              MOV      r6,r0                 ;2303
000a24  f6400131          MOV      r1,#0x831             ;2303
000a28  4610              MOV      r0,r2                 ;2303
000a2a  f7fffffe          BL       WM_GetDialogItem
000a2e  4607              MOV      r7,r0                 ;2303
000a30  4651              MOV      r1,r10                ;2304
000a32  4638              MOV      r0,r7                 ;2304
000a34  f7fffffe          BL       TEXT_SetBkColor
000a38  4641              MOV      r1,r8                 ;2305
000a3a  4638              MOV      r0,r7                 ;2305
000a3c  f7fffffe          BL       TEXT_SetTextColor
000a40  f6400163          MOV      r1,#0x863             ;2307
000a44  6870              LDR      r0,[r6,#4]            ;2307  ; hWinset
000a46  f7fffffe          BL       WM_GetDialogItem
000a4a  e003              B        |L4.2644|
                  |L4.2636|
000a4c  e2bb              B        |L4.4038|
                  |L4.2638|
000a4e  e01b              B        |L4.2696|
                  |L4.2640|
000a50  e1d9              B        |L4.3590|
                  |L4.2642|
000a52  e068              B        |L4.2854|
                  |L4.2644|
000a54  4606              MOV      r6,r0                 ;2307
000a56  498c              LDR      r1,|L4.3208|
000a58  4630              MOV      r0,r6                 ;2308
000a5a  f7fffffe          BL       TEXT_SetBkColor
000a5e  2100              MOVS     r1,#0                 ;2309
000a60  4630              MOV      r0,r6                 ;2309
000a62  f7fffffe          BL       TEXT_SetTextColor
000a66  9406              STR      r4,[sp,#0x18]         ;2311
000a68  e006              B        |L4.2680|
                  |L4.2666|
000a6a  f89d0018          LDRB     r0,[sp,#0x18]         ;2312
000a6e  542c              STRB     r4,[r5,r0]            ;2312
000a70  f89d0018          LDRB     r0,[sp,#0x18]         ;2311
000a74  1c40              ADDS     r0,r0,#1              ;2311
000a76  9006              STR      r0,[sp,#0x18]         ;2311
                  |L4.2680|
000a78  f89d0018          LDRB     r0,[sp,#0x18]         ;2311
000a7c  2806              CMP      r0,#6                 ;2311
000a7e  d3f4              BCC      |L4.2666|
000a80  4984              LDR      r1,|L4.3220|
000a82  200e              MOVS     r0,#0xe               ;2314
000a84  7008              STRB     r0,[r1,#0]            ;2314
000a86  e406              B        |L4.662|
                  |L4.2696|
000a88  4605              MOV      r5,r0                 ;2321
000a8a  f6400163          MOV      r1,#0x863             ;2321
000a8e  4610              MOV      r0,r2                 ;2321
000a90  f7fffffe          BL       WM_GetDialogItem
000a94  4607              MOV      r7,r0                 ;2321
000a96  4651              MOV      r1,r10                ;2322
000a98  4638              MOV      r0,r7                 ;2322
000a9a  f7fffffe          BL       TEXT_SetBkColor
000a9e  4641              MOV      r1,r8                 ;2323
000aa0  4638              MOV      r0,r7                 ;2323
000aa2  f7fffffe          BL       TEXT_SetTextColor
000aa6  f8df81f4          LDR      r8,|L4.3228|
000aaa  f8980000          LDRB     r0,[r8,#0]            ;2324  ; dot_flag
000aae  b3a0              CBZ      r0,|L4.2842|
000ab0  f8980000          LDRB     r0,[r8,#0]            ;2326  ; dot_flag
000ab4  b178              CBZ      r0,|L4.2774|
000ab6  9404              STR      r4,[sp,#0x10]         ;2327
000ab8  9405              STR      r4,[sp,#0x14]         ;2327
000aba  f8982000          LDRB     r2,[r8,#0]            ;2328  ; dot_flag
000abe  4976              LDR      r1,|L4.3224|
000ac0  a804              ADD      r0,sp,#0x10           ;2328
000ac2  f7fffffe          BL       strncpy
000ac6  a804              ADD      r0,sp,#0x10           ;2329
000ac8  f7fffffe          BL       __hardfp_atof
000acc  ec510b10          VMOV     r0,r1,d0              ;2329
000ad0  f7fffffe          BL       __aeabi_d2uiz
000ad4  9002              STR      r0,[sp,#8]            ;2329
                  |L4.2774|
000ad6  f8bd2008          LDRH     r2,[sp,#8]            ;2331
000ada  a171              ADR      r1,|L4.3232|
000adc  a804              ADD      r0,sp,#0x10           ;2331
000ade  f7fffffe          BL       __2sprintf
000ae2  a904              ADD      r1,sp,#0x10           ;2332
000ae4  4638              MOV      r0,r7                 ;2332
000ae6  f7fffffe          BL       TEXT_SetText
000aea  f6400131          MOV      r1,#0x831             ;2334
000aee  6868              LDR      r0,[r5,#4]            ;2334  ; hWinset
000af0  f7fffffe          BL       WM_GetDialogItem
000af4  4605              MOV      r5,r0                 ;2334
000af6  4964              LDR      r1,|L4.3208|
000af8  4628              MOV      r0,r5                 ;2335
000afa  f7fffffe          BL       TEXT_SetBkColor
000afe  2100              MOVS     r1,#0                 ;2336
000b00  4628              MOV      r0,r5                 ;2336
000b02  f7fffffe          BL       TEXT_SetTextColor
000b06  f7fffffe          BL       Write_Limits
000b0a  4962              LDR      r1,|L4.3220|
000b0c  2006              MOVS     r0,#6                 ;2339
000b0e  7008              STRB     r0,[r1,#0]            ;2339
000b10  f8896000          STRB     r6,[r9,#0]            ;2340
000b14  f8884000          STRB     r4,[r8,#0]            ;2341
000b18  e45f              B        |L4.986|
                  |L4.2842|
000b1a  e7ff              B        |L4.2844|
                  |L4.2844|
000b1c  485e              LDR      r0,|L4.3224|
000b1e  f7fffffe          BL       atoi
000b22  9002              STR      r0,[sp,#8]            ;2325
000b24  e7d7              B        |L4.2774|
                  |L4.2854|
000b26  4606              MOV      r6,r0                 ;2348
000b28  f640013b          MOV      r1,#0x83b             ;2348
000b2c  4610              MOV      r0,r2                 ;2348
000b2e  f7fffffe          BL       WM_GetDialogItem
000b32  4607              MOV      r7,r0                 ;2348
000b34  4651              MOV      r1,r10                ;2349
000b36  4638              MOV      r0,r7                 ;2349
000b38  f7fffffe          BL       TEXT_SetBkColor
000b3c  4641              MOV      r1,r8                 ;2350
000b3e  4638              MOV      r0,r7                 ;2350
000b40  f7fffffe          BL       TEXT_SetTextColor
000b44  f6400164          MOV      r1,#0x864             ;2352
000b48  6870              LDR      r0,[r6,#4]            ;2352  ; hWinset
000b4a  f7fffffe          BL       WM_GetDialogItem
000b4e  4606              MOV      r6,r0                 ;2352
000b50  494d              LDR      r1,|L4.3208|
000b52  4630              MOV      r0,r6                 ;2353
000b54  f7fffffe          BL       TEXT_SetBkColor
000b58  2100              MOVS     r1,#0                 ;2354
000b5a  4630              MOV      r0,r6                 ;2354
000b5c  f7fffffe          BL       TEXT_SetTextColor
000b60  9406              STR      r4,[sp,#0x18]         ;2356
000b62  e006              B        |L4.2930|
                  |L4.2916|
000b64  f89d0018          LDRB     r0,[sp,#0x18]         ;2357
000b68  542c              STRB     r4,[r5,r0]            ;2357
000b6a  f89d0018          LDRB     r0,[sp,#0x18]         ;2356
000b6e  1c40              ADDS     r0,r0,#1              ;2356
000b70  9006              STR      r0,[sp,#0x18]         ;2356
                  |L4.2930|
000b72  f89d0018          LDRB     r0,[sp,#0x18]         ;2356
000b76  2806              CMP      r0,#6                 ;2356
000b78  d3f4              BCC      |L4.2916|
000b7a  4946              LDR      r1,|L4.3220|
000b7c  200f              MOVS     r0,#0xf               ;2359
000b7e  7008              STRB     r0,[r1,#0]            ;2359
000b80  e42b              B        |L4.986|
                  |L4.2946|
000b82  e16e              B        |L4.3682|
                  |L4.2948|
000b84  4605              MOV      r5,r0                 ;2366
000b86  f6400164          MOV      r1,#0x864             ;2366
000b8a  4610              MOV      r0,r2                 ;2366
000b8c  f7fffffe          BL       WM_GetDialogItem
000b90  9001              STR      r0,[sp,#4]            ;2366
000b92  46d3              MOV      r11,r10               ;2367
000b94  4659              MOV      r1,r11                ;2367
000b96  9801              LDR      r0,[sp,#4]            ;2367
000b98  f7fffffe          BL       TEXT_SetBkColor
000b9c  46c2              MOV      r10,r8                ;2368
000b9e  4651              MOV      r1,r10                ;2368
000ba0  9801              LDR      r0,[sp,#4]            ;2368
000ba2  f7fffffe          BL       TEXT_SetTextColor
000ba6  f8df80f4          LDR      r8,|L4.3228|
000baa  f8980000          LDRB     r0,[r8,#0]            ;2369  ; dot_flag
000bae  b3e8              CBZ      r0,|L4.3116|
000bb0  f8980000          LDRB     r0,[r8,#0]            ;2371  ; dot_flag
000bb4  b1a0              CBZ      r0,|L4.3040|
000bb6  9404              STR      r4,[sp,#0x10]         ;2372
000bb8  9405              STR      r4,[sp,#0x14]         ;2372
000bba  f8982000          LDRB     r2,[r8,#0]            ;2373  ; dot_flag
000bbe  4936              LDR      r1,|L4.3224|
000bc0  1cd2              ADDS     r2,r2,#3              ;2373
000bc2  a804              ADD      r0,sp,#0x10           ;2373
000bc4  f7fffffe          BL       strncpy
000bc8  a804              ADD      r0,sp,#0x10           ;2374
000bca  f7fffffe          BL       __hardfp_atof
000bce  ec532b18          VMOV     r2,r3,d8              ;2374
000bd2  ec510b10          VMOV     r0,r1,d0              ;2374
000bd6  f7fffffe          BL       __aeabi_dmul
000bda  f7fffffe          BL       __aeabi_d2uiz
000bde  64b8              STR      r0,[r7,#0x48]         ;2374  ; Run_Control
                  |L4.3040|
000be0  6cb9              LDR      r1,[r7,#0x48]         ;2376  ; Run_Control
000be2  f2475030          MOV      r0,#0x7530            ;2376
000be6  4281              CMP      r1,r0                 ;2376
000be8  d900              BLS      |L4.3052|
000bea  64b8              STR      r0,[r7,#0x48]         ;2378  ; Run_Control
                  |L4.3052|
000bec  6cb8              LDR      r0,[r7,#0x48]         ;2380  ; Run_Control
000bee  ee000a10          VMOV     s0,r0                 ;2380
000bf2  eef80a40          VCVT.F32.U32 s1,s0                 ;2380
000bf6  e000              B        |L4.3066|
                  |L4.3064|
000bf8  e1dc              B        |L4.4020|
                  |L4.3066|
000bfa  ed9f1a2a          VLDR     s2,|L4.3236|
000bfe  ee800a81          VDIV.F32 s0,s1,s2              ;2380
000c02  ee100a10          VMOV     r0,s0                 ;2381
000c06  f7fffffe          BL       __aeabi_f2d
000c0a  ec410b10          VMOV     d0,r0,r1              ;2381
000c0e  ec532b10          VMOV     r2,r3,d0              ;2381
000c12  f2af71e4          ADR      r1,|L4.1072|
000c16  a804              ADD      r0,sp,#0x10           ;2381
000c18  f7fffffe          BL       __2sprintf
000c1c  a904              ADD      r1,sp,#0x10           ;2382
000c1e  9801              LDR      r0,[sp,#4]            ;2382
000c20  f7fffffe          BL       TEXT_SetText
000c24  f6400165          MOV      r1,#0x865             ;2384
000c28  6868              LDR      r0,[r5,#4]            ;2384  ; hWinset
000c2a  e000              B        |L4.3118|
                  |L4.3116|
000c2c  e051              B        |L4.3282|
                  |L4.3118|
000c2e  f7fffffe          BL       WM_GetDialogItem
000c32  9001              STR      r0,[sp,#4]            ;2384
000c34  4659              MOV      r1,r11                ;2385
000c36  9801              LDR      r0,[sp,#4]            ;2385
000c38  f7fffffe          BL       TEXT_SetBkColor
000c3c  4651              MOV      r1,r10                ;2386
000c3e  9801              LDR      r0,[sp,#4]            ;2386
000c40  f7fffffe          BL       TEXT_SetTextColor
000c44  6cf8              LDR      r0,[r7,#0x4c]         ;2387  ; Run_Control
000c46  6cb9              LDR      r1,[r7,#0x48]         ;2387  ; Run_Control
000c48  4288              CMP      r0,r1                 ;2387
000c4a  d304              BCC      |L4.3158|
000c4c  64fc              STR      r4,[r7,#0x4c]         ;2389  ; Run_Control
000c4e  a116              ADR      r1,|L4.3240|
000c50  9801              LDR      r0,[sp,#4]            ;2390
000c52  f7fffffe          BL       TEXT_SetText
                  |L4.3158|
000c56  ee190a90          VMOV     r0,s19                ;2393
000c5a  f7fffffe          BL       __aeabi_f2d
000c5e  ec410b10          VMOV     d0,r0,r1              ;2393
000c62  ec532b10          VMOV     r2,r3,d0              ;2393
000c66  f6af0138          ADR      r1,|L4.1072|
000c6a  a804              ADD      r0,sp,#0x10           ;2393
000c6c  f7fffffe          BL       __2sprintf
000c70  a904              ADD      r1,sp,#0x10           ;2394
000c72  9801              LDR      r0,[sp,#4]            ;2394
000c74  f7fffffe          BL       TEXT_SetText
000c78  f640013b          MOV      r1,#0x83b             ;2398
000c7c  6868              LDR      r0,[r5,#4]            ;2398  ; hWinset
000c7e  f7fffffe          BL       WM_GetDialogItem
000c82  4605              MOV      r5,r0                 ;2398
000c84  4900              LDR      r1,|L4.3208|
000c86  e013              B        |L4.3248|
                  |L4.3208|
                          DCD      0x00bfffff
                  |L4.3212|
                          DCD      ||.bss||
                  |L4.3216|
                          DCD      0x080e0000
                  |L4.3220|
                          DCD      set_sw
                  |L4.3224|
                          DCD      set_limit
                  |L4.3228|
                          DCD      dot_flag
                  |L4.3232|
000ca0  25346400          DCB      "%4d",0
                  |L4.3236|
000ca4  447a0000          DCFS     0x447a0000 ; 1000
                  |L4.3240|
000ca8  302e3030          DCB      "0.000",0
000cac  3000    
000cae  00                DCB      0
000caf  00                DCB      0
                  |L4.3248|
000cb0  4628              MOV      r0,r5                 ;2399
000cb2  f7fffffe          BL       TEXT_SetBkColor
000cb6  2100              MOVS     r1,#0                 ;2400
000cb8  4628              MOV      r0,r5                 ;2400
000cba  f7fffffe          BL       TEXT_SetTextColor
000cbe  f7fffffe          BL       Write_Limits
000cc2  49ff              LDR      r1,|L4.4288|
000cc4  2007              MOVS     r0,#7                 ;2403
000cc6  7008              STRB     r0,[r1,#0]            ;2403
000cc8  f8896000          STRB     r6,[r9,#0]            ;2404
000ccc  f8884000          STRB     r4,[r8,#0]            ;2405
                  |L4.3280|
000cd0  e42b              B        |L4.1322|
                  |L4.3282|
000cd2  48fc              LDR      r0,|L4.4292|
000cd4  f7fffffe          BL       atoi
000cd8  f44f717a          MOV      r1,#0x3e8             ;2370
000cdc  4348              MULS     r0,r1,r0              ;2370
000cde  64b8              STR      r0,[r7,#0x48]         ;2370  ; Run_Control
000ce0  e77e              B        |L4.3040|
                  |L4.3298|
000ce2  4605              MOV      r5,r0                 ;2413
000ce4  f6400164          MOV      r1,#0x864             ;2413
000ce8  4610              MOV      r0,r2                 ;2413
000cea  f7fffffe          BL       WM_GetDialogItem
000cee  4683              MOV      r11,r0                ;2413
000cf0  4651              MOV      r1,r10                ;2414
000cf2  4658              MOV      r0,r11                ;2414
000cf4  f7fffffe          BL       TEXT_SetBkColor
000cf8  4641              MOV      r1,r8                 ;2415
000cfa  4658              MOV      r0,r11                ;2415
000cfc  f7fffffe          BL       TEXT_SetTextColor
000d00  ee1a0a90          VMOV     r0,s21                ;2421
000d04  f7fffffe          BL       __aeabi_f2d
000d08  ec410b10          VMOV     d0,r0,r1              ;2421
000d0c  ec532b10          VMOV     r2,r3,d0              ;2421
000d10  f6af01e4          ADR      r1,|L4.1072|
000d14  a804              ADD      r0,sp,#0x10           ;2421
000d16  f7fffffe          BL       __2sprintf
000d1a  a904              ADD      r1,sp,#0x10           ;2422
000d1c  4658              MOV      r0,r11                ;2422
000d1e  f7fffffe          BL       TEXT_SetText
000d22  f6400165          MOV      r1,#0x865             ;2424
000d26  6868              LDR      r0,[r5,#4]            ;2424  ; hWinset
000d28  f7fffffe          BL       WM_GetDialogItem
000d2c  4683              MOV      r11,r0                ;2424
000d2e  4651              MOV      r1,r10                ;2425
000d30  4658              MOV      r0,r11                ;2425
000d32  f7fffffe          BL       TEXT_SetBkColor
000d36  4641              MOV      r1,r8                 ;2426
000d38  4658              MOV      r0,r11                ;2426
000d3a  f7fffffe          BL       TEXT_SetTextColor
000d3e  f8df8388          LDR      r8,|L4.4296|
000d42  f8980000          LDRB     r0,[r8,#0]            ;2427  ; dot_flag
000d46  b3e8              CBZ      r0,|L4.3524|
000d48  f8980000          LDRB     r0,[r8,#0]            ;2429  ; dot_flag
000d4c  b1a0              CBZ      r0,|L4.3448|
000d4e  9404              STR      r4,[sp,#0x10]         ;2430
000d50  9405              STR      r4,[sp,#0x14]         ;2430
000d52  f8982000          LDRB     r2,[r8,#0]            ;2431  ; dot_flag
000d56  49db              LDR      r1,|L4.4292|
000d58  1cd2              ADDS     r2,r2,#3              ;2431
000d5a  a804              ADD      r0,sp,#0x10           ;2431
000d5c  f7fffffe          BL       strncpy
000d60  a804              ADD      r0,sp,#0x10           ;2432
000d62  f7fffffe          BL       __hardfp_atof
000d66  ec532b18          VMOV     r2,r3,d8              ;2432
000d6a  ec510b10          VMOV     r0,r1,d0              ;2432
000d6e  f7fffffe          BL       __aeabi_dmul
000d72  f7fffffe          BL       __aeabi_d2uiz
000d76  64f8              STR      r0,[r7,#0x4c]         ;2432  ; Run_Control
                  |L4.3448|
000d78  6cb9              LDR      r1,[r7,#0x48]         ;2434  ; Run_Control
000d7a  f2475030          MOV      r0,#0x7530            ;2434
000d7e  4281              CMP      r1,r0                 ;2434
000d80  d900              BLS      |L4.3460|
000d82  64b8              STR      r0,[r7,#0x48]         ;2436  ; Run_Control
                  |L4.3460|
000d84  6cf8              LDR      r0,[r7,#0x4c]         ;2438  ; Run_Control
000d86  6cb9              LDR      r1,[r7,#0x48]         ;2438  ; Run_Control
000d88  4288              CMP      r0,r1                 ;2438
000d8a  d300              BCC      |L4.3470|
000d8c  64fc              STR      r4,[r7,#0x4c]         ;2440  ; Run_Control
                  |L4.3470|
000d8e  6cf8              LDR      r0,[r7,#0x4c]         ;2442  ; Run_Control
000d90  ed1f1a3c          VLDR     s2,|L4.3236|
000d94  ee000a10          VMOV     s0,r0                 ;2442
000d98  eef80a40          VCVT.F32.U32 s1,s0                 ;2442
000d9c  ee800a81          VDIV.F32 s0,s1,s2              ;2442
000da0  ee100a10          VMOV     r0,s0                 ;2443
000da4  f7fffffe          BL       __aeabi_f2d
000da8  ec410b10          VMOV     d0,r0,r1              ;2443
000dac  ec532b10          VMOV     r2,r3,d0              ;2443
000db0  f6af1184          ADR      r1,|L4.1072|
000db4  a804              ADD      r0,sp,#0x10           ;2443
000db6  f7fffffe          BL       __2sprintf
000dba  a904              ADD      r1,sp,#0x10           ;2444
000dbc  4658              MOV      r0,r11                ;2444
000dbe  f7fffffe          BL       TEXT_SetText
000dc2  e000              B        |L4.3526|
                  |L4.3524|
000dc4  e017              B        |L4.3574|
                  |L4.3526|
000dc6  f640013b          MOV      r1,#0x83b             ;2446
000dca  6868              LDR      r0,[r5,#4]            ;2446  ; hWinset
000dcc  f7fffffe          BL       WM_GetDialogItem
000dd0  4605              MOV      r5,r0                 ;2446
000dd2  49be              LDR      r1,|L4.4300|
000dd4  4628              MOV      r0,r5                 ;2447
000dd6  f7fffffe          BL       TEXT_SetBkColor
000dda  2100              MOVS     r1,#0                 ;2448
000ddc  4628              MOV      r0,r5                 ;2448
000dde  f7fffffe          BL       TEXT_SetTextColor
000de2  f7fffffe          BL       Write_Limits
000de6  49b6              LDR      r1,|L4.4288|
000de8  2007              MOVS     r0,#7                 ;2451
000dea  7008              STRB     r0,[r1,#0]            ;2451
000dec  f8896000          STRB     r6,[r9,#0]            ;2452
000df0  f8884000          STRB     r4,[r8,#0]            ;2453
                  |L4.3572|
000df4  e420              B        |L4.1592|
                  |L4.3574|
000df6  48b3              LDR      r0,|L4.4292|
000df8  f7fffffe          BL       atoi
000dfc  f44f717a          MOV      r1,#0x3e8             ;2428
000e00  4348              MULS     r0,r1,r0              ;2428
000e02  64f8              STR      r0,[r7,#0x4c]         ;2428  ; Run_Control
000e04  e7b8              B        |L4.3448|
                  |L4.3590|
000e06  4606              MOV      r6,r0                 ;2461
000e08  f640013c          MOV      r1,#0x83c             ;2461
000e0c  4610              MOV      r0,r2                 ;2461
000e0e  f7fffffe          BL       WM_GetDialogItem
000e12  4607              MOV      r7,r0                 ;2461
000e14  4651              MOV      r1,r10                ;2462
000e16  4638              MOV      r0,r7                 ;2462
000e18  f7fffffe          BL       TEXT_SetBkColor
000e1c  4641              MOV      r1,r8                 ;2463
000e1e  4638              MOV      r0,r7                 ;2463
000e20  f7fffffe          BL       TEXT_SetTextColor
000e24  f6401137          MOV      r1,#0x937             ;2465
000e28  6870              LDR      r0,[r6,#4]            ;2465  ; hWinset
000e2a  f7fffffe          BL       WM_GetDialogItem
000e2e  4606              MOV      r6,r0                 ;2465
000e30  49a6              LDR      r1,|L4.4300|
000e32  4630              MOV      r0,r6                 ;2466
000e34  f7fffffe          BL       TEXT_SetBkColor
000e38  2100              MOVS     r1,#0                 ;2467
000e3a  4630              MOV      r0,r6                 ;2467
000e3c  f7fffffe          BL       TEXT_SetTextColor
000e40  9406              STR      r4,[sp,#0x18]         ;2469
000e42  e006              B        |L4.3666|
                  |L4.3652|
000e44  f89d0018          LDRB     r0,[sp,#0x18]         ;2470
000e48  542c              STRB     r4,[r5,r0]            ;2470
000e4a  f89d0018          LDRB     r0,[sp,#0x18]         ;2469
000e4e  1c40              ADDS     r0,r0,#1              ;2469
000e50  9006              STR      r0,[sp,#0x18]         ;2469
                  |L4.3666|
000e52  f89d0018          LDRB     r0,[sp,#0x18]         ;2469
000e56  2806              CMP      r0,#6                 ;2469
000e58  d3f4              BCC      |L4.3652|
000e5a  4999              LDR      r1,|L4.4288|
000e5c  2053              MOVS     r0,#0x53              ;2472
000e5e  7008              STRB     r0,[r1,#0]            ;2472
000e60  e479              B        |L4.1878|
                  |L4.3682|
000e62  4683              MOV      r11,r0                ;2480
000e64  f6401137          MOV      r1,#0x937             ;2480
000e68  4610              MOV      r0,r2                 ;2480
000e6a  f7fffffe          BL       WM_GetDialogItem
000e6e  9001              STR      r0,[sp,#4]            ;2480
000e70  f06f4170          MVN      r1,#0xf0000000        ;2481
000e74  9801              LDR      r0,[sp,#4]            ;2481
000e76  f7fffffe          BL       TEXT_SetBkColor
000e7a  46c2              MOV      r10,r8                ;2482
000e7c  4651              MOV      r1,r10                ;2482
000e7e  9801              LDR      r0,[sp,#4]            ;2482
000e80  f7fffffe          BL       TEXT_SetTextColor
000e84  f8df8240          LDR      r8,|L4.4296|
000e88  f8980000          LDRB     r0,[r8,#0]            ;2483  ; dot_flag
000e8c  b3f0              CBZ      r0,|L4.3852|
000e8e  f8980000          LDRB     r0,[r8,#0]            ;2485  ; dot_flag
000e92  b1a0              CBZ      r0,|L4.3774|
000e94  9404              STR      r4,[sp,#0x10]         ;2486
000e96  9405              STR      r4,[sp,#0x14]         ;2486
000e98  f8982000          LDRB     r2,[r8,#0]            ;2487  ; dot_flag
000e9c  4989              LDR      r1,|L4.4292|
000e9e  1cd2              ADDS     r2,r2,#3              ;2487
000ea0  a804              ADD      r0,sp,#0x10           ;2487
000ea2  f7fffffe          BL       strncpy
000ea6  a804              ADD      r0,sp,#0x10           ;2488
000ea8  f7fffffe          BL       __hardfp_atof
000eac  ec532b18          VMOV     r2,r3,d8              ;2488
000eb0  ec510b10          VMOV     r0,r1,d0              ;2488
000eb4  f7fffffe          BL       __aeabi_dmul
000eb8  f7fffffe          BL       __aeabi_d2iz
000ebc  80a8              STRH     r0,[r5,#4]            ;2488
                  |L4.3774|
000ebe  f9b50004          LDRSH    r0,[r5,#4]            ;2490  ; InFlashSave
000ec2  42b8              CMP      r0,r7                 ;2490
000ec4  dd00              BLE      |L4.3784|
000ec6  80af              STRH     r7,[r5,#4]            ;2492
                  |L4.3784|
000ec8  f9b50004          LDRSH    r0,[r5,#4]            ;2500  ; InFlashSave
000ecc  ee000a10          VMOV     s0,r0                 ;2500
000ed0  eef80ac0          VCVT.F32.S32 s1,s0                 ;2500
000ed4  ed1f8a8d          VLDR     s16,|L4.3236|
000ed8  ee800a88          VDIV.F32 s0,s1,s16             ;2500
000edc  ee100a10          VMOV     r0,s0                 ;2500
000ee0  f7fffffe          BL       __aeabi_f2d
000ee4  ec410b10          VMOV     d0,r0,r1              ;2500
000ee8  ec532b10          VMOV     r2,r3,d0              ;2500
000eec  f6af21c0          ADR      r1,|L4.1072|
000ef0  a804              ADD      r0,sp,#0x10           ;2500
000ef2  f7fffffe          BL       __2sprintf
000ef6  a904              ADD      r1,sp,#0x10           ;2501
000ef8  9801              LDR      r0,[sp,#4]            ;2501
000efa  f7fffffe          BL       TEXT_SetText
000efe  f6401138          MOV      r1,#0x938             ;2503
000f02  f8db0004          LDR      r0,[r11,#4]           ;2503  ; hWinset
000f06  f7fffffe          BL       WM_GetDialogItem
000f0a  e000              B        |L4.3854|
                  |L4.3852|
000f0c  e04a              B        |L4.4004|
                  |L4.3854|
000f0e  4607              MOV      r7,r0                 ;2503
000f10  f06f4170          MVN      r1,#0xf0000000        ;2504
000f14  4638              MOV      r0,r7                 ;2504
000f16  f7fffffe          BL       TEXT_SetBkColor
000f1a  4651              MOV      r1,r10                ;2505
000f1c  4638              MOV      r0,r7                 ;2505
000f1e  f7fffffe          BL       TEXT_SetTextColor
000f22  f9b50006          LDRSH    r0,[r5,#6]            ;2506  ; InFlashSave
000f26  f9b51004          LDRSH    r1,[r5,#4]            ;2506  ; InFlashSave
000f2a  4288              CMP      r0,r1                 ;2506
000f2c  db05              BLT      |L4.3898|
000f2e  80ec              STRH     r4,[r5,#6]            ;2508
000f30  f2af218c          ADR      r1,|L4.3240|
000f34  4638              MOV      r0,r7                 ;2509
000f36  f7fffffe          BL       TEXT_SetText
                  |L4.3898|
000f3a  f9b50006          LDRSH    r0,[r5,#6]            ;2512  ; InFlashSave
000f3e  ee000a10          VMOV     s0,r0                 ;2512
000f42  eef80ac0          VCVT.F32.S32 s1,s0                 ;2512
000f46  ee800a88          VDIV.F32 s0,s1,s16             ;2512
000f4a  ee100a10          VMOV     r0,s0                 ;2512
000f4e  f7fffffe          BL       __aeabi_f2d
000f52  ec410b10          VMOV     d0,r0,r1              ;2512
000f56  ec532b10          VMOV     r2,r3,d0              ;2512
000f5a  f6af312c          ADR      r1,|L4.1072|
000f5e  a804              ADD      r0,sp,#0x10           ;2512
000f60  f7fffffe          BL       __2sprintf
000f64  a904              ADD      r1,sp,#0x10           ;2513
000f66  4638              MOV      r0,r7                 ;2513
000f68  f7fffffe          BL       TEXT_SetText
000f6c  f640013c          MOV      r1,#0x83c             ;2517
000f70  f8db0004          LDR      r0,[r11,#4]           ;2517  ; hWinset
000f74  f7fffffe          BL       WM_GetDialogItem
000f78  4605              MOV      r5,r0                 ;2517
000f7a  4954              LDR      r1,|L4.4300|
000f7c  4628              MOV      r0,r5                 ;2518
000f7e  f7fffffe          BL       TEXT_SetBkColor
000f82  2100              MOVS     r1,#0                 ;2519
000f84  4628              MOV      r0,r5                 ;2519
000f86  f7fffffe          BL       TEXT_SetTextColor
000f8a  4a51              LDR      r2,|L4.4304|
000f8c  2114              MOVS     r1,#0x14              ;2521
000f8e  4851              LDR      r0,|L4.4308|
000f90  f7fffffe          BL       Flash_Write16BitDatas
000f94  494a              LDR      r1,|L4.4288|
000f96  2008              MOVS     r0,#8                 ;2522
000f98  7008              STRB     r0,[r1,#0]            ;2522
000f9a  f8896000          STRB     r6,[r9,#0]            ;2523
000f9e  f8884000          STRB     r4,[r8,#0]            ;2524
                  |L4.4002|
000fa2  e486              B        |L4.2226|
                  |L4.4004|
000fa4  4847              LDR      r0,|L4.4292|
000fa6  f7fffffe          BL       atoi
000faa  f44f717a          MOV      r1,#0x3e8             ;2484
000fae  4348              MULS     r0,r1,r0              ;2484
000fb0  80a8              STRH     r0,[r5,#4]            ;2484
000fb2  e784              B        |L4.3774|
                  |L4.4020|
000fb4  4843              LDR      r0,|L4.4292|
000fb6  f7fffffe          BL       atoi
000fba  f44f717a          MOV      r1,#0x3e8             ;2547
000fbe  4348              MULS     r0,r1,r0              ;2547
000fc0  80e8              STRH     r0,[r5,#6]            ;2547
000fc2  f7ffb9c9          B        |L4.856|
                  |L4.4038|
000fc6  7801              LDRB     r1,[r0,#0]            ;2579  ; test_mode
000fc8  2901              CMP      r1,#1                 ;2579
000fca  d900              BLS      |L4.4046|
000fcc  7006              STRB     r6,[r0,#0]            ;2581
                  |L4.4046|
000fce  4605              MOV      r5,r0                 ;2583
000fd0  7800              LDRB     r0,[r0,#0]            ;2583  ; test_mode
000fd2  2801              CMP      r0,#1                 ;2583
000fd4  d01a              BEQ      |L4.4108|
000fd6  7828              LDRB     r0,[r5,#0]            ;2593  ; test_mode
000fd8  2800              CMP      r0,#0                 ;2593
000fda  d1e2              BNE      |L4.4002|
000fdc  f6401123          MOV      r1,#0x923             ;2595
000fe0  4610              MOV      r0,r2                 ;2595
000fe2  f7fffffe          BL       WM_GetDialogItem
000fe6  4604              MOV      r4,r0                 ;2595
000fe8  4641              MOV      r1,r8                 ;2596
000fea  4620              MOV      r0,r4                 ;2596
000fec  f7fffffe          BL       TEXT_SetTextColor
000ff0  4939              LDR      r1,|L4.4312|
000ff2  4620              MOV      r0,r4                 ;2597
000ff4  f7fffffe          BL       TEXT_SetFont
000ff8  f7fffffe          BL       GUI_UC_SetEncodeUTF8
000ffc  a137              ADR      r1,|L4.4316|
000ffe  4620              MOV      r0,r4                 ;2599
001000  f7fffffe          BL       TEXT_SetText
001004  702e              STRB     r6,[r5,#0]            ;2600
001006  f7fffffe          BL       Wrtite_S
00100a  e452              B        |L4.2226|
                  |L4.4108|
00100c  f6401123          MOV      r1,#0x923             ;2586
001010  4610              MOV      r0,r2                 ;2586
001012  f7fffffe          BL       WM_GetDialogItem
001016  4606              MOV      r6,r0                 ;2586
001018  4641              MOV      r1,r8                 ;2587
00101a  4630              MOV      r0,r6                 ;2587
00101c  f7fffffe          BL       TEXT_SetTextColor
001020  492d              LDR      r1,|L4.4312|
001022  4630              MOV      r0,r6                 ;2588
001024  f7fffffe          BL       TEXT_SetFont
001028  f7fffffe          BL       GUI_UC_SetEncodeUTF8
00102c  a12d              ADR      r1,|L4.4324|
00102e  4630              MOV      r0,r6                 ;2590
001030  f7fffffe          BL       TEXT_SetText
001034  702c              STRB     r4,[r5,#0]            ;2591
001036  f7fffffe          BL       Wrtite_S
00103a  e43a              B        |L4.2226|
                  |L4.4156|
00103c  4604              MOV      r4,r0                 ;2608
00103e  4619              MOV      r1,r3                 ;2608
001040  4610              MOV      r0,r2                 ;2608
001042  f7fffffe          BL       WM_GetDialogItem
001046  4607              MOV      r7,r0                 ;2608
001048  4651              MOV      r1,r10                ;2609
00104a  4638              MOV      r0,r7                 ;2609
00104c  f7fffffe          BL       TEXT_SetBkColor
001050  4641              MOV      r1,r8                 ;2610
001052  4638              MOV      r0,r7                 ;2610
001054  f7fffffe          BL       TEXT_SetTextColor
001058  f640019f          MOV      r1,#0x89f             ;2612
00105c  6860              LDR      r0,[r4,#4]            ;2612  ; hWinset
00105e  f7fffffe          BL       WM_GetDialogItem
001062  4607              MOV      r7,r0                 ;2612
001064  4919              LDR      r1,|L4.4300|
001066  4638              MOV      r0,r7                 ;2613
001068  f7fffffe          BL       TEXT_SetBkColor
00106c  2100              MOVS     r1,#0                 ;2614
00106e  4638              MOV      r0,r7                 ;2614
001070  f7fffffe          BL       TEXT_SetTextColor
001074  f6401123          MOV      r1,#0x923             ;2616
001078  6860              LDR      r0,[r4,#4]            ;2616  ; hWinset
00107a  f7fffffe          BL       WM_GetDialogItem
00107e  f6af414c          ADR      r1,|L4.1076|
001082  f7fffffe          BL       TEXT_SetText
001086  7828              LDRB     r0,[r5,#0]            ;2618  ; b_type
001088  2805              CMP      r0,#5                 ;2618
00108a  d900              BLS      |L4.4238|
00108c  702e              STRB     r6,[r5,#0]            ;2620
                  |L4.4238|
00108e  7828              LDRB     r0,[r5,#0]            ;2623  ; b_type
001090  2806              CMP      r0,#6                 ;2623
001092  d26b              BCS      |L4.4460|
001094  e8dff000          TBB      [pc,r0]               ;2623
001098  6a036bbc          DCB      0x6a,0x03,0x6b,0xbc
00109c  fdfc              DCB      0xfd,0xfc
00109e  f44f6110          MOV      r1,#0x900             ;2627
0010a2  6860              LDR      r0,[r4,#4]            ;2627  ; hWinset
0010a4  f7fffffe          BL       WM_GetDialogItem
0010a8  4605              MOV      r5,r0                 ;2627
0010aa  4641              MOV      r1,r8                 ;2628
0010ac  4628              MOV      r0,r5                 ;2628
0010ae  f7fffffe          BL       TEXT_SetTextColor
0010b2  4909              LDR      r1,|L4.4312|
0010b4  4628              MOV      r0,r5                 ;2629
0010b6  f7fffffe          BL       TEXT_SetFont
0010ba  f7fffffe          BL       GUI_UC_SetEncodeUTF8
0010be  e015              B        |L4.4332|
                  |L4.4288|
                          DCD      set_sw
                  |L4.4292|
                          DCD      set_limit
                  |L4.4296|
                          DCD      dot_flag
                  |L4.4300|
                          DCD      0x00bfffff
                  |L4.4304|
                          DCD      ||.bss||
                  |L4.4308|
                          DCD      0x080e0000
                  |L4.4312|
                          DCD      GUI_Fontset_font
                  |L4.4316|
0010dc  e7b2bee5          DCB      231,178,190,229,135,134,0
0010e0  878600  
0010e3  00                DCB      0
                  |L4.4324|
0010e4  e5bfabe9          DCB      229,191,171,233,128,159,0
0010e8  809f00  
0010eb  00                DCB      0
                  |L4.4332|
0010ec  a1fc              ADR      r1,|L4.5344|
0010ee  4628              MOV      r0,r5                 ;2631
0010f0  f7fffffe          BL       TEXT_SetText
0010f4  f6401101          MOV      r1,#0x901             ;2633
0010f8  6860              LDR      r0,[r4,#4]            ;2633  ; hWinset
0010fa  f7fffffe          BL       WM_GetDialogItem
0010fe  4605              MOV      r5,r0                 ;2633
001100  4641              MOV      r1,r8                 ;2634
001102  4628              MOV      r0,r5                 ;2634
001104  f7fffffe          BL       TEXT_SetTextColor
001108  49f9              LDR      r1,|L4.5360|
00110a  4628              MOV      r0,r5                 ;2635
00110c  f7fffffe          BL       TEXT_SetFont
001110  f7fffffe          BL       GUI_UC_SetEncodeUTF8
001114  a1f7              ADR      r1,|L4.5364|
001116  4628              MOV      r0,r5                 ;2637
001118  f7fffffe          BL       TEXT_SetText
00111c  f6401102          MOV      r1,#0x902             ;2639
001120  6860              LDR      r0,[r4,#4]            ;2639  ; hWinset
001122  f7fffffe          BL       WM_GetDialogItem
001126  4605              MOV      r5,r0                 ;2639
001128  4641              MOV      r1,r8                 ;2640
00112a  4628              MOV      r0,r5                 ;2640
00112c  f7fffffe          BL       TEXT_SetTextColor
001130  49ef              LDR      r1,|L4.5360|
001132  4628              MOV      r0,r5                 ;2641
001134  f7fffffe          BL       TEXT_SetFont
001138  f7fffffe          BL       GUI_UC_SetEncodeUTF8
00113c  a1f1              ADR      r1,|L4.5380|
00113e  4628              MOV      r0,r5                 ;2643
001140  f7fffffe          BL       TEXT_SetText
001144  f6401103          MOV      r1,#0x903             ;2645
001148  6860              LDR      r0,[r4,#4]            ;2645  ; hWinset
00114a  f7fffffe          BL       WM_GetDialogItem
00114e  4604              MOV      r4,r0                 ;2645
001150  4641              MOV      r1,r8                 ;2646
001152  4620              MOV      r0,r4                 ;2646
001154  f7fffffe          BL       TEXT_SetTextColor
001158  49e5              LDR      r1,|L4.5360|
00115a  4620              MOV      r0,r4                 ;2647
00115c  f7fffffe          BL       TEXT_SetFont
001160  f7fffffe          BL       GUI_UC_SetEncodeUTF8
001164  a1ec              ADR      r1,|L4.5400|
001166  4620              MOV      r0,r4                 ;2649
001168  f7fffffe          BL       TEXT_SetText
                  |L4.4460|
00116c  e145              B        |L4.5114|
00116e  f44f6110          MOV      r1,#0x900             ;2654
001172  6860              LDR      r0,[r4,#4]            ;2654  ; hWinset
001174  f7fffffe          BL       WM_GetDialogItem
001178  4605              MOV      r5,r0                 ;2654
00117a  4641              MOV      r1,r8                 ;2655
00117c  4628              MOV      r0,r5                 ;2655
00117e  f7fffffe          BL       TEXT_SetTextColor
001182  49db              LDR      r1,|L4.5360|
001184  4628              MOV      r0,r5                 ;2656
001186  f7fffffe          BL       TEXT_SetFont
00118a  f7fffffe          BL       GUI_UC_SetEncodeUTF8
00118e  a1e6              ADR      r1,|L4.5416|
001190  4628              MOV      r0,r5                 ;2658
001192  f7fffffe          BL       TEXT_SetText
001196  f6401101          MOV      r1,#0x901             ;2660
00119a  6860              LDR      r0,[r4,#4]            ;2660  ; hWinset
00119c  f7fffffe          BL       WM_GetDialogItem
0011a0  4605              MOV      r5,r0                 ;2660
0011a2  4641              MOV      r1,r8                 ;2661
0011a4  4628              MOV      r0,r5                 ;2661
0011a6  f7fffffe          BL       TEXT_SetTextColor
0011aa  49d1              LDR      r1,|L4.5360|
0011ac  4628              MOV      r0,r5                 ;2662
0011ae  f7fffffe          BL       TEXT_SetFont
0011b2  f7fffffe          BL       GUI_UC_SetEncodeUTF8
0011b6  a1cf              ADR      r1,|L4.5364|
0011b8  4628              MOV      r0,r5                 ;2664
0011ba  f7fffffe          BL       TEXT_SetText
0011be  f6401102          MOV      r1,#0x902             ;2666
0011c2  6860              LDR      r0,[r4,#4]            ;2666  ; hWinset
0011c4  f7fffffe          BL       WM_GetDialogItem
0011c8  4605              MOV      r5,r0                 ;2666
0011ca  4641              MOV      r1,r8                 ;2667
0011cc  4628              MOV      r0,r5                 ;2667
0011ce  f7fffffe          BL       TEXT_SetTextColor
0011d2  49c7              LDR      r1,|L4.5360|
0011d4  4628              MOV      r0,r5                 ;2668
0011d6  f7fffffe          BL       TEXT_SetFont
0011da  f7fffffe          BL       GUI_UC_SetEncodeUTF8
0011de  a1c9              ADR      r1,|L4.5380|
0011e0  4628              MOV      r0,r5                 ;2670
0011e2  f7fffffe          BL       TEXT_SetText
0011e6  f6401103          MOV      r1,#0x903             ;2672
0011ea  6860              LDR      r0,[r4,#4]            ;2672  ; hWinset
0011ec  f7fffffe          BL       WM_GetDialogItem
0011f0  4604              MOV      r4,r0                 ;2672
0011f2  4641              MOV      r1,r8                 ;2673
0011f4  4620              MOV      r0,r4                 ;2673
0011f6  f7fffffe          BL       TEXT_SetTextColor
0011fa  49bd              LDR      r1,|L4.5360|
0011fc  4620              MOV      r0,r4                 ;2674
0011fe  f7fffffe          BL       TEXT_SetFont
001202  f7fffffe          BL       GUI_UC_SetEncodeUTF8
001206  a1c4              ADR      r1,|L4.5400|
001208  4620              MOV      r0,r4                 ;2676
00120a  f7fffffe          BL       TEXT_SetText
00120e  e0f4              B        |L4.5114|
001210  f44f6110          MOV      r1,#0x900             ;2681
001214  6860              LDR      r0,[r4,#4]            ;2681  ; hWinset
001216  f7fffffe          BL       WM_GetDialogItem
00121a  4605              MOV      r5,r0                 ;2681
00121c  4641              MOV      r1,r8                 ;2682
00121e  4628              MOV      r0,r5                 ;2682
001220  f7fffffe          BL       TEXT_SetTextColor
001224  49b2              LDR      r1,|L4.5360|
001226  4628              MOV      r0,r5                 ;2683
001228  f7fffffe          BL       TEXT_SetFont
00122c  f7fffffe          BL       GUI_UC_SetEncodeUTF8
001230  a1bd              ADR      r1,|L4.5416|
001232  4628              MOV      r0,r5                 ;2685
001234  f7fffffe          BL       TEXT_SetText
001238  f6401101          MOV      r1,#0x901             ;2687
00123c  6860              LDR      r0,[r4,#4]            ;2687  ; hWinset
00123e  f7fffffe          BL       WM_GetDialogItem
001242  4605              MOV      r5,r0                 ;2687
001244  4641              MOV      r1,r8                 ;2688
001246  4628              MOV      r0,r5                 ;2688
001248  f7fffffe          BL       TEXT_SetTextColor
00124c  49a8              LDR      r1,|L4.5360|
00124e  4628              MOV      r0,r5                 ;2689
001250  f7fffffe          BL       TEXT_SetFont
001254  f7fffffe          BL       GUI_UC_SetEncodeUTF8
001258  a1a1              ADR      r1,|L4.5344|
00125a  4628              MOV      r0,r5                 ;2691
00125c  f7fffffe          BL       TEXT_SetText
001260  f6401102          MOV      r1,#0x902             ;2693
001264  6860              LDR      r0,[r4,#4]            ;2693  ; hWinset
001266  f7fffffe          BL       WM_GetDialogItem
00126a  4605              MOV      r5,r0                 ;2693
00126c  4641              MOV      r1,r8                 ;2694
00126e  4628              MOV      r0,r5                 ;2694
001270  f7fffffe          BL       TEXT_SetTextColor
001274  499e              LDR      r1,|L4.5360|
001276  4628              MOV      r0,r5                 ;2695
001278  f7fffffe          BL       TEXT_SetFont
00127c  f7fffffe          BL       GUI_UC_SetEncodeUTF8
001280  a1a0              ADR      r1,|L4.5380|
001282  4628              MOV      r0,r5                 ;2697
001284  f7fffffe          BL       TEXT_SetText
001288  f6401103          MOV      r1,#0x903             ;2699
00128c  6860              LDR      r0,[r4,#4]            ;2699  ; hWinset
00128e  e001              B        |L4.4756|
001290  e063              B        |L4.4954|
001292  e011              B        |L4.4792|
                  |L4.4756|
001294  f7fffffe          BL       WM_GetDialogItem
001298  4604              MOV      r4,r0                 ;2699
00129a  4641              MOV      r1,r8                 ;2700
00129c  4620              MOV      r0,r4                 ;2700
00129e  f7fffffe          BL       TEXT_SetTextColor
0012a2  4993              LDR      r1,|L4.5360|
0012a4  4620              MOV      r0,r4                 ;2701
0012a6  f7fffffe          BL       TEXT_SetFont
0012aa  f7fffffe          BL       GUI_UC_SetEncodeUTF8
0012ae  a19a              ADR      r1,|L4.5400|
0012b0  4620              MOV      r0,r4                 ;2703
0012b2  f7fffffe          BL       TEXT_SetText
0012b6  e0a0              B        |L4.5114|
                  |L4.4792|
0012b8  f44f6110          MOV      r1,#0x900             ;2708
0012bc  6860              LDR      r0,[r4,#4]            ;2708  ; hWinset
0012be  f7fffffe          BL       WM_GetDialogItem
0012c2  4605              MOV      r5,r0                 ;2708
0012c4  4641              MOV      r1,r8                 ;2709
0012c6  4628              MOV      r0,r5                 ;2709
0012c8  f7fffffe          BL       TEXT_SetTextColor
0012cc  4988              LDR      r1,|L4.5360|
0012ce  4628              MOV      r0,r5                 ;2710
0012d0  f7fffffe          BL       TEXT_SetFont
0012d4  f7fffffe          BL       GUI_UC_SetEncodeUTF8
0012d8  a193              ADR      r1,|L4.5416|
0012da  4628              MOV      r0,r5                 ;2712
0012dc  f7fffffe          BL       TEXT_SetText
0012e0  f6401101          MOV      r1,#0x901             ;2714
0012e4  6860              LDR      r0,[r4,#4]            ;2714  ; hWinset
0012e6  f7fffffe          BL       WM_GetDialogItem
0012ea  4605              MOV      r5,r0                 ;2714
0012ec  4641              MOV      r1,r8                 ;2715
0012ee  4628              MOV      r0,r5                 ;2715
0012f0  f7fffffe          BL       TEXT_SetTextColor
0012f4  497e              LDR      r1,|L4.5360|
0012f6  4628              MOV      r0,r5                 ;2716
0012f8  f7fffffe          BL       TEXT_SetFont
0012fc  f7fffffe          BL       GUI_UC_SetEncodeUTF8
001300  a177              ADR      r1,|L4.5344|
001302  4628              MOV      r0,r5                 ;2718
001304  f7fffffe          BL       TEXT_SetText
001308  f6401102          MOV      r1,#0x902             ;2720
00130c  6860              LDR      r0,[r4,#4]            ;2720  ; hWinset
00130e  f7fffffe          BL       WM_GetDialogItem
001312  4605              MOV      r5,r0                 ;2720
001314  4641              MOV      r1,r8                 ;2721
001316  4628              MOV      r0,r5                 ;2721
001318  f7fffffe          BL       TEXT_SetTextColor
00131c  4974              LDR      r1,|L4.5360|
00131e  4628              MOV      r0,r5                 ;2722
001320  f7fffffe          BL       TEXT_SetFont
001324  f7fffffe          BL       GUI_UC_SetEncodeUTF8
001328  a172              ADR      r1,|L4.5364|
00132a  4628              MOV      r0,r5                 ;2724
00132c  f7fffffe          BL       TEXT_SetText
001330  f6401103          MOV      r1,#0x903             ;2726
001334  6860              LDR      r0,[r4,#4]            ;2726  ; hWinset
001336  f7fffffe          BL       WM_GetDialogItem
00133a  4604              MOV      r4,r0                 ;2726
00133c  4641              MOV      r1,r8                 ;2727
00133e  4620              MOV      r0,r4                 ;2727
001340  f7fffffe          BL       TEXT_SetTextColor
001344  496a              LDR      r1,|L4.5360|
001346  4620              MOV      r0,r4                 ;2728
001348  f7fffffe          BL       TEXT_SetFont
00134c  f7fffffe          BL       GUI_UC_SetEncodeUTF8
001350  a171              ADR      r1,|L4.5400|
001352  4620              MOV      r0,r4                 ;2730
001354  f7fffffe          BL       TEXT_SetText
001358  e04f              B        |L4.5114|
                  |L4.4954|
00135a  f44f6110          MOV      r1,#0x900             ;2735
00135e  6860              LDR      r0,[r4,#4]            ;2735  ; hWinset
001360  f7fffffe          BL       WM_GetDialogItem
001364  4605              MOV      r5,r0                 ;2735
001366  4641              MOV      r1,r8                 ;2736
001368  4628              MOV      r0,r5                 ;2736
00136a  f7fffffe          BL       TEXT_SetTextColor
00136e  4960              LDR      r1,|L4.5360|
001370  4628              MOV      r0,r5                 ;2737
001372  f7fffffe          BL       TEXT_SetFont
001376  f7fffffe          BL       GUI_UC_SetEncodeUTF8
00137a  a16b              ADR      r1,|L4.5416|
00137c  4628              MOV      r0,r5                 ;2739
00137e  f7fffffe          BL       TEXT_SetText
001382  f6401101          MOV      r1,#0x901             ;2741
001386  6860              LDR      r0,[r4,#4]            ;2741  ; hWinset
001388  f7fffffe          BL       WM_GetDialogItem
00138c  4605              MOV      r5,r0                 ;2741
00138e  4641              MOV      r1,r8                 ;2742
001390  4628              MOV      r0,r5                 ;2742
001392  f7fffffe          BL       TEXT_SetTextColor
001396  4956              LDR      r1,|L4.5360|
001398  4628              MOV      r0,r5                 ;2743
00139a  f7fffffe          BL       TEXT_SetFont
00139e  f7fffffe          BL       GUI_UC_SetEncodeUTF8
0013a2  a14f              ADR      r1,|L4.5344|
0013a4  4628              MOV      r0,r5                 ;2745
0013a6  f7fffffe          BL       TEXT_SetText
0013aa  f6401102          MOV      r1,#0x902             ;2747
0013ae  6860              LDR      r0,[r4,#4]            ;2747  ; hWinset
0013b0  f7fffffe          BL       WM_GetDialogItem
0013b4  4605              MOV      r5,r0                 ;2747
0013b6  4641              MOV      r1,r8                 ;2748
0013b8  4628              MOV      r0,r5                 ;2748
0013ba  f7fffffe          BL       TEXT_SetTextColor
0013be  494c              LDR      r1,|L4.5360|
0013c0  4628              MOV      r0,r5                 ;2749
0013c2  f7fffffe          BL       TEXT_SetFont
0013c6  f7fffffe          BL       GUI_UC_SetEncodeUTF8
0013ca  a14a              ADR      r1,|L4.5364|
0013cc  4628              MOV      r0,r5                 ;2751
0013ce  f7fffffe          BL       TEXT_SetText
0013d2  f6401103          MOV      r1,#0x903             ;2753
0013d6  6860              LDR      r0,[r4,#4]            ;2753  ; hWinset
0013d8  f7fffffe          BL       WM_GetDialogItem
0013dc  4604              MOV      r4,r0                 ;2753
0013de  4641              MOV      r1,r8                 ;2754
0013e0  4620              MOV      r0,r4                 ;2754
0013e2  f7fffffe          BL       TEXT_SetTextColor
0013e6  4942              LDR      r1,|L4.5360|
0013e8  4620              MOV      r0,r4                 ;2755
0013ea  f7fffffe          BL       TEXT_SetFont
0013ee  f7fffffe          BL       GUI_UC_SetEncodeUTF8
0013f2  a144              ADR      r1,|L4.5380|
0013f4  4620              MOV      r0,r4                 ;2757
0013f6  f7fffffe          BL       TEXT_SetText
                  |L4.5114|
0013fa  494e              LDR      r1,|L4.5428|
0013fc  202a              MOVS     r0,#0x2a              ;2763
0013fe  7008              STRB     r0,[r1,#0]            ;2763
                  |L4.5120|
001400  e466              B        |L4.3280|
                  |L4.5122|
001402  493b              LDR      r1,|L4.5360|
001404  4638              MOV      r0,r7                 ;2779
001406  f7fffffe          BL       TEXT_SetFont
00140a  f2af3130          ADR      r1,|L4.4316|
00140e  4638              MOV      r0,r7                 ;2780
001410  f7fffffe          BL       TEXT_SetText
001414  e008              B        |L4.5160|
                  |L4.5142|
001416  4936              LDR      r1,|L4.5360|
001418  4638              MOV      r0,r7                 ;2782
00141a  f7fffffe          BL       TEXT_SetFont
00141e  f2af313c          ADR      r1,|L4.4324|
001422  4638              MOV      r0,r7                 ;2783
001424  f7fffffe          BL       TEXT_SetText
                  |L4.5160|
001428  4843              LDR      r0,|L4.5432|
00142a  7800              LDRB     r0,[r0,#0]            ;2786  ; buffer
00142c  2806              CMP      r0,#6                 ;2786
00142e  d217              BCS      |L4.5216|
001430  e8dff000          TBB      [pc,r0]               ;2786
001434  9903172c          DCB      0x99,0x03,0x17,0x2c
001438  4184              DCB      0x41,0x84
00143a  f640019f          MOV      r1,#0x89f             ;2790
00143e  6860              LDR      r0,[r4,#4]            ;2790  ; hWinset
001440  f7fffffe          BL       WM_GetDialogItem
001444  4607              MOV      r7,r0                 ;2790
001446  4651              MOV      r1,r10                ;2791
001448  4638              MOV      r0,r7                 ;2791
00144a  f7fffffe          BL       TEXT_SetBkColor
00144e  4641              MOV      r1,r8                 ;2792
001450  4638              MOV      r0,r7                 ;2792
001452  f7fffffe          BL       TEXT_SetTextColor
001456  a134              ADR      r1,|L4.5416|
001458  4638              MOV      r0,r7                 ;2793
00145a  f7fffffe          BL       TEXT_SetText
00145e  702e              STRB     r6,[r5,#0]            ;2794
                  |L4.5216|
001460  e081              B        |L4.5478|
001462  f640019f          MOV      r1,#0x89f             ;2799
001466  6860              LDR      r0,[r4,#4]            ;2799  ; hWinset
001468  f7fffffe          BL       WM_GetDialogItem
00146c  4606              MOV      r6,r0                 ;2799
00146e  4651              MOV      r1,r10                ;2800
001470  4630              MOV      r0,r6                 ;2800
001472  f7fffffe          BL       TEXT_SetBkColor
001476  4641              MOV      r1,r8                 ;2801
001478  4630              MOV      r0,r6                 ;2801
00147a  f7fffffe          BL       TEXT_SetTextColor
00147e  a118              ADR      r1,|L4.5344|
001480  4630              MOV      r0,r6                 ;2802
001482  f7fffffe          BL       TEXT_SetText
001486  2002              MOVS     r0,#2                 ;2803
001488  7028              STRB     r0,[r5,#0]            ;2803
00148a  e06c              B        |L4.5478|
00148c  f640019f          MOV      r1,#0x89f             ;2808
001490  6860              LDR      r0,[r4,#4]            ;2808  ; hWinset
001492  f7fffffe          BL       WM_GetDialogItem
001496  4606              MOV      r6,r0                 ;2808
001498  4651              MOV      r1,r10                ;2809
00149a  4630              MOV      r0,r6                 ;2809
00149c  f7fffffe          BL       TEXT_SetBkColor
0014a0  4641              MOV      r1,r8                 ;2810
0014a2  4630              MOV      r0,r6                 ;2810
0014a4  f7fffffe          BL       TEXT_SetTextColor
0014a8  a112              ADR      r1,|L4.5364|
0014aa  4630              MOV      r0,r6                 ;2811
0014ac  f7fffffe          BL       TEXT_SetText
0014b0  2003              MOVS     r0,#3                 ;2812
0014b2  7028              STRB     r0,[r5,#0]            ;2812
0014b4  e057              B        |L4.5478|
0014b6  f640019f          MOV      r1,#0x89f             ;2817
0014ba  6860              LDR      r0,[r4,#4]            ;2817  ; hWinset
0014bc  f7fffffe          BL       WM_GetDialogItem
0014c0  4606              MOV      r6,r0                 ;2817
0014c2  4651              MOV      r1,r10                ;2818
0014c4  4630              MOV      r0,r6                 ;2818
0014c6  f7fffffe          BL       TEXT_SetBkColor
0014ca  4641              MOV      r1,r8                 ;2819
0014cc  4630              MOV      r0,r6                 ;2819
0014ce  f7fffffe          BL       TEXT_SetTextColor
0014d2  a10c              ADR      r1,|L4.5380|
0014d4  4630              MOV      r0,r6                 ;2820
0014d6  f7fffffe          BL       TEXT_SetText
0014da  f885b000          STRB     r11,[r5,#0]           ;2821
0014de  e042              B        |L4.5478|
                  |L4.5344|
0014e0  e9958de6          DCB      233,149,141,230,176,162,231,148,181,230,177,160
0014e4  b0a2e794
0014e8  b5e6b1a0
                  |L4.5356|
0014ec  00                DCB      0
0014ed  00                DCB      0
0014ee  00                DCB      0
0014ef  00                DCB      0
                  |L4.5360|
                          DCD      GUI_Fontset_font
                  |L4.5364|
0014f4  e9958de9          DCB      233,149,141,233,149,137,231,148,181,230,177,160,0
0014f8  9589e794
0014fc  b5e6b1a0
001500  00      
001501  00                DCB      0
001502  00                DCB      0
001503  00                DCB      0
                  |L4.5380|
001504  e5b08fe5          DCB      229,176,143,229,158,139,233,147,133,233,133,184,231,148,181
001508  9e8be993
00150c  85e985b8
001510  e794b5  
001513  e6b1a000          DCB      230,177,160,0
001517  00                DCB      0
                  |L4.5400|
001518  e99482e9          DCB      233,148,130,233,148,176,231,148,181,230,177,160,0
00151c  94b0e794
001520  b5e6b1a0
001524  00      
001525  00                DCB      0
001526  00                DCB      0
001527  00                DCB      0
                  |L4.5416|
001528  e99482e7          DCB      233,148,130,231,148,181,230,177,160,0
00152c  94b5e6b1
001530  a000    
001532  00                DCB      0
001533  00                DCB      0
                  |L4.5428|
                          DCD      set_sw
                  |L4.5432|
                          DCD      buffer
00153c  f640019f          MOV      r1,#0x89f             ;2826
001540  6860              LDR      r0,[r4,#4]            ;2826  ; hWinset
001542  f7fffffe          BL       WM_GetDialogItem
001546  4606              MOV      r6,r0                 ;2826
001548  4651              MOV      r1,r10                ;2827
00154a  4630              MOV      r0,r6                 ;2827
00154c  f7fffffe          BL       TEXT_SetBkColor
001550  4641              MOV      r1,r8                 ;2828
001552  4630              MOV      r0,r6                 ;2828
001554  f7fffffe          BL       TEXT_SetTextColor
001558  f2af0144          ADR      r1,|L4.5400|
00155c  4630              MOV      r0,r6                 ;2829
00155e  f7fffffe          BL       TEXT_SetText
001562  2005              MOVS     r0,#5                 ;2830
001564  7028              STRB     r0,[r5,#0]            ;2830
                  |L4.5478|
001566  f44f6110          MOV      r1,#0x900             ;2835
00156a  6860              LDR      r0,[r4,#4]            ;2835  ; hWinset
00156c  f7fffffe          BL       WM_GetDialogItem
001570  f2af0188          ADR      r1,|L4.5356|
001574  f7fffffe          BL       TEXT_SetText
001578  f6401101          MOV      r1,#0x901             ;2838
00157c  6860              LDR      r0,[r4,#4]            ;2838  ; hWinset
00157e  f7fffffe          BL       WM_GetDialogItem
001582  f2af0198          ADR      r1,|L4.5356|
001586  f7fffffe          BL       TEXT_SetText
00158a  f6401102          MOV      r1,#0x902             ;2841
00158e  6860              LDR      r0,[r4,#4]            ;2841  ; hWinset
001590  f7fffffe          BL       WM_GetDialogItem
001594  f2af01ac          ADR      r1,|L4.5356|
001598  f7fffffe          BL       TEXT_SetText
00159c  f6401103          MOV      r1,#0x903             ;2844
0015a0  6860              LDR      r0,[r4,#4]            ;2844  ; hWinset
0015a2  f7fffffe          BL       WM_GetDialogItem
0015a6  f2af01bc          ADR      r1,|L4.5356|
0015aa  f7fffffe          BL       TEXT_SetText
0015ae  f7fffffe          BL       Write_btype
0015b2  49ff              LDR      r1,|L4.6576|
0015b4  2029              MOVS     r0,#0x29              ;2848
0015b6  7008              STRB     r0,[r1,#0]            ;2848
                  |L4.5560|
0015b8  e41c              B        |L4.3572|
                  |L4.5562|
0015ba  4604              MOV      r4,r0                 ;2856
0015bc  4619              MOV      r1,r3                 ;2856
0015be  4610              MOV      r0,r2                 ;2856
0015c0  f7fffffe          BL       WM_GetDialogItem
0015c4  4607              MOV      r7,r0                 ;2856
0015c6  49fb              LDR      r1,|L4.6580|
0015c8  4638              MOV      r0,r7                 ;2857
0015ca  f7fffffe          BL       TEXT_SetBkColor
0015ce  2100              MOVS     r1,#0                 ;2858
0015d0  4638              MOV      r0,r7                 ;2858
0015d2  f7fffffe          BL       TEXT_SetTextColor
0015d6  f6401123          MOV      r1,#0x923             ;2860
0015da  6860              LDR      r0,[r4,#4]            ;2860  ; hWinset
0015dc  f7fffffe          BL       WM_GetDialogItem
0015e0  4607              MOV      r7,r0                 ;2860
0015e2  7820              LDRB     r0,[r4,#0]            ;2861  ; test_mode
0015e4  2801              CMP      r0,#1                 ;2861
0015e6  d002              BEQ      |L4.5614|
0015e8  7820              LDRB     r0,[r4,#0]            ;2865  ; test_mode
0015ea  b150              CBZ      r0,|L4.5634|
0015ec  e012              B        |L4.5652|
                  |L4.5614|
0015ee  49f2              LDR      r1,|L4.6584|
0015f0  4638              MOV      r0,r7                 ;2863
0015f2  f7fffffe          BL       TEXT_SetFont
0015f6  f2af511c          ADR      r1,|L4.4316|
0015fa  4638              MOV      r0,r7                 ;2864
0015fc  f7fffffe          BL       TEXT_SetText
001600  e008              B        |L4.5652|
                  |L4.5634|
001602  49ed              LDR      r1,|L4.6584|
001604  4638              MOV      r0,r7                 ;2866
001606  f7fffffe          BL       TEXT_SetFont
00160a  f2af5128          ADR      r1,|L4.4324|
00160e  4638              MOV      r0,r7                 ;2867
001610  f7fffffe          BL       TEXT_SetText
                  |L4.5652|
001614  48e9              LDR      r0,|L4.6588|
001616  7800              LDRB     r0,[r0,#0]            ;2870  ; buffer
001618  2806              CMP      r0,#6                 ;2870
00161a  d270              BCS      |L4.5886|
00161c  e8dff000          TBB      [pc,r0]               ;2870
001620  6f03182e          DCB      0x6f,0x03,0x18,0x2e
001624  445a              DCB      0x44,0x5a
001626  f640019f          MOV      r1,#0x89f             ;2874
00162a  6860              LDR      r0,[r4,#4]            ;2874  ; hWinset
00162c  f7fffffe          BL       WM_GetDialogItem
001630  4607              MOV      r7,r0                 ;2874
001632  4651              MOV      r1,r10                ;2875
001634  4638              MOV      r0,r7                 ;2875
001636  f7fffffe          BL       TEXT_SetBkColor
00163a  4641              MOV      r1,r8                 ;2876
00163c  4638              MOV      r0,r7                 ;2876
00163e  f7fffffe          BL       TEXT_SetTextColor
001642  f2af111c          ADR      r1,|L4.5416|
001646  4638              MOV      r0,r7                 ;2877
001648  f7fffffe          BL       TEXT_SetText
00164c  702e              STRB     r6,[r5,#0]            ;2878
00164e  e056              B        |L4.5886|
001650  f640019f          MOV      r1,#0x89f             ;2883
001654  6860              LDR      r0,[r4,#4]            ;2883  ; hWinset
001656  f7fffffe          BL       WM_GetDialogItem
00165a  4606              MOV      r6,r0                 ;2883
00165c  4651              MOV      r1,r10                ;2884
00165e  4630              MOV      r0,r6                 ;2884
001660  f7fffffe          BL       TEXT_SetBkColor
001664  4641              MOV      r1,r8                 ;2885
001666  4630              MOV      r0,r6                 ;2885
001668  f7fffffe          BL       TEXT_SetTextColor
00166c  f2af1190          ADR      r1,|L4.5344|
001670  4630              MOV      r0,r6                 ;2886
001672  f7fffffe          BL       TEXT_SetText
001676  2002              MOVS     r0,#2                 ;2887
001678  7028              STRB     r0,[r5,#0]            ;2887
00167a  e040              B        |L4.5886|
00167c  f640019f          MOV      r1,#0x89f             ;2892
001680  6860              LDR      r0,[r4,#4]            ;2892  ; hWinset
001682  f7fffffe          BL       WM_GetDialogItem
001686  4606              MOV      r6,r0                 ;2892
001688  4651              MOV      r1,r10                ;2893
00168a  4630              MOV      r0,r6                 ;2893
00168c  f7fffffe          BL       TEXT_SetBkColor
001690  4641              MOV      r1,r8                 ;2894
001692  4630              MOV      r0,r6                 ;2894
001694  f7fffffe          BL       TEXT_SetTextColor
001698  f2af11a8          ADR      r1,|L4.5364|
00169c  4630              MOV      r0,r6                 ;2895
00169e  f7fffffe          BL       TEXT_SetText
0016a2  2003              MOVS     r0,#3                 ;2896
0016a4  7028              STRB     r0,[r5,#0]            ;2896
0016a6  e02a              B        |L4.5886|
0016a8  f640019f          MOV      r1,#0x89f             ;2901
0016ac  6860              LDR      r0,[r4,#4]            ;2901  ; hWinset
0016ae  f7fffffe          BL       WM_GetDialogItem
0016b2  4606              MOV      r6,r0                 ;2901
0016b4  4651              MOV      r1,r10                ;2902
0016b6  4630              MOV      r0,r6                 ;2902
0016b8  f7fffffe          BL       TEXT_SetBkColor
0016bc  4641              MOV      r1,r8                 ;2903
0016be  4630              MOV      r0,r6                 ;2903
0016c0  f7fffffe          BL       TEXT_SetTextColor
0016c4  f2af11c4          ADR      r1,|L4.5380|
0016c8  4630              MOV      r0,r6                 ;2904
0016ca  f7fffffe          BL       TEXT_SetText
0016ce  f885b000          STRB     r11,[r5,#0]           ;2905
0016d2  e014              B        |L4.5886|
0016d4  f640019f          MOV      r1,#0x89f             ;2910
0016d8  6860              LDR      r0,[r4,#4]            ;2910  ; hWinset
0016da  f7fffffe          BL       WM_GetDialogItem
0016de  4606              MOV      r6,r0                 ;2910
0016e0  4651              MOV      r1,r10                ;2911
0016e2  4630              MOV      r0,r6                 ;2911
0016e4  f7fffffe          BL       TEXT_SetBkColor
0016e8  4641              MOV      r1,r8                 ;2912
0016ea  4630              MOV      r0,r6                 ;2912
0016ec  f7fffffe          BL       TEXT_SetTextColor
0016f0  f2af11dc          ADR      r1,|L4.5400|
0016f4  4630              MOV      r0,r6                 ;2913
0016f6  f7fffffe          BL       TEXT_SetText
0016fa  2005              MOVS     r0,#5                 ;2914
0016fc  7028              STRB     r0,[r5,#0]            ;2914
                  |L4.5886|
0016fe  f44f6110          MOV      r1,#0x900             ;2919
001702  6860              LDR      r0,[r4,#4]            ;2919  ; hWinset
001704  f7fffffe          BL       WM_GetDialogItem
001708  4605              MOV      r5,r0                 ;2919
00170a  f2af2120          ADR      r1,|L4.5356|
00170e  4628              MOV      r0,r5                 ;2920
001710  f7fffffe          BL       TEXT_SetText
001714  4651              MOV      r1,r10                ;2921
001716  4628              MOV      r0,r5                 ;2921
001718  f7fffffe          BL       TEXT_SetBkColor
00171c  f6401101          MOV      r1,#0x901             ;2923
001720  6860              LDR      r0,[r4,#4]            ;2923  ; hWinset
001722  f7fffffe          BL       WM_GetDialogItem
001726  f2af213c          ADR      r1,|L4.5356|
00172a  f7fffffe          BL       TEXT_SetText
00172e  f6401102          MOV      r1,#0x902             ;2926
001732  6860              LDR      r0,[r4,#4]            ;2926  ; hWinset
001734  f7fffffe          BL       WM_GetDialogItem
001738  f2af2150          ADR      r1,|L4.5356|
00173c  f7fffffe          BL       TEXT_SetText
001740  f6401103          MOV      r1,#0x903             ;2929
001744  6860              LDR      r0,[r4,#4]            ;2929  ; hWinset
001746  f7fffffe          BL       WM_GetDialogItem
00174a  f2af2160          ADR      r1,|L4.5356|
00174e  f7fffffe          BL       TEXT_SetText
001752  f7fffffe          BL       Write_btype
001756  4996              LDR      r1,|L4.6576|
001758  2029              MOVS     r0,#0x29              ;2933
00175a  7008              STRB     r0,[r1,#0]            ;2933
00175c  e421              B        |L4.4002|
                  |L4.5982|
00175e  4604              MOV      r4,r0                 ;2941
001760  4619              MOV      r1,r3                 ;2941
001762  4610              MOV      r0,r2                 ;2941
001764  f7fffffe          BL       WM_GetDialogItem
001768  4607              MOV      r7,r0                 ;2941
00176a  4992              LDR      r1,|L4.6580|
00176c  4638              MOV      r0,r7                 ;2942
00176e  f7fffffe          BL       TEXT_SetBkColor
001772  2100              MOVS     r1,#0                 ;2943
001774  4638              MOV      r0,r7                 ;2943
001776  f7fffffe          BL       TEXT_SetTextColor
00177a  f6401123          MOV      r1,#0x923             ;2945
00177e  6860              LDR      r0,[r4,#4]            ;2945  ; hWinset
001780  f7fffffe          BL       WM_GetDialogItem
001784  4607              MOV      r7,r0                 ;2945
001786  7820              LDRB     r0,[r4,#0]            ;2946  ; test_mode
001788  2801              CMP      r0,#1                 ;2946
00178a  d002              BEQ      |L4.6034|
00178c  7820              LDRB     r0,[r4,#0]            ;2950  ; test_mode
00178e  b150              CBZ      r0,|L4.6054|
001790  e012              B        |L4.6072|
                  |L4.6034|
001792  4989              LDR      r1,|L4.6584|
001794  4638              MOV      r0,r7                 ;2948
001796  f7fffffe          BL       TEXT_SetFont
00179a  f2af61c0          ADR      r1,|L4.4316|
00179e  4638              MOV      r0,r7                 ;2949
0017a0  f7fffffe          BL       TEXT_SetText
0017a4  e008              B        |L4.6072|
                  |L4.6054|
0017a6  4984              LDR      r1,|L4.6584|
0017a8  4638              MOV      r0,r7                 ;2951
0017aa  f7fffffe          BL       TEXT_SetFont
0017ae  f2af61cc          ADR      r1,|L4.4324|
0017b2  4638              MOV      r0,r7                 ;2952
0017b4  f7fffffe          BL       TEXT_SetText
                  |L4.6072|
0017b8  4880              LDR      r0,|L4.6588|
0017ba  7800              LDRB     r0,[r0,#0]            ;2955  ; buffer
0017bc  2806              CMP      r0,#6                 ;2955
0017be  d270              BCS      |L4.6306|
0017c0  e8dff000          TBB      [pc,r0]               ;2955
0017c4  6f03182e          DCB      0x6f,0x03,0x18,0x2e
0017c8  445a              DCB      0x44,0x5a
0017ca  f640019f          MOV      r1,#0x89f             ;2959
0017ce  6860              LDR      r0,[r4,#4]            ;2959  ; hWinset
0017d0  f7fffffe          BL       WM_GetDialogItem
0017d4  4607              MOV      r7,r0                 ;2959
0017d6  4651              MOV      r1,r10                ;2960
0017d8  4638              MOV      r0,r7                 ;2960
0017da  f7fffffe          BL       TEXT_SetBkColor
0017de  4641              MOV      r1,r8                 ;2961
0017e0  4638              MOV      r0,r7                 ;2961
0017e2  f7fffffe          BL       TEXT_SetTextColor
0017e6  f2af21c0          ADR      r1,|L4.5416|
0017ea  4638              MOV      r0,r7                 ;2962
0017ec  f7fffffe          BL       TEXT_SetText
0017f0  702e              STRB     r6,[r5,#0]            ;2963
0017f2  e056              B        |L4.6306|
0017f4  f640019f          MOV      r1,#0x89f             ;2968
0017f8  6860              LDR      r0,[r4,#4]            ;2968  ; hWinset
0017fa  f7fffffe          BL       WM_GetDialogItem
0017fe  4606              MOV      r6,r0                 ;2968
001800  4651              MOV      r1,r10                ;2969
001802  4630              MOV      r0,r6                 ;2969
001804  f7fffffe          BL       TEXT_SetBkColor
001808  4641              MOV      r1,r8                 ;2970
00180a  4630              MOV      r0,r6                 ;2970
00180c  f7fffffe          BL       TEXT_SetTextColor
001810  f2af3134          ADR      r1,|L4.5344|
001814  4630              MOV      r0,r6                 ;2971
001816  f7fffffe          BL       TEXT_SetText
00181a  2002              MOVS     r0,#2                 ;2972
00181c  7028              STRB     r0,[r5,#0]            ;2972
00181e  e040              B        |L4.6306|
001820  f640019f          MOV      r1,#0x89f             ;2977
001824  6860              LDR      r0,[r4,#4]            ;2977  ; hWinset
001826  f7fffffe          BL       WM_GetDialogItem
00182a  4606              MOV      r6,r0                 ;2977
00182c  4651              MOV      r1,r10                ;2978
00182e  4630              MOV      r0,r6                 ;2978
001830  f7fffffe          BL       TEXT_SetBkColor
001834  4641              MOV      r1,r8                 ;2979
001836  4630              MOV      r0,r6                 ;2979
001838  f7fffffe          BL       TEXT_SetTextColor
00183c  f2af314c          ADR      r1,|L4.5364|
001840  4630              MOV      r0,r6                 ;2980
001842  f7fffffe          BL       TEXT_SetText
001846  2003              MOVS     r0,#3                 ;2981
001848  7028              STRB     r0,[r5,#0]            ;2981
00184a  e02a              B        |L4.6306|
00184c  f640019f          MOV      r1,#0x89f             ;2986
001850  6860              LDR      r0,[r4,#4]            ;2986  ; hWinset
001852  f7fffffe          BL       WM_GetDialogItem
001856  4606              MOV      r6,r0                 ;2986
001858  4651              MOV      r1,r10                ;2987
00185a  4630              MOV      r0,r6                 ;2987
00185c  f7fffffe          BL       TEXT_SetBkColor
001860  4641              MOV      r1,r8                 ;2988
001862  4630              MOV      r0,r6                 ;2988
001864  f7fffffe          BL       TEXT_SetTextColor
001868  f2af3168          ADR      r1,|L4.5380|
00186c  4630              MOV      r0,r6                 ;2989
00186e  f7fffffe          BL       TEXT_SetText
001872  f885b000          STRB     r11,[r5,#0]           ;2990
001876  e014              B        |L4.6306|
001878  f640019f          MOV      r1,#0x89f             ;2995
00187c  6860              LDR      r0,[r4,#4]            ;2995  ; hWinset
00187e  f7fffffe          BL       WM_GetDialogItem
001882  4606              MOV      r6,r0                 ;2995
001884  4651              MOV      r1,r10                ;2996
001886  4630              MOV      r0,r6                 ;2996
001888  f7fffffe          BL       TEXT_SetBkColor
00188c  4641              MOV      r1,r8                 ;2997
00188e  4630              MOV      r0,r6                 ;2997
001890  f7fffffe          BL       TEXT_SetTextColor
001894  f2af3180          ADR      r1,|L4.5400|
001898  4630              MOV      r0,r6                 ;2998
00189a  f7fffffe          BL       TEXT_SetText
00189e  2005              MOVS     r0,#5                 ;2999
0018a0  7028              STRB     r0,[r5,#0]            ;2999
                  |L4.6306|
0018a2  f44f6110          MOV      r1,#0x900             ;3004
0018a6  6860              LDR      r0,[r4,#4]            ;3004  ; hWinset
0018a8  f7fffffe          BL       WM_GetDialogItem
0018ac  f2af31c4          ADR      r1,|L4.5356|
0018b0  f7fffffe          BL       TEXT_SetText
0018b4  f6401101          MOV      r1,#0x901             ;3007
0018b8  6860              LDR      r0,[r4,#4]            ;3007  ; hWinset
0018ba  f7fffffe          BL       WM_GetDialogItem
0018be  4605              MOV      r5,r0                 ;3007
0018c0  f2af31d8          ADR      r1,|L4.5356|
0018c4  4628              MOV      r0,r5                 ;3008
0018c6  f7fffffe          BL       TEXT_SetText
0018ca  4651              MOV      r1,r10                ;3009
0018cc  4628              MOV      r0,r5                 ;3009
0018ce  f7fffffe          BL       TEXT_SetBkColor
0018d2  f6401102          MOV      r1,#0x902             ;3011
0018d6  6860              LDR      r0,[r4,#4]            ;3011  ; hWinset
0018d8  f7fffffe          BL       WM_GetDialogItem
0018dc  f2af31f4          ADR      r1,|L4.5356|
0018e0  f7fffffe          BL       TEXT_SetText
0018e4  f6401103          MOV      r1,#0x903             ;3014
0018e8  6860              LDR      r0,[r4,#4]            ;3014  ; hWinset
0018ea  f7fffffe          BL       WM_GetDialogItem
0018ee  f2af4104          ADR      r1,|L4.5356|
0018f2  f7fffffe          BL       TEXT_SetText
0018f6  f7fffffe          BL       Write_btype
0018fa  492d              LDR      r1,|L4.6576|
0018fc  2029              MOVS     r0,#0x29              ;3018
0018fe  7008              STRB     r0,[r1,#0]            ;3018
001900  e57e              B        |L4.5120|
                  |L4.6402|
001902  492d              LDR      r1,|L4.6584|
001904  4638              MOV      r0,r7                 ;3033
001906  f7fffffe          BL       TEXT_SetFont
00190a  f6af0130          ADR      r1,|L4.4316|
00190e  4638              MOV      r0,r7                 ;3034
001910  f7fffffe          BL       TEXT_SetText
001914  e008              B        |L4.6440|
                  |L4.6422|
001916  4928              LDR      r1,|L4.6584|
001918  4638              MOV      r0,r7                 ;3036
00191a  f7fffffe          BL       TEXT_SetFont
00191e  f6af013c          ADR      r1,|L4.4324|
001922  4638              MOV      r0,r7                 ;3037
001924  f7fffffe          BL       TEXT_SetText
                  |L4.6440|
001928  4824              LDR      r0,|L4.6588|
00192a  7800              LDRB     r0,[r0,#0]            ;3040  ; buffer
00192c  2806              CMP      r0,#6                 ;3040
00192e  d27a              BCS      |L4.6694|
001930  e8dff000          TBB      [pc,r0]               ;3040
001934  7903182e          DCB      0x79,0x03,0x18,0x2e
001938  4e64              DCB      0x4e,0x64
00193a  f640019f          MOV      r1,#0x89f             ;3044
00193e  6860              LDR      r0,[r4,#4]            ;3044  ; hWinset
001940  f7fffffe          BL       WM_GetDialogItem
001944  4607              MOV      r7,r0                 ;3044
001946  4651              MOV      r1,r10                ;3045
001948  4638              MOV      r0,r7                 ;3045
00194a  f7fffffe          BL       TEXT_SetBkColor
00194e  4641              MOV      r1,r8                 ;3046
001950  4638              MOV      r0,r7                 ;3046
001952  f7fffffe          BL       TEXT_SetTextColor
001956  f2af4130          ADR      r1,|L4.5416|
00195a  4638              MOV      r0,r7                 ;3047
00195c  f7fffffe          BL       TEXT_SetText
001960  702e              STRB     r6,[r5,#0]            ;3048
001962  e060              B        |L4.6694|
001964  f640019f          MOV      r1,#0x89f             ;3053
001968  6860              LDR      r0,[r4,#4]            ;3053  ; hWinset
00196a  f7fffffe          BL       WM_GetDialogItem
00196e  4606              MOV      r6,r0                 ;3053
001970  4651              MOV      r1,r10                ;3054
001972  4630              MOV      r0,r6                 ;3054
001974  f7fffffe          BL       TEXT_SetBkColor
001978  4641              MOV      r1,r8                 ;3055
00197a  4630              MOV      r0,r6                 ;3055
00197c  f7fffffe          BL       TEXT_SetTextColor
001980  f2af41a4          ADR      r1,|L4.5344|
001984  4630              MOV      r0,r6                 ;3056
001986  f7fffffe          BL       TEXT_SetText
00198a  2002              MOVS     r0,#2                 ;3057
00198c  7028              STRB     r0,[r5,#0]            ;3057
00198e  e04a              B        |L4.6694|
001990  f640019f          MOV      r1,#0x89f             ;3062
001994  6860              LDR      r0,[r4,#4]            ;3062  ; hWinset
001996  f7fffffe          BL       WM_GetDialogItem
00199a  4606              MOV      r6,r0                 ;3062
00199c  4651              MOV      r1,r10                ;3063
00199e  4630              MOV      r0,r6                 ;3063
0019a0  f7fffffe          BL       TEXT_SetBkColor
0019a4  4641              MOV      r1,r8                 ;3064
0019a6  4630              MOV      r0,r6                 ;3064
0019a8  f7fffffe          BL       TEXT_SetTextColor
0019ac  e008              B        |L4.6592|
0019ae  0000              DCW      0x0000
                  |L4.6576|
                          DCD      set_sw
                  |L4.6580|
                          DCD      0x00bfffff
                  |L4.6584|
                          DCD      GUI_Fontset_font
                  |L4.6588|
                          DCD      buffer
                  |L4.6592|
0019c0  f2af41d0          ADR      r1,|L4.5364|
0019c4  4630              MOV      r0,r6                 ;3065
0019c6  f7fffffe          BL       TEXT_SetText
0019ca  2003              MOVS     r0,#3                 ;3066
0019cc  7028              STRB     r0,[r5,#0]            ;3066
0019ce  e02a              B        |L4.6694|
0019d0  f640019f          MOV      r1,#0x89f             ;3071
0019d4  6860              LDR      r0,[r4,#4]            ;3071  ; hWinset
0019d6  f7fffffe          BL       WM_GetDialogItem
0019da  4606              MOV      r6,r0                 ;3071
0019dc  4651              MOV      r1,r10                ;3072
0019de  4630              MOV      r0,r6                 ;3072
0019e0  f7fffffe          BL       TEXT_SetBkColor
0019e4  4641              MOV      r1,r8                 ;3073
0019e6  4630              MOV      r0,r6                 ;3073
0019e8  f7fffffe          BL       TEXT_SetTextColor
0019ec  f2af41ec          ADR      r1,|L4.5380|
0019f0  4630              MOV      r0,r6                 ;3074
0019f2  f7fffffe          BL       TEXT_SetText
0019f6  f885b000          STRB     r11,[r5,#0]           ;3075
0019fa  e014              B        |L4.6694|
0019fc  f640019f          MOV      r1,#0x89f             ;3080
001a00  6860              LDR      r0,[r4,#4]            ;3080  ; hWinset
001a02  f7fffffe          BL       WM_GetDialogItem
001a06  4606              MOV      r6,r0                 ;3080
001a08  4651              MOV      r1,r10                ;3081
001a0a  4630              MOV      r0,r6                 ;3081
001a0c  f7fffffe          BL       TEXT_SetBkColor
001a10  4641              MOV      r1,r8                 ;3082
001a12  4630              MOV      r0,r6                 ;3082
001a14  f7fffffe          BL       TEXT_SetTextColor
001a18  f2af5104          ADR      r1,|L4.5400|
001a1c  4630              MOV      r0,r6                 ;3083
001a1e  f7fffffe          BL       TEXT_SetText
001a22  2005              MOVS     r0,#5                 ;3084
001a24  7028              STRB     r0,[r5,#0]            ;3084
                  |L4.6694|
001a26  f44f6110          MOV      r1,#0x900             ;3089
001a2a  6860              LDR      r0,[r4,#4]            ;3089  ; hWinset
001a2c  f7fffffe          BL       WM_GetDialogItem
001a30  f2af5148          ADR      r1,|L4.5356|
001a34  f7fffffe          BL       TEXT_SetText
001a38  f6401101          MOV      r1,#0x901             ;3092
001a3c  6860              LDR      r0,[r4,#4]            ;3092  ; hWinset
001a3e  f7fffffe          BL       WM_GetDialogItem
001a42  f2af5158          ADR      r1,|L4.5356|
001a46  f7fffffe          BL       TEXT_SetText
001a4a  f6401102          MOV      r1,#0x902             ;3095
001a4e  6860              LDR      r0,[r4,#4]            ;3095  ; hWinset
001a50  f7fffffe          BL       WM_GetDialogItem
001a54  4605              MOV      r5,r0                 ;3095
001a56  f2af516c          ADR      r1,|L4.5356|
001a5a  4628              MOV      r0,r5                 ;3096
001a5c  f7fffffe          BL       TEXT_SetText
001a60  4651              MOV      r1,r10                ;3097
001a62  4628              MOV      r0,r5                 ;3097
001a64  f7fffffe          BL       TEXT_SetBkColor
001a68  f6401103          MOV      r1,#0x903             ;3099
001a6c  6860              LDR      r0,[r4,#4]            ;3099  ; hWinset
001a6e  f7fffffe          BL       WM_GetDialogItem
001a72  f2af5188          ADR      r1,|L4.5356|
001a76  f7fffffe          BL       TEXT_SetText
001a7a  f7fffffe          BL       Write_btype
001a7e  496b              LDR      r1,|L4.7212|
001a80  2029              MOVS     r0,#0x29              ;3103
001a82  7008              STRB     r0,[r1,#0]            ;3103
001a84  e4bc              B        |L4.5120|
                  |L4.6790|
001a86  4604              MOV      r4,r0                 ;3111
001a88  4619              MOV      r1,r3                 ;3111
001a8a  4610              MOV      r0,r2                 ;3111
001a8c  f7fffffe          BL       WM_GetDialogItem
001a90  4607              MOV      r7,r0                 ;3111
001a92  4967              LDR      r1,|L4.7216|
001a94  4638              MOV      r0,r7                 ;3112
001a96  f7fffffe          BL       TEXT_SetBkColor
001a9a  2100              MOVS     r1,#0                 ;3113
001a9c  4638              MOV      r0,r7                 ;3113
001a9e  f7fffffe          BL       TEXT_SetTextColor
001aa2  f6401123          MOV      r1,#0x923             ;3115
001aa6  6860              LDR      r0,[r4,#4]            ;3115  ; hWinset
001aa8  f7fffffe          BL       WM_GetDialogItem
001aac  4607              MOV      r7,r0                 ;3115
001aae  7820              LDRB     r0,[r4,#0]            ;3116  ; test_mode
001ab0  2801              CMP      r0,#1                 ;3116
001ab2  d002              BEQ      |L4.6842|
001ab4  7820              LDRB     r0,[r4,#0]            ;3120  ; test_mode
001ab6  b150              CBZ      r0,|L4.6862|
001ab8  e012              B        |L4.6880|
                  |L4.6842|
001aba  495e              LDR      r1,|L4.7220|
001abc  4638              MOV      r0,r7                 ;3118
001abe  f7fffffe          BL       TEXT_SetFont
001ac2  f6af11e8          ADR      r1,|L4.4316|
001ac6  4638              MOV      r0,r7                 ;3119
001ac8  f7fffffe          BL       TEXT_SetText
001acc  e008              B        |L4.6880|
                  |L4.6862|
001ace  4959              LDR      r1,|L4.7220|
001ad0  4638              MOV      r0,r7                 ;3121
001ad2  f7fffffe          BL       TEXT_SetFont
001ad6  f6af11f4          ADR      r1,|L4.4324|
001ada  4638              MOV      r0,r7                 ;3122
001adc  f7fffffe          BL       TEXT_SetText
                  |L4.6880|
001ae0  4855              LDR      r0,|L4.7224|
001ae2  7800              LDRB     r0,[r0,#0]            ;3125  ; buffer
001ae4  2806              CMP      r0,#6                 ;3125
001ae6  d270              BCS      |L4.7114|
001ae8  e8dff000          TBB      [pc,r0]               ;3125
001aec  6f03182e          DCB      0x6f,0x03,0x18,0x2e
001af0  445a              DCB      0x44,0x5a
001af2  f640019f          MOV      r1,#0x89f             ;3129
001af6  6860              LDR      r0,[r4,#4]            ;3129  ; hWinset
001af8  f7fffffe          BL       WM_GetDialogItem
001afc  4607              MOV      r7,r0                 ;3129
001afe  4651              MOV      r1,r10                ;3130
001b00  4638              MOV      r0,r7                 ;3130
001b02  f7fffffe          BL       TEXT_SetBkColor
001b06  4641              MOV      r1,r8                 ;3131
001b08  4638              MOV      r0,r7                 ;3131
001b0a  f7fffffe          BL       TEXT_SetTextColor
001b0e  f2af51e8          ADR      r1,|L4.5416|
001b12  4638              MOV      r0,r7                 ;3132
001b14  f7fffffe          BL       TEXT_SetText
001b18  702e              STRB     r6,[r5,#0]            ;3133
001b1a  e056              B        |L4.7114|
001b1c  f640019f          MOV      r1,#0x89f             ;3138
001b20  6860              LDR      r0,[r4,#4]            ;3138  ; hWinset
001b22  f7fffffe          BL       WM_GetDialogItem
001b26  4606              MOV      r6,r0                 ;3138
001b28  4651              MOV      r1,r10                ;3139
001b2a  4630              MOV      r0,r6                 ;3139
001b2c  f7fffffe          BL       TEXT_SetBkColor
001b30  4641              MOV      r1,r8                 ;3140
001b32  4630              MOV      r0,r6                 ;3140
001b34  f7fffffe          BL       TEXT_SetTextColor
001b38  f2af615c          ADR      r1,|L4.5344|
001b3c  4630              MOV      r0,r6                 ;3141
001b3e  f7fffffe          BL       TEXT_SetText
001b42  2002              MOVS     r0,#2                 ;3142
001b44  7028              STRB     r0,[r5,#0]            ;3142
001b46  e040              B        |L4.7114|
001b48  f640019f          MOV      r1,#0x89f             ;3147
001b4c  6860              LDR      r0,[r4,#4]            ;3147  ; hWinset
001b4e  f7fffffe          BL       WM_GetDialogItem
001b52  4606              MOV      r6,r0                 ;3147
001b54  4651              MOV      r1,r10                ;3148
001b56  4630              MOV      r0,r6                 ;3148
001b58  f7fffffe          BL       TEXT_SetBkColor
001b5c  4641              MOV      r1,r8                 ;3149
001b5e  4630              MOV      r0,r6                 ;3149
001b60  f7fffffe          BL       TEXT_SetTextColor
001b64  f2af6174          ADR      r1,|L4.5364|
001b68  4630              MOV      r0,r6                 ;3150
001b6a  f7fffffe          BL       TEXT_SetText
001b6e  2003              MOVS     r0,#3                 ;3151
001b70  7028              STRB     r0,[r5,#0]            ;3151
001b72  e02a              B        |L4.7114|
001b74  f640019f          MOV      r1,#0x89f             ;3156
001b78  6860              LDR      r0,[r4,#4]            ;3156  ; hWinset
001b7a  f7fffffe          BL       WM_GetDialogItem
001b7e  4606              MOV      r6,r0                 ;3156
001b80  4651              MOV      r1,r10                ;3157
001b82  4630              MOV      r0,r6                 ;3157
001b84  f7fffffe          BL       TEXT_SetBkColor
001b88  4641              MOV      r1,r8                 ;3158
001b8a  4630              MOV      r0,r6                 ;3158
001b8c  f7fffffe          BL       TEXT_SetTextColor
001b90  f2af6190          ADR      r1,|L4.5380|
001b94  4630              MOV      r0,r6                 ;3159
001b96  f7fffffe          BL       TEXT_SetText
001b9a  f885b000          STRB     r11,[r5,#0]           ;3160
001b9e  e014              B        |L4.7114|
001ba0  f640019f          MOV      r1,#0x89f             ;3165
001ba4  6860              LDR      r0,[r4,#4]            ;3165  ; hWinset
001ba6  f7fffffe          BL       WM_GetDialogItem
001baa  4606              MOV      r6,r0                 ;3165
001bac  4651              MOV      r1,r10                ;3166
001bae  4630              MOV      r0,r6                 ;3166
001bb0  f7fffffe          BL       TEXT_SetBkColor
001bb4  4641              MOV      r1,r8                 ;3167
001bb6  4630              MOV      r0,r6                 ;3167
001bb8  f7fffffe          BL       TEXT_SetTextColor
001bbc  f2af61a8          ADR      r1,|L4.5400|
001bc0  4630              MOV      r0,r6                 ;3168
001bc2  f7fffffe          BL       TEXT_SetText
001bc6  2005              MOVS     r0,#5                 ;3169
001bc8  7028              STRB     r0,[r5,#0]            ;3169
                  |L4.7114|
001bca  f44f6110          MOV      r1,#0x900             ;3174
001bce  6860              LDR      r0,[r4,#4]            ;3174  ; hWinset
001bd0  f7fffffe          BL       WM_GetDialogItem
001bd4  f2af61ec          ADR      r1,|L4.5356|
001bd8  f7fffffe          BL       TEXT_SetText
001bdc  f6401101          MOV      r1,#0x901             ;3177
001be0  6860              LDR      r0,[r4,#4]            ;3177  ; hWinset
001be2  f7fffffe          BL       WM_GetDialogItem
001be6  f2af61fc          ADR      r1,|L4.5356|
001bea  f7fffffe          BL       TEXT_SetText
001bee  f6401102          MOV      r1,#0x902             ;3180
001bf2  6860              LDR      r0,[r4,#4]            ;3180  ; hWinset
001bf4  f7fffffe          BL       WM_GetDialogItem
001bf8  f2af7110          ADR      r1,|L4.5356|
001bfc  f7fffffe          BL       TEXT_SetText
001c00  f6401103          MOV      r1,#0x903             ;3183
001c04  6860              LDR      r0,[r4,#4]            ;3183  ; hWinset
001c06  f7fffffe          BL       WM_GetDialogItem
001c0a  4604              MOV      r4,r0                 ;3183
001c0c  f2af7124          ADR      r1,|L4.5356|
001c10  4620              MOV      r0,r4                 ;3184
001c12  f7fffffe          BL       TEXT_SetText
001c16  4651              MOV      r1,r10                ;3185
001c18  4620              MOV      r0,r4                 ;3185
001c1a  f7fffffe          BL       TEXT_SetBkColor
001c1e  f7fffffe          BL       Write_btype
001c22  4902              LDR      r1,|L4.7212|
001c24  2029              MOVS     r0,#0x29              ;3188
001c26  7008              STRB     r0,[r1,#0]            ;3188
001c28  e4c6              B        |L4.5560|
;;;3196   
                          ENDP

001c2a  0000              DCW      0x0000
                  |L4.7212|
                          DCD      set_sw
                  |L4.7216|
                          DCD      0x00bfffff
                  |L4.7220|
                          DCD      GUI_Fontset_font
                  |L4.7224|
                          DCD      buffer

                          AREA ||i.ResetSET||, CODE, READONLY, ALIGN=2

                  ResetSET PROC
;;;588    
;;;589    WM_HWIN ResetSET(void) {
000000  b51c              PUSH     {r2-r4,lr}
;;;590      hWinset = GUI_CreateDialogBox(_aDialogCreate5, GUI_COUNTOF(_aDialogCreate5), _cbDialog, WM_HBKWIN, 0, 0);
000002  f7fffffe          BL       WM_GetDesktopWindow
000006  4603              MOV      r3,r0
000008  2000              MOVS     r0,#0
00000a  9000              STR      r0,[sp,#0]
00000c  9001              STR      r0,[sp,#4]
00000e  4a04              LDR      r2,|L5.32|
000010  2125              MOVS     r1,#0x25
000012  4804              LDR      r0,|L5.36|
000014  f7fffffe          BL       GUI_CreateDialogBox
000018  4903              LDR      r1,|L5.40|
00001a  6048              STR      r0,[r1,#4]  ; hWinset
;;;591      return hWinset;
;;;592    }
00001c  bd1c              POP      {r2-r4,pc}
;;;593    
                          ENDP

00001e  0000              DCW      0x0000
                  |L5.32|
                          DCD      _cbDialog
                  |L5.36|
                          DCD      ||.constdata||
                  |L5.40|
                          DCD      ||.data||

                          AREA ||i.SET_OP_DOWN||, CODE, READONLY, ALIGN=2

                          REQUIRE _printf_percent
                          REQUIRE _printf_widthprec
                          REQUIRE _printf_f
                          REQUIRE _printf_fp_dec
                  SET_OP_DOWN PROC
;;;599    
;;;600    void SET_OP_DOWN(void) {
000000  e92d4ff0          PUSH     {r4-r11,lr}
000004  ed2d8b02          VPUSH    {d8}
000008  b087              SUB      sp,sp,#0x1c
;;;601    				vu8 i;
;;;602                    char buf[5];
;;;603      
;;;604    
;;;605                    float dis_max_v = (float)set_max_v/1000;
00000a  4cfc              LDR      r4,|L6.1020|
00000c  6ba0              LDR      r0,[r4,#0x38]  ; Run_Control
00000e  ee000a10          VMOV     s0,r0
000012  eeb80a40          VCVT.F32.U32 s0,s0
000016  ed9f8afa          VLDR     s16,|L6.1024|
00001a  eec08a08          VDIV.F32 s17,s0,s16
;;;606                    float dis_min_v = (float)set_min_v/1000;
00001e  4620              MOV      r0,r4
000020  6bc0              LDR      r0,[r0,#0x3c]  ; Run_Control
;;;607                    vu16 dis_max_r = set_max_r;
000022  4620              MOV      r0,r4
000024  6c00              LDR      r0,[r0,#0x40]  ; Run_Control
000026  9003              STR      r0,[sp,#0xc]
;;;608                    vu16 dis_min_r = set_min_r;
000028  4620              MOV      r0,r4
00002a  6c40              LDR      r0,[r0,#0x44]  ; Run_Control
00002c  9002              STR      r0,[sp,#8]
;;;609                    float dis_max_c = (float)set_max_c/1000;
00002e  4620              MOV      r0,r4
000030  6c80              LDR      r0,[r0,#0x48]  ; Run_Control
;;;610                    float dis_min_c = (float)set_min_c/1000;
000032  4620              MOV      r0,r4
000034  6cc0              LDR      r0,[r0,#0x4c]  ; Run_Control
;;;611                    switch(set_sw){
000036  4df3              LDR      r5,|L6.1028|
000038  7829              LDRB     r1,[r5,#0]  ; set_sw
;;;612                        case set_1:
;;;613                        {
;;;614                            WM_HWIN hItem;
;;;615     //                       WM_InvalidateWindow(hWinset);
;;;616                            hItem = WM_GetDialogItem(hWinset, ID_TEXT_21);
00003a  48f3              LDR      r0,|L6.1032|
;;;617                            TEXT_SetBkColor(hItem,GUI_INVALID_COLOR);//ÈÄâÈ°πËÉåÊôØËâ≤ËÆæ‰∏∫ÈÄèÊòé
;;;618                            TEXT_SetTextColor(hItem, GUI_WHITE);
;;;619    
;;;620                            hItem = WM_GetDialogItem(hWinset, ID_TEXT_22);
;;;621                            TEXT_SetBkColor(hItem,0x00BFFFFF);//ÈÄâÈ°πËÉåÊôØËâ≤ËÆæ‰∏∫Á±≥Ëâ≤
;;;622                            TEXT_SetTextColor(hItem, GUI_BLACK);
;;;623                            
;;;624                            set_sw = set_2; 
00003c  2601              MOVS     r6,#1
;;;625                            break;
;;;626                        }                        
;;;627                        case set_2:
;;;628                        {
;;;629                            WM_HWIN hItem;
;;;630    //                        WM_InvalidateWindow(hWinset);
;;;631                            hItem = WM_GetDialogItem(hWinset, ID_TEXT_22);
;;;632                            TEXT_SetBkColor(hItem,GUI_INVALID_COLOR);//ÈÄâÈ°πËÉåÊôØËâ≤ËÆæ‰∏∫ÈÄèÊòé
;;;633                            TEXT_SetTextColor(hItem, GUI_WHITE);
;;;634                   
;;;635                            hItem = WM_GetDialogItem(hWinset, ID_TEXT_23);
;;;636                            TEXT_SetBkColor(hItem,0x00BFFFFF);//ÈÄâÈ°πËÉåÊôØËâ≤ËÆæ‰∏∫Á±≥Ëâ≤
;;;637                            TEXT_SetTextColor(hItem, GUI_BLACK);
;;;638    
;;;639                            set_sw = set_3;
00003e  2702              MOVS     r7,#2
000040  6842              LDR      r2,[r0,#4]            ;611
;;;640                            break;
;;;641                        }
;;;642                        case set_3:
;;;643                        {
;;;644                            WM_HWIN hItem;
;;;645    //                        WM_InvalidateWindow(hWinset);
;;;646                            hItem = WM_GetDialogItem(hWinset, ID_TEXT_23);
;;;647                            TEXT_SetBkColor(hItem,GUI_INVALID_COLOR);//ÈÄâÈ°πËÉåÊôØËâ≤ËÆæ‰∏∫ÈÄèÊòé
;;;648                            TEXT_SetTextColor(hItem, GUI_WHITE);
;;;649                   
;;;650                            hItem = WM_GetDialogItem(hWinset, ID_TEXT_24);
;;;651                            TEXT_SetBkColor(hItem,0x00BFFFFF);//ÈÄâÈ°πËÉåÊôØËâ≤ËÆæ‰∏∫ÔºåÁ±≥Ëâ≤
;;;652                            TEXT_SetTextColor(hItem, GUI_BLACK);
;;;653    
;;;654                            set_sw = set_4;
000042  f04f0803          MOV      r8,#3
;;;655                            break;
;;;656                        }
;;;657                        case set_4:
;;;658                        {
;;;659                            WM_HWIN hItem;
;;;660    //                        WM_InvalidateWindow(hWinset);
;;;661                            hItem = WM_GetDialogItem(hWinset, ID_TEXT_24);
;;;662                            TEXT_SetBkColor(hItem,GUI_INVALID_COLOR);//ÈÄâÈ°πËÉåÊôØËâ≤ËÆæ‰∏∫ÈÄèÊòé
;;;663                            TEXT_SetTextColor(hItem, GUI_WHITE);
;;;664                   
;;;665                            hItem = WM_GetDialogItem(hWinset, ID_TEXT_25);
;;;666                            TEXT_SetBkColor(hItem,0x00BFFFFF);//ÈÄâÈ°πËÉåÊôØËâ≤ËÆæ‰∏∫Á±≥Ëâ≤
;;;667                            TEXT_SetTextColor(hItem, GUI_BLACK);
;;;668    
;;;669                            set_sw = set_5;
000046  f04f0904          MOV      r9,#4
;;;670                            break;
;;;671                        }
;;;672                        case set_5:
;;;673                        {
;;;674                            WM_HWIN hItem;
;;;675    //                        WM_InvalidateWindow(hWinset);
;;;676                            hItem = WM_GetDialogItem(hWinset, ID_TEXT_25);
;;;677                            TEXT_SetBkColor(hItem,GUI_INVALID_COLOR);//ÈÄâÈ°πËÉåÊôØËâ≤ËÆæ‰∏∫ÈÄèÊòé
;;;678                            TEXT_SetTextColor(hItem, GUI_WHITE);
;;;679                   
;;;680                            hItem = WM_GetDialogItem(hWinset, ID_TEXT_26);
;;;681                            TEXT_SetBkColor(hItem,0x00BFFFFF);//ÈÄâÈ°πËÉåÊôØËâ≤ËÆæ‰∏∫Á±≥Ëâ≤
;;;682                            TEXT_SetTextColor(hItem, GUI_BLACK);
;;;683    
;;;684                            set_sw = set_6;
00004a  f04f0a05          MOV      r10,#5
00004e  290f              CMP      r1,#0xf               ;611
000050  d07e              BEQ      |L6.336|
000052  dc0b              BGT      |L6.108|
000054  f6400b2b          MOV      r11,#0x82b            ;616
000058  290c              CMP      r1,#0xc               ;611
00005a  d27a              BCS      |L6.338|
00005c  e8dff001          TBB      [pc,r1]               ;611
000060  8ab2d3fc          DCB      0x8a,0xb2,0xd3,0xfc
000064  faf9f8f7          DCB      0xfa,0xf9,0xf8,0xf7
000068  f6a9a9f5          DCB      0xf6,0xa9,0xa9,0xf5
                  |L6.108|
;;;685                            break;
;;;686                        }
;;;687                        case set_6:
;;;688                        {
;;;689                            WM_HWIN hItem;
;;;690    //                        WM_InvalidateWindow(hWinset);
;;;691                            hItem = WM_GetDialogItem(hWinset, ID_TEXT_26);
;;;692                            TEXT_SetBkColor(hItem,GUI_INVALID_COLOR);//ÈÄâÈ°πËÉåÊôØËâ≤ËÆæ‰∏∫ÈÄèÊòé
;;;693                            TEXT_SetTextColor(hItem, GUI_WHITE);
;;;694                   
;;;695                            hItem = WM_GetDialogItem(hWinset, ID_TEXT_27);
;;;696                            TEXT_SetBkColor(hItem,0x00BFFFFF);//ÈÄâÈ°πËÉåÊôØËâ≤ËÆæ‰∏∫Á±≥Ëâ≤
;;;697                            TEXT_SetTextColor(hItem, GUI_BLACK);
;;;698    
;;;699                            set_sw = set_7;
;;;700                            break;
;;;701                        }
;;;702                        case set_7:
;;;703                        {
;;;704                            WM_HWIN hItem;
;;;705    //                        WM_InvalidateWindow(hWinset);
;;;706                            hItem = WM_GetDialogItem(hWinset, ID_TEXT_27);
;;;707                            TEXT_SetBkColor(hItem,GUI_INVALID_COLOR);//ÈÄâÈ°πËÉåÊôØËâ≤ËÆæ‰∏∫ÈÄèÊòé
;;;708                            TEXT_SetTextColor(hItem, GUI_WHITE);
;;;709                   
;;;710                            hItem = WM_GetDialogItem(hWinset, ID_TEXT_21);
;;;711                            TEXT_SetBkColor(hItem,0x00BFFFFF);//ÈÄâÈ°πËÉåÊôØËâ≤ËÆæ‰∏∫Á±≥Ëâ≤
;;;712                            TEXT_SetTextColor(hItem, GUI_BLACK);
;;;713    
;;;714                            set_sw = set_1;
;;;715                            break;
;;;716                        }
;;;717                        case set_8:
;;;718                        {
;;;719                            WM_HWIN hItem;
;;;720    //                        WM_InvalidateWindow(hWinset);
;;;721                            hItem = WM_GetDialogItem(hWinset, ID_TEXT_31);
;;;722                            TEXT_SetBkColor(hItem,GUI_INVALID_COLOR);//ÈÄâÈ°πËÉåÊôØËâ≤ËÆæ‰∏∫ÈÄèÊòé
;;;723                            TEXT_SetTextColor(hItem, GUI_WHITE);
;;;724                   
;;;725                            hItem = WM_GetDialogItem(hWinset, ID_TEXT_32);
;;;726                            TEXT_SetBkColor(hItem,0x00BFFFFF);//ÈÄâÈ°πËÉåÊôØËâ≤ËÆæ‰∏∫Á±≥Ëâ≤
;;;727                            TEXT_SetTextColor(hItem, GUI_BLACK);
;;;728    
;;;729                            set_sw = set_9;
;;;730                            break;
;;;731                        }
;;;732                        case set_9:
;;;733                        {
;;;734                            WM_HWIN hItem;
;;;735    //                        WM_InvalidateWindow(hWinset);
;;;736                            hItem = WM_GetDialogItem(hWinset, ID_TEXT_32);
;;;737                            TEXT_SetBkColor(hItem,GUI_INVALID_COLOR);//ÈÄâÈ°πËÉåÊôØËâ≤ËÆæ‰∏∫ÈÄèÊòé
;;;738                            TEXT_SetTextColor(hItem, GUI_WHITE);
;;;739                   
;;;740                            hItem = WM_GetDialogItem(hWinset, ID_TEXT_90);
;;;741                            TEXT_SetBkColor(hItem,0x00BFFFFF);//ÈÄâÈ°πËÉåÊôØËâ≤ËÆæ‰∏∫Á±≥Ëâ≤
;;;742                            TEXT_SetTextColor(hItem, GUI_BLACK);
;;;743    
;;;744                            set_sw = set_42;
;;;745                            break;
;;;746                        }
;;;747                        case set_42:
;;;748                        {
;;;749                            WM_HWIN hItem;
;;;750    //                        WM_InvalidateWindow(hWinset);
;;;751                            hItem = WM_GetDialogItem(hWinset, ID_TEXT_90);
;;;752                            TEXT_SetBkColor(hItem,GUI_INVALID_COLOR);//ÈÄâÈ°πËÉåÊôØËâ≤ËÆæ‰∏∫ÈÄèÊòé
;;;753                            TEXT_SetTextColor(hItem, GUI_WHITE);
;;;754                   
;;;755                            hItem = WM_GetDialogItem(hWinset, ID_TEXT_133);
;;;756                            TEXT_SetBkColor(hItem,0x00BFFFFF);//ÈÄâÈ°πËÉåÊôØËâ≤ËÆæ‰∏∫Á±≥Ëâ≤
;;;757                            TEXT_SetTextColor(hItem, GUI_BLACK);
;;;758    
;;;759                            set_sw = set_73;
;;;760                            break;
;;;761                        }
;;;762                        case set_73:
;;;763                        {
;;;764                            WM_HWIN hItem;
;;;765    //                        WM_InvalidateWindow(hWinset);
;;;766                            hItem = WM_GetDialogItem(hWinset, ID_TEXT_133);
;;;767                            TEXT_SetBkColor(hItem,GUI_INVALID_COLOR);//ÈÄâÈ°πËÉåÊôØËâ≤ËÆæ‰∏∫ÈÄèÊòé
;;;768                            TEXT_SetTextColor(hItem, GUI_WHITE);
;;;769                   
;;;770                            hItem = WM_GetDialogItem(hWinset, ID_TEXT_31);
;;;771                            TEXT_SetBkColor(hItem,0x00BFFFFF);//ÈÄâÈ°πËÉåÊôØËâ≤ËÆæ‰∏∫Á±≥Ëâ≤
;;;772                            TEXT_SetTextColor(hItem, GUI_BLACK);
;;;773    
;;;774                            set_sw = set_8;
;;;775                            break;
;;;776                        }
;;;777    					case set_12:
;;;778                        {
;;;779    						WM_HWIN hItem;
;;;780    //                        WM_InvalidateWindow(hWinset);
;;;781                            hItem = WM_GetDialogItem(hWinset, ID_TEXT_35);
;;;782                            TEXT_SetBkColor(hItem,GUI_INVALID_COLOR);//ÈÄâÈ°πËÉåÊôØËâ≤ËÆæ‰∏∫ÈÄèÊòé
;;;783                            TEXT_SetTextColor(hItem, GUI_WHITE);
;;;784    						if(set_max_v > 80000)
;;;785                            {
;;;786                                set_max_v = 80000;
;;;787                                TEXT_SetText(hItem,"80.00");                                                       
;;;788                            }
;;;789                            sprintf(buf,"%.3f",dis_max_v);
;;;790                            TEXT_SetText(hItem,buf);
;;;791                   
;;;792                            hItem = WM_GetDialogItem(hWinset, ID_TEXT_36);
;;;793                            TEXT_SetBkColor(hItem,0x00BFFFFF);//ÈÄâÈ°πËÉåÊôØËâ≤ËÆæ‰∏∫Á±≥Ëâ≤
;;;794                            TEXT_SetTextColor(hItem, GUI_BLACK);
;;;795    						
;;;796    						for(i=0;i<5;i++){
;;;797    							set_limit[i] = '\0';
;;;798    						}
;;;799    						bit = 1;
;;;800                            dot_flag = 0;
;;;801                            set_sw = set_13;
;;;802                            break;
;;;803    					}
;;;804    					case set_82:
;;;805                        {
;;;806    						WM_HWIN hItem;						
;;;807    						hItem = WM_GetDialogItem(hWinset, ID_TEXT_154);
;;;808                            TEXT_SetBkColor(hItem,GUI_INVALID_COLOR);//ÈÄâÈ°πËÉåÊôØËâ≤ËÆæ‰∏∫ÈÄèÊòé
;;;809                            TEXT_SetTextColor(hItem, GUI_WHITE);
;;;810                           
;;;811                            sprintf(buf,"%.3f",(float)set_max_lv/1000);
;;;812                            TEXT_SetText(hItem,buf);
;;;813                   
;;;814                            hItem = WM_GetDialogItem(hWinset, ID_TEXT_155);
;;;815                            TEXT_SetBkColor(hItem,0x00BFFFFF);//ÈÄâÈ°πËÉåÊôØËâ≤ËÆæ‰∏∫Á±≥Ëâ≤
;;;816                            TEXT_SetTextColor(hItem, GUI_BLACK);
;;;817    							
;;;818    						for(i=0;i<5;i++){
;;;819    							set_limit[i] = '\0';
;;;820    						}
;;;821    						bit = 1;
;;;822                            dot_flag = 0;
;;;823                            set_sw = set_83;
;;;824                            break;
;;;825    					}
;;;826    					
;;;827    					case set_16:
;;;828                        {
;;;829    						WM_HWIN hItem;						
;;;830    						hItem = WM_GetDialogItem(hWinset, ID_TEXT_39);
;;;831                            TEXT_SetBkColor(hItem,GUI_INVALID_COLOR);//ÈÄâÈ°πËÉåÊôØËâ≤ËÆæ‰∏∫ÈÄèÊòé
;;;832                            TEXT_SetTextColor(hItem, GUI_WHITE);
;;;833                           
;;;834                            sprintf(buf,"%.3f",(float)set_max_c/1000);
;;;835                            TEXT_SetText(hItem,buf);
;;;836                   
;;;837                            hItem = WM_GetDialogItem(hWinset, ID_TEXT_40);
;;;838                            TEXT_SetBkColor(hItem,0x00BFFFFF);//ÈÄâÈ°πËÉåÊôØËâ≤ËÆæ‰∏∫Á±≥Ëâ≤
;;;839                            TEXT_SetTextColor(hItem, GUI_BLACK);
;;;840    							
;;;841    						for(i=0;i<5;i++){
;;;842    							set_limit[i] = '\0';
;;;843    						}
;;;844    						bit = 1;
;;;845                            dot_flag = 0;
;;;846                            set_sw = set_17;
;;;847                            break;
;;;848    					}
;;;849    					
;;;850    					case set_84:
;;;851                        {
;;;852    						WM_HWIN hItem;						
;;;853    						hItem = WM_GetDialogItem(hWinset, ID_TEXT_156);
;;;854                            TEXT_SetBkColor(hItem,GUI_INVALID_COLOR);//ÈÄâÈ°πËÉåÊôØËâ≤ËÆæ‰∏∫ÈÄèÊòé
;;;855                            TEXT_SetTextColor(hItem, GUI_WHITE);
;;;856                           
;;;857                            sprintf(buf,"%.3f",(float)set_max_pc/1000);
;;;858                            TEXT_SetText(hItem,buf);
;;;859                   
;;;860                            hItem = WM_GetDialogItem(hWinset, ID_TEXT_157);
;;;861                            TEXT_SetBkColor(hItem,0x00BFFFFF);//ÈÄâÈ°πËÉåÊôØËâ≤ËÆæ‰∏∫Á±≥Ëâ≤
;;;862                            TEXT_SetTextColor(hItem, GUI_BLACK);
;;;863    							
;;;864    						for(i=0;i<5;i++){
;;;865    							set_limit[i] = '\0';
;;;866    						}
;;;867    						bit = 1;
;;;868                            dot_flag = 0;
;;;869                            set_sw = set_85;
;;;870                            break;
;;;871    					}
;;;872    					
;;;873                        case set_43:
;;;874                        {
;;;875                            WM_HWIN hItem;
;;;876                            hItem = WM_GetDialogItem(hWinset, ID_TEXT_91);
;;;877                            TEXT_SetBkColor(hItem,GUI_INVALID_COLOR);//ÈÄâÈ°πËÉåÊôØËâ≤ËÆæ‰∏∫ÈÄèÊòé
;;;878                            TEXT_SetTextColor(hItem, GUI_WHITE);
;;;879                            
;;;880                            hItem = WM_GetDialogItem(hWinset, ID_TEXT_92);
;;;881                            TEXT_SetBkColor(hItem,0x00BFFFFF);//ÈÄâÈ°πËÉåÊôØËâ≤ËÆæ‰∏∫Á±≥Ëâ≤
;;;882                            TEXT_SetTextColor(hItem, GUI_BLACK);
;;;883                            
;;;884                            switch(b_type)
00006c  f8dfb39c          LDR      r11,|L6.1036|
;;;885                            {
;;;886                                case Lion:
;;;887                                {
;;;888                                    buffer = NiMH;
000070  4ce7              LDR      r4,|L6.1040|
000072  292d              CMP      r1,#0x2d              ;611
000074  d06e              BEQ      |L6.340|
000076  dc32              BGT      |L6.222|
000078  2929              CMP      r1,#0x29              ;611
00007a  d06c              BEQ      |L6.342|
00007c  f44f6a10          MOV      r10,#0x900            ;880
000080  292a              CMP      r1,#0x2a              ;611
000082  d069              BEQ      |L6.344|
;;;889                                    break;
;;;890                                }
;;;891                                case NiMH:
;;;892                                {
;;;893                                    buffer = Lion;
;;;894                                    break;
;;;895                                }
;;;896                                case NiCd:
;;;897                                {
;;;898                                    buffer = Lion;
;;;899                                    break;
;;;900                                }
;;;901                                case SLA:
;;;902                                {
;;;903                                    buffer = Lion;
;;;904                                    break;
;;;905                                }
;;;906                                case LiMH:
;;;907                                {
;;;908                                    buffer = Lion;
;;;909                                    break;
;;;910                                }
;;;911                            }
;;;912    
;;;913                            set_sw = set_44;
;;;914                            break;
;;;915                        }
;;;916                        case set_44:
;;;917                        {
;;;918                            WM_HWIN hItem;
;;;919                            hItem = WM_GetDialogItem(hWinset, ID_TEXT_92);
;;;920                            TEXT_SetBkColor(hItem,GUI_INVALID_COLOR);//ÈÄâÈ°πËÉåÊôØËâ≤ËÆæ‰∏∫ÈÄèÊòé
;;;921                            TEXT_SetTextColor(hItem, GUI_WHITE);
;;;922                   
;;;923                            hItem = WM_GetDialogItem(hWinset, ID_TEXT_93);
000084  f6401601          MOV      r6,#0x901
000088  292b              CMP      r1,#0x2b              ;611
00008a  d066              BEQ      |L6.346|
00008c  292c              CMP      r1,#0x2c              ;611
00008e  d160              BNE      |L6.338|
;;;924                            TEXT_SetBkColor(hItem,0x00BFFFFF);//ÈÄâÈ°πËÉåÊôØËâ≤ËÆæ‰∏∫Á±≥Ëâ≤
;;;925                            TEXT_SetTextColor(hItem, GUI_BLACK);
;;;926                            
;;;927                            switch(b_type)
;;;928                            {
;;;929                                case Lion:
;;;930                                {
;;;931                                    buffer = NiCd;
;;;932                                    break;
;;;933                                }
;;;934                                case NiMH:
;;;935                                {
;;;936                                    buffer = NiCd;
;;;937                                    break;
;;;938                                }
;;;939                                case NiCd:
;;;940                                {
;;;941                                    buffer = NiMH;
;;;942                                    break;
;;;943                                }
;;;944                                case SLA:
;;;945                                {
;;;946                                    buffer = NiMH;
;;;947                                    break;
;;;948                                }
;;;949                                case LiMH:
;;;950                                {
;;;951                                    buffer = NiMH;
;;;952                                    break;
;;;953                                }
;;;954                            }
;;;955    
;;;956                            set_sw = set_45;
;;;957                            break;
;;;958                        }
;;;959                        case set_45:
;;;960                        {
;;;961                            WM_HWIN hItem;
;;;962                            hItem = WM_GetDialogItem(hWinset, ID_TEXT_93);
000090  4631              MOV      r1,r6
000092  4606              MOV      r6,r0
000094  4610              MOV      r0,r2
000096  f7fffffe          BL       WM_GetDialogItem
00009a  4607              MOV      r7,r0
;;;963                            TEXT_SetBkColor(hItem,GUI_INVALID_COLOR);//ÈÄâÈ°πËÉåÊôØËâ≤ËÆæ‰∏∫ÈÄèÊòé
00009c  f06f4170          MVN      r1,#0xf0000000
0000a0  4638              MOV      r0,r7
0000a2  f7fffffe          BL       TEXT_SetBkColor
;;;964                            TEXT_SetTextColor(hItem, GUI_WHITE);
0000a6  f06f417f          MVN      r1,#0xff000000
0000aa  4638              MOV      r0,r7
0000ac  f7fffffe          BL       TEXT_SetTextColor
;;;965                   
;;;966                            hItem = WM_GetDialogItem(hWinset, ID_TEXT_94);
0000b0  f6401102          MOV      r1,#0x902
0000b4  6870              LDR      r0,[r6,#4]  ; hWinset
0000b6  f7fffffe          BL       WM_GetDialogItem
0000ba  4606              MOV      r6,r0
;;;967                            TEXT_SetBkColor(hItem,0x00BFFFFF);//ÈÄâÈ°πËÉåÊôØËâ≤ËÆæ‰∏∫Á±≥Ëâ≤
0000bc  49d5              LDR      r1,|L6.1044|
0000be  4630              MOV      r0,r6
0000c0  f7fffffe          BL       TEXT_SetBkColor
;;;968                            TEXT_SetTextColor(hItem, GUI_BLACK);
0000c4  2100              MOVS     r1,#0
0000c6  4630              MOV      r0,r6
0000c8  f7fffffe          BL       TEXT_SetTextColor
;;;969                            
;;;970                            switch(b_type)
0000cc  f89b0000          LDRB     r0,[r11,#0]  ; b_type
0000d0  2806              CMP      r0,#6
0000d2  d273              BCS      |L6.444|
0000d4  e8dff000          TBB      [pc,r0]
0000d8  72fefdfc          DCB      0x72,0xfe,0xfd,0xfc
0000dc  fbfa              DCB      0xfb,0xfa
                  |L6.222|
0000de  292e              CMP      r1,#0x2e              ;611
0000e0  d06d              BEQ      |L6.446|
0000e2  2948              CMP      r1,#0x48              ;611
0000e4  d06c              BEQ      |L6.448|
0000e6  4fcc              LDR      r7,|L6.1048|
0000e8  2951              CMP      r1,#0x51              ;611
0000ea  d06a              BEQ      |L6.450|
0000ec  2953              CMP      r1,#0x53              ;611
0000ee  d160              BNE      |L6.434|
0000f0  4604              MOV      r4,r0                 ;853
0000f2  f6401137          MOV      r1,#0x937             ;853
0000f6  4610              MOV      r0,r2                 ;853
0000f8  f7fffffe          BL       WM_GetDialogItem
0000fc  4680              MOV      r8,r0                 ;853
0000fe  f06f4170          MVN      r1,#0xf0000000        ;854
000102  4640              MOV      r0,r8                 ;854
000104  f7fffffe          BL       TEXT_SetBkColor
000108  f06f417f          MVN      r1,#0xff000000        ;855
00010c  4640              MOV      r0,r8                 ;855
00010e  f7fffffe          BL       TEXT_SetTextColor
000112  f9b70004          LDRSH    r0,[r7,#4]            ;857  ; InFlashSave
000116  ee000a10          VMOV     s0,r0                 ;857
00011a  eef80ac0          VCVT.F32.S32 s1,s0                 ;857
00011e  ee800a88          VDIV.F32 s0,s1,s16             ;857
000122  ee100a10          VMOV     r0,s0                 ;857
000126  f7fffffe          BL       __aeabi_f2d
00012a  ec410b10          VMOV     d0,r0,r1              ;857
00012e  a1bb              ADR      r1,|L6.1052|
000130  ec532b10          VMOV     r2,r3,d0              ;857
000134  a804              ADD      r0,sp,#0x10           ;857
000136  f7fffffe          BL       __2sprintf
00013a  a904              ADD      r1,sp,#0x10           ;858
00013c  4640              MOV      r0,r8                 ;858
00013e  f7fffffe          BL       TEXT_SetText
000142  f6401138          MOV      r1,#0x938             ;860
000146  6860              LDR      r0,[r4,#4]            ;860  ; hWinset
000148  f7fffffe          BL       WM_GetDialogItem
00014c  4604              MOV      r4,r0                 ;860
00014e  e005              B        |L6.348|
                  |L6.336|
000150  e24b              B        |L6.1514|
                  |L6.338|
000152  e02e              B        |L6.434|
                  |L6.340|
000154  e322              B        |L6.1948|
                  |L6.342|
000156  e167              B        |L6.1064|
                  |L6.344|
000158  e2a6              B        |L6.1704|
                  |L6.346|
00015a  e2d9              B        |L6.1808|
                  |L6.348|
00015c  49ad              LDR      r1,|L6.1044|
00015e  4620              MOV      r0,r4                 ;861
000160  f7fffffe          BL       TEXT_SetBkColor
000164  2100              MOVS     r1,#0                 ;862
000166  4620              MOV      r0,r4                 ;862
000168  f7fffffe          BL       TEXT_SetTextColor
00016c  2000              MOVS     r0,#0                 ;864
00016e  9006              STR      r0,[sp,#0x18]         ;864
000170  4aac              LDR      r2,|L6.1060|
000172  e28e              B        |L6.1682|
000174  4604              MOV      r4,r0                 ;616
000176  4659              MOV      r1,r11                ;616
000178  4610              MOV      r0,r2                 ;616
00017a  f7fffffe          BL       WM_GetDialogItem
00017e  4607              MOV      r7,r0                 ;616
000180  f06f4170          MVN      r1,#0xf0000000        ;617
000184  4638              MOV      r0,r7                 ;617
000186  f7fffffe          BL       TEXT_SetBkColor
00018a  f06f417f          MVN      r1,#0xff000000        ;618
00018e  4638              MOV      r0,r7                 ;618
000190  f7fffffe          BL       TEXT_SetTextColor
000194  f640012c          MOV      r1,#0x82c             ;620
000198  6860              LDR      r0,[r4,#4]            ;620  ; hWinset
00019a  f7fffffe          BL       WM_GetDialogItem
00019e  4604              MOV      r4,r0                 ;620
0001a0  499c              LDR      r1,|L6.1044|
0001a2  4620              MOV      r0,r4                 ;621
0001a4  f7fffffe          BL       TEXT_SetBkColor
0001a8  2100              MOVS     r1,#0                 ;622
0001aa  4620              MOV      r0,r4                 ;622
0001ac  f7fffffe          BL       TEXT_SetTextColor
0001b0  702e              STRB     r6,[r5,#0]            ;624
                  |L6.434|
;;;971                            {
;;;972                                case Lion:
;;;973                                {
;;;974                                    buffer = SLA;
;;;975                                    break;
;;;976                                }
;;;977                                case NiMH:
;;;978                                {
;;;979                                    buffer = SLA;
;;;980                                    break;
;;;981                                }
;;;982                                case NiCd:
;;;983                                {
;;;984                                    buffer = SLA;
;;;985                                    break;
;;;986                                }
;;;987                                case SLA:
;;;988                                {
;;;989                                    buffer = NiCd;
;;;990                                    break;
;;;991                                }
;;;992                                case LiMH:
;;;993                                {
;;;994                                    buffer = NiCd;
;;;995                                    break;
;;;996                                }
;;;997                            }
;;;998    
;;;999                            set_sw = set_46;
;;;1000                           break;
;;;1001                       }
;;;1002                       case set_46:
;;;1003                       {
;;;1004                           WM_HWIN hItem;
;;;1005                           hItem = WM_GetDialogItem(hWinset, ID_TEXT_94);
;;;1006                           TEXT_SetBkColor(hItem,GUI_INVALID_COLOR);//ÈÄâÈ°πËÉåÊôØËâ≤ËÆæ‰∏∫ÈÄèÊòé
;;;1007                           TEXT_SetTextColor(hItem, GUI_WHITE);
;;;1008                  
;;;1009                           hItem = WM_GetDialogItem(hWinset, ID_TEXT_95);
;;;1010                           TEXT_SetBkColor(hItem,0x00BFFFFF);//ÈÄâÈ°πËÉåÊôØËâ≤ËÆæ‰∏∫Á±≥Ëâ≤
;;;1011                           TEXT_SetTextColor(hItem, GUI_BLACK);
;;;1012                           
;;;1013                           switch(b_type)
;;;1014                           {
;;;1015                               case Lion:
;;;1016                               {
;;;1017                                   buffer = LiMH;
;;;1018                                   break;
;;;1019                               }
;;;1020                               case NiMH:
;;;1021                               {
;;;1022                                   buffer = LiMH;
;;;1023                                   break;
;;;1024                               }
;;;1025                               case NiCd:
;;;1026                               {
;;;1027                                   buffer = LiMH;
;;;1028                                   break;
;;;1029                               }
;;;1030                               case SLA:
;;;1031                               {
;;;1032                                   buffer = LiMH;
;;;1033                                   break;
;;;1034                               }
;;;1035                               case LiMH:
;;;1036                               {
;;;1037                                   buffer = SLA;
;;;1038                                   break;
;;;1039                               }
;;;1040                           }
;;;1041   
;;;1042                           set_sw = set_47;
;;;1043                           break;
;;;1044                       }
;;;1045                       case set_47:
;;;1046                       {
;;;1047                           WM_HWIN hItem;
;;;1048                           hItem = WM_GetDialogItem(hWinset, ID_TEXT_95);
;;;1049                           TEXT_SetBkColor(hItem,GUI_INVALID_COLOR);//ÈÄâÈ°πËÉåÊôØËâ≤ËÆæ‰∏∫ÈÄèÊòé
;;;1050                           TEXT_SetTextColor(hItem, GUI_WHITE);
;;;1051                           
;;;1052                           hItem = WM_GetDialogItem(hWinset, ID_TEXT_91);
;;;1053                           TEXT_SetBkColor(hItem,0x00BFFFFF);//ÈÄâÈ°πËÉåÊôØËâ≤ËÆæ‰∏∫Á±≥Ëâ≤
;;;1054                           TEXT_SetTextColor(hItem, GUI_BLACK);
;;;1055                           
;;;1056                           switch(b_type)
;;;1057                           {
;;;1058                               case Lion:
;;;1059                               {
;;;1060                                   buffer = Lion;
;;;1061                                   break;
;;;1062                               }
;;;1063                               case NiMH:
;;;1064                               {
;;;1065                                   buffer = NiMH;
;;;1066                                   break;
;;;1067                               }
;;;1068                               case NiCd:
;;;1069                               {
;;;1070                                   buffer = NiCd;
;;;1071                                   break;
;;;1072                               }
;;;1073                               case SLA:
;;;1074                               {
;;;1075                                   buffer = SLA;
;;;1076                                   break;
;;;1077                               }
;;;1078                               case LiMH:
;;;1079                               {
;;;1080                                   buffer = LiMH;
;;;1081                                   break;
;;;1082                               }
;;;1083                           }
;;;1084   
;;;1085                           set_sw = set_43;
;;;1086                           break;
;;;1087                       }
;;;1088                       default: break;
;;;1089                    }
;;;1090   //                return set_sw;
;;;1091   //                return b_type;
;;;1092   }
0001b2  b007              ADD      sp,sp,#0x1c
0001b4  ecbd8b02          VPOP     {d8}
0001b8  e8bd8ff0          POP      {r4-r11,pc}
                  |L6.444|
0001bc  e2df              B        |L6.1918|
                  |L6.446|
0001be  e326              B        |L6.2062|
                  |L6.448|
0001c0  e154              B        |L6.1132|
                  |L6.450|
0001c2  e1c4              B        |L6.1358|
0001c4  4604              MOV      r4,r0                 ;631
0001c6  f640012c          MOV      r1,#0x82c             ;631
0001ca  4610              MOV      r0,r2                 ;631
0001cc  f7fffffe          BL       WM_GetDialogItem
0001d0  4606              MOV      r6,r0                 ;631
0001d2  f06f4170          MVN      r1,#0xf0000000        ;632
0001d6  4630              MOV      r0,r6                 ;632
0001d8  f7fffffe          BL       TEXT_SetBkColor
0001dc  f06f417f          MVN      r1,#0xff000000        ;633
0001e0  4630              MOV      r0,r6                 ;633
0001e2  f7fffffe          BL       TEXT_SetTextColor
0001e6  f640012d          MOV      r1,#0x82d             ;635
0001ea  6860              LDR      r0,[r4,#4]            ;635  ; hWinset
0001ec  f7fffffe          BL       WM_GetDialogItem
0001f0  4604              MOV      r4,r0                 ;635
0001f2  4988              LDR      r1,|L6.1044|
0001f4  4620              MOV      r0,r4                 ;636
0001f6  f7fffffe          BL       TEXT_SetBkColor
0001fa  2100              MOVS     r1,#0                 ;637
0001fc  4620              MOV      r0,r4                 ;637
0001fe  f7fffffe          BL       TEXT_SetTextColor
000202  702f              STRB     r7,[r5,#0]            ;639
000204  e7d5              B        |L6.434|
000206  4604              MOV      r4,r0                 ;646
000208  f640012d          MOV      r1,#0x82d             ;646
00020c  4610              MOV      r0,r2                 ;646
00020e  f7fffffe          BL       WM_GetDialogItem
000212  4606              MOV      r6,r0                 ;646
000214  f06f4170          MVN      r1,#0xf0000000        ;647
000218  4630              MOV      r0,r6                 ;647
00021a  f7fffffe          BL       TEXT_SetBkColor
00021e  f06f417f          MVN      r1,#0xff000000        ;648
000222  4630              MOV      r0,r6                 ;648
000224  f7fffffe          BL       TEXT_SetTextColor
000228  f640012e          MOV      r1,#0x82e             ;650
00022c  6860              LDR      r0,[r4,#4]            ;650  ; hWinset
00022e  f7fffffe          BL       WM_GetDialogItem
000232  4604              MOV      r4,r0                 ;650
000234  4977              LDR      r1,|L6.1044|
000236  4620              MOV      r0,r4                 ;651
000238  f7fffffe          BL       TEXT_SetBkColor
00023c  2100              MOVS     r1,#0                 ;652
00023e  4620              MOV      r0,r4                 ;652
000240  f7fffffe          BL       TEXT_SetTextColor
000244  f8858000          STRB     r8,[r5,#0]            ;654
000248  e7b3              B        |L6.434|
00024a  e131              B        |L6.1200|
00024c  e0b3              B        |L6.950|
00024e  e090              B        |L6.882|
000250  e06e              B        |L6.816|
000252  e04b              B        |L6.748|
000254  e022              B        |L6.668|
000256  e7ff              B        |L6.600|
                  |L6.600|
000258  4604              MOV      r4,r0                 ;661
00025a  f640012e          MOV      r1,#0x82e             ;661
00025e  4610              MOV      r0,r2                 ;661
000260  f7fffffe          BL       WM_GetDialogItem
000264  4606              MOV      r6,r0                 ;661
000266  f06f4170          MVN      r1,#0xf0000000        ;662
00026a  4630              MOV      r0,r6                 ;662
00026c  f7fffffe          BL       TEXT_SetBkColor
000270  f06f417f          MVN      r1,#0xff000000        ;663
000274  4630              MOV      r0,r6                 ;663
000276  f7fffffe          BL       TEXT_SetTextColor
00027a  f640012f          MOV      r1,#0x82f             ;665
00027e  6860              LDR      r0,[r4,#4]            ;665  ; hWinset
000280  f7fffffe          BL       WM_GetDialogItem
000284  4604              MOV      r4,r0                 ;665
000286  4963              LDR      r1,|L6.1044|
000288  4620              MOV      r0,r4                 ;666
00028a  f7fffffe          BL       TEXT_SetBkColor
00028e  2100              MOVS     r1,#0                 ;667
000290  4620              MOV      r0,r4                 ;667
000292  f7fffffe          BL       TEXT_SetTextColor
000296  f8859000          STRB     r9,[r5,#0]            ;669
00029a  e78a              B        |L6.434|
                  |L6.668|
00029c  4604              MOV      r4,r0                 ;676
00029e  f640012f          MOV      r1,#0x82f             ;676
0002a2  4610              MOV      r0,r2                 ;676
0002a4  f7fffffe          BL       WM_GetDialogItem
0002a8  4606              MOV      r6,r0                 ;676
0002aa  f06f4170          MVN      r1,#0xf0000000        ;677
0002ae  4630              MOV      r0,r6                 ;677
0002b0  f7fffffe          BL       TEXT_SetBkColor
0002b4  f06f417f          MVN      r1,#0xff000000        ;678
0002b8  4630              MOV      r0,r6                 ;678
0002ba  f7fffffe          BL       TEXT_SetTextColor
0002be  f44f6103          MOV      r1,#0x830             ;680
0002c2  6860              LDR      r0,[r4,#4]            ;680  ; hWinset
0002c4  f7fffffe          BL       WM_GetDialogItem
0002c8  4604              MOV      r4,r0                 ;680
0002ca  e004              B        |L6.726|
0002cc  e261              B        |L6.1938|
0002ce  e25d              B        |L6.1932|
0002d0  e259              B        |L6.1926|
0002d2  e255              B        |L6.1920|
0002d4  e251              B        |L6.1914|
                  |L6.726|
0002d6  494f              LDR      r1,|L6.1044|
0002d8  4620              MOV      r0,r4                 ;681
0002da  f7fffffe          BL       TEXT_SetBkColor
0002de  2100              MOVS     r1,#0                 ;682
0002e0  4620              MOV      r0,r4                 ;682
0002e2  f7fffffe          BL       TEXT_SetTextColor
0002e6  f885a000          STRB     r10,[r5,#0]           ;684
0002ea  e762              B        |L6.434|
                  |L6.748|
0002ec  4604              MOV      r4,r0                 ;691
0002ee  f44f6103          MOV      r1,#0x830             ;691
0002f2  4610              MOV      r0,r2                 ;691
0002f4  f7fffffe          BL       WM_GetDialogItem
0002f8  4606              MOV      r6,r0                 ;691
0002fa  f06f4170          MVN      r1,#0xf0000000        ;692
0002fe  4630              MOV      r0,r6                 ;692
000300  f7fffffe          BL       TEXT_SetBkColor
000304  f06f417f          MVN      r1,#0xff000000        ;693
000308  4630              MOV      r0,r6                 ;693
00030a  f7fffffe          BL       TEXT_SetTextColor
00030e  f6400131          MOV      r1,#0x831             ;695
000312  6860              LDR      r0,[r4,#4]            ;695  ; hWinset
000314  f7fffffe          BL       WM_GetDialogItem
000318  4604              MOV      r4,r0                 ;695
00031a  493e              LDR      r1,|L6.1044|
00031c  4620              MOV      r0,r4                 ;696
00031e  f7fffffe          BL       TEXT_SetBkColor
000322  2100              MOVS     r1,#0                 ;697
000324  4620              MOV      r0,r4                 ;697
000326  f7fffffe          BL       TEXT_SetTextColor
00032a  2006              MOVS     r0,#6                 ;699
00032c  7028              STRB     r0,[r5,#0]            ;699
00032e  e740              B        |L6.434|
                  |L6.816|
000330  4604              MOV      r4,r0                 ;706
000332  f6400131          MOV      r1,#0x831             ;706
000336  4610              MOV      r0,r2                 ;706
000338  f7fffffe          BL       WM_GetDialogItem
00033c  4606              MOV      r6,r0                 ;706
00033e  f06f4170          MVN      r1,#0xf0000000        ;707
000342  4630              MOV      r0,r6                 ;707
000344  f7fffffe          BL       TEXT_SetBkColor
000348  f06f417f          MVN      r1,#0xff000000        ;708
00034c  4630              MOV      r0,r6                 ;708
00034e  f7fffffe          BL       TEXT_SetTextColor
000352  4659              MOV      r1,r11                ;710
000354  6860              LDR      r0,[r4,#4]            ;710  ; hWinset
000356  f7fffffe          BL       WM_GetDialogItem
00035a  4604              MOV      r4,r0                 ;710
00035c  492d              LDR      r1,|L6.1044|
00035e  4620              MOV      r0,r4                 ;711
000360  f7fffffe          BL       TEXT_SetBkColor
000364  2100              MOVS     r1,#0                 ;712
000366  4620              MOV      r0,r4                 ;712
000368  f7fffffe          BL       TEXT_SetTextColor
00036c  2000              MOVS     r0,#0                 ;714
00036e  7028              STRB     r0,[r5,#0]            ;714
000370  e71f              B        |L6.434|
                  |L6.882|
000372  4604              MOV      r4,r0                 ;721
000374  f640013b          MOV      r1,#0x83b             ;721
000378  4610              MOV      r0,r2                 ;721
00037a  f7fffffe          BL       WM_GetDialogItem
00037e  4606              MOV      r6,r0                 ;721
000380  f06f4170          MVN      r1,#0xf0000000        ;722
000384  4630              MOV      r0,r6                 ;722
000386  f7fffffe          BL       TEXT_SetBkColor
00038a  f06f417f          MVN      r1,#0xff000000        ;723
00038e  4630              MOV      r0,r6                 ;723
000390  f7fffffe          BL       TEXT_SetTextColor
000394  f640013c          MOV      r1,#0x83c             ;725
000398  6860              LDR      r0,[r4,#4]            ;725  ; hWinset
00039a  f7fffffe          BL       WM_GetDialogItem
00039e  4604              MOV      r4,r0                 ;725
0003a0  491c              LDR      r1,|L6.1044|
0003a2  4620              MOV      r0,r4                 ;726
0003a4  f7fffffe          BL       TEXT_SetBkColor
0003a8  2100              MOVS     r1,#0                 ;727
0003aa  4620              MOV      r0,r4                 ;727
0003ac  f7fffffe          BL       TEXT_SetTextColor
0003b0  2008              MOVS     r0,#8                 ;729
0003b2  7028              STRB     r0,[r5,#0]            ;729
0003b4  e6fd              B        |L6.434|
                  |L6.950|
0003b6  4604              MOV      r4,r0                 ;736
0003b8  f640013c          MOV      r1,#0x83c             ;736
0003bc  4610              MOV      r0,r2                 ;736
0003be  f7fffffe          BL       WM_GetDialogItem
0003c2  4606              MOV      r6,r0                 ;736
0003c4  f06f4170          MVN      r1,#0xf0000000        ;737
0003c8  4630              MOV      r0,r6                 ;737
0003ca  f7fffffe          BL       TEXT_SetBkColor
0003ce  f06f417f          MVN      r1,#0xff000000        ;738
0003d2  4630              MOV      r0,r6                 ;738
0003d4  f7fffffe          BL       TEXT_SetTextColor
0003d8  f640019e          MOV      r1,#0x89e             ;740
0003dc  6860              LDR      r0,[r4,#4]            ;740  ; hWinset
0003de  f7fffffe          BL       WM_GetDialogItem
0003e2  4604              MOV      r4,r0                 ;740
0003e4  490b              LDR      r1,|L6.1044|
0003e6  4620              MOV      r0,r4                 ;741
0003e8  f7fffffe          BL       TEXT_SetBkColor
0003ec  2100              MOVS     r1,#0                 ;742
0003ee  4620              MOV      r0,r4                 ;742
0003f0  f7fffffe          BL       TEXT_SetTextColor
0003f4  2029              MOVS     r0,#0x29              ;744
0003f6  7028              STRB     r0,[r5,#0]            ;744
0003f8  e6db              B        |L6.434|
0003fa  0000              DCW      0x0000
                  |L6.1020|
                          DCD      Run_Control
                  |L6.1024|
000400  447a0000          DCFS     0x447a0000 ; 1000
                  |L6.1028|
                          DCD      set_sw
                  |L6.1032|
                          DCD      ||.data||
                  |L6.1036|
                          DCD      b_type
                  |L6.1040|
                          DCD      buffer
                  |L6.1044|
                          DCD      0x00bfffff
                  |L6.1048|
                          DCD      ||.bss||
                  |L6.1052|
00041c  252e3366          DCB      "%.3f",0
000420  00      
000421  00                DCB      0
000422  00                DCB      0
000423  00                DCB      0
                  |L6.1060|
                          DCD      set_limit
                  |L6.1064|
000428  4604              MOV      r4,r0                 ;751
00042a  f640019e          MOV      r1,#0x89e             ;751
00042e  4610              MOV      r0,r2                 ;751
000430  f7fffffe          BL       WM_GetDialogItem
000434  4606              MOV      r6,r0                 ;751
000436  f06f4170          MVN      r1,#0xf0000000        ;752
00043a  4630              MOV      r0,r6                 ;752
00043c  f7fffffe          BL       TEXT_SetBkColor
000440  f06f417f          MVN      r1,#0xff000000        ;753
000444  4630              MOV      r0,r6                 ;753
000446  f7fffffe          BL       TEXT_SetTextColor
00044a  f6401122          MOV      r1,#0x922             ;755
00044e  6860              LDR      r0,[r4,#4]            ;755  ; hWinset
000450  f7fffffe          BL       WM_GetDialogItem
000454  4604              MOV      r4,r0                 ;755
000456  49fe              LDR      r1,|L6.2128|
000458  4620              MOV      r0,r4                 ;756
00045a  f7fffffe          BL       TEXT_SetBkColor
00045e  2100              MOVS     r1,#0                 ;757
000460  4620              MOV      r0,r4                 ;757
000462  f7fffffe          BL       TEXT_SetTextColor
000466  2048              MOVS     r0,#0x48              ;759
000468  7028              STRB     r0,[r5,#0]            ;759
00046a  e6a2              B        |L6.434|
                  |L6.1132|
00046c  4604              MOV      r4,r0                 ;766
00046e  f6401122          MOV      r1,#0x922             ;766
000472  4610              MOV      r0,r2                 ;766
000474  f7fffffe          BL       WM_GetDialogItem
000478  4606              MOV      r6,r0                 ;766
00047a  f06f4170          MVN      r1,#0xf0000000        ;767
00047e  4630              MOV      r0,r6                 ;767
000480  f7fffffe          BL       TEXT_SetBkColor
000484  f06f417f          MVN      r1,#0xff000000        ;768
000488  4630              MOV      r0,r6                 ;768
00048a  f7fffffe          BL       TEXT_SetTextColor
00048e  f640013b          MOV      r1,#0x83b             ;770
000492  6860              LDR      r0,[r4,#4]            ;770  ; hWinset
000494  f7fffffe          BL       WM_GetDialogItem
000498  4604              MOV      r4,r0                 ;770
00049a  49ed              LDR      r1,|L6.2128|
00049c  4620              MOV      r0,r4                 ;771
00049e  f7fffffe          BL       TEXT_SetBkColor
0004a2  2100              MOVS     r1,#0                 ;772
0004a4  4620              MOV      r0,r4                 ;772
0004a6  f7fffffe          BL       TEXT_SetTextColor
0004aa  2007              MOVS     r0,#7                 ;774
0004ac  7028              STRB     r0,[r5,#0]            ;774
0004ae  e680              B        |L6.434|
                  |L6.1200|
0004b0  4607              MOV      r7,r0                 ;781
0004b2  f44f6106          MOV      r1,#0x860             ;781
0004b6  4610              MOV      r0,r2                 ;781
0004b8  f7fffffe          BL       WM_GetDialogItem
0004bc  4680              MOV      r8,r0                 ;781
0004be  f06f4170          MVN      r1,#0xf0000000        ;782
0004c2  4640              MOV      r0,r8                 ;782
0004c4  f7fffffe          BL       TEXT_SetBkColor
0004c8  f06f417f          MVN      r1,#0xff000000        ;783
0004cc  4640              MOV      r0,r8                 ;783
0004ce  f7fffffe          BL       TEXT_SetTextColor
0004d2  6ba1              LDR      r1,[r4,#0x38]         ;784  ; Run_Control
0004d4  48df              LDR      r0,|L6.2132|
0004d6  4281              CMP      r1,r0                 ;784
0004d8  d904              BLS      |L6.1252|
0004da  63a0              STR      r0,[r4,#0x38]         ;786  ; Run_Control
0004dc  a1de              ADR      r1,|L6.2136|
0004de  4640              MOV      r0,r8                 ;787
0004e0  f7fffffe          BL       TEXT_SetText
                  |L6.1252|
0004e4  ee180a90          VMOV     r0,s17                ;789
0004e8  f7fffffe          BL       __aeabi_f2d
0004ec  ec410b10          VMOV     d0,r0,r1              ;789
0004f0  ec532b10          VMOV     r2,r3,d0              ;789
0004f4  f2af01dc          ADR      r1,|L6.1052|
0004f8  a804              ADD      r0,sp,#0x10           ;789
0004fa  f7fffffe          BL       __2sprintf
0004fe  a904              ADD      r1,sp,#0x10           ;790
000500  4640              MOV      r0,r8                 ;790
000502  f7fffffe          BL       TEXT_SetText
000506  f6400161          MOV      r1,#0x861             ;792
00050a  6878              LDR      r0,[r7,#4]            ;792  ; hWinset
00050c  f7fffffe          BL       WM_GetDialogItem
000510  4604              MOV      r4,r0                 ;792
000512  49cf              LDR      r1,|L6.2128|
000514  4620              MOV      r0,r4                 ;793
000516  f7fffffe          BL       TEXT_SetBkColor
00051a  2100              MOVS     r1,#0                 ;794
00051c  4620              MOV      r0,r4                 ;794
00051e  f7fffffe          BL       TEXT_SetTextColor
000522  2000              MOVS     r0,#0                 ;796
000524  9006              STR      r0,[sp,#0x18]         ;796
000526  4ace              LDR      r2,|L6.2144|
000528  e006              B        |L6.1336|
                  |L6.1322|
00052a  f89d1018          LDRB     r1,[sp,#0x18]         ;797
00052e  5450              STRB     r0,[r2,r1]            ;797
000530  f89d1018          LDRB     r1,[sp,#0x18]         ;796
000534  1c49              ADDS     r1,r1,#1              ;796
000536  9106              STR      r1,[sp,#0x18]         ;796
                  |L6.1336|
000538  f89d1018          LDRB     r1,[sp,#0x18]         ;796
00053c  2905              CMP      r1,#5                 ;796
00053e  d3f4              BCC      |L6.1322|
000540  49c8              LDR      r1,|L6.2148|
000542  700e              STRB     r6,[r1,#0]            ;799
000544  49c8              LDR      r1,|L6.2152|
000546  7008              STRB     r0,[r1,#0]            ;800
000548  200c              MOVS     r0,#0xc               ;801
00054a  7028              STRB     r0,[r5,#0]            ;801
00054c  e631              B        |L6.434|
                  |L6.1358|
00054e  4604              MOV      r4,r0                 ;807
000550  f6401135          MOV      r1,#0x935             ;807
000554  4610              MOV      r0,r2                 ;807
000556  f7fffffe          BL       WM_GetDialogItem
00055a  4680              MOV      r8,r0                 ;807
00055c  f06f4170          MVN      r1,#0xf0000000        ;808
000560  4640              MOV      r0,r8                 ;808
000562  f7fffffe          BL       TEXT_SetBkColor
000566  f06f417f          MVN      r1,#0xff000000        ;809
00056a  4640              MOV      r0,r8                 ;809
00056c  f7fffffe          BL       TEXT_SetTextColor
000570  f9b70000          LDRSH    r0,[r7,#0]            ;811  ; InFlashSave
000574  ee000a10          VMOV     s0,r0                 ;811
000578  eef80ac0          VCVT.F32.S32 s1,s0                 ;811
00057c  ee800a88          VDIV.F32 s0,s1,s16             ;811
000580  ee100a10          VMOV     r0,s0                 ;811
000584  f7fffffe          BL       __aeabi_f2d
000588  ec410b10          VMOV     d0,r0,r1              ;811
00058c  ec532b10          VMOV     r2,r3,d0              ;811
000590  f2af1178          ADR      r1,|L6.1052|
000594  a804              ADD      r0,sp,#0x10           ;811
000596  f7fffffe          BL       __2sprintf
00059a  a904              ADD      r1,sp,#0x10           ;812
00059c  4640              MOV      r0,r8                 ;812
00059e  f7fffffe          BL       TEXT_SetText
0005a2  f6401136          MOV      r1,#0x936             ;814
0005a6  6860              LDR      r0,[r4,#4]            ;814  ; hWinset
0005a8  f7fffffe          BL       WM_GetDialogItem
0005ac  4604              MOV      r4,r0                 ;814
0005ae  49a8              LDR      r1,|L6.2128|
0005b0  4620              MOV      r0,r4                 ;815
0005b2  f7fffffe          BL       TEXT_SetBkColor
0005b6  2100              MOVS     r1,#0                 ;816
0005b8  4620              MOV      r0,r4                 ;816
0005ba  f7fffffe          BL       TEXT_SetTextColor
0005be  2000              MOVS     r0,#0                 ;818
0005c0  9006              STR      r0,[sp,#0x18]         ;818
0005c2  4aa7              LDR      r2,|L6.2144|
0005c4  e006              B        |L6.1492|
                  |L6.1478|
0005c6  f89d1018          LDRB     r1,[sp,#0x18]         ;819
0005ca  5450              STRB     r0,[r2,r1]            ;819
0005cc  f89d1018          LDRB     r1,[sp,#0x18]         ;818
0005d0  1c49              ADDS     r1,r1,#1              ;818
0005d2  9106              STR      r1,[sp,#0x18]         ;818
                  |L6.1492|
0005d4  f89d1018          LDRB     r1,[sp,#0x18]         ;818
0005d8  2905              CMP      r1,#5                 ;818
0005da  d3f4              BCC      |L6.1478|
0005dc  49a1              LDR      r1,|L6.2148|
0005de  700e              STRB     r6,[r1,#0]            ;821
0005e0  49a1              LDR      r1,|L6.2152|
0005e2  7008              STRB     r0,[r1,#0]            ;822
0005e4  2052              MOVS     r0,#0x52              ;823
0005e6  7028              STRB     r0,[r5,#0]            ;823
0005e8  e5e3              B        |L6.434|
                  |L6.1514|
0005ea  4607              MOV      r7,r0                 ;830
0005ec  f6400164          MOV      r1,#0x864             ;830
0005f0  4610              MOV      r0,r2                 ;830
0005f2  f7fffffe          BL       WM_GetDialogItem
0005f6  4680              MOV      r8,r0                 ;830
0005f8  f06f4170          MVN      r1,#0xf0000000        ;831
0005fc  4640              MOV      r0,r8                 ;831
0005fe  f7fffffe          BL       TEXT_SetBkColor
000602  f06f417f          MVN      r1,#0xff000000        ;832
000606  4640              MOV      r0,r8                 ;832
000608  f7fffffe          BL       TEXT_SetTextColor
00060c  6ca0              LDR      r0,[r4,#0x48]         ;834  ; Run_Control
00060e  ee000a10          VMOV     s0,r0                 ;834
000612  eef80a40          VCVT.F32.U32 s1,s0                 ;834
000616  ee800a88          VDIV.F32 s0,s1,s16             ;834
00061a  ee100a10          VMOV     r0,s0                 ;834
00061e  f7fffffe          BL       __aeabi_f2d
000622  ec410b10          VMOV     d0,r0,r1              ;834
000626  ec532b10          VMOV     r2,r3,d0              ;834
00062a  f2af2110          ADR      r1,|L6.1052|
00062e  a804              ADD      r0,sp,#0x10           ;834
000630  f7fffffe          BL       __2sprintf
000634  a904              ADD      r1,sp,#0x10           ;835
000636  4640              MOV      r0,r8                 ;835
000638  f7fffffe          BL       TEXT_SetText
00063c  f6400165          MOV      r1,#0x865             ;837
000640  6878              LDR      r0,[r7,#4]            ;837  ; hWinset
000642  f7fffffe          BL       WM_GetDialogItem
000646  4604              MOV      r4,r0                 ;837
000648  4981              LDR      r1,|L6.2128|
00064a  4620              MOV      r0,r4                 ;838
00064c  f7fffffe          BL       TEXT_SetBkColor
000650  2100              MOVS     r1,#0                 ;839
000652  4620              MOV      r0,r4                 ;839
000654  f7fffffe          BL       TEXT_SetTextColor
000658  2000              MOVS     r0,#0                 ;841
00065a  9006              STR      r0,[sp,#0x18]         ;841
00065c  4a80              LDR      r2,|L6.2144|
00065e  e006              B        |L6.1646|
                  |L6.1632|
000660  f89d1018          LDRB     r1,[sp,#0x18]         ;842
000664  5450              STRB     r0,[r2,r1]            ;842
000666  f89d1018          LDRB     r1,[sp,#0x18]         ;841
00066a  1c49              ADDS     r1,r1,#1              ;841
00066c  9106              STR      r1,[sp,#0x18]         ;841
                  |L6.1646|
00066e  f89d1018          LDRB     r1,[sp,#0x18]         ;841
000672  2905              CMP      r1,#5                 ;841
000674  d3f4              BCC      |L6.1632|
000676  497b              LDR      r1,|L6.2148|
000678  700e              STRB     r6,[r1,#0]            ;844
00067a  497b              LDR      r1,|L6.2152|
00067c  7008              STRB     r0,[r1,#0]            ;845
00067e  2010              MOVS     r0,#0x10              ;846
000680  7028              STRB     r0,[r5,#0]            ;846
000682  e596              B        |L6.434|
                  |L6.1668|
000684  f89d1018          LDRB     r1,[sp,#0x18]         ;865
000688  5450              STRB     r0,[r2,r1]            ;865
00068a  f89d1018          LDRB     r1,[sp,#0x18]         ;864
00068e  1c49              ADDS     r1,r1,#1              ;864
000690  9106              STR      r1,[sp,#0x18]         ;864
                  |L6.1682|
000692  f89d1018          LDRB     r1,[sp,#0x18]         ;864
000696  2905              CMP      r1,#5                 ;864
000698  d3f4              BCC      |L6.1668|
00069a  4972              LDR      r1,|L6.2148|
00069c  700e              STRB     r6,[r1,#0]            ;867
00069e  4972              LDR      r1,|L6.2152|
0006a0  7008              STRB     r0,[r1,#0]            ;868
0006a2  2054              MOVS     r0,#0x54              ;869
0006a4  7028              STRB     r0,[r5,#0]            ;869
0006a6  e584              B        |L6.434|
                  |L6.1704|
0006a8  4680              MOV      r8,r0                 ;876
0006aa  f640019f          MOV      r1,#0x89f             ;876
0006ae  4610              MOV      r0,r2                 ;876
0006b0  f7fffffe          BL       WM_GetDialogItem
0006b4  4681              MOV      r9,r0                 ;876
0006b6  f06f4170          MVN      r1,#0xf0000000        ;877
0006ba  4648              MOV      r0,r9                 ;877
0006bc  f7fffffe          BL       TEXT_SetBkColor
0006c0  f06f417f          MVN      r1,#0xff000000        ;878
0006c4  4648              MOV      r0,r9                 ;878
0006c6  f7fffffe          BL       TEXT_SetTextColor
0006ca  4651              MOV      r1,r10                ;880
0006cc  f8d80004          LDR      r0,[r8,#4]            ;880  ; hWinset
0006d0  f7fffffe          BL       WM_GetDialogItem
0006d4  4680              MOV      r8,r0                 ;880
0006d6  495e              LDR      r1,|L6.2128|
0006d8  4640              MOV      r0,r8                 ;881
0006da  f7fffffe          BL       TEXT_SetBkColor
0006de  2100              MOVS     r1,#0                 ;882
0006e0  4640              MOV      r0,r8                 ;882
0006e2  f7fffffe          BL       TEXT_SetTextColor
0006e6  f89b0000          LDRB     r0,[r11,#0]           ;884  ; b_type
0006ea  2806              CMP      r0,#6                 ;884
0006ec  d20d              BCS      |L6.1802|
0006ee  e8dff000          TBB      [pc,r0]               ;884
0006f2  0c03              DCB      0x0c,0x03
0006f4  0507090b          DCB      0x05,0x07,0x09,0x0b
0006f8  7027              STRB     r7,[r4,#0]            ;888
0006fa  e006              B        |L6.1802|
0006fc  7026              STRB     r6,[r4,#0]            ;893
0006fe  e004              B        |L6.1802|
000700  7026              STRB     r6,[r4,#0]            ;898
000702  e002              B        |L6.1802|
000704  7026              STRB     r6,[r4,#0]            ;903
000706  e000              B        |L6.1802|
000708  7026              STRB     r6,[r4,#0]            ;908
                  |L6.1802|
00070a  202b              MOVS     r0,#0x2b              ;913
00070c  7028              STRB     r0,[r5,#0]            ;913
00070e  e550              B        |L6.434|
                  |L6.1808|
000710  4681              MOV      r9,r0                 ;919
000712  4651              MOV      r1,r10                ;919
000714  4610              MOV      r0,r2                 ;919
000716  f7fffffe          BL       WM_GetDialogItem
00071a  4682              MOV      r10,r0                ;919
00071c  f06f4170          MVN      r1,#0xf0000000        ;920
000720  4650              MOV      r0,r10                ;920
000722  f7fffffe          BL       TEXT_SetBkColor
000726  f06f417f          MVN      r1,#0xff000000        ;921
00072a  4650              MOV      r0,r10                ;921
00072c  f7fffffe          BL       TEXT_SetTextColor
000730  4631              MOV      r1,r6                 ;923
000732  f8d90004          LDR      r0,[r9,#4]            ;923  ; hWinset
000736  f7fffffe          BL       WM_GetDialogItem
00073a  4606              MOV      r6,r0                 ;923
00073c  4944              LDR      r1,|L6.2128|
00073e  4630              MOV      r0,r6                 ;924
000740  f7fffffe          BL       TEXT_SetBkColor
000744  2100              MOVS     r1,#0                 ;925
000746  4630              MOV      r0,r6                 ;925
000748  f7fffffe          BL       TEXT_SetTextColor
00074c  f89b0000          LDRB     r0,[r11,#0]           ;927  ; b_type
000750  2806              CMP      r0,#6                 ;927
000752  d20f              BCS      |L6.1908|
000754  e8dff000          TBB      [pc,r0]               ;927
000758  0e030609          DCB      0x0e,0x03,0x06,0x09
00075c  0b0d              DCB      0x0b,0x0d
00075e  f8848000          STRB     r8,[r4,#0]            ;931
000762  e007              B        |L6.1908|
000764  f8848000          STRB     r8,[r4,#0]            ;936
000768  e004              B        |L6.1908|
00076a  7027              STRB     r7,[r4,#0]            ;941
00076c  e002              B        |L6.1908|
00076e  7027              STRB     r7,[r4,#0]            ;946
000770  e000              B        |L6.1908|
000772  7027              STRB     r7,[r4,#0]            ;951
                  |L6.1908|
000774  202c              MOVS     r0,#0x2c              ;956
000776  7028              STRB     r0,[r5,#0]            ;956
000778  e51b              B        |L6.434|
                  |L6.1914|
00077a  f8849000          STRB     r9,[r4,#0]            ;974
                  |L6.1918|
00077e  e00a              B        |L6.1942|
                  |L6.1920|
000780  f8849000          STRB     r9,[r4,#0]            ;979
000784  e007              B        |L6.1942|
                  |L6.1926|
000786  f8849000          STRB     r9,[r4,#0]            ;984
00078a  e004              B        |L6.1942|
                  |L6.1932|
00078c  f8848000          STRB     r8,[r4,#0]            ;989
000790  e001              B        |L6.1942|
                  |L6.1938|
000792  f8848000          STRB     r8,[r4,#0]            ;994
                  |L6.1942|
000796  202d              MOVS     r0,#0x2d              ;999
000798  7028              STRB     r0,[r5,#0]            ;999
00079a  e50a              B        |L6.434|
                  |L6.1948|
00079c  4606              MOV      r6,r0                 ;1005
00079e  f6401102          MOV      r1,#0x902             ;1005
0007a2  4610              MOV      r0,r2                 ;1005
0007a4  f7fffffe          BL       WM_GetDialogItem
0007a8  4607              MOV      r7,r0                 ;1005
0007aa  f06f4170          MVN      r1,#0xf0000000        ;1006
0007ae  4638              MOV      r0,r7                 ;1006
0007b0  f7fffffe          BL       TEXT_SetBkColor
0007b4  f06f417f          MVN      r1,#0xff000000        ;1007
0007b8  4638              MOV      r0,r7                 ;1007
0007ba  f7fffffe          BL       TEXT_SetTextColor
0007be  f6401103          MOV      r1,#0x903             ;1009
0007c2  6870              LDR      r0,[r6,#4]            ;1009  ; hWinset
0007c4  f7fffffe          BL       WM_GetDialogItem
0007c8  4606              MOV      r6,r0                 ;1009
0007ca  4921              LDR      r1,|L6.2128|
0007cc  4630              MOV      r0,r6                 ;1010
0007ce  f7fffffe          BL       TEXT_SetBkColor
0007d2  2100              MOVS     r1,#0                 ;1011
0007d4  4630              MOV      r0,r6                 ;1011
0007d6  f7fffffe          BL       TEXT_SetTextColor
0007da  f89b0000          LDRB     r0,[r11,#0]           ;1013  ; b_type
0007de  2806              CMP      r0,#6                 ;1013
0007e0  d212              BCS      |L6.2056|
0007e2  e8dff000          TBB      [pc,r0]               ;1013
0007e6  1103              DCB      0x11,0x03
0007e8  06090c0f          DCB      0x06,0x09,0x0c,0x0f
0007ec  f884a000          STRB     r10,[r4,#0]           ;1017
0007f0  e00a              B        |L6.2056|
0007f2  f884a000          STRB     r10,[r4,#0]           ;1022
0007f6  e007              B        |L6.2056|
0007f8  f884a000          STRB     r10,[r4,#0]           ;1027
0007fc  e004              B        |L6.2056|
0007fe  f884a000          STRB     r10,[r4,#0]           ;1032
000802  e001              B        |L6.2056|
000804  f8849000          STRB     r9,[r4,#0]            ;1037
                  |L6.2056|
000808  202e              MOVS     r0,#0x2e              ;1042
00080a  7028              STRB     r0,[r5,#0]            ;1042
00080c  e4d1              B        |L6.434|
                  |L6.2062|
00080e  f6401103          MOV      r1,#0x903             ;1048
000812  4610              MOV      r0,r2                 ;1048
000814  f7fffffe          BL       WM_GetDialogItem
000818  9001              STR      r0,[sp,#4]            ;1048
00081a  f06f4170          MVN      r1,#0xf0000000        ;1049
00081e  9801              LDR      r0,[sp,#4]            ;1049
000820  f7fffffe          BL       TEXT_SetBkColor
000824  f06f417f          MVN      r1,#0xff000000        ;1050
000828  9801              LDR      r0,[sp,#4]            ;1050
00082a  f7fffffe          BL       TEXT_SetTextColor
00082e  480f              LDR      r0,|L6.2156|
000830  f640019f          MOV      r1,#0x89f             ;1052
000834  6840              LDR      r0,[r0,#4]            ;1052  ; hWinset
000836  f7fffffe          BL       WM_GetDialogItem
00083a  9001              STR      r0,[sp,#4]            ;1052
00083c  4904              LDR      r1,|L6.2128|
00083e  9801              LDR      r0,[sp,#4]            ;1053
000840  f7fffffe          BL       TEXT_SetBkColor
000844  2100              MOVS     r1,#0                 ;1054
000846  9801              LDR      r0,[sp,#4]            ;1054
000848  f7fffffe          BL       TEXT_SetTextColor
00084c  e010              B        |L6.2160|
00084e  0000              DCW      0x0000
                  |L6.2128|
                          DCD      0x00bfffff
                  |L6.2132|
                          DCD      0x00013880
                  |L6.2136|
000858  38302e30          DCB      "80.00",0
00085c  3000    
00085e  00                DCB      0
00085f  00                DCB      0
                  |L6.2144|
                          DCD      set_limit
                  |L6.2148|
                          DCD      bit
                  |L6.2152|
                          DCD      dot_flag
                  |L6.2156|
                          DCD      ||.data||
                  |L6.2160|
000870  f89b0000          LDRB     r0,[r11,#0]           ;1056  ; b_type
000874  2806              CMP      r0,#6                 ;1056
000876  d210              BCS      |L6.2202|
000878  e8dff000          TBB      [pc,r0]               ;1056
00087c  0f030507          DCB      0x0f,0x03,0x05,0x07
000880  0a0d              DCB      0x0a,0x0d
000882  7026              STRB     r6,[r4,#0]            ;1060
000884  e009              B        |L6.2202|
000886  7027              STRB     r7,[r4,#0]            ;1065
000888  e007              B        |L6.2202|
00088a  f8848000          STRB     r8,[r4,#0]            ;1070
00088e  e004              B        |L6.2202|
000890  f8849000          STRB     r9,[r4,#0]            ;1075
000894  e001              B        |L6.2202|
000896  f884a000          STRB     r10,[r4,#0]           ;1080
                  |L6.2202|
00089a  202a              MOVS     r0,#0x2a              ;1085
00089c  7028              STRB     r0,[r5,#0]            ;1085
00089e  e488              B        |L6.434|
;;;1093   
                          ENDP


                          AREA ||i.SET_OP_LEFT||, CODE, READONLY, ALIGN=2

                  SET_OP_LEFT PROC
;;;1775   
;;;1776   void SET_OP_LEFT(void) {
000000  e92d5ff0          PUSH     {r4-r12,lr}
;;;1777                   switch(set_sw){
000004  4cc6              LDR      r4,|L7.800|
000006  7821              LDRB     r1,[r4,#0]  ; set_sw
;;;1778                       case set_1:
;;;1779                       {
;;;1780                           WM_HWIN hItem;
;;;1781   //                        WM_InvalidateWindow(hWinset);
;;;1782                           hItem = WM_GetDialogItem(hWinset, ID_TEXT_21);
000008  48c6              LDR      r0,|L7.804|
00000a  f640062b          MOV      r6,#0x82b
;;;1783                           TEXT_SetBkColor(hItem,GUI_INVALID_COLOR);//ÈÄâÈ°πËÉåÊôØËâ≤ËÆæ‰∏∫ÈÄèÊòé
;;;1784                           TEXT_SetTextColor(hItem, GUI_WHITE);
;;;1785   
;;;1786                           hItem = WM_GetDialogItem(hWinset, ID_TEXT_31);
;;;1787                           TEXT_SetBkColor(hItem,0x00BFFFFF);//ÈÄâÈ°πËÉåÊôØËâ≤ËÆæ‰∏∫Á±≥Ëâ≤
;;;1788                           TEXT_SetTextColor(hItem, GUI_BLACK);
;;;1789                           
;;;1790                           set_sw = set_8; 
;;;1791                           break;
;;;1792                       }                        
;;;1793                       case set_2:
;;;1794                       {
;;;1795                           WM_HWIN hItem;
;;;1796   //                        WM_InvalidateWindow(hWinset);
;;;1797                           hItem = WM_GetDialogItem(hWinset, ID_TEXT_22);
00000e  1c77              ADDS     r7,r6,#1
;;;1798                           TEXT_SetBkColor(hItem,GUI_INVALID_COLOR);//ÈÄâÈ°πËÉåÊôØËâ≤ËÆæ‰∏∫ÈÄèÊòé
;;;1799                           TEXT_SetTextColor(hItem, GUI_WHITE);
;;;1800                  
;;;1801                           hItem = WM_GetDialogItem(hWinset, ID_TEXT_32);
;;;1802                           TEXT_SetBkColor(hItem,0x00BFFFFF);//ÈÄâÈ°πËÉåÊôØËâ≤ËÆæ‰∏∫Á±≥Ëâ≤
;;;1803                           TEXT_SetTextColor(hItem, GUI_BLACK);
;;;1804   
;;;1805                           set_sw = set_9;
;;;1806                           break;
;;;1807                       }
;;;1808                       case set_3:
;;;1809                       {
;;;1810                           WM_HWIN hItem;
;;;1811   //                        WM_InvalidateWindow(hWinset);
;;;1812                           hItem = WM_GetDialogItem(hWinset, ID_TEXT_23);
;;;1813                           TEXT_SetBkColor(hItem,GUI_INVALID_COLOR);//ÈÄâÈ°πËÉåÊôØËâ≤ËÆæ‰∏∫ÈÄèÊòé
;;;1814                            TEXT_SetTextColor(hItem, GUI_WHITE);
;;;1815                  
;;;1816                           hItem = WM_GetDialogItem(hWinset, ID_TEXT_90);
;;;1817                           TEXT_SetBkColor(hItem,0x00BFFFFF);//ÈÄâÈ°πËÉåÊôØËâ≤ËÆæ‰∏∫Á±≥Ëâ≤
;;;1818                           TEXT_SetTextColor(hItem, GUI_BLACK);
;;;1819   
;;;1820                           set_sw = set_42;
000010  2529              MOVS     r5,#0x29
000012  6842              LDR      r2,[r0,#4]            ;1777
000014  f6400a3c          MOV      r10,#0x83c            ;1801
000018  f640082d          MOV      r8,#0x82d             ;1812
00001c  f6400b9e          MOV      r11,#0x89e            ;1816
;;;1821                           break;
;;;1822                       }
;;;1823                       case set_4:
;;;1824                       {
;;;1825                           WM_HWIN hItem;
;;;1826   //                        WM_InvalidateWindow(hWinset);
;;;1827                           hItem = WM_GetDialogItem(hWinset, ID_TEXT_24);
000020  f640092e          MOV      r9,#0x82e
000024  2905              CMP      r1,#5                 ;1777
000026  d076              BEQ      |L7.278|
000028  dc06              BGT      |L7.56|
00002a  2905              CMP      r1,#5                 ;1777
00002c  d22b              BCS      |L7.134|
00002e  e8dff001          TBB      [pc,r1]               ;1777
000032  5175              DCB      0x51,0x75
000034  95b6d700          DCB      0x95,0xb6,0xd7,0x00
                  |L7.56|
000038  2908              CMP      r1,#8                 ;1777
00003a  d06d              BEQ      |L7.280|
00003c  dc25              BGT      |L7.138|
00003e  2906              CMP      r1,#6                 ;1777
000040  d06b              BEQ      |L7.282|
000042  2907              CMP      r1,#7                 ;1777
000044  d11f              BNE      |L7.134|
;;;1828                           TEXT_SetBkColor(hItem,GUI_INVALID_COLOR);//ÈÄâÈ°πËÉåÊôØËâ≤ËÆæ‰∏∫ÈÄèÊòé
;;;1829                           TEXT_SetTextColor(hItem, GUI_WHITE);
;;;1830                  
;;;1831                           hItem = WM_GetDialogItem(hWinset, ID_TEXT_133);
;;;1832                           TEXT_SetBkColor(hItem,0x00BFFFFF);//ÈÄâÈ°πËÉåÊôØËâ≤ËÆæ‰∏∫Á±≥Ëâ≤
;;;1833                           TEXT_SetTextColor(hItem, GUI_BLACK);
;;;1834   
;;;1835                           set_sw = set_73;
;;;1836                           break;
;;;1837                       }
;;;1838                       case set_5:
;;;1839                       {
;;;1840                           WM_HWIN hItem;
;;;1841   //                        WM_InvalidateWindow(hWinset);
;;;1842                           hItem = WM_GetDialogItem(hWinset, ID_TEXT_25);
;;;1843                           TEXT_SetBkColor(hItem,GUI_INVALID_COLOR);//ÈÄâÈ°πËÉåÊôØËâ≤ËÆæ‰∏∫ÈÄèÊòé
;;;1844                           TEXT_SetTextColor(hItem, GUI_WHITE);
;;;1845                  
;;;1846                           hItem = WM_GetDialogItem(hWinset, ID_TEXT_90);
;;;1847                           TEXT_SetBkColor(hItem,0x00BFFFFF);//ÈÄâÈ°πËÉåÊôØËâ≤ËÆæ‰∏∫Á±≥Ëâ≤
;;;1848                           TEXT_SetTextColor(hItem, GUI_BLACK);
;;;1849   
;;;1850                           set_sw = set_42;
;;;1851                           break;
;;;1852                       }
;;;1853                       case set_6:
;;;1854                       {
;;;1855                           WM_HWIN hItem;
;;;1856   //                        WM_InvalidateWindow(hWinset);
;;;1857                           hItem = WM_GetDialogItem(hWinset, ID_TEXT_26);
;;;1858                           TEXT_SetBkColor(hItem,GUI_INVALID_COLOR);//ÈÄâÈ°πËÉåÊôØËâ≤ËÆæ‰∏∫ÈÄèÊòé
;;;1859                           TEXT_SetTextColor(hItem, GUI_WHITE);
;;;1860                  
;;;1861                           hItem = WM_GetDialogItem(hWinset, ID_TEXT_90);
;;;1862                           TEXT_SetBkColor(hItem,0x00BFFFFF);//ÈÄâÈ°πËÉåÊôØËâ≤ËÆæ‰∏∫Á±≥Ëâ≤
;;;1863                           TEXT_SetTextColor(hItem, GUI_BLACK);
;;;1864   
;;;1865                           set_sw = set_42;
;;;1866                           break;
;;;1867                       }
;;;1868                       case set_7:
;;;1869                       {
;;;1870                           WM_HWIN hItem;
;;;1871   //                        WM_InvalidateWindow(hWinset);
;;;1872                           hItem = WM_GetDialogItem(hWinset, ID_TEXT_27);
;;;1873                           TEXT_SetBkColor(hItem,GUI_INVALID_COLOR);//ÈÄâÈ°πËÉåÊôØËâ≤ËÆæ‰∏∫ÈÄèÊòé
;;;1874                           TEXT_SetTextColor(hItem, GUI_WHITE);
;;;1875                  
;;;1876                           hItem = WM_GetDialogItem(hWinset, ID_TEXT_90);
;;;1877                           TEXT_SetBkColor(hItem,0x00BFFFFF);//ÈÄâÈ°πËÉåÊôØËâ≤ËÆæ‰∏∫Á±≥Ëâ≤
;;;1878                           TEXT_SetTextColor(hItem, GUI_BLACK);
;;;1879   
;;;1880                           set_sw = set_42;
;;;1881                           break;
;;;1882                       }
;;;1883                       case set_8:
;;;1884                       {
;;;1885                           WM_HWIN hItem;
;;;1886   //                        WM_InvalidateWindow(hWinset);
;;;1887                           hItem = WM_GetDialogItem(hWinset, ID_TEXT_31);
000046  4605              MOV      r5,r0
000048  f640013b          MOV      r1,#0x83b
00004c  4610              MOV      r0,r2
00004e  f7fffffe          BL       WM_GetDialogItem
000052  4607              MOV      r7,r0
;;;1888                           TEXT_SetBkColor(hItem,GUI_INVALID_COLOR);//ÈÄâÈ°πËÉåÊôØËâ≤ËÆæ‰∏∫ÈÄèÊòé
000054  f06f4170          MVN      r1,#0xf0000000
000058  4638              MOV      r0,r7
00005a  f7fffffe          BL       TEXT_SetBkColor
;;;1889                           TEXT_SetTextColor(hItem, GUI_WHITE);
00005e  f06f417f          MVN      r1,#0xff000000
000062  4638              MOV      r0,r7
000064  f7fffffe          BL       TEXT_SetTextColor
;;;1890                  
;;;1891                           hItem = WM_GetDialogItem(hWinset, ID_TEXT_21);
000068  4631              MOV      r1,r6
00006a  6868              LDR      r0,[r5,#4]  ; hWinset
00006c  f7fffffe          BL       WM_GetDialogItem
000070  4605              MOV      r5,r0
;;;1892                           TEXT_SetBkColor(hItem,0x00BFFFFF);//ÈÄâÈ°πËÉåÊôØËâ≤ËÆæ‰∏∫Á±≥Ëâ≤
000072  49ad              LDR      r1,|L7.808|
000074  4628              MOV      r0,r5
000076  f7fffffe          BL       TEXT_SetBkColor
;;;1893                           TEXT_SetTextColor(hItem, GUI_BLACK);
00007a  2100              MOVS     r1,#0
00007c  4628              MOV      r0,r5
00007e  f7fffffe          BL       TEXT_SetTextColor
;;;1894   
;;;1895                           set_sw = set_1;
000082  2000              MOVS     r0,#0
000084  7020              STRB     r0,[r4,#0]
                  |L7.134|
;;;1896                           break;
;;;1897                       }
;;;1898                       case set_9:
;;;1899                       {
;;;1900                           WM_HWIN hItem;
;;;1901   //                        WM_InvalidateWindow(hWinset);
;;;1902                           hItem = WM_GetDialogItem(hWinset, ID_TEXT_32);
;;;1903                           TEXT_SetBkColor(hItem,GUI_INVALID_COLOR);//ÈÄâÈ°πËÉåÊôØËâ≤ËÆæ‰∏∫ÈÄèÊòé
;;;1904                           TEXT_SetTextColor(hItem, GUI_WHITE);
;;;1905                  
;;;1906                           hItem = WM_GetDialogItem(hWinset, ID_TEXT_22);
;;;1907                           TEXT_SetBkColor(hItem,0x00BFFFFF);//ÈÄâÈ°πËÉåÊôØËâ≤ËÆæ‰∏∫Á±≥Ëâ≤
;;;1908                           TEXT_SetTextColor(hItem, GUI_BLACK);
;;;1909   
;;;1910                           set_sw = set_2;
;;;1911                           break;
;;;1912                       }
;;;1913                       case set_42:
;;;1914                       {
;;;1915                           WM_HWIN hItem;
;;;1916   //                        WM_InvalidateWindow(hWinset);
;;;1917                           hItem = WM_GetDialogItem(hWinset, ID_TEXT_90);
;;;1918                           TEXT_SetBkColor(hItem,GUI_INVALID_COLOR);//ÈÄâÈ°πËÉåÊôØËâ≤ËÆæ‰∏∫ÈÄèÊòé
;;;1919                           TEXT_SetTextColor(hItem, GUI_WHITE);
;;;1920                  
;;;1921                           hItem = WM_GetDialogItem(hWinset, ID_TEXT_23);
;;;1922                           TEXT_SetBkColor(hItem,0x00BFFFFF);//ÈÄâÈ°πËÉåÊôØËâ≤ËÆæ‰∏∫Á±≥Ëâ≤
;;;1923                           TEXT_SetTextColor(hItem, GUI_BLACK);
;;;1924   
;;;1925                           set_sw = set_3;
;;;1926                           break;
;;;1927                       }
;;;1928                       case set_73:
;;;1929                       {
;;;1930                           WM_HWIN hItem;
;;;1931   //                        WM_InvalidateWindow(hWinset);
;;;1932                           hItem = WM_GetDialogItem(hWinset, ID_TEXT_133);
;;;1933                           TEXT_SetBkColor(hItem,GUI_INVALID_COLOR);//ÈÄâÈ°πËÉåÊôØËâ≤ËÆæ‰∏∫ÈÄèÊòé
;;;1934                           TEXT_SetTextColor(hItem, GUI_WHITE);
;;;1935                  
;;;1936                           hItem = WM_GetDialogItem(hWinset, ID_TEXT_24);
;;;1937                           TEXT_SetBkColor(hItem,0x00BFFFFF);//ÈÄâÈ°πËÉåÊôØËâ≤ËÆæ‰∏∫Á±≥Ëâ≤
;;;1938                           TEXT_SetTextColor(hItem, GUI_BLACK);
;;;1939   
;;;1940                           set_sw = set_4;
;;;1941                           break;
;;;1942                       }
;;;1943   //                     case set_11:
;;;1944   //                     {
;;;1945   //                         WM_HWIN hItem;
;;;1946   //                         WM_InvalidateWindow(hWinset);
;;;1947   //                         hItem = WM_GetDialogItem(hWinset, ID_TEXT_34);
;;;1948   //                         TEXT_SetBkColor(hItem,GUI_INVALID_COLOR);//ÈÄâÈ°πËÉåÊôØËâ≤ËÆæ‰∏∫ÈÄèÊòé
;;;1949   //                
;;;1950   //                         hItem = WM_GetDialogItem(hWinset, ID_TEXT_24);
;;;1951   //                         TEXT_SetBkColor(hItem,0x00BFFFFF);//ÈÄâÈ°πËÉåÊôØËâ≤ËÆæ‰∏∫Á±≥Ëâ≤
;;;1952   
;;;1953   //                         set_sw = set_4;
;;;1954   //                         break;
;;;1955   //                     }
;;;1956                       default: break;
;;;1957                   }
;;;1958   //                return set_sw;
;;;1959   }
000086  e8bd9ff0          POP      {r4-r12,pc}
                  |L7.138|
00008a  2929              CMP      r1,#0x29              ;1777
00008c  d07e              BEQ      |L7.396|
00008e  2948              CMP      r1,#0x48              ;1777
000090  d1f9              BNE      |L7.134|
000092  4605              MOV      r5,r0                 ;1932
000094  f6401122          MOV      r1,#0x922             ;1932
000098  4610              MOV      r0,r2                 ;1932
00009a  f7fffffe          BL       WM_GetDialogItem
00009e  4606              MOV      r6,r0                 ;1932
0000a0  f06f4170          MVN      r1,#0xf0000000        ;1933
0000a4  4630              MOV      r0,r6                 ;1933
0000a6  f7fffffe          BL       TEXT_SetBkColor
0000aa  f06f417f          MVN      r1,#0xff000000        ;1934
0000ae  4630              MOV      r0,r6                 ;1934
0000b0  f7fffffe          BL       TEXT_SetTextColor
0000b4  4649              MOV      r1,r9                 ;1936
0000b6  6868              LDR      r0,[r5,#4]            ;1936  ; hWinset
0000b8  f7fffffe          BL       WM_GetDialogItem
0000bc  4605              MOV      r5,r0                 ;1936
0000be  499a              LDR      r1,|L7.808|
0000c0  4628              MOV      r0,r5                 ;1937
0000c2  f7fffffe          BL       TEXT_SetBkColor
0000c6  2100              MOVS     r1,#0                 ;1938
0000c8  4628              MOV      r0,r5                 ;1938
0000ca  f7fffffe          BL       TEXT_SetTextColor
0000ce  2003              MOVS     r0,#3                 ;1940
0000d0  7020              STRB     r0,[r4,#0]            ;1940
0000d2  e7d8              B        |L7.134|
0000d4  4605              MOV      r5,r0                 ;1782
0000d6  4631              MOV      r1,r6                 ;1782
0000d8  4610              MOV      r0,r2                 ;1782
0000da  f7fffffe          BL       WM_GetDialogItem
0000de  4606              MOV      r6,r0                 ;1782
0000e0  f06f4170          MVN      r1,#0xf0000000        ;1783
0000e4  4630              MOV      r0,r6                 ;1783
0000e6  f7fffffe          BL       TEXT_SetBkColor
0000ea  f06f417f          MVN      r1,#0xff000000        ;1784
0000ee  4630              MOV      r0,r6                 ;1784
0000f0  f7fffffe          BL       TEXT_SetTextColor
0000f4  f640013b          MOV      r1,#0x83b             ;1786
0000f8  6868              LDR      r0,[r5,#4]            ;1786  ; hWinset
0000fa  f7fffffe          BL       WM_GetDialogItem
0000fe  4605              MOV      r5,r0                 ;1786
000100  4989              LDR      r1,|L7.808|
000102  4628              MOV      r0,r5                 ;1787
000104  f7fffffe          BL       TEXT_SetBkColor
000108  2100              MOVS     r1,#0                 ;1788
00010a  4628              MOV      r0,r5                 ;1788
00010c  f7fffffe          BL       TEXT_SetTextColor
000110  2007              MOVS     r0,#7                 ;1790
000112  7020              STRB     r0,[r4,#0]            ;1790
000114  e7b7              B        |L7.134|
                  |L7.278|
000116  e083              B        |L7.544|
                  |L7.280|
000118  e0c2              B        |L7.672|
                  |L7.282|
00011a  e0a1              B        |L7.608|
00011c  4605              MOV      r5,r0                 ;1797
00011e  4639              MOV      r1,r7                 ;1797
000120  4610              MOV      r0,r2                 ;1797
000122  f7fffffe          BL       WM_GetDialogItem
000126  4606              MOV      r6,r0                 ;1797
000128  f06f4170          MVN      r1,#0xf0000000        ;1798
00012c  4630              MOV      r0,r6                 ;1798
00012e  f7fffffe          BL       TEXT_SetBkColor
000132  f06f417f          MVN      r1,#0xff000000        ;1799
000136  4630              MOV      r0,r6                 ;1799
000138  f7fffffe          BL       TEXT_SetTextColor
00013c  4651              MOV      r1,r10                ;1801
00013e  6868              LDR      r0,[r5,#4]            ;1801  ; hWinset
000140  f7fffffe          BL       WM_GetDialogItem
000144  4605              MOV      r5,r0                 ;1801
000146  4978              LDR      r1,|L7.808|
000148  4628              MOV      r0,r5                 ;1802
00014a  f7fffffe          BL       TEXT_SetBkColor
00014e  2100              MOVS     r1,#0                 ;1803
000150  4628              MOV      r0,r5                 ;1803
000152  f7fffffe          BL       TEXT_SetTextColor
000156  2008              MOVS     r0,#8                 ;1805
000158  7020              STRB     r0,[r4,#0]            ;1805
00015a  e794              B        |L7.134|
00015c  4606              MOV      r6,r0                 ;1812
00015e  4641              MOV      r1,r8                 ;1812
000160  4610              MOV      r0,r2                 ;1812
000162  f7fffffe          BL       WM_GetDialogItem
000166  4607              MOV      r7,r0                 ;1812
000168  f06f4170          MVN      r1,#0xf0000000        ;1813
00016c  4638              MOV      r0,r7                 ;1813
00016e  f7fffffe          BL       TEXT_SetBkColor
000172  f06f417f          MVN      r1,#0xff000000        ;1814
000176  4638              MOV      r0,r7                 ;1814
000178  f7fffffe          BL       TEXT_SetTextColor
00017c  4659              MOV      r1,r11                ;1816
00017e  6870              LDR      r0,[r6,#4]            ;1816  ; hWinset
000180  f7fffffe          BL       WM_GetDialogItem
000184  4606              MOV      r6,r0                 ;1816
000186  4968              LDR      r1,|L7.808|
000188  4630              MOV      r0,r6                 ;1817
00018a  e000              B        |L7.398|
                  |L7.396|
00018c  e0a8              B        |L7.736|
                  |L7.398|
00018e  f7fffffe          BL       TEXT_SetBkColor
000192  2100              MOVS     r1,#0                 ;1818
000194  4630              MOV      r0,r6                 ;1818
000196  f7fffffe          BL       TEXT_SetTextColor
00019a  7025              STRB     r5,[r4,#0]            ;1820
00019c  e773              B        |L7.134|
00019e  4605              MOV      r5,r0                 ;1827
0001a0  4649              MOV      r1,r9                 ;1827
0001a2  4610              MOV      r0,r2                 ;1827
0001a4  f7fffffe          BL       WM_GetDialogItem
0001a8  4606              MOV      r6,r0                 ;1827
0001aa  f06f4170          MVN      r1,#0xf0000000        ;1828
0001ae  4630              MOV      r0,r6                 ;1828
0001b0  f7fffffe          BL       TEXT_SetBkColor
0001b4  f06f417f          MVN      r1,#0xff000000        ;1829
0001b8  4630              MOV      r0,r6                 ;1829
0001ba  f7fffffe          BL       TEXT_SetTextColor
0001be  f6401122          MOV      r1,#0x922             ;1831
0001c2  6868              LDR      r0,[r5,#4]            ;1831  ; hWinset
0001c4  f7fffffe          BL       WM_GetDialogItem
0001c8  4605              MOV      r5,r0                 ;1831
0001ca  4957              LDR      r1,|L7.808|
0001cc  4628              MOV      r0,r5                 ;1832
0001ce  f7fffffe          BL       TEXT_SetBkColor
0001d2  2100              MOVS     r1,#0                 ;1833
0001d4  4628              MOV      r0,r5                 ;1833
0001d6  f7fffffe          BL       TEXT_SetTextColor
0001da  2048              MOVS     r0,#0x48              ;1835
0001dc  7020              STRB     r0,[r4,#0]            ;1835
0001de  e752              B        |L7.134|
0001e0  4606              MOV      r6,r0                 ;1842
0001e2  f640012f          MOV      r1,#0x82f             ;1842
0001e6  4610              MOV      r0,r2                 ;1842
0001e8  f7fffffe          BL       WM_GetDialogItem
0001ec  4607              MOV      r7,r0                 ;1842
0001ee  f06f4170          MVN      r1,#0xf0000000        ;1843
0001f2  4638              MOV      r0,r7                 ;1843
0001f4  f7fffffe          BL       TEXT_SetBkColor
0001f8  f06f417f          MVN      r1,#0xff000000        ;1844
0001fc  4638              MOV      r0,r7                 ;1844
0001fe  f7fffffe          BL       TEXT_SetTextColor
000202  4659              MOV      r1,r11                ;1846
000204  6870              LDR      r0,[r6,#4]            ;1846  ; hWinset
000206  f7fffffe          BL       WM_GetDialogItem
00020a  4606              MOV      r6,r0                 ;1846
00020c  4946              LDR      r1,|L7.808|
00020e  4630              MOV      r0,r6                 ;1847
000210  f7fffffe          BL       TEXT_SetBkColor
000214  2100              MOVS     r1,#0                 ;1848
000216  4630              MOV      r0,r6                 ;1848
000218  f7fffffe          BL       TEXT_SetTextColor
00021c  7025              STRB     r5,[r4,#0]            ;1850
00021e  e732              B        |L7.134|
                  |L7.544|
000220  4606              MOV      r6,r0                 ;1857
000222  f44f6103          MOV      r1,#0x830             ;1857
000226  4610              MOV      r0,r2                 ;1857
000228  f7fffffe          BL       WM_GetDialogItem
00022c  4607              MOV      r7,r0                 ;1857
00022e  f06f4170          MVN      r1,#0xf0000000        ;1858
000232  4638              MOV      r0,r7                 ;1858
000234  f7fffffe          BL       TEXT_SetBkColor
000238  f06f417f          MVN      r1,#0xff000000        ;1859
00023c  4638              MOV      r0,r7                 ;1859
00023e  f7fffffe          BL       TEXT_SetTextColor
000242  4659              MOV      r1,r11                ;1861
000244  6870              LDR      r0,[r6,#4]            ;1861  ; hWinset
000246  f7fffffe          BL       WM_GetDialogItem
00024a  4606              MOV      r6,r0                 ;1861
00024c  4936              LDR      r1,|L7.808|
00024e  4630              MOV      r0,r6                 ;1862
000250  f7fffffe          BL       TEXT_SetBkColor
000254  2100              MOVS     r1,#0                 ;1863
000256  4630              MOV      r0,r6                 ;1863
000258  f7fffffe          BL       TEXT_SetTextColor
00025c  7025              STRB     r5,[r4,#0]            ;1865
00025e  e712              B        |L7.134|
                  |L7.608|
000260  4606              MOV      r6,r0                 ;1872
000262  f6400131          MOV      r1,#0x831             ;1872
000266  4610              MOV      r0,r2                 ;1872
000268  f7fffffe          BL       WM_GetDialogItem
00026c  4607              MOV      r7,r0                 ;1872
00026e  f06f4170          MVN      r1,#0xf0000000        ;1873
000272  4638              MOV      r0,r7                 ;1873
000274  f7fffffe          BL       TEXT_SetBkColor
000278  f06f417f          MVN      r1,#0xff000000        ;1874
00027c  4638              MOV      r0,r7                 ;1874
00027e  f7fffffe          BL       TEXT_SetTextColor
000282  4659              MOV      r1,r11                ;1876
000284  6870              LDR      r0,[r6,#4]            ;1876  ; hWinset
000286  f7fffffe          BL       WM_GetDialogItem
00028a  4606              MOV      r6,r0                 ;1876
00028c  4926              LDR      r1,|L7.808|
00028e  4630              MOV      r0,r6                 ;1877
000290  f7fffffe          BL       TEXT_SetBkColor
000294  2100              MOVS     r1,#0                 ;1878
000296  4630              MOV      r0,r6                 ;1878
000298  f7fffffe          BL       TEXT_SetTextColor
00029c  7025              STRB     r5,[r4,#0]            ;1880
00029e  e6f2              B        |L7.134|
                  |L7.672|
0002a0  4605              MOV      r5,r0                 ;1902
0002a2  4651              MOV      r1,r10                ;1902
0002a4  4610              MOV      r0,r2                 ;1902
0002a6  f7fffffe          BL       WM_GetDialogItem
0002aa  4606              MOV      r6,r0                 ;1902
0002ac  f06f4170          MVN      r1,#0xf0000000        ;1903
0002b0  4630              MOV      r0,r6                 ;1903
0002b2  f7fffffe          BL       TEXT_SetBkColor
0002b6  f06f417f          MVN      r1,#0xff000000        ;1904
0002ba  4630              MOV      r0,r6                 ;1904
0002bc  f7fffffe          BL       TEXT_SetTextColor
0002c0  4639              MOV      r1,r7                 ;1906
0002c2  6868              LDR      r0,[r5,#4]            ;1906  ; hWinset
0002c4  f7fffffe          BL       WM_GetDialogItem
0002c8  4605              MOV      r5,r0                 ;1906
0002ca  4917              LDR      r1,|L7.808|
0002cc  4628              MOV      r0,r5                 ;1907
0002ce  f7fffffe          BL       TEXT_SetBkColor
0002d2  2100              MOVS     r1,#0                 ;1908
0002d4  4628              MOV      r0,r5                 ;1908
0002d6  f7fffffe          BL       TEXT_SetTextColor
0002da  2001              MOVS     r0,#1                 ;1910
0002dc  7020              STRB     r0,[r4,#0]            ;1910
0002de  e6d2              B        |L7.134|
                  |L7.736|
0002e0  4605              MOV      r5,r0                 ;1917
0002e2  4659              MOV      r1,r11                ;1917
0002e4  4610              MOV      r0,r2                 ;1917
0002e6  f7fffffe          BL       WM_GetDialogItem
0002ea  4606              MOV      r6,r0                 ;1917
0002ec  f06f4170          MVN      r1,#0xf0000000        ;1918
0002f0  4630              MOV      r0,r6                 ;1918
0002f2  f7fffffe          BL       TEXT_SetBkColor
0002f6  f06f417f          MVN      r1,#0xff000000        ;1919
0002fa  4630              MOV      r0,r6                 ;1919
0002fc  f7fffffe          BL       TEXT_SetTextColor
000300  4641              MOV      r1,r8                 ;1921
000302  6868              LDR      r0,[r5,#4]            ;1921  ; hWinset
000304  f7fffffe          BL       WM_GetDialogItem
000308  4605              MOV      r5,r0                 ;1921
00030a  4907              LDR      r1,|L7.808|
00030c  4628              MOV      r0,r5                 ;1922
00030e  f7fffffe          BL       TEXT_SetBkColor
000312  2100              MOVS     r1,#0                 ;1923
000314  4628              MOV      r0,r5                 ;1923
000316  f7fffffe          BL       TEXT_SetTextColor
00031a  2002              MOVS     r0,#2                 ;1925
00031c  7020              STRB     r0,[r4,#0]            ;1925
00031e  e6b2              B        |L7.134|
;;;1960   
                          ENDP

                  |L7.800|
                          DCD      set_sw
                  |L7.804|
                          DCD      ||.data||
                  |L7.808|
                          DCD      0x00bfffff

                          AREA ||i.SET_OP_RIGHT||, CODE, READONLY, ALIGN=2

                  SET_OP_RIGHT PROC
;;;1588   
;;;1589   void SET_OP_RIGHT(void) {
000000  e92d5ff0          PUSH     {r4-r12,lr}
;;;1590                   switch(set_sw){
000004  4cc6              LDR      r4,|L8.800|
000006  7821              LDRB     r1,[r4,#0]  ; set_sw
;;;1591                       case set_1:
;;;1592                       {
;;;1593                           WM_HWIN hItem;
;;;1594   //                        WM_InvalidateWindow(hWinset);
;;;1595                           hItem = WM_GetDialogItem(hWinset, ID_TEXT_21);
000008  48c6              LDR      r0,|L8.804|
00000a  f640062b          MOV      r6,#0x82b
;;;1596                           TEXT_SetBkColor(hItem,GUI_INVALID_COLOR);//ÈÄâÈ°πËÉåÊôØËâ≤ËÆæ‰∏∫ÈÄèÊòé
;;;1597                           TEXT_SetTextColor(hItem, GUI_WHITE);
;;;1598   
;;;1599                           hItem = WM_GetDialogItem(hWinset, ID_TEXT_31);
;;;1600                           TEXT_SetBkColor(hItem,0x00BFFFFF);//ÈÄâÈ°πËÉåÊôØËâ≤ËÆæ‰∏∫Á±≥Ëâ≤
;;;1601                           TEXT_SetTextColor(hItem, GUI_BLACK);
;;;1602                           
;;;1603                           set_sw = set_8; 
;;;1604                           break;
;;;1605                       }                        
;;;1606                       case set_2:
;;;1607                       {
;;;1608                           WM_HWIN hItem;
;;;1609   //                        WM_InvalidateWindow(hWinset);
;;;1610                           hItem = WM_GetDialogItem(hWinset, ID_TEXT_22);
00000e  1c77              ADDS     r7,r6,#1
;;;1611                           TEXT_SetBkColor(hItem,GUI_INVALID_COLOR);//ÈÄâÈ°πËÉåÊôØËâ≤ËÆæ‰∏∫ÈÄèÊòé
;;;1612                           TEXT_SetTextColor(hItem, GUI_WHITE);
;;;1613                  
;;;1614                           hItem = WM_GetDialogItem(hWinset, ID_TEXT_32);
;;;1615                           TEXT_SetBkColor(hItem,0x00BFFFFF);//ÈÄâÈ°πËÉåÊôØËâ≤ËÆæ‰∏∫Á±≥Ëâ≤
;;;1616                           TEXT_SetTextColor(hItem, GUI_BLACK);
;;;1617   
;;;1618                           set_sw = set_9;
;;;1619                           break;
;;;1620                       }
;;;1621                       case set_3:
;;;1622                       {
;;;1623                           WM_HWIN hItem;
;;;1624   //                        WM_InvalidateWindow(hWinset);
;;;1625                           hItem = WM_GetDialogItem(hWinset, ID_TEXT_23);
;;;1626                           TEXT_SetBkColor(hItem,GUI_INVALID_COLOR);//ÈÄâÈ°πËÉåÊôØËâ≤ËÆæ‰∏∫ÈÄèÊòé
;;;1627                           TEXT_SetTextColor(hItem, GUI_WHITE);
;;;1628                  
;;;1629                           hItem = WM_GetDialogItem(hWinset, ID_TEXT_90);
;;;1630                           TEXT_SetBkColor(hItem,0x00BFFFFF);//ÈÄâÈ°πËÉåÊôØËâ≤ËÆæ‰∏∫Á±≥Ëâ≤
;;;1631                           TEXT_SetTextColor(hItem, GUI_BLACK);
;;;1632   
;;;1633                           set_sw = set_42;
000010  2529              MOVS     r5,#0x29
000012  6842              LDR      r2,[r0,#4]            ;1590
000014  f6400a3c          MOV      r10,#0x83c            ;1614
000018  f640082d          MOV      r8,#0x82d             ;1625
00001c  f6400b9e          MOV      r11,#0x89e            ;1629
;;;1634                           break;
;;;1635                       }
;;;1636                       case set_4:
;;;1637                       {
;;;1638                           WM_HWIN hItem;
;;;1639   //                        WM_InvalidateWindow(hWinset);
;;;1640                           hItem = WM_GetDialogItem(hWinset, ID_TEXT_24);
000020  f640092e          MOV      r9,#0x82e
000024  2905              CMP      r1,#5                 ;1590
000026  d076              BEQ      |L8.278|
000028  dc06              BGT      |L8.56|
00002a  2905              CMP      r1,#5                 ;1590
00002c  d22b              BCS      |L8.134|
00002e  e8dff001          TBB      [pc,r1]               ;1590
000032  5175              DCB      0x51,0x75
000034  95b6d700          DCB      0x95,0xb6,0xd7,0x00
                  |L8.56|
000038  2908              CMP      r1,#8                 ;1590
00003a  d06d              BEQ      |L8.280|
00003c  dc25              BGT      |L8.138|
00003e  2906              CMP      r1,#6                 ;1590
000040  d06b              BEQ      |L8.282|
000042  2907              CMP      r1,#7                 ;1590
000044  d11f              BNE      |L8.134|
;;;1641                           TEXT_SetBkColor(hItem,GUI_INVALID_COLOR);//ÈÄâÈ°πËÉåÊôØËâ≤ËÆæ‰∏∫ÈÄèÊòé
;;;1642                           TEXT_SetTextColor(hItem, GUI_WHITE);
;;;1643                  
;;;1644                           hItem = WM_GetDialogItem(hWinset, ID_TEXT_133);
;;;1645                           TEXT_SetBkColor(hItem,0x00BFFFFF);//ÈÄâÈ°πËÉåÊôØËâ≤ËÆæ‰∏∫Á±≥Ëâ≤
;;;1646                           TEXT_SetTextColor(hItem, GUI_BLACK);
;;;1647                           
;;;1648                           set_sw = set_73;
;;;1649                           break;                                 
;;;1650                       }
;;;1651                       case set_5:
;;;1652                       {
;;;1653                           WM_HWIN hItem;
;;;1654   //                        WM_InvalidateWindow(hWinset);
;;;1655                           hItem = WM_GetDialogItem(hWinset, ID_TEXT_25);
;;;1656                           TEXT_SetBkColor(hItem,GUI_INVALID_COLOR);//ÈÄâÈ°πËÉåÊôØËâ≤ËÆæ‰∏∫ÈÄèÊòé
;;;1657                           TEXT_SetTextColor(hItem, GUI_WHITE);
;;;1658                  
;;;1659                           hItem = WM_GetDialogItem(hWinset, ID_TEXT_90);
;;;1660                           TEXT_SetBkColor(hItem,0x00BFFFFF);//ÈÄâÈ°πËÉåÊôØËâ≤ËÆæ‰∏∫Á±≥Ëâ≤
;;;1661                           TEXT_SetTextColor(hItem, GUI_BLACK);
;;;1662   
;;;1663                           set_sw = set_42;
;;;1664                           break;
;;;1665                       }
;;;1666                       case set_6:
;;;1667                       {
;;;1668                           WM_HWIN hItem;
;;;1669   //                        WM_InvalidateWindow(hWinset);
;;;1670                           hItem = WM_GetDialogItem(hWinset, ID_TEXT_26);
;;;1671                           TEXT_SetBkColor(hItem,GUI_INVALID_COLOR);//ÈÄâÈ°πËÉåÊôØËâ≤ËÆæ‰∏∫ÈÄèÊòé
;;;1672                           TEXT_SetTextColor(hItem, GUI_WHITE);
;;;1673                  
;;;1674                           hItem = WM_GetDialogItem(hWinset, ID_TEXT_90);
;;;1675                           TEXT_SetBkColor(hItem,0x00BFFFFF);//ÈÄâÈ°πËÉåÊôØËâ≤ËÆæ‰∏∫Á±≥Ëâ≤
;;;1676                           TEXT_SetTextColor(hItem, GUI_BLACK);
;;;1677   
;;;1678                           set_sw = set_42;
;;;1679                           break;
;;;1680                       }
;;;1681                       case set_7:
;;;1682                       {
;;;1683                           WM_HWIN hItem;
;;;1684   //                        WM_InvalidateWindow(hWinset);
;;;1685                           hItem = WM_GetDialogItem(hWinset, ID_TEXT_27);
;;;1686                           TEXT_SetBkColor(hItem,GUI_INVALID_COLOR);//ÈÄâÈ°πËÉåÊôØËâ≤ËÆæ‰∏∫ÈÄèÊòé
;;;1687                           TEXT_SetTextColor(hItem, GUI_WHITE);
;;;1688                  
;;;1689                           hItem = WM_GetDialogItem(hWinset, ID_TEXT_90);
;;;1690                           TEXT_SetBkColor(hItem,0x00BFFFFF);//ÈÄâÈ°πËÉåÊôØËâ≤ËÆæ‰∏∫Á±≥Ëâ≤
;;;1691                           TEXT_SetTextColor(hItem, GUI_BLACK);
;;;1692   
;;;1693                           set_sw = set_42;
;;;1694                           break;
;;;1695                       }
;;;1696                       case set_8:
;;;1697                       {
;;;1698                           WM_HWIN hItem;
;;;1699   //                        WM_InvalidateWindow(hWinset);
;;;1700                           hItem = WM_GetDialogItem(hWinset, ID_TEXT_31);
000046  4605              MOV      r5,r0
000048  f640013b          MOV      r1,#0x83b
00004c  4610              MOV      r0,r2
00004e  f7fffffe          BL       WM_GetDialogItem
000052  4607              MOV      r7,r0
;;;1701                           TEXT_SetBkColor(hItem,GUI_INVALID_COLOR);//ÈÄâÈ°πËÉåÊôØËâ≤ËÆæ‰∏∫ÈÄèÊòé
000054  f06f4170          MVN      r1,#0xf0000000
000058  4638              MOV      r0,r7
00005a  f7fffffe          BL       TEXT_SetBkColor
;;;1702                           TEXT_SetTextColor(hItem, GUI_WHITE);
00005e  f06f417f          MVN      r1,#0xff000000
000062  4638              MOV      r0,r7
000064  f7fffffe          BL       TEXT_SetTextColor
;;;1703                  
;;;1704                           hItem = WM_GetDialogItem(hWinset, ID_TEXT_21);
000068  4631              MOV      r1,r6
00006a  6868              LDR      r0,[r5,#4]  ; hWinset
00006c  f7fffffe          BL       WM_GetDialogItem
000070  4605              MOV      r5,r0
;;;1705                           TEXT_SetBkColor(hItem,0x00BFFFFF);//ÈÄâÈ°πËÉåÊôØËâ≤ËÆæ‰∏∫Á±≥Ëâ≤
000072  49ad              LDR      r1,|L8.808|
000074  4628              MOV      r0,r5
000076  f7fffffe          BL       TEXT_SetBkColor
;;;1706                           TEXT_SetTextColor(hItem, GUI_BLACK);
00007a  2100              MOVS     r1,#0
00007c  4628              MOV      r0,r5
00007e  f7fffffe          BL       TEXT_SetTextColor
;;;1707   
;;;1708                           set_sw = set_1;
000082  2000              MOVS     r0,#0
000084  7020              STRB     r0,[r4,#0]
                  |L8.134|
;;;1709                           break;
;;;1710                       }
;;;1711                       case set_9:
;;;1712                       {
;;;1713                           WM_HWIN hItem;
;;;1714   //                        WM_InvalidateWindow(hWinset);
;;;1715                           hItem = WM_GetDialogItem(hWinset, ID_TEXT_32);
;;;1716                           TEXT_SetBkColor(hItem,GUI_INVALID_COLOR);//ÈÄâÈ°πËÉåÊôØËâ≤ËÆæ‰∏∫ÈÄèÊòé
;;;1717                           TEXT_SetTextColor(hItem, GUI_WHITE);
;;;1718                  
;;;1719                           hItem = WM_GetDialogItem(hWinset, ID_TEXT_22);
;;;1720                           TEXT_SetBkColor(hItem,0x00BFFFFF);//ÈÄâÈ°πËÉåÊôØËâ≤ËÆæ‰∏∫Á±≥Ëâ≤
;;;1721                           TEXT_SetTextColor(hItem, GUI_BLACK);
;;;1722   
;;;1723                           set_sw = set_2;
;;;1724                           break;
;;;1725                       }
;;;1726                       case set_42:
;;;1727                       {
;;;1728                           WM_HWIN hItem;
;;;1729   //                        WM_InvalidateWindow(hWinset);
;;;1730                           hItem = WM_GetDialogItem(hWinset, ID_TEXT_90);
;;;1731                           TEXT_SetBkColor(hItem,GUI_INVALID_COLOR);//ÈÄâÈ°πËÉåÊôØËâ≤ËÆæ‰∏∫ÈÄèÊòé
;;;1732                           TEXT_SetTextColor(hItem, GUI_WHITE);
;;;1733                  
;;;1734                           hItem = WM_GetDialogItem(hWinset, ID_TEXT_23);
;;;1735                           TEXT_SetBkColor(hItem,0x00BFFFFF);//ÈÄâÈ°πËÉåÊôØËâ≤ËÆæ‰∏∫Á±≥Ëâ≤
;;;1736                           TEXT_SetTextColor(hItem, GUI_BLACK);
;;;1737   
;;;1738                           set_sw = set_3;
;;;1739                           break;
;;;1740                       }
;;;1741                       case set_73:
;;;1742                       {
;;;1743                           WM_HWIN hItem;
;;;1744   //                        WM_InvalidateWindow(hWinset);
;;;1745                           hItem = WM_GetDialogItem(hWinset, ID_TEXT_133);
;;;1746                           TEXT_SetBkColor(hItem,GUI_INVALID_COLOR);//ÈÄâÈ°πËÉåÊôØËâ≤ËÆæ‰∏∫ÈÄèÊòé
;;;1747                           TEXT_SetTextColor(hItem, GUI_WHITE);
;;;1748                  
;;;1749                           hItem = WM_GetDialogItem(hWinset, ID_TEXT_24);
;;;1750                           TEXT_SetBkColor(hItem,0x00BFFFFF);//ÈÄâÈ°πËÉåÊôØËâ≤ËÆæ‰∏∫Á±≥Ëâ≤
;;;1751                           TEXT_SetTextColor(hItem, GUI_BLACK);
;;;1752   
;;;1753                           set_sw = set_4;
;;;1754                           break;
;;;1755                       }
;;;1756   //                     case set_11:
;;;1757   //                     {
;;;1758   //                         WM_HWIN hItem;
;;;1759   //                         WM_InvalidateWindow(hWinset);
;;;1760   //                         hItem = WM_GetDialogItem(hWinset, ID_TEXT_34);
;;;1761   //                         TEXT_SetBkColor(hItem,GUI_INVALID_COLOR);//ÈÄâÈ°πËÉåÊôØËâ≤ËÆæ‰∏∫ÈÄèÊòé
;;;1762   //                
;;;1763   //                         hItem = WM_GetDialogItem(hWinset, ID_TEXT_24);
;;;1764   //                         TEXT_SetBkColor(hItem,0x00BFFFFF);//ÈÄâÈ°πËÉåÊôØËâ≤ËÆæ‰∏∫Á±≥Ëâ≤
;;;1765   
;;;1766   //                         set_sw = set_4;
;;;1767   //                         break;
;;;1768   //                     }
;;;1769                       default: break;
;;;1770                   }
;;;1771   //                return set_sw;
;;;1772   }
000086  e8bd9ff0          POP      {r4-r12,pc}
                  |L8.138|
00008a  2929              CMP      r1,#0x29              ;1590
00008c  d07e              BEQ      |L8.396|
00008e  2948              CMP      r1,#0x48              ;1590
000090  d1f9              BNE      |L8.134|
000092  4605              MOV      r5,r0                 ;1745
000094  f6401122          MOV      r1,#0x922             ;1745
000098  4610              MOV      r0,r2                 ;1745
00009a  f7fffffe          BL       WM_GetDialogItem
00009e  4606              MOV      r6,r0                 ;1745
0000a0  f06f4170          MVN      r1,#0xf0000000        ;1746
0000a4  4630              MOV      r0,r6                 ;1746
0000a6  f7fffffe          BL       TEXT_SetBkColor
0000aa  f06f417f          MVN      r1,#0xff000000        ;1747
0000ae  4630              MOV      r0,r6                 ;1747
0000b0  f7fffffe          BL       TEXT_SetTextColor
0000b4  4649              MOV      r1,r9                 ;1749
0000b6  6868              LDR      r0,[r5,#4]            ;1749  ; hWinset
0000b8  f7fffffe          BL       WM_GetDialogItem
0000bc  4605              MOV      r5,r0                 ;1749
0000be  499a              LDR      r1,|L8.808|
0000c0  4628              MOV      r0,r5                 ;1750
0000c2  f7fffffe          BL       TEXT_SetBkColor
0000c6  2100              MOVS     r1,#0                 ;1751
0000c8  4628              MOV      r0,r5                 ;1751
0000ca  f7fffffe          BL       TEXT_SetTextColor
0000ce  2003              MOVS     r0,#3                 ;1753
0000d0  7020              STRB     r0,[r4,#0]            ;1753
0000d2  e7d8              B        |L8.134|
0000d4  4605              MOV      r5,r0                 ;1595
0000d6  4631              MOV      r1,r6                 ;1595
0000d8  4610              MOV      r0,r2                 ;1595
0000da  f7fffffe          BL       WM_GetDialogItem
0000de  4606              MOV      r6,r0                 ;1595
0000e0  f06f4170          MVN      r1,#0xf0000000        ;1596
0000e4  4630              MOV      r0,r6                 ;1596
0000e6  f7fffffe          BL       TEXT_SetBkColor
0000ea  f06f417f          MVN      r1,#0xff000000        ;1597
0000ee  4630              MOV      r0,r6                 ;1597
0000f0  f7fffffe          BL       TEXT_SetTextColor
0000f4  f640013b          MOV      r1,#0x83b             ;1599
0000f8  6868              LDR      r0,[r5,#4]            ;1599  ; hWinset
0000fa  f7fffffe          BL       WM_GetDialogItem
0000fe  4605              MOV      r5,r0                 ;1599
000100  4989              LDR      r1,|L8.808|
000102  4628              MOV      r0,r5                 ;1600
000104  f7fffffe          BL       TEXT_SetBkColor
000108  2100              MOVS     r1,#0                 ;1601
00010a  4628              MOV      r0,r5                 ;1601
00010c  f7fffffe          BL       TEXT_SetTextColor
000110  2007              MOVS     r0,#7                 ;1603
000112  7020              STRB     r0,[r4,#0]            ;1603
000114  e7b7              B        |L8.134|
                  |L8.278|
000116  e083              B        |L8.544|
                  |L8.280|
000118  e0c2              B        |L8.672|
                  |L8.282|
00011a  e0a1              B        |L8.608|
00011c  4605              MOV      r5,r0                 ;1610
00011e  4639              MOV      r1,r7                 ;1610
000120  4610              MOV      r0,r2                 ;1610
000122  f7fffffe          BL       WM_GetDialogItem
000126  4606              MOV      r6,r0                 ;1610
000128  f06f4170          MVN      r1,#0xf0000000        ;1611
00012c  4630              MOV      r0,r6                 ;1611
00012e  f7fffffe          BL       TEXT_SetBkColor
000132  f06f417f          MVN      r1,#0xff000000        ;1612
000136  4630              MOV      r0,r6                 ;1612
000138  f7fffffe          BL       TEXT_SetTextColor
00013c  4651              MOV      r1,r10                ;1614
00013e  6868              LDR      r0,[r5,#4]            ;1614  ; hWinset
000140  f7fffffe          BL       WM_GetDialogItem
000144  4605              MOV      r5,r0                 ;1614
000146  4978              LDR      r1,|L8.808|
000148  4628              MOV      r0,r5                 ;1615
00014a  f7fffffe          BL       TEXT_SetBkColor
00014e  2100              MOVS     r1,#0                 ;1616
000150  4628              MOV      r0,r5                 ;1616
000152  f7fffffe          BL       TEXT_SetTextColor
000156  2008              MOVS     r0,#8                 ;1618
000158  7020              STRB     r0,[r4,#0]            ;1618
00015a  e794              B        |L8.134|
00015c  4606              MOV      r6,r0                 ;1625
00015e  4641              MOV      r1,r8                 ;1625
000160  4610              MOV      r0,r2                 ;1625
000162  f7fffffe          BL       WM_GetDialogItem
000166  4607              MOV      r7,r0                 ;1625
000168  f06f4170          MVN      r1,#0xf0000000        ;1626
00016c  4638              MOV      r0,r7                 ;1626
00016e  f7fffffe          BL       TEXT_SetBkColor
000172  f06f417f          MVN      r1,#0xff000000        ;1627
000176  4638              MOV      r0,r7                 ;1627
000178  f7fffffe          BL       TEXT_SetTextColor
00017c  4659              MOV      r1,r11                ;1629
00017e  6870              LDR      r0,[r6,#4]            ;1629  ; hWinset
000180  f7fffffe          BL       WM_GetDialogItem
000184  4606              MOV      r6,r0                 ;1629
000186  4968              LDR      r1,|L8.808|
000188  4630              MOV      r0,r6                 ;1630
00018a  e000              B        |L8.398|
                  |L8.396|
00018c  e0a8              B        |L8.736|
                  |L8.398|
00018e  f7fffffe          BL       TEXT_SetBkColor
000192  2100              MOVS     r1,#0                 ;1631
000194  4630              MOV      r0,r6                 ;1631
000196  f7fffffe          BL       TEXT_SetTextColor
00019a  7025              STRB     r5,[r4,#0]            ;1633
00019c  e773              B        |L8.134|
00019e  4605              MOV      r5,r0                 ;1640
0001a0  4649              MOV      r1,r9                 ;1640
0001a2  4610              MOV      r0,r2                 ;1640
0001a4  f7fffffe          BL       WM_GetDialogItem
0001a8  4606              MOV      r6,r0                 ;1640
0001aa  f06f4170          MVN      r1,#0xf0000000        ;1641
0001ae  4630              MOV      r0,r6                 ;1641
0001b0  f7fffffe          BL       TEXT_SetBkColor
0001b4  f06f417f          MVN      r1,#0xff000000        ;1642
0001b8  4630              MOV      r0,r6                 ;1642
0001ba  f7fffffe          BL       TEXT_SetTextColor
0001be  f6401122          MOV      r1,#0x922             ;1644
0001c2  6868              LDR      r0,[r5,#4]            ;1644  ; hWinset
0001c4  f7fffffe          BL       WM_GetDialogItem
0001c8  4605              MOV      r5,r0                 ;1644
0001ca  4957              LDR      r1,|L8.808|
0001cc  4628              MOV      r0,r5                 ;1645
0001ce  f7fffffe          BL       TEXT_SetBkColor
0001d2  2100              MOVS     r1,#0                 ;1646
0001d4  4628              MOV      r0,r5                 ;1646
0001d6  f7fffffe          BL       TEXT_SetTextColor
0001da  2048              MOVS     r0,#0x48              ;1648
0001dc  7020              STRB     r0,[r4,#0]            ;1648
0001de  e752              B        |L8.134|
0001e0  4606              MOV      r6,r0                 ;1655
0001e2  f640012f          MOV      r1,#0x82f             ;1655
0001e6  4610              MOV      r0,r2                 ;1655
0001e8  f7fffffe          BL       WM_GetDialogItem
0001ec  4607              MOV      r7,r0                 ;1655
0001ee  f06f4170          MVN      r1,#0xf0000000        ;1656
0001f2  4638              MOV      r0,r7                 ;1656
0001f4  f7fffffe          BL       TEXT_SetBkColor
0001f8  f06f417f          MVN      r1,#0xff000000        ;1657
0001fc  4638              MOV      r0,r7                 ;1657
0001fe  f7fffffe          BL       TEXT_SetTextColor
000202  4659              MOV      r1,r11                ;1659
000204  6870              LDR      r0,[r6,#4]            ;1659  ; hWinset
000206  f7fffffe          BL       WM_GetDialogItem
00020a  4606              MOV      r6,r0                 ;1659
00020c  4946              LDR      r1,|L8.808|
00020e  4630              MOV      r0,r6                 ;1660
000210  f7fffffe          BL       TEXT_SetBkColor
000214  2100              MOVS     r1,#0                 ;1661
000216  4630              MOV      r0,r6                 ;1661
000218  f7fffffe          BL       TEXT_SetTextColor
00021c  7025              STRB     r5,[r4,#0]            ;1663
00021e  e732              B        |L8.134|
                  |L8.544|
000220  4606              MOV      r6,r0                 ;1670
000222  f44f6103          MOV      r1,#0x830             ;1670
000226  4610              MOV      r0,r2                 ;1670
000228  f7fffffe          BL       WM_GetDialogItem
00022c  4607              MOV      r7,r0                 ;1670
00022e  f06f4170          MVN      r1,#0xf0000000        ;1671
000232  4638              MOV      r0,r7                 ;1671
000234  f7fffffe          BL       TEXT_SetBkColor
000238  f06f417f          MVN      r1,#0xff000000        ;1672
00023c  4638              MOV      r0,r7                 ;1672
00023e  f7fffffe          BL       TEXT_SetTextColor
000242  4659              MOV      r1,r11                ;1674
000244  6870              LDR      r0,[r6,#4]            ;1674  ; hWinset
000246  f7fffffe          BL       WM_GetDialogItem
00024a  4606              MOV      r6,r0                 ;1674
00024c  4936              LDR      r1,|L8.808|
00024e  4630              MOV      r0,r6                 ;1675
000250  f7fffffe          BL       TEXT_SetBkColor
000254  2100              MOVS     r1,#0                 ;1676
000256  4630              MOV      r0,r6                 ;1676
000258  f7fffffe          BL       TEXT_SetTextColor
00025c  7025              STRB     r5,[r4,#0]            ;1678
00025e  e712              B        |L8.134|
                  |L8.608|
000260  4606              MOV      r6,r0                 ;1685
000262  f6400131          MOV      r1,#0x831             ;1685
000266  4610              MOV      r0,r2                 ;1685
000268  f7fffffe          BL       WM_GetDialogItem
00026c  4607              MOV      r7,r0                 ;1685
00026e  f06f4170          MVN      r1,#0xf0000000        ;1686
000272  4638              MOV      r0,r7                 ;1686
000274  f7fffffe          BL       TEXT_SetBkColor
000278  f06f417f          MVN      r1,#0xff000000        ;1687
00027c  4638              MOV      r0,r7                 ;1687
00027e  f7fffffe          BL       TEXT_SetTextColor
000282  4659              MOV      r1,r11                ;1689
000284  6870              LDR      r0,[r6,#4]            ;1689  ; hWinset
000286  f7fffffe          BL       WM_GetDialogItem
00028a  4606              MOV      r6,r0                 ;1689
00028c  4926              LDR      r1,|L8.808|
00028e  4630              MOV      r0,r6                 ;1690
000290  f7fffffe          BL       TEXT_SetBkColor
000294  2100              MOVS     r1,#0                 ;1691
000296  4630              MOV      r0,r6                 ;1691
000298  f7fffffe          BL       TEXT_SetTextColor
00029c  7025              STRB     r5,[r4,#0]            ;1693
00029e  e6f2              B        |L8.134|
                  |L8.672|
0002a0  4605              MOV      r5,r0                 ;1715
0002a2  4651              MOV      r1,r10                ;1715
0002a4  4610              MOV      r0,r2                 ;1715
0002a6  f7fffffe          BL       WM_GetDialogItem
0002aa  4606              MOV      r6,r0                 ;1715
0002ac  f06f4170          MVN      r1,#0xf0000000        ;1716
0002b0  4630              MOV      r0,r6                 ;1716
0002b2  f7fffffe          BL       TEXT_SetBkColor
0002b6  f06f417f          MVN      r1,#0xff000000        ;1717
0002ba  4630              MOV      r0,r6                 ;1717
0002bc  f7fffffe          BL       TEXT_SetTextColor
0002c0  4639              MOV      r1,r7                 ;1719
0002c2  6868              LDR      r0,[r5,#4]            ;1719  ; hWinset
0002c4  f7fffffe          BL       WM_GetDialogItem
0002c8  4605              MOV      r5,r0                 ;1719
0002ca  4917              LDR      r1,|L8.808|
0002cc  4628              MOV      r0,r5                 ;1720
0002ce  f7fffffe          BL       TEXT_SetBkColor
0002d2  2100              MOVS     r1,#0                 ;1721
0002d4  4628              MOV      r0,r5                 ;1721
0002d6  f7fffffe          BL       TEXT_SetTextColor
0002da  2001              MOVS     r0,#1                 ;1723
0002dc  7020              STRB     r0,[r4,#0]            ;1723
0002de  e6d2              B        |L8.134|
                  |L8.736|
0002e0  4605              MOV      r5,r0                 ;1730
0002e2  4659              MOV      r1,r11                ;1730
0002e4  4610              MOV      r0,r2                 ;1730
0002e6  f7fffffe          BL       WM_GetDialogItem
0002ea  4606              MOV      r6,r0                 ;1730
0002ec  f06f4170          MVN      r1,#0xf0000000        ;1731
0002f0  4630              MOV      r0,r6                 ;1731
0002f2  f7fffffe          BL       TEXT_SetBkColor
0002f6  f06f417f          MVN      r1,#0xff000000        ;1732
0002fa  4630              MOV      r0,r6                 ;1732
0002fc  f7fffffe          BL       TEXT_SetTextColor
000300  4641              MOV      r1,r8                 ;1734
000302  6868              LDR      r0,[r5,#4]            ;1734  ; hWinset
000304  f7fffffe          BL       WM_GetDialogItem
000308  4605              MOV      r5,r0                 ;1734
00030a  4907              LDR      r1,|L8.808|
00030c  4628              MOV      r0,r5                 ;1735
00030e  f7fffffe          BL       TEXT_SetBkColor
000312  2100              MOVS     r1,#0                 ;1736
000314  4628              MOV      r0,r5                 ;1736
000316  f7fffffe          BL       TEXT_SetTextColor
00031a  2002              MOVS     r0,#2                 ;1738
00031c  7020              STRB     r0,[r4,#0]            ;1738
00031e  e6b2              B        |L8.134|
;;;1773   
                          ENDP

                  |L8.800|
                          DCD      set_sw
                  |L8.804|
                          DCD      ||.data||
                  |L8.808|
                          DCD      0x00bfffff

                          AREA ||i.SET_OP_UP||, CODE, READONLY, ALIGN=2

                          REQUIRE _printf_percent
                          REQUIRE _printf_widthprec
                          REQUIRE _printf_f
                          REQUIRE _printf_fp_dec
                  SET_OP_UP PROC
;;;1095   
;;;1096   void SET_OP_UP(void) {
000000  e92d4ff0          PUSH     {r4-r11,lr}
000004  ed2d8b02          VPUSH    {d8}
000008  b087              SUB      sp,sp,#0x1c
;;;1097   				vu8 i;
;;;1098                   char buf[5];
;;;1099     
;;;1100   
;;;1101                   float dis_max_v = (float)set_max_v/1000;
00000a  4cfc              LDR      r4,|L9.1020|
00000c  6ba0              LDR      r0,[r4,#0x38]  ; Run_Control
00000e  ed9f8afc          VLDR     s16,|L9.1024|
;;;1102                   float dis_min_v = (float)set_min_v/1000;
000012  4620              MOV      r0,r4
000014  6bc0              LDR      r0,[r0,#0x3c]  ; Run_Control
000016  ee000a10          VMOV     s0,r0
00001a  eeb80a40          VCVT.F32.U32 s0,s0
00001e  eddf0af8          VLDR     s1,|L9.1024|
000022  eec08a20          VDIV.F32 s17,s0,s1
;;;1103                   vu16 dis_max_r = set_max_r;
000026  4620              MOV      r0,r4
000028  6c00              LDR      r0,[r0,#0x40]  ; Run_Control
00002a  9003              STR      r0,[sp,#0xc]
;;;1104                   vu16 dis_min_r = set_min_r;
00002c  4620              MOV      r0,r4
00002e  6c40              LDR      r0,[r0,#0x44]  ; Run_Control
000030  9002              STR      r0,[sp,#8]
;;;1105                   float dis_max_c = (float)set_max_c/1000;
000032  4620              MOV      r0,r4
000034  6c80              LDR      r0,[r0,#0x48]  ; Run_Control
;;;1106                   float dis_min_c = (float)set_min_c/1000;
000036  4620              MOV      r0,r4
000038  6cc0              LDR      r0,[r0,#0x4c]  ; Run_Control
;;;1107                   switch(set_sw){
00003a  4df2              LDR      r5,|L9.1028|
00003c  7829              LDRB     r1,[r5,#0]  ; set_sw
;;;1108                       case set_1:
;;;1109                       {
;;;1110                           WM_HWIN hItem;
;;;1111   //                        WM_InvalidateWindow(hWinset);
;;;1112                           hItem = WM_GetDialogItem(hWinset, ID_TEXT_21);
00003e  48f2              LDR      r0,|L9.1032|
;;;1113                           TEXT_SetBkColor(hItem,GUI_INVALID_COLOR);//ÈÄâÈ°πËÉåÊôØËâ≤ËÆæ‰∏∫ÈÄèÊòé
;;;1114                           TEXT_SetTextColor(hItem, GUI_WHITE);
;;;1115   
;;;1116                           hItem = WM_GetDialogItem(hWinset, ID_TEXT_27);
;;;1117                           TEXT_SetBkColor(hItem,0x00BFFFFF);//ÈÄâÈ°πËÉåÊôØËâ≤ËÆæ‰∏∫Á±≥Ëâ≤
;;;1118                           TEXT_SetTextColor(hItem, GUI_BLACK);
;;;1119                           
;;;1120                           
;;;1121                           set_sw = set_7; 
;;;1122                           break;
;;;1123                       }                        
;;;1124                       case set_2:
;;;1125                       {
;;;1126                           WM_HWIN hItem;
;;;1127   //                        WM_InvalidateWindow(hWinset);
;;;1128                           hItem = WM_GetDialogItem(hWinset, ID_TEXT_22);
;;;1129                           TEXT_SetBkColor(hItem,GUI_INVALID_COLOR);//ÈÄâÈ°πËÉåÊôØËâ≤ËÆæ‰∏∫ÈÄèÊòé
;;;1130                           TEXT_SetTextColor(hItem, GUI_WHITE);
;;;1131                  
;;;1132                           hItem = WM_GetDialogItem(hWinset, ID_TEXT_21);
;;;1133                           TEXT_SetBkColor(hItem,0x00BFFFFF);//ÈÄâÈ°πËÉåÊôØËâ≤ËÆæ‰∏∫Á±≥Ëâ≤
;;;1134                           TEXT_SetTextColor(hItem, GUI_BLACK);
;;;1135   
;;;1136                           set_sw = set_1;
;;;1137                           break;
;;;1138                       }
;;;1139                       case set_3:
;;;1140                       {
;;;1141                           WM_HWIN hItem;
;;;1142   //                        WM_InvalidateWindow(hWinset);
;;;1143                           hItem = WM_GetDialogItem(hWinset, ID_TEXT_23);
;;;1144                           TEXT_SetBkColor(hItem,GUI_INVALID_COLOR);//ÈÄâÈ°πËÉåÊôØËâ≤ËÆæ‰∏∫ÈÄèÊòé
;;;1145                           TEXT_SetTextColor(hItem, GUI_WHITE);
;;;1146                  
;;;1147                           hItem = WM_GetDialogItem(hWinset, ID_TEXT_22);
;;;1148                           TEXT_SetBkColor(hItem,0x00BFFFFF);//ÈÄâÈ°πËÉåÊôØËâ≤ËÆæ‰∏∫Á±≥Ëâ≤
;;;1149                           TEXT_SetTextColor(hItem, GUI_BLACK);
;;;1150   
;;;1151                           set_sw = set_2;
000040  2601              MOVS     r6,#1
;;;1152                           break;
;;;1153                       }
;;;1154                       case set_4:
;;;1155                       {
;;;1156                           WM_HWIN hItem;
;;;1157   //                        WM_InvalidateWindow(hWinset);
;;;1158                           hItem = WM_GetDialogItem(hWinset, ID_TEXT_24);
;;;1159                           TEXT_SetBkColor(hItem,GUI_INVALID_COLOR);//ÈÄâÈ°πËÉåÊôØËâ≤ËÆæ‰∏∫ÈÄèÊòé
;;;1160                           TEXT_SetTextColor(hItem, GUI_WHITE);
;;;1161                  
;;;1162                           hItem = WM_GetDialogItem(hWinset, ID_TEXT_23);
;;;1163                           TEXT_SetBkColor(hItem,0x00BFFFFF);//ÈÄâÈ°πËÉåÊôØËâ≤ËÆæ‰∏∫Á±≥Ëâ≤
;;;1164                           TEXT_SetTextColor(hItem, GUI_BLACK);
;;;1165   
;;;1166                           set_sw = set_3;
000042  2702              MOVS     r7,#2
000044  6842              LDR      r2,[r0,#4]            ;1107
;;;1167                           break;
;;;1168                       }
;;;1169                       case set_5:
;;;1170                       {
;;;1171                           WM_HWIN hItem;
;;;1172   //                        WM_InvalidateWindow(hWinset);
;;;1173                           hItem = WM_GetDialogItem(hWinset, ID_TEXT_25);
;;;1174                           TEXT_SetBkColor(hItem,GUI_INVALID_COLOR);//ÈÄâÈ°πËÉåÊôØËâ≤ËÆæ‰∏∫ÈÄèÊòé
;;;1175                           TEXT_SetTextColor(hItem, GUI_WHITE);
;;;1176                  
;;;1177                           hItem = WM_GetDialogItem(hWinset, ID_TEXT_24);
;;;1178                           TEXT_SetBkColor(hItem,0x00BFFFFF);//ÈÄâÈ°πËÉåÊôØËâ≤ËÆæ‰∏∫Á±≥Ëâ≤
;;;1179                           TEXT_SetTextColor(hItem, GUI_BLACK);
;;;1180   
;;;1181                           set_sw = set_4;
000046  f04f0803          MOV      r8,#3
;;;1182                           break;
;;;1183                       }
;;;1184                       case set_6:
;;;1185                       {
;;;1186                           WM_HWIN hItem;
;;;1187   //                        WM_InvalidateWindow(hWinset);
;;;1188                           hItem = WM_GetDialogItem(hWinset, ID_TEXT_26);
;;;1189                           TEXT_SetBkColor(hItem,GUI_INVALID_COLOR);//ÈÄâÈ°πËÉåÊôØËâ≤ËÆæ‰∏∫ÈÄèÊòé
;;;1190                           TEXT_SetTextColor(hItem, GUI_WHITE);
;;;1191                  
;;;1192                           hItem = WM_GetDialogItem(hWinset, ID_TEXT_25);
;;;1193                           TEXT_SetBkColor(hItem,0x00BFFFFF);//ÈÄâÈ°πËÉåÊôØËâ≤ËÆæ‰∏∫Á±≥Ëâ≤
;;;1194                           TEXT_SetTextColor(hItem, GUI_BLACK);
;;;1195   
;;;1196                           set_sw = set_5;
00004a  f04f0904          MOV      r9,#4
;;;1197                           break;
;;;1198                       }
;;;1199                       case set_7:
;;;1200                       {
;;;1201                           WM_HWIN hItem;
;;;1202   //                        WM_InvalidateWindow(hWinset);
;;;1203                           hItem = WM_GetDialogItem(hWinset, ID_TEXT_27);
;;;1204                           TEXT_SetBkColor(hItem,GUI_INVALID_COLOR);//ÈÄâÈ°πËÉåÊôØËâ≤ËÆæ‰∏∫ÈÄèÊòé
;;;1205                           TEXT_SetTextColor(hItem, GUI_WHITE);
;;;1206                  
;;;1207                           hItem = WM_GetDialogItem(hWinset, ID_TEXT_26);
;;;1208                           TEXT_SetBkColor(hItem,0x00BFFFFF);//ÈÄâÈ°πËÉåÊôØËâ≤ËÆæ‰∏∫Á±≥Ëâ≤
;;;1209                           TEXT_SetTextColor(hItem, GUI_BLACK);
;;;1210   
;;;1211                           set_sw = set_6;
00004e  f04f0a05          MOV      r10,#5
000052  2910              CMP      r1,#0x10              ;1107
000054  d07e              BEQ      |L9.340|
000056  dc0e              BGT      |L9.118|
000058  f640042b          MOV      r4,#0x82b             ;1112
00005c  f6400b2c          MOV      r11,#0x82c            ;1128
000060  290d              CMP      r1,#0xd               ;1107
000062  d278              BCS      |L9.342|
000064  e8dff001          TBB      [pc,r1]               ;1107
000068  89b2d2f9          DCB      0x89,0xb2,0xd2,0xf9
00006c  f7f6f5f4          DCB      0xf7,0xf6,0xf5,0xf4
000070  f3a9a9a9          DCB      0xf3,0xa9,0xa9,0xa9
000074  f200              DCB      0xf2,0x00
                  |L9.118|
;;;1212                           break;
;;;1213                       }
;;;1214                       case set_8:
;;;1215                       {
;;;1216                           WM_HWIN hItem;
;;;1217   //                        WM_InvalidateWindow(hWinset);
;;;1218                           hItem = WM_GetDialogItem(hWinset, ID_TEXT_31);
;;;1219                           TEXT_SetBkColor(hItem,GUI_INVALID_COLOR);//ÈÄâÈ°πËÉåÊôØËâ≤ËÆæ‰∏∫ÈÄèÊòé
;;;1220                           TEXT_SetTextColor(hItem, GUI_WHITE);
;;;1221                  
;;;1222                           hItem = WM_GetDialogItem(hWinset, ID_TEXT_133);
;;;1223                           TEXT_SetBkColor(hItem,0x00BFFFFF);//ÈÄâÈ°πËÉåÊôØËâ≤ËÆæ‰∏∫Á±≥Ëâ≤
;;;1224                           TEXT_SetTextColor(hItem, GUI_BLACK);
;;;1225   
;;;1226                           set_sw = set_73;
;;;1227                           break;
;;;1228                       }
;;;1229                       case set_9:
;;;1230                       {
;;;1231                           WM_HWIN hItem;
;;;1232   //                        WM_InvalidateWindow(hWinset);
;;;1233                           hItem = WM_GetDialogItem(hWinset, ID_TEXT_32);
;;;1234                           TEXT_SetBkColor(hItem,GUI_INVALID_COLOR);//ÈÄâÈ°πËÉåÊôØËâ≤ËÆæ‰∏∫ÈÄèÊòé
;;;1235                           TEXT_SetTextColor(hItem, GUI_WHITE);
;;;1236                  
;;;1237                           hItem = WM_GetDialogItem(hWinset, ID_TEXT_31);
;;;1238                           TEXT_SetBkColor(hItem,0x00BFFFFF);//ÈÄâÈ°πËÉåÊôØËâ≤ËÆæ‰∏∫Á±≥Ëâ≤
;;;1239                           TEXT_SetTextColor(hItem, GUI_BLACK);
;;;1240   
;;;1241                           set_sw = set_8;
;;;1242                           break;
;;;1243                       }
;;;1244                       case set_42:
;;;1245                       {
;;;1246                           WM_HWIN hItem;
;;;1247   //                        WM_InvalidateWindow(hWinset);
;;;1248                           hItem = WM_GetDialogItem(hWinset, ID_TEXT_90);
;;;1249                           TEXT_SetBkColor(hItem,GUI_INVALID_COLOR);//ÈÄâÈ°πËÉåÊôØËâ≤ËÆæ‰∏∫ÈÄèÊòé
;;;1250                           TEXT_SetTextColor(hItem, GUI_WHITE);
;;;1251                  
;;;1252                           hItem = WM_GetDialogItem(hWinset, ID_TEXT_32);
;;;1253                           TEXT_SetBkColor(hItem,0x00BFFFFF);//ÈÄâÈ°πËÉåÊôØËâ≤ËÆæ‰∏∫Á±≥Ëâ≤
;;;1254                           TEXT_SetTextColor(hItem, GUI_BLACK);
;;;1255   
;;;1256                           set_sw = set_9;
;;;1257                           break;
;;;1258                       }
;;;1259                       case set_73:
;;;1260                       {
;;;1261                           WM_HWIN hItem;
;;;1262   //                        WM_InvalidateWindow(hWinset);
;;;1263                           hItem = WM_GetDialogItem(hWinset, ID_TEXT_133);
;;;1264                           TEXT_SetBkColor(hItem,GUI_INVALID_COLOR);//ÈÄâÈ°πËÉåÊôØËâ≤ËÆæ‰∏∫ÈÄèÊòé
;;;1265                           TEXT_SetTextColor(hItem, GUI_WHITE);
;;;1266                  
;;;1267                           hItem = WM_GetDialogItem(hWinset, ID_TEXT_90);
;;;1268                           TEXT_SetBkColor(hItem,0x00BFFFFF);//ÈÄâÈ°πËÉåÊôØËâ≤ËÆæ‰∏∫Á±≥Ëâ≤
;;;1269                           TEXT_SetTextColor(hItem, GUI_BLACK);
;;;1270   
;;;1271                           set_sw = set_42;
;;;1272                           break;
;;;1273                       }
;;;1274   					
;;;1275   					case set_13:
;;;1276                       {
;;;1277   						WM_HWIN hItem;						
;;;1278   						hItem = WM_GetDialogItem(hWinset, ID_TEXT_36);
;;;1279                           TEXT_SetBkColor(hItem,GUI_INVALID_COLOR);//ÈÄâÈ°πËÉåÊôØËâ≤ËÆæ‰∏∫ÈÄèÊòé
;;;1280                           TEXT_SetTextColor(hItem, GUI_WHITE);
;;;1281                          
;;;1282                           sprintf(buf,"%.3f",dis_min_v);
;;;1283                           TEXT_SetText(hItem,buf);
;;;1284                  
;;;1285                           hItem = WM_GetDialogItem(hWinset, ID_TEXT_35);
;;;1286                           TEXT_SetBkColor(hItem,0x00BFFFFF);//ÈÄâÈ°πËÉåÊôØËâ≤ËÆæ‰∏∫Á±≥Ëâ≤
;;;1287                           TEXT_SetTextColor(hItem, GUI_BLACK);
;;;1288   							
;;;1289   						for(i=0;i<5;i++){
;;;1290   							set_limit[i] = '\0';
;;;1291   						}
;;;1292   						bit = 1;
;;;1293                           dot_flag = 0;
;;;1294                           set_sw = set_12;
;;;1295                           break;
;;;1296   					}
;;;1297   					
;;;1298   					case set_83:
;;;1299                       {
;;;1300   						WM_HWIN hItem;						
;;;1301   						hItem = WM_GetDialogItem(hWinset, ID_TEXT_155);
;;;1302                           TEXT_SetBkColor(hItem,GUI_INVALID_COLOR);//ÈÄâÈ°πËÉåÊôØËâ≤ËÆæ‰∏∫ÈÄèÊòé
;;;1303                           TEXT_SetTextColor(hItem, GUI_WHITE);
;;;1304                          
;;;1305                           sprintf(buf,"%.3f",(float)set_min_lv/1000);
;;;1306                           TEXT_SetText(hItem,buf);
;;;1307                  
;;;1308                           hItem = WM_GetDialogItem(hWinset, ID_TEXT_154);
;;;1309                           TEXT_SetBkColor(hItem,0x00BFFFFF);//ÈÄâÈ°πËÉåÊôØËâ≤ËÆæ‰∏∫Á±≥Ëâ≤
;;;1310                           TEXT_SetTextColor(hItem, GUI_BLACK);
;;;1311   							
;;;1312   						for(i=0;i<5;i++){
;;;1313   							set_limit[i] = '\0';
;;;1314   						}
;;;1315   						bit = 1;
;;;1316                           dot_flag = 0;
;;;1317                           set_sw = set_82;
;;;1318                           break;
;;;1319   					}
;;;1320   					
;;;1321   					case set_17:
;;;1322                       {
;;;1323   						WM_HWIN hItem;						
;;;1324   						hItem = WM_GetDialogItem(hWinset, ID_TEXT_40);
;;;1325                           TEXT_SetBkColor(hItem,GUI_INVALID_COLOR);//ÈÄâÈ°πËÉåÊôØËâ≤ËÆæ‰∏∫ÈÄèÊòé
;;;1326                           TEXT_SetTextColor(hItem, GUI_WHITE);
;;;1327                          
;;;1328                           sprintf(buf,"%.3f",(float)set_min_c/1000);
;;;1329                           TEXT_SetText(hItem,buf);
;;;1330                  
;;;1331                           hItem = WM_GetDialogItem(hWinset, ID_TEXT_39);
;;;1332                           TEXT_SetBkColor(hItem,0x00BFFFFF);//ÈÄâÈ°πËÉåÊôØËâ≤ËÆæ‰∏∫Á±≥Ëâ≤
;;;1333                           TEXT_SetTextColor(hItem, GUI_BLACK);
;;;1334   							
;;;1335   						for(i=0;i<5;i++){
;;;1336   							set_limit[i] = '\0';
;;;1337   						}
;;;1338   						bit = 1;
;;;1339                           dot_flag = 0;
;;;1340                           set_sw = set_16;
;;;1341                           break;
;;;1342   					}
;;;1343   					
;;;1344   					case set_85:
;;;1345                       {
;;;1346   						WM_HWIN hItem;						
;;;1347   						hItem = WM_GetDialogItem(hWinset, ID_TEXT_157);
;;;1348                           TEXT_SetBkColor(hItem,GUI_INVALID_COLOR);//ÈÄâÈ°πËÉåÊôØËâ≤ËÆæ‰∏∫ÈÄèÊòé
;;;1349                           TEXT_SetTextColor(hItem, GUI_WHITE);
;;;1350                          
;;;1351                           sprintf(buf,"%.3f",(float)set_min_pc/1000);
;;;1352                           TEXT_SetText(hItem,buf);
;;;1353                  
;;;1354                           hItem = WM_GetDialogItem(hWinset, ID_TEXT_156);
;;;1355                           TEXT_SetBkColor(hItem,0x00BFFFFF);//ÈÄâÈ°πËÉåÊôØËâ≤ËÆæ‰∏∫Á±≥Ëâ≤
;;;1356                           TEXT_SetTextColor(hItem, GUI_BLACK);
;;;1357   							
;;;1358   						for(i=0;i<5;i++){
;;;1359   							set_limit[i] = '\0';
;;;1360   						}
;;;1361   						bit = 1;
;;;1362                           dot_flag = 0;
;;;1363                           set_sw = set_84;
;;;1364                           break;
;;;1365   					}
;;;1366   					
;;;1367                       case set_43:
;;;1368                       {
;;;1369                           WM_HWIN hItem;
;;;1370                           hItem = WM_GetDialogItem(hWinset, ID_TEXT_91);
;;;1371                           TEXT_SetBkColor(hItem,GUI_INVALID_COLOR);//ÈÄâÈ°πËÉåÊôØËâ≤ËÆæ‰∏∫ÈÄèÊòé
;;;1372                           TEXT_SetTextColor(hItem, GUI_WHITE);
;;;1373                           
;;;1374                           hItem = WM_GetDialogItem(hWinset, ID_TEXT_95);
;;;1375                           TEXT_SetBkColor(hItem,0x00BFFFFF);//ÈÄâÈ°πËÉåÊôØËâ≤ËÆæ‰∏∫Á±≥Ëâ≤
;;;1376                           TEXT_SetTextColor(hItem, GUI_BLACK);
;;;1377                           
;;;1378                           switch(b_type)
000076  f8dfb394          LDR      r11,|L9.1036|
;;;1379                           {
;;;1380                               case Lion:
;;;1381                               {
;;;1382                                   buffer = LiMH;
00007a  4ce5              LDR      r4,|L9.1040|
00007c  292d              CMP      r1,#0x2d              ;1107
00007e  d06b              BEQ      |L9.344|
000080  dc30              BGT      |L9.228|
000082  2929              CMP      r1,#0x29              ;1107
000084  d069              BEQ      |L9.346|
000086  292a              CMP      r1,#0x2a              ;1107
000088  d068              BEQ      |L9.348|
00008a  292b              CMP      r1,#0x2b              ;1107
00008c  d067              BEQ      |L9.350|
00008e  292c              CMP      r1,#0x2c              ;1107
000090  d161              BNE      |L9.342|
;;;1383                                   break;
;;;1384                               }
;;;1385                               case NiMH:
;;;1386                               {
;;;1387                                   buffer = LiMH;
;;;1388                                   break;
;;;1389                               }
;;;1390                               case NiCd:
;;;1391                               {
;;;1392                                   buffer = LiMH;
;;;1393                                   break;
;;;1394                               }
;;;1395                               case SLA:
;;;1396                               {
;;;1397                                   buffer = LiMH;
;;;1398                                   break;
;;;1399                               }
;;;1400                               case LiMH:
;;;1401                               {
;;;1402                                   buffer = SLA;
;;;1403                                   break;
;;;1404                               }
;;;1405                           }
;;;1406   
;;;1407                           set_sw = set_47;
;;;1408                           break;
;;;1409                       }
;;;1410                       case set_44:
;;;1411                       {
;;;1412                           WM_HWIN hItem;
;;;1413                           hItem = WM_GetDialogItem(hWinset, ID_TEXT_92);
;;;1414                           TEXT_SetBkColor(hItem,GUI_INVALID_COLOR);//ÈÄâÈ°πËÉåÊôØËâ≤ËÆæ‰∏∫ÈÄèÊòé
;;;1415                           TEXT_SetTextColor(hItem, GUI_WHITE);
;;;1416                  
;;;1417                           hItem = WM_GetDialogItem(hWinset, ID_TEXT_91);
;;;1418                           TEXT_SetBkColor(hItem,0x00BFFFFF);//ÈÄâÈ°πËÉåÊôØËâ≤ËÆæ‰∏∫Á±≥Ëâ≤
;;;1419                           TEXT_SetTextColor(hItem, GUI_BLACK);
;;;1420                           
;;;1421                           switch(b_type)
;;;1422                           {
;;;1423                               case Lion:
;;;1424                               {
;;;1425                                   buffer = Lion;
;;;1426                                   break;
;;;1427                               }
;;;1428                               case NiMH:
;;;1429                               {
;;;1430                                   buffer = NiMH;
;;;1431                                   break;
;;;1432                               }
;;;1433                               case NiCd:
;;;1434                               {
;;;1435                                   buffer = NiCd;
;;;1436                                   break;
;;;1437                               }
;;;1438                               case SLA:
;;;1439                               {
;;;1440                                   buffer = SLA;
;;;1441                                   break;
;;;1442                               }
;;;1443                               case LiMH:
;;;1444                               {
;;;1445                                   buffer = LiMH;
;;;1446                                   break;
;;;1447                               }
;;;1448                           }
;;;1449   
;;;1450                           set_sw = set_43;
;;;1451                           break;
;;;1452                       }
;;;1453                       case set_45:
;;;1454                       {
;;;1455                           WM_HWIN hItem;
;;;1456                           hItem = WM_GetDialogItem(hWinset, ID_TEXT_93);
000092  4680              MOV      r8,r0
000094  f6401101          MOV      r1,#0x901
000098  4610              MOV      r0,r2
00009a  f7fffffe          BL       WM_GetDialogItem
00009e  4681              MOV      r9,r0
;;;1457                           TEXT_SetBkColor(hItem,GUI_INVALID_COLOR);//ÈÄâÈ°πËÉåÊôØËâ≤ËÆæ‰∏∫ÈÄèÊòé
0000a0  f06f4170          MVN      r1,#0xf0000000
0000a4  4648              MOV      r0,r9
0000a6  f7fffffe          BL       TEXT_SetBkColor
;;;1458                           TEXT_SetTextColor(hItem, GUI_WHITE);
0000aa  f06f417f          MVN      r1,#0xff000000
0000ae  4648              MOV      r0,r9
0000b0  f7fffffe          BL       TEXT_SetTextColor
;;;1459                  
;;;1460                           hItem = WM_GetDialogItem(hWinset, ID_TEXT_92);
0000b4  f44f6110          MOV      r1,#0x900
0000b8  f8d80004          LDR      r0,[r8,#4]  ; hWinset
0000bc  f7fffffe          BL       WM_GetDialogItem
0000c0  4680              MOV      r8,r0
;;;1461                           TEXT_SetBkColor(hItem,0x00BFFFFF);//ÈÄâÈ°πËÉåÊôØËâ≤ËÆæ‰∏∫Á±≥Ëâ≤
0000c2  49d4              LDR      r1,|L9.1044|
0000c4  4640              MOV      r0,r8
0000c6  f7fffffe          BL       TEXT_SetBkColor
;;;1462                           TEXT_SetTextColor(hItem, GUI_BLACK);
0000ca  2100              MOVS     r1,#0
0000cc  4640              MOV      r0,r8
0000ce  f7fffffe          BL       TEXT_SetTextColor
;;;1463                           
;;;1464                           switch(b_type)
0000d2  f89b0000          LDRB     r0,[r11,#0]  ; b_type
0000d6  2806              CMP      r0,#6
0000d8  d274              BCS      |L9.452|
0000da  e8dff000          TBB      [pc,r0]
0000de  73fd              DCB      0x73,0xfd
0000e0  fcfbfaf9          DCB      0xfc,0xfb,0xfa,0xf9
                  |L9.228|
0000e4  292e              CMP      r1,#0x2e              ;1107
0000e6  d06e              BEQ      |L9.454|
0000e8  2948              CMP      r1,#0x48              ;1107
0000ea  d06d              BEQ      |L9.456|
0000ec  4fca              LDR      r7,|L9.1048|
0000ee  2952              CMP      r1,#0x52              ;1107
0000f0  d06b              BEQ      |L9.458|
0000f2  2954              CMP      r1,#0x54              ;1107
0000f4  d161              BNE      |L9.442|
0000f6  4604              MOV      r4,r0                 ;1347
0000f8  f6401138          MOV      r1,#0x938             ;1347
0000fc  4610              MOV      r0,r2                 ;1347
0000fe  f7fffffe          BL       WM_GetDialogItem
000102  4680              MOV      r8,r0                 ;1347
000104  f06f4170          MVN      r1,#0xf0000000        ;1348
000108  4640              MOV      r0,r8                 ;1348
00010a  f7fffffe          BL       TEXT_SetBkColor
00010e  f06f417f          MVN      r1,#0xff000000        ;1349
000112  4640              MOV      r0,r8                 ;1349
000114  f7fffffe          BL       TEXT_SetTextColor
000118  f9b70006          LDRSH    r0,[r7,#6]            ;1351  ; InFlashSave
00011c  ee000a10          VMOV     s0,r0                 ;1351
000120  eef80ac0          VCVT.F32.S32 s1,s0                 ;1351
000124  ee800a88          VDIV.F32 s0,s1,s16             ;1351
000128  ee100a10          VMOV     r0,s0                 ;1351
00012c  f7fffffe          BL       __aeabi_f2d
000130  ec410b10          VMOV     d0,r0,r1              ;1351
000134  a1b9              ADR      r1,|L9.1052|
000136  ec532b10          VMOV     r2,r3,d0              ;1351
00013a  a804              ADD      r0,sp,#0x10           ;1351
00013c  f7fffffe          BL       __2sprintf
000140  a904              ADD      r1,sp,#0x10           ;1352
000142  4640              MOV      r0,r8                 ;1352
000144  f7fffffe          BL       TEXT_SetText
000148  f6401137          MOV      r1,#0x937             ;1354
00014c  6860              LDR      r0,[r4,#4]            ;1354  ; hWinset
00014e  f7fffffe          BL       WM_GetDialogItem
000152  e005              B        |L9.352|
                  |L9.340|
000154  e240              B        |L9.1496|
                  |L9.342|
000156  e030              B        |L9.442|
                  |L9.344|
000158  e319              B        |L9.1934|
                  |L9.346|
00015a  e165              B        |L9.1064|
                  |L9.348|
00015c  e29b              B        |L9.1686|
                  |L9.350|
00015e  e2d3              B        |L9.1800|
                  |L9.352|
000160  4604              MOV      r4,r0                 ;1354
000162  49ac              LDR      r1,|L9.1044|
000164  4620              MOV      r0,r4                 ;1355
000166  f7fffffe          BL       TEXT_SetBkColor
00016a  2100              MOVS     r1,#0                 ;1356
00016c  4620              MOV      r0,r4                 ;1356
00016e  f7fffffe          BL       TEXT_SetTextColor
000172  2000              MOVS     r0,#0                 ;1358
000174  9006              STR      r0,[sp,#0x18]         ;1358
000176  4aab              LDR      r2,|L9.1060|
000178  e282              B        |L9.1664|
00017a  4621              MOV      r1,r4                 ;1112
00017c  4604              MOV      r4,r0                 ;1112
00017e  4610              MOV      r0,r2                 ;1112
000180  f7fffffe          BL       WM_GetDialogItem
000184  4606              MOV      r6,r0                 ;1112
000186  f06f4170          MVN      r1,#0xf0000000        ;1113
00018a  4630              MOV      r0,r6                 ;1113
00018c  f7fffffe          BL       TEXT_SetBkColor
000190  f06f417f          MVN      r1,#0xff000000        ;1114
000194  4630              MOV      r0,r6                 ;1114
000196  f7fffffe          BL       TEXT_SetTextColor
00019a  f6400131          MOV      r1,#0x831             ;1116
00019e  6860              LDR      r0,[r4,#4]            ;1116  ; hWinset
0001a0  f7fffffe          BL       WM_GetDialogItem
0001a4  4604              MOV      r4,r0                 ;1116
0001a6  499b              LDR      r1,|L9.1044|
0001a8  4620              MOV      r0,r4                 ;1117
0001aa  f7fffffe          BL       TEXT_SetBkColor
0001ae  2100              MOVS     r1,#0                 ;1118
0001b0  4620              MOV      r0,r4                 ;1118
0001b2  f7fffffe          BL       TEXT_SetTextColor
0001b6  2006              MOVS     r0,#6                 ;1121
0001b8  7028              STRB     r0,[r5,#0]            ;1121
                  |L9.442|
;;;1465                           {
;;;1466                               case Lion:
;;;1467                               {
;;;1468                                   buffer = NiMH;
;;;1469                                   break;
;;;1470                               }
;;;1471                               case NiMH:
;;;1472                               {
;;;1473                                   buffer = Lion;
;;;1474                                   break;
;;;1475                               }
;;;1476                               case NiCd:
;;;1477                               {
;;;1478                                   buffer = Lion;
;;;1479                                   break;
;;;1480                               }
;;;1481                               case SLA:
;;;1482                               {
;;;1483                                   buffer = Lion;
;;;1484                                   break;
;;;1485                               }
;;;1486                               case LiMH:
;;;1487                               {
;;;1488                                   buffer = Lion;
;;;1489                                   break;
;;;1490                               }
;;;1491                           }
;;;1492   
;;;1493                           set_sw = set_44;
;;;1494                           break;
;;;1495                       }
;;;1496                       case set_46:
;;;1497                       {
;;;1498                           WM_HWIN hItem;
;;;1499                           hItem = WM_GetDialogItem(hWinset, ID_TEXT_94);
;;;1500                           TEXT_SetBkColor(hItem,GUI_INVALID_COLOR);//ÈÄâÈ°πËÉåÊôØËâ≤ËÆæ‰∏∫ÈÄèÊòé
;;;1501                           TEXT_SetTextColor(hItem, GUI_WHITE);
;;;1502                  
;;;1503                           hItem = WM_GetDialogItem(hWinset, ID_TEXT_93);
;;;1504                           TEXT_SetBkColor(hItem,0x00BFFFFF);//ÈÄâÈ°πËÉåÊôØËâ≤ËÆæ‰∏∫Á±≥Ëâ≤
;;;1505                           TEXT_SetTextColor(hItem, GUI_BLACK);
;;;1506                           
;;;1507                           switch(b_type)
;;;1508                           {
;;;1509                               case Lion:
;;;1510                               {
;;;1511                                   buffer = NiCd;
;;;1512                                   break;
;;;1513                               }
;;;1514                               case NiMH:
;;;1515                               {
;;;1516                                   buffer = NiCd;
;;;1517                                   break;
;;;1518                               }
;;;1519                               case NiCd:
;;;1520                               {
;;;1521                                   buffer = NiMH;
;;;1522                                   break;
;;;1523                               }
;;;1524                               case SLA:
;;;1525                               {
;;;1526                                   buffer = NiMH;
;;;1527                                   break;
;;;1528                               }
;;;1529                               case LiMH:
;;;1530                               {
;;;1531                                   buffer = NiMH;
;;;1532                                   break;
;;;1533                               }
;;;1534                           }
;;;1535   
;;;1536                           set_sw = set_45;
;;;1537                           break;
;;;1538                       }
;;;1539                       case set_47:
;;;1540                       {
;;;1541                           WM_HWIN hItem;
;;;1542                           hItem = WM_GetDialogItem(hWinset, ID_TEXT_95);
;;;1543                           TEXT_SetBkColor(hItem,GUI_INVALID_COLOR);//ÈÄâÈ°πËÉåÊôØËâ≤ËÆæ‰∏∫ÈÄèÊòé
;;;1544                           TEXT_SetTextColor(hItem, GUI_WHITE);
;;;1545                           
;;;1546                           hItem = WM_GetDialogItem(hWinset, ID_TEXT_94);
;;;1547                           TEXT_SetBkColor(hItem,0x00BFFFFF);//ÈÄâÈ°πËÉåÊôØËâ≤ËÆæ‰∏∫Á±≥Ëâ≤
;;;1548                           TEXT_SetTextColor(hItem, GUI_BLACK);
;;;1549                           
;;;1550                           switch(b_type)
;;;1551                           {
;;;1552                               case Lion:
;;;1553                               {
;;;1554                                   buffer = SLA;
;;;1555                                   break;
;;;1556                               }
;;;1557                               case NiMH:
;;;1558                               {
;;;1559                                   buffer = SLA;
;;;1560                                   break;
;;;1561                               }
;;;1562                               case NiCd:
;;;1563                               {
;;;1564                                   buffer = SLA;
;;;1565                                   break;
;;;1566                               }
;;;1567                               case SLA:
;;;1568                               {
;;;1569                                   buffer = NiCd;
;;;1570                                   break;
;;;1571                               }
;;;1572                               case LiMH:
;;;1573                               {
;;;1574                                   buffer = NiCd;
;;;1575                                   break;
;;;1576                               }
;;;1577                           }
;;;1578   
;;;1579                           set_sw = set_46;
;;;1580                           break;
;;;1581                       }
;;;1582                       default: break;
;;;1583                   }
;;;1584   //                return set_sw;
;;;1585   }
0001ba  b007              ADD      sp,sp,#0x1c
0001bc  ecbd8b02          VPOP     {d8}
0001c0  e8bd8ff0          POP      {r4-r11,pc}
                  |L9.452|
0001c4  e2d8              B        |L9.1912|
                  |L9.454|
0001c6  e318              B        |L9.2042|
                  |L9.456|
0001c8  e150              B        |L9.1132|
                  |L9.458|
0001ca  e1b7              B        |L9.1340|
0001cc  4606              MOV      r6,r0                 ;1128
0001ce  4659              MOV      r1,r11                ;1128
0001d0  4610              MOV      r0,r2                 ;1128
0001d2  f7fffffe          BL       WM_GetDialogItem
0001d6  4607              MOV      r7,r0                 ;1128
0001d8  f06f4170          MVN      r1,#0xf0000000        ;1129
0001dc  4638              MOV      r0,r7                 ;1129
0001de  f7fffffe          BL       TEXT_SetBkColor
0001e2  f06f417f          MVN      r1,#0xff000000        ;1130
0001e6  4638              MOV      r0,r7                 ;1130
0001e8  f7fffffe          BL       TEXT_SetTextColor
0001ec  4621              MOV      r1,r4                 ;1132
0001ee  6870              LDR      r0,[r6,#4]            ;1132  ; hWinset
0001f0  f7fffffe          BL       WM_GetDialogItem
0001f4  4604              MOV      r4,r0                 ;1132
0001f6  4987              LDR      r1,|L9.1044|
0001f8  4620              MOV      r0,r4                 ;1133
0001fa  f7fffffe          BL       TEXT_SetBkColor
0001fe  2100              MOVS     r1,#0                 ;1134
000200  4620              MOV      r0,r4                 ;1134
000202  f7fffffe          BL       TEXT_SetTextColor
000206  2000              MOVS     r0,#0                 ;1136
000208  7028              STRB     r0,[r5,#0]            ;1136
00020a  e7d6              B        |L9.442|
00020c  4604              MOV      r4,r0                 ;1143
00020e  f640012d          MOV      r1,#0x82d             ;1143
000212  4610              MOV      r0,r2                 ;1143
000214  f7fffffe          BL       WM_GetDialogItem
000218  4607              MOV      r7,r0                 ;1143
00021a  f06f4170          MVN      r1,#0xf0000000        ;1144
00021e  4638              MOV      r0,r7                 ;1144
000220  f7fffffe          BL       TEXT_SetBkColor
000224  f06f417f          MVN      r1,#0xff000000        ;1145
000228  4638              MOV      r0,r7                 ;1145
00022a  f7fffffe          BL       TEXT_SetTextColor
00022e  4659              MOV      r1,r11                ;1147
000230  6860              LDR      r0,[r4,#4]            ;1147  ; hWinset
000232  f7fffffe          BL       WM_GetDialogItem
000236  4604              MOV      r4,r0                 ;1147
000238  4976              LDR      r1,|L9.1044|
00023a  4620              MOV      r0,r4                 ;1148
00023c  f7fffffe          BL       TEXT_SetBkColor
000240  2100              MOVS     r1,#0                 ;1149
000242  4620              MOV      r0,r4                 ;1149
000244  f7fffffe          BL       TEXT_SetTextColor
000248  702e              STRB     r6,[r5,#0]            ;1151
00024a  e7b6              B        |L9.442|
00024c  e130              B        |L9.1200|
00024e  e0b3              B        |L9.952|
000250  e090              B        |L9.884|
000252  e06d              B        |L9.816|
000254  e04a              B        |L9.748|
000256  e021              B        |L9.668|
000258  e7ff              B        |L9.602|
                  |L9.602|
00025a  4604              MOV      r4,r0                 ;1158
00025c  f640012e          MOV      r1,#0x82e             ;1158
000260  4610              MOV      r0,r2                 ;1158
000262  f7fffffe          BL       WM_GetDialogItem
000266  4606              MOV      r6,r0                 ;1158
000268  f06f4170          MVN      r1,#0xf0000000        ;1159
00026c  4630              MOV      r0,r6                 ;1159
00026e  f7fffffe          BL       TEXT_SetBkColor
000272  f06f417f          MVN      r1,#0xff000000        ;1160
000276  4630              MOV      r0,r6                 ;1160
000278  f7fffffe          BL       TEXT_SetTextColor
00027c  f640012d          MOV      r1,#0x82d             ;1162
000280  6860              LDR      r0,[r4,#4]            ;1162  ; hWinset
000282  f7fffffe          BL       WM_GetDialogItem
000286  4604              MOV      r4,r0                 ;1162
000288  4962              LDR      r1,|L9.1044|
00028a  4620              MOV      r0,r4                 ;1163
00028c  f7fffffe          BL       TEXT_SetBkColor
000290  2100              MOVS     r1,#0                 ;1164
000292  4620              MOV      r0,r4                 ;1164
000294  f7fffffe          BL       TEXT_SetTextColor
000298  702f              STRB     r7,[r5,#0]            ;1166
00029a  e78e              B        |L9.442|
                  |L9.668|
00029c  4604              MOV      r4,r0                 ;1173
00029e  f640012f          MOV      r1,#0x82f             ;1173
0002a2  4610              MOV      r0,r2                 ;1173
0002a4  f7fffffe          BL       WM_GetDialogItem
0002a8  4606              MOV      r6,r0                 ;1173
0002aa  f06f4170          MVN      r1,#0xf0000000        ;1174
0002ae  4630              MOV      r0,r6                 ;1174
0002b0  f7fffffe          BL       TEXT_SetBkColor
0002b4  f06f417f          MVN      r1,#0xff000000        ;1175
0002b8  4630              MOV      r0,r6                 ;1175
0002ba  f7fffffe          BL       TEXT_SetTextColor
0002be  f640012e          MOV      r1,#0x82e             ;1177
0002c2  6860              LDR      r0,[r4,#4]            ;1177  ; hWinset
0002c4  f7fffffe          BL       WM_GetDialogItem
0002c8  4604              MOV      r4,r0                 ;1177
0002ca  4952              LDR      r1,|L9.1044|
0002cc  4620              MOV      r0,r4                 ;1178
0002ce  e004              B        |L9.730|
0002d0  e259              B        |L9.1926|
0002d2  e256              B        |L9.1922|
0002d4  e253              B        |L9.1918|
0002d6  e250              B        |L9.1914|
0002d8  e24d              B        |L9.1910|
                  |L9.730|
0002da  f7fffffe          BL       TEXT_SetBkColor
0002de  2100              MOVS     r1,#0                 ;1179
0002e0  4620              MOV      r0,r4                 ;1179
0002e2  f7fffffe          BL       TEXT_SetTextColor
0002e6  f8858000          STRB     r8,[r5,#0]            ;1181
0002ea  e766              B        |L9.442|
                  |L9.748|
0002ec  4604              MOV      r4,r0                 ;1188
0002ee  f44f6103          MOV      r1,#0x830             ;1188
0002f2  4610              MOV      r0,r2                 ;1188
0002f4  f7fffffe          BL       WM_GetDialogItem
0002f8  4606              MOV      r6,r0                 ;1188
0002fa  f06f4170          MVN      r1,#0xf0000000        ;1189
0002fe  4630              MOV      r0,r6                 ;1189
000300  f7fffffe          BL       TEXT_SetBkColor
000304  f06f417f          MVN      r1,#0xff000000        ;1190
000308  4630              MOV      r0,r6                 ;1190
00030a  f7fffffe          BL       TEXT_SetTextColor
00030e  f640012f          MOV      r1,#0x82f             ;1192
000312  6860              LDR      r0,[r4,#4]            ;1192  ; hWinset
000314  f7fffffe          BL       WM_GetDialogItem
000318  4604              MOV      r4,r0                 ;1192
00031a  493e              LDR      r1,|L9.1044|
00031c  4620              MOV      r0,r4                 ;1193
00031e  f7fffffe          BL       TEXT_SetBkColor
000322  2100              MOVS     r1,#0                 ;1194
000324  4620              MOV      r0,r4                 ;1194
000326  f7fffffe          BL       TEXT_SetTextColor
00032a  f8859000          STRB     r9,[r5,#0]            ;1196
00032e  e744              B        |L9.442|
                  |L9.816|
000330  4604              MOV      r4,r0                 ;1203
000332  f6400131          MOV      r1,#0x831             ;1203
000336  4610              MOV      r0,r2                 ;1203
000338  f7fffffe          BL       WM_GetDialogItem
00033c  4606              MOV      r6,r0                 ;1203
00033e  f06f4170          MVN      r1,#0xf0000000        ;1204
000342  4630              MOV      r0,r6                 ;1204
000344  f7fffffe          BL       TEXT_SetBkColor
000348  f06f417f          MVN      r1,#0xff000000        ;1205
00034c  4630              MOV      r0,r6                 ;1205
00034e  f7fffffe          BL       TEXT_SetTextColor
000352  f44f6103          MOV      r1,#0x830             ;1207
000356  6860              LDR      r0,[r4,#4]            ;1207  ; hWinset
000358  f7fffffe          BL       WM_GetDialogItem
00035c  4604              MOV      r4,r0                 ;1207
00035e  492d              LDR      r1,|L9.1044|
000360  4620              MOV      r0,r4                 ;1208
000362  f7fffffe          BL       TEXT_SetBkColor
000366  2100              MOVS     r1,#0                 ;1209
000368  4620              MOV      r0,r4                 ;1209
00036a  f7fffffe          BL       TEXT_SetTextColor
00036e  f885a000          STRB     r10,[r5,#0]           ;1211
000372  e722              B        |L9.442|
                  |L9.884|
000374  4604              MOV      r4,r0                 ;1218
000376  f640013b          MOV      r1,#0x83b             ;1218
00037a  4610              MOV      r0,r2                 ;1218
00037c  f7fffffe          BL       WM_GetDialogItem
000380  4606              MOV      r6,r0                 ;1218
000382  f06f4170          MVN      r1,#0xf0000000        ;1219
000386  4630              MOV      r0,r6                 ;1219
000388  f7fffffe          BL       TEXT_SetBkColor
00038c  f06f417f          MVN      r1,#0xff000000        ;1220
000390  4630              MOV      r0,r6                 ;1220
000392  f7fffffe          BL       TEXT_SetTextColor
000396  f6401122          MOV      r1,#0x922             ;1222
00039a  6860              LDR      r0,[r4,#4]            ;1222  ; hWinset
00039c  f7fffffe          BL       WM_GetDialogItem
0003a0  4604              MOV      r4,r0                 ;1222
0003a2  491c              LDR      r1,|L9.1044|
0003a4  4620              MOV      r0,r4                 ;1223
0003a6  f7fffffe          BL       TEXT_SetBkColor
0003aa  2100              MOVS     r1,#0                 ;1224
0003ac  4620              MOV      r0,r4                 ;1224
0003ae  f7fffffe          BL       TEXT_SetTextColor
0003b2  2048              MOVS     r0,#0x48              ;1226
0003b4  7028              STRB     r0,[r5,#0]            ;1226
0003b6  e700              B        |L9.442|
                  |L9.952|
0003b8  4604              MOV      r4,r0                 ;1233
0003ba  f640013c          MOV      r1,#0x83c             ;1233
0003be  4610              MOV      r0,r2                 ;1233
0003c0  f7fffffe          BL       WM_GetDialogItem
0003c4  4606              MOV      r6,r0                 ;1233
0003c6  f06f4170          MVN      r1,#0xf0000000        ;1234
0003ca  4630              MOV      r0,r6                 ;1234
0003cc  f7fffffe          BL       TEXT_SetBkColor
0003d0  f06f417f          MVN      r1,#0xff000000        ;1235
0003d4  4630              MOV      r0,r6                 ;1235
0003d6  f7fffffe          BL       TEXT_SetTextColor
0003da  f640013b          MOV      r1,#0x83b             ;1237
0003de  6860              LDR      r0,[r4,#4]            ;1237  ; hWinset
0003e0  f7fffffe          BL       WM_GetDialogItem
0003e4  4604              MOV      r4,r0                 ;1237
0003e6  490b              LDR      r1,|L9.1044|
0003e8  4620              MOV      r0,r4                 ;1238
0003ea  f7fffffe          BL       TEXT_SetBkColor
0003ee  2100              MOVS     r1,#0                 ;1239
0003f0  4620              MOV      r0,r4                 ;1239
0003f2  f7fffffe          BL       TEXT_SetTextColor
0003f6  2007              MOVS     r0,#7                 ;1241
0003f8  7028              STRB     r0,[r5,#0]            ;1241
0003fa  e6de              B        |L9.442|
                  |L9.1020|
                          DCD      Run_Control
                  |L9.1024|
000400  447a0000          DCFS     0x447a0000 ; 1000
                  |L9.1028|
                          DCD      set_sw
                  |L9.1032|
                          DCD      ||.data||
                  |L9.1036|
                          DCD      b_type
                  |L9.1040|
                          DCD      buffer
                  |L9.1044|
                          DCD      0x00bfffff
                  |L9.1048|
                          DCD      ||.bss||
                  |L9.1052|
00041c  252e3366          DCB      "%.3f",0
000420  00      
000421  00                DCB      0
000422  00                DCB      0
000423  00                DCB      0
                  |L9.1060|
                          DCD      set_limit
                  |L9.1064|
000428  4604              MOV      r4,r0                 ;1248
00042a  f640019e          MOV      r1,#0x89e             ;1248
00042e  4610              MOV      r0,r2                 ;1248
000430  f7fffffe          BL       WM_GetDialogItem
000434  4606              MOV      r6,r0                 ;1248
000436  f06f4170          MVN      r1,#0xf0000000        ;1249
00043a  4630              MOV      r0,r6                 ;1249
00043c  f7fffffe          BL       TEXT_SetBkColor
000440  f06f417f          MVN      r1,#0xff000000        ;1250
000444  4630              MOV      r0,r6                 ;1250
000446  f7fffffe          BL       TEXT_SetTextColor
00044a  f640013c          MOV      r1,#0x83c             ;1252
00044e  6860              LDR      r0,[r4,#4]            ;1252  ; hWinset
000450  f7fffffe          BL       WM_GetDialogItem
000454  4604              MOV      r4,r0                 ;1252
000456  49fb              LDR      r1,|L9.2116|
000458  4620              MOV      r0,r4                 ;1253
00045a  f7fffffe          BL       TEXT_SetBkColor
00045e  2100              MOVS     r1,#0                 ;1254
000460  4620              MOV      r0,r4                 ;1254
000462  f7fffffe          BL       TEXT_SetTextColor
000466  2008              MOVS     r0,#8                 ;1256
000468  7028              STRB     r0,[r5,#0]            ;1256
00046a  e6a6              B        |L9.442|
                  |L9.1132|
00046c  4604              MOV      r4,r0                 ;1263
00046e  f6401122          MOV      r1,#0x922             ;1263
000472  4610              MOV      r0,r2                 ;1263
000474  f7fffffe          BL       WM_GetDialogItem
000478  4606              MOV      r6,r0                 ;1263
00047a  f06f4170          MVN      r1,#0xf0000000        ;1264
00047e  4630              MOV      r0,r6                 ;1264
000480  f7fffffe          BL       TEXT_SetBkColor
000484  f06f417f          MVN      r1,#0xff000000        ;1265
000488  4630              MOV      r0,r6                 ;1265
00048a  f7fffffe          BL       TEXT_SetTextColor
00048e  f640019e          MOV      r1,#0x89e             ;1267
000492  6860              LDR      r0,[r4,#4]            ;1267  ; hWinset
000494  f7fffffe          BL       WM_GetDialogItem
000498  4604              MOV      r4,r0                 ;1267
00049a  49ea              LDR      r1,|L9.2116|
00049c  4620              MOV      r0,r4                 ;1268
00049e  f7fffffe          BL       TEXT_SetBkColor
0004a2  2100              MOVS     r1,#0                 ;1269
0004a4  4620              MOV      r0,r4                 ;1269
0004a6  f7fffffe          BL       TEXT_SetTextColor
0004aa  2029              MOVS     r0,#0x29              ;1271
0004ac  7028              STRB     r0,[r5,#0]            ;1271
0004ae  e684              B        |L9.442|
                  |L9.1200|
0004b0  4604              MOV      r4,r0                 ;1278
0004b2  f6400161          MOV      r1,#0x861             ;1278
0004b6  4610              MOV      r0,r2                 ;1278
0004b8  f7fffffe          BL       WM_GetDialogItem
0004bc  4607              MOV      r7,r0                 ;1278
0004be  f06f4170          MVN      r1,#0xf0000000        ;1279
0004c2  4638              MOV      r0,r7                 ;1279
0004c4  f7fffffe          BL       TEXT_SetBkColor
0004c8  f06f417f          MVN      r1,#0xff000000        ;1280
0004cc  4638              MOV      r0,r7                 ;1280
0004ce  f7fffffe          BL       TEXT_SetTextColor
0004d2  ee180a90          VMOV     r0,s17                ;1282
0004d6  f7fffffe          BL       __aeabi_f2d
0004da  ec410b10          VMOV     d0,r0,r1              ;1282
0004de  ec532b10          VMOV     r2,r3,d0              ;1282
0004e2  f2af01c8          ADR      r1,|L9.1052|
0004e6  a804              ADD      r0,sp,#0x10           ;1282
0004e8  f7fffffe          BL       __2sprintf
0004ec  a904              ADD      r1,sp,#0x10           ;1283
0004ee  4638              MOV      r0,r7                 ;1283
0004f0  f7fffffe          BL       TEXT_SetText
0004f4  f44f6106          MOV      r1,#0x860             ;1285
0004f8  6860              LDR      r0,[r4,#4]            ;1285  ; hWinset
0004fa  f7fffffe          BL       WM_GetDialogItem
0004fe  4604              MOV      r4,r0                 ;1285
000500  49d0              LDR      r1,|L9.2116|
000502  4620              MOV      r0,r4                 ;1286
000504  f7fffffe          BL       TEXT_SetBkColor
000508  2100              MOVS     r1,#0                 ;1287
00050a  4620              MOV      r0,r4                 ;1287
00050c  f7fffffe          BL       TEXT_SetTextColor
000510  2000              MOVS     r0,#0                 ;1289
000512  9006              STR      r0,[sp,#0x18]         ;1289
000514  4acc              LDR      r2,|L9.2120|
000516  e006              B        |L9.1318|
                  |L9.1304|
000518  f89d1018          LDRB     r1,[sp,#0x18]         ;1290
00051c  5450              STRB     r0,[r2,r1]            ;1290
00051e  f89d1018          LDRB     r1,[sp,#0x18]         ;1289
000522  1c49              ADDS     r1,r1,#1              ;1289
000524  9106              STR      r1,[sp,#0x18]         ;1289
                  |L9.1318|
000526  f89d1018          LDRB     r1,[sp,#0x18]         ;1289
00052a  2905              CMP      r1,#5                 ;1289
00052c  d3f4              BCC      |L9.1304|
00052e  49c7              LDR      r1,|L9.2124|
000530  700e              STRB     r6,[r1,#0]            ;1292
000532  49c7              LDR      r1,|L9.2128|
000534  7008              STRB     r0,[r1,#0]            ;1293
000536  200b              MOVS     r0,#0xb               ;1294
000538  7028              STRB     r0,[r5,#0]            ;1294
00053a  e63e              B        |L9.442|
                  |L9.1340|
00053c  4604              MOV      r4,r0                 ;1301
00053e  f6401136          MOV      r1,#0x936             ;1301
000542  4610              MOV      r0,r2                 ;1301
000544  f7fffffe          BL       WM_GetDialogItem
000548  4680              MOV      r8,r0                 ;1301
00054a  f06f4170          MVN      r1,#0xf0000000        ;1302
00054e  4640              MOV      r0,r8                 ;1302
000550  f7fffffe          BL       TEXT_SetBkColor
000554  f06f417f          MVN      r1,#0xff000000        ;1303
000558  4640              MOV      r0,r8                 ;1303
00055a  f7fffffe          BL       TEXT_SetTextColor
00055e  f9b70002          LDRSH    r0,[r7,#2]            ;1305  ; InFlashSave
000562  ee000a10          VMOV     s0,r0                 ;1305
000566  eef80ac0          VCVT.F32.S32 s1,s0                 ;1305
00056a  ee800a88          VDIV.F32 s0,s1,s16             ;1305
00056e  ee100a10          VMOV     r0,s0                 ;1305
000572  f7fffffe          BL       __aeabi_f2d
000576  ec410b10          VMOV     d0,r0,r1              ;1305
00057a  ec532b10          VMOV     r2,r3,d0              ;1305
00057e  f2af1164          ADR      r1,|L9.1052|
000582  a804              ADD      r0,sp,#0x10           ;1305
000584  f7fffffe          BL       __2sprintf
000588  a904              ADD      r1,sp,#0x10           ;1306
00058a  4640              MOV      r0,r8                 ;1306
00058c  f7fffffe          BL       TEXT_SetText
000590  f6401135          MOV      r1,#0x935             ;1308
000594  6860              LDR      r0,[r4,#4]            ;1308  ; hWinset
000596  f7fffffe          BL       WM_GetDialogItem
00059a  4604              MOV      r4,r0                 ;1308
00059c  49a9              LDR      r1,|L9.2116|
00059e  4620              MOV      r0,r4                 ;1309
0005a0  f7fffffe          BL       TEXT_SetBkColor
0005a4  2100              MOVS     r1,#0                 ;1310
0005a6  4620              MOV      r0,r4                 ;1310
0005a8  f7fffffe          BL       TEXT_SetTextColor
0005ac  2000              MOVS     r0,#0                 ;1312
0005ae  9006              STR      r0,[sp,#0x18]         ;1312
0005b0  4aa5              LDR      r2,|L9.2120|
0005b2  e006              B        |L9.1474|
                  |L9.1460|
0005b4  f89d1018          LDRB     r1,[sp,#0x18]         ;1313
0005b8  5450              STRB     r0,[r2,r1]            ;1313
0005ba  f89d1018          LDRB     r1,[sp,#0x18]         ;1312
0005be  1c49              ADDS     r1,r1,#1              ;1312
0005c0  9106              STR      r1,[sp,#0x18]         ;1312
                  |L9.1474|
0005c2  f89d1018          LDRB     r1,[sp,#0x18]         ;1312
0005c6  2905              CMP      r1,#5                 ;1312
0005c8  d3f4              BCC      |L9.1460|
0005ca  49a0              LDR      r1,|L9.2124|
0005cc  700e              STRB     r6,[r1,#0]            ;1315
0005ce  49a0              LDR      r1,|L9.2128|
0005d0  7008              STRB     r0,[r1,#0]            ;1316
0005d2  2051              MOVS     r0,#0x51              ;1317
0005d4  7028              STRB     r0,[r5,#0]            ;1317
0005d6  e5f0              B        |L9.442|
                  |L9.1496|
0005d8  4607              MOV      r7,r0                 ;1324
0005da  f6400165          MOV      r1,#0x865             ;1324
0005de  4610              MOV      r0,r2                 ;1324
0005e0  f7fffffe          BL       WM_GetDialogItem
0005e4  4680              MOV      r8,r0                 ;1324
0005e6  f06f4170          MVN      r1,#0xf0000000        ;1325
0005ea  4640              MOV      r0,r8                 ;1325
0005ec  f7fffffe          BL       TEXT_SetBkColor
0005f0  f06f417f          MVN      r1,#0xff000000        ;1326
0005f4  4640              MOV      r0,r8                 ;1326
0005f6  f7fffffe          BL       TEXT_SetTextColor
0005fa  6ce0              LDR      r0,[r4,#0x4c]         ;1328  ; Run_Control
0005fc  ee000a10          VMOV     s0,r0                 ;1328
000600  eef80a40          VCVT.F32.U32 s1,s0                 ;1328
000604  ee800a88          VDIV.F32 s0,s1,s16             ;1328
000608  ee100a10          VMOV     r0,s0                 ;1328
00060c  f7fffffe          BL       __aeabi_f2d
000610  ec410b10          VMOV     d0,r0,r1              ;1328
000614  ec532b10          VMOV     r2,r3,d0              ;1328
000618  f2af2100          ADR      r1,|L9.1052|
00061c  a804              ADD      r0,sp,#0x10           ;1328
00061e  f7fffffe          BL       __2sprintf
000622  a904              ADD      r1,sp,#0x10           ;1329
000624  4640              MOV      r0,r8                 ;1329
000626  f7fffffe          BL       TEXT_SetText
00062a  f6400164          MOV      r1,#0x864             ;1331
00062e  6878              LDR      r0,[r7,#4]            ;1331  ; hWinset
000630  f7fffffe          BL       WM_GetDialogItem
000634  4604              MOV      r4,r0                 ;1331
000636  4983              LDR      r1,|L9.2116|
000638  4620              MOV      r0,r4                 ;1332
00063a  f7fffffe          BL       TEXT_SetBkColor
00063e  2100              MOVS     r1,#0                 ;1333
000640  4620              MOV      r0,r4                 ;1333
000642  f7fffffe          BL       TEXT_SetTextColor
000646  2000              MOVS     r0,#0                 ;1335
000648  9006              STR      r0,[sp,#0x18]         ;1335
00064a  4a7f              LDR      r2,|L9.2120|
00064c  e006              B        |L9.1628|
                  |L9.1614|
00064e  f89d1018          LDRB     r1,[sp,#0x18]         ;1336
000652  5450              STRB     r0,[r2,r1]            ;1336
000654  f89d1018          LDRB     r1,[sp,#0x18]         ;1335
000658  1c49              ADDS     r1,r1,#1              ;1335
00065a  9106              STR      r1,[sp,#0x18]         ;1335
                  |L9.1628|
00065c  f89d1018          LDRB     r1,[sp,#0x18]         ;1335
000660  2905              CMP      r1,#5                 ;1335
000662  d3f4              BCC      |L9.1614|
000664  4979              LDR      r1,|L9.2124|
000666  700e              STRB     r6,[r1,#0]            ;1338
000668  4979              LDR      r1,|L9.2128|
00066a  7008              STRB     r0,[r1,#0]            ;1339
00066c  200f              MOVS     r0,#0xf               ;1340
00066e  7028              STRB     r0,[r5,#0]            ;1340
000670  e5a3              B        |L9.442|
                  |L9.1650|
000672  f89d1018          LDRB     r1,[sp,#0x18]         ;1359
000676  5450              STRB     r0,[r2,r1]            ;1359
000678  f89d1018          LDRB     r1,[sp,#0x18]         ;1358
00067c  1c49              ADDS     r1,r1,#1              ;1358
00067e  9106              STR      r1,[sp,#0x18]         ;1358
                  |L9.1664|
000680  f89d1018          LDRB     r1,[sp,#0x18]         ;1358
000684  2905              CMP      r1,#5                 ;1358
000686  d3f4              BCC      |L9.1650|
000688  4970              LDR      r1,|L9.2124|
00068a  700e              STRB     r6,[r1,#0]            ;1361
00068c  4970              LDR      r1,|L9.2128|
00068e  7008              STRB     r0,[r1,#0]            ;1362
000690  2053              MOVS     r0,#0x53              ;1363
000692  7028              STRB     r0,[r5,#0]            ;1363
000694  e591              B        |L9.442|
                  |L9.1686|
000696  4606              MOV      r6,r0                 ;1370
000698  f640019f          MOV      r1,#0x89f             ;1370
00069c  4610              MOV      r0,r2                 ;1370
00069e  f7fffffe          BL       WM_GetDialogItem
0006a2  4607              MOV      r7,r0                 ;1370
0006a4  f06f4170          MVN      r1,#0xf0000000        ;1371
0006a8  4638              MOV      r0,r7                 ;1371
0006aa  f7fffffe          BL       TEXT_SetBkColor
0006ae  f06f417f          MVN      r1,#0xff000000        ;1372
0006b2  4638              MOV      r0,r7                 ;1372
0006b4  f7fffffe          BL       TEXT_SetTextColor
0006b8  f6401103          MOV      r1,#0x903             ;1374
0006bc  6870              LDR      r0,[r6,#4]            ;1374  ; hWinset
0006be  f7fffffe          BL       WM_GetDialogItem
0006c2  4606              MOV      r6,r0                 ;1374
0006c4  495f              LDR      r1,|L9.2116|
0006c6  4630              MOV      r0,r6                 ;1375
0006c8  f7fffffe          BL       TEXT_SetBkColor
0006cc  2100              MOVS     r1,#0                 ;1376
0006ce  4630              MOV      r0,r6                 ;1376
0006d0  f7fffffe          BL       TEXT_SetTextColor
0006d4  f89b0000          LDRB     r0,[r11,#0]           ;1378  ; b_type
0006d8  2806              CMP      r0,#6                 ;1378
0006da  d212              BCS      |L9.1794|
0006dc  e8dff000          TBB      [pc,r0]               ;1378
0006e0  11030609          DCB      0x11,0x03,0x06,0x09
0006e4  0c0f              DCB      0x0c,0x0f
0006e6  f884a000          STRB     r10,[r4,#0]           ;1382
0006ea  e00a              B        |L9.1794|
0006ec  f884a000          STRB     r10,[r4,#0]           ;1387
0006f0  e007              B        |L9.1794|
0006f2  f884a000          STRB     r10,[r4,#0]           ;1392
0006f6  e004              B        |L9.1794|
0006f8  f884a000          STRB     r10,[r4,#0]           ;1397
0006fc  e001              B        |L9.1794|
0006fe  f8849000          STRB     r9,[r4,#0]            ;1402
                  |L9.1794|
000702  202e              MOVS     r0,#0x2e              ;1407
000704  7028              STRB     r0,[r5,#0]            ;1407
000706  e558              B        |L9.442|
                  |L9.1800|
000708  f44f6110          MOV      r1,#0x900             ;1413
00070c  4610              MOV      r0,r2                 ;1413
00070e  f7fffffe          BL       WM_GetDialogItem
000712  9001              STR      r0,[sp,#4]            ;1413
000714  f06f4170          MVN      r1,#0xf0000000        ;1414
000718  9801              LDR      r0,[sp,#4]            ;1414
00071a  f7fffffe          BL       TEXT_SetBkColor
00071e  f06f417f          MVN      r1,#0xff000000        ;1415
000722  9801              LDR      r0,[sp,#4]            ;1415
000724  f7fffffe          BL       TEXT_SetTextColor
000728  484a              LDR      r0,|L9.2132|
00072a  f640019f          MOV      r1,#0x89f             ;1417
00072e  6840              LDR      r0,[r0,#4]            ;1417  ; hWinset
000730  f7fffffe          BL       WM_GetDialogItem
000734  9001              STR      r0,[sp,#4]            ;1417
000736  4943              LDR      r1,|L9.2116|
000738  9801              LDR      r0,[sp,#4]            ;1418
00073a  f7fffffe          BL       TEXT_SetBkColor
00073e  2100              MOVS     r1,#0                 ;1419
000740  9801              LDR      r0,[sp,#4]            ;1419
000742  f7fffffe          BL       TEXT_SetTextColor
000746  f89b0000          LDRB     r0,[r11,#0]           ;1421  ; b_type
00074a  2806              CMP      r0,#6                 ;1421
00074c  d210              BCS      |L9.1904|
00074e  e8dff000          TBB      [pc,r0]               ;1421
000752  0f03              DCB      0x0f,0x03
000754  05070a0d          DCB      0x05,0x07,0x0a,0x0d
000758  7026              STRB     r6,[r4,#0]            ;1425
00075a  e009              B        |L9.1904|
00075c  7027              STRB     r7,[r4,#0]            ;1430
00075e  e007              B        |L9.1904|
000760  f8848000          STRB     r8,[r4,#0]            ;1435
000764  e004              B        |L9.1904|
000766  f8849000          STRB     r9,[r4,#0]            ;1440
00076a  e001              B        |L9.1904|
00076c  f884a000          STRB     r10,[r4,#0]           ;1445
                  |L9.1904|
000770  202a              MOVS     r0,#0x2a              ;1450
000772  7028              STRB     r0,[r5,#0]            ;1450
000774  e521              B        |L9.442|
                  |L9.1910|
000776  7027              STRB     r7,[r4,#0]            ;1468
                  |L9.1912|
000778  e006              B        |L9.1928|
                  |L9.1914|
00077a  7026              STRB     r6,[r4,#0]            ;1473
00077c  e004              B        |L9.1928|
                  |L9.1918|
00077e  7026              STRB     r6,[r4,#0]            ;1478
000780  e002              B        |L9.1928|
                  |L9.1922|
000782  7026              STRB     r6,[r4,#0]            ;1483
000784  e000              B        |L9.1928|
                  |L9.1926|
000786  7026              STRB     r6,[r4,#0]            ;1488
                  |L9.1928|
000788  202b              MOVS     r0,#0x2b              ;1493
00078a  7028              STRB     r0,[r5,#0]            ;1493
00078c  e515              B        |L9.442|
                  |L9.1934|
00078e  4606              MOV      r6,r0                 ;1499
000790  f6401102          MOV      r1,#0x902             ;1499
000794  4610              MOV      r0,r2                 ;1499
000796  f7fffffe          BL       WM_GetDialogItem
00079a  4681              MOV      r9,r0                 ;1499
00079c  f06f4170          MVN      r1,#0xf0000000        ;1500
0007a0  4648              MOV      r0,r9                 ;1500
0007a2  f7fffffe          BL       TEXT_SetBkColor
0007a6  f06f417f          MVN      r1,#0xff000000        ;1501
0007aa  4648              MOV      r0,r9                 ;1501
0007ac  f7fffffe          BL       TEXT_SetTextColor
0007b0  f6401101          MOV      r1,#0x901             ;1503
0007b4  6870              LDR      r0,[r6,#4]            ;1503  ; hWinset
0007b6  f7fffffe          BL       WM_GetDialogItem
0007ba  4606              MOV      r6,r0                 ;1503
0007bc  4921              LDR      r1,|L9.2116|
0007be  4630              MOV      r0,r6                 ;1504
0007c0  f7fffffe          BL       TEXT_SetBkColor
0007c4  2100              MOVS     r1,#0                 ;1505
0007c6  4630              MOV      r0,r6                 ;1505
0007c8  f7fffffe          BL       TEXT_SetTextColor
0007cc  f89b0000          LDRB     r0,[r11,#0]           ;1507  ; b_type
0007d0  2806              CMP      r0,#6                 ;1507
0007d2  d20f              BCS      |L9.2036|
0007d4  e8dff000          TBB      [pc,r0]               ;1507
0007d8  0e030609          DCB      0x0e,0x03,0x06,0x09
0007dc  0b0d              DCB      0x0b,0x0d
0007de  f8848000          STRB     r8,[r4,#0]            ;1511
0007e2  e007              B        |L9.2036|
0007e4  f8848000          STRB     r8,[r4,#0]            ;1516
0007e8  e004              B        |L9.2036|
0007ea  7027              STRB     r7,[r4,#0]            ;1521
0007ec  e002              B        |L9.2036|
0007ee  7027              STRB     r7,[r4,#0]            ;1526
0007f0  e000              B        |L9.2036|
0007f2  7027              STRB     r7,[r4,#0]            ;1531
                  |L9.2036|
0007f4  202c              MOVS     r0,#0x2c              ;1536
0007f6  7028              STRB     r0,[r5,#0]            ;1536
0007f8  e4df              B        |L9.442|
                  |L9.2042|
0007fa  4606              MOV      r6,r0                 ;1542
0007fc  f6401103          MOV      r1,#0x903             ;1542
000800  4610              MOV      r0,r2                 ;1542
000802  f7fffffe          BL       WM_GetDialogItem
000806  4607              MOV      r7,r0                 ;1542
000808  f06f4170          MVN      r1,#0xf0000000        ;1543
00080c  4638              MOV      r0,r7                 ;1543
00080e  f7fffffe          BL       TEXT_SetBkColor
000812  f06f417f          MVN      r1,#0xff000000        ;1544
000816  4638              MOV      r0,r7                 ;1544
000818  f7fffffe          BL       TEXT_SetTextColor
00081c  f6401102          MOV      r1,#0x902             ;1546
000820  6870              LDR      r0,[r6,#4]            ;1546  ; hWinset
000822  f7fffffe          BL       WM_GetDialogItem
000826  4606              MOV      r6,r0                 ;1546
000828  4906              LDR      r1,|L9.2116|
00082a  4630              MOV      r0,r6                 ;1547
00082c  f7fffffe          BL       TEXT_SetBkColor
000830  2100              MOVS     r1,#0                 ;1548
000832  4630              MOV      r0,r6                 ;1548
000834  f7fffffe          BL       TEXT_SetTextColor
000838  f89b0000          LDRB     r0,[r11,#0]           ;1550  ; b_type
00083c  2806              CMP      r0,#6                 ;1550
00083e  d21e              BCS      |L9.2174|
000840  e00a              B        |L9.2136|
000842  0000              DCW      0x0000
                  |L9.2116|
                          DCD      0x00bfffff
                  |L9.2120|
                          DCD      set_limit
                  |L9.2124|
                          DCD      bit
                  |L9.2128|
                          DCD      dot_flag
                  |L9.2132|
                          DCD      ||.data||
                  |L9.2136|
000858  e8dff000          TBB      [pc,r0]               ;1550
00085c  11030609          DCB      0x11,0x03,0x06,0x09
000860  0c0f              DCB      0x0c,0x0f
000862  f8849000          STRB     r9,[r4,#0]            ;1554
000866  e00a              B        |L9.2174|
000868  f8849000          STRB     r9,[r4,#0]            ;1559
00086c  e007              B        |L9.2174|
00086e  f8849000          STRB     r9,[r4,#0]            ;1564
000872  e004              B        |L9.2174|
000874  f8848000          STRB     r8,[r4,#0]            ;1569
000878  e001              B        |L9.2174|
00087a  f8848000          STRB     r8,[r4,#0]            ;1574
                  |L9.2174|
00087e  202d              MOVS     r0,#0x2d              ;1579
000880  7028              STRB     r0,[r5,#0]            ;1579
000882  e49a              B        |L9.442|
;;;1586   
                          ENDP


                          AREA ||i._cbDialog||, CODE, READONLY, ALIGN=2

                          REQUIRE _printf_percent
                          REQUIRE _printf_widthprec
                          REQUIRE _printf_f
                          REQUIRE _printf_fp_dec
                          REQUIRE _printf_pre_padding
                          REQUIRE _printf_d
                          REQUIRE _printf_int_dec
                  _cbDialog PROC
;;;146    */
;;;147    static void _cbDialog(WM_MESSAGE * pMsg) {
000000  e92d4ff0          PUSH     {r4-r11,lr}
000004  ed2d8b06          VPUSH    {d8-d10}
000008  b085              SUB      sp,sp,#0x14
00000a  4604              MOV      r4,r0
;;;148        WM_HWIN hItem;
;;;149    
;;;150        char buf[5];   
;;;151    
;;;152        float dis_max_v = (float)set_max_v/1000;
00000c  4efc              LDR      r6,|L10.1024|
00000e  6bb0              LDR      r0,[r6,#0x38]  ; Run_Control
000010  ee000a10          VMOV     s0,r0
000014  eeb80a40          VCVT.F32.U32 s0,s0
000018  eddf8afa          VLDR     s17,|L10.1028|
00001c  ee80aa28          VDIV.F32 s20,s0,s17
;;;153        float dis_min_v = (float)set_min_v/1000;
000020  6bf0              LDR      r0,[r6,#0x3c]  ; Run_Control
000022  ee000a10          VMOV     s0,r0
000026  eeb80a40          VCVT.F32.U32 s0,s0
00002a  eec09a28          VDIV.F32 s19,s0,s17
;;;154        vu16 dis_max_r = set_max_r;
00002e  6c30              LDR      r0,[r6,#0x40]  ; Run_Control
000030  9002              STR      r0,[sp,#8]
;;;155        vu16 dis_min_r = set_min_r;
000032  6c70              LDR      r0,[r6,#0x44]  ; Run_Control
000034  9001              STR      r0,[sp,#4]
;;;156        float dis_max_c = (float)set_max_c/1000;
000036  6cb0              LDR      r0,[r6,#0x48]  ; Run_Control
000038  ee000a10          VMOV     s0,r0
00003c  eeb80a40          VCVT.F32.U32 s0,s0
000040  ee809a28          VDIV.F32 s18,s0,s17
;;;157        float dis_min_c = (float)set_min_c/1000;
000044  6cf0              LDR      r0,[r6,#0x4c]  ; Run_Control
000046  ee000a10          VMOV     s0,r0
00004a  eeb80a40          VCVT.F32.U32 s0,s0
00004e  ee808a28          VDIV.F32 s16,s0,s17
;;;158        
;;;159      
;;;160      // USER START (Optionally insert additional variables)
;;;161      // USER END
;;;162    
;;;163      switch (pMsg->MsgId) {
000052  6820              LDR      r0,[r4,#0]
;;;164                
;;;165    		
;;;166    	case WM_PAINT:
;;;167    	GUI_SetColor(GUI_WHITE);// ®◊É€≠“ä“ï…´
;;;168    	GUI_FillRect(0,25,480,26);//€≠“ªÕµ µ–ü
;;;169        GUI_SetColor(GUI_ORANGE);
;;;170    	GUI_SetFont(&GUI_Fontsymbol);
;;;171    	GUI_UC_SetEncodeUTF8();
;;;172    	GUI_SetTextMode(GUI_TM_TRANS);// ®◊ÉœÑ—æƒ£ ΩŒ™÷ó…´Õ∏ƒ∑
;;;173    	GUI_DispStringAt("Jinko", 5, 1);//SET
;;;174    	GUI_SetColor(GUI_WHITE);
;;;175    	GUI_SetFont(&GUI_FontHZ20S);
;;;176    	GUI_UC_SetEncodeUTF8();
;;;177    	GUI_SetTextMode(GUI_TM_TRANS);// ®◊ÉœÑ—æƒ£ ΩŒ™÷ó…´Õ∏ƒ∑
;;;178    	GUI_DispStringAt("Á≥ªÁªüËÆæÁΩÆ", 130, 3);//SET
;;;179     	GUI_SetColor(GUI_WHITE);// ®◊É«∞ﬁ∞…´Œ™—ó…´
;;;180     	GUI_SetFont(&GUI_Font24_1);//
;;;181        GUI_DispStringAt("V",220,125);
;;;182        GUI_DispStringAt("V",220,150);
;;;183        GUI_DispStringAt("A",451,50);
;;;184        GUI_DispStringAt("A",451,75);
;;;185        GUI_DispStringAt("m",195,175);
;;;186        GUI_DispStringAt("m",195,200);
;;;187        GUI_SetFont(&GUI_FontHZ16);
;;;188        GUI_DispStringAt("Œ©",211,182);
;;;189        GUI_DispStringAt("Œ©",211,207);
;;;190    	GUI_SetColor(GUI_WHITE);// ®◊É«∞ﬁ∞…´Œ™—ó…´
;;;191     	GUI_SetFont(&GUI_Font16_1);//
;;;192    	GUI_DispStringAt("H",173,122);
;;;193        GUI_DispStringAt("L",173,136);
;;;194        GUI_DispStringAt("H",173,150);
;;;195        GUI_DispStringAt("L",173,164);
;;;196    	GUI_DispStringAt("H",404,47);
;;;197        GUI_DispStringAt("L",404,61);
;;;198        GUI_DispStringAt("H",404,75);
;;;199        GUI_DispStringAt("L",404,89);
;;;200        
;;;201        GUI_SetColor(GUI_GREEN);
000054  f44f497f          MOV      r9,#0xff00
000058  f06f487f          MVN      r8,#0xff000000        ;167
00005c  280f              CMP      r0,#0xf               ;163
00005e  d011              BEQ      |L10.132|
;;;202        GUI_SetFont(&GUI_Fontunit);
;;;203        GUI_DispStringAt("¬∞",342, 2);
;;;204        GUI_SetFont(&GUI_Font24_1);
;;;205        GUI_DispStringAt("C",350, 2);
;;;206        DrawLock();
;;;207        
;;;208    	break;
;;;209    	case WM_TIMER://÷® ±ƒ£‡†©–ªœ¢
;;;210    	if(WM_GetTimerId(pMsg->Data.v) == ID_TimerTime5)
;;;211    	{
;;;212            lockstat2 = lockstat1;
;;;213            lockstat1 = lock; 
;;;214            if(lockstat1 != lockstat2)
;;;215            {
;;;216                WM_InvalidateWindow(hWinset);
;;;217            }
;;;218            
;;;219            hItem = WM_GetDialogItem(pMsg->hWin, ID_TEXT_129);       
;;;220            sprintf(buf,"%.1f",temp);
000060  4fe9              LDR      r7,|L10.1032|
000062  4dea              LDR      r5,|L10.1036|
000064  f6401b0a          MOV      r11,#0x90a            ;219
000068  281d              CMP      r0,#0x1d              ;163
00006a  d07d              BEQ      |L10.360|
00006c  f5a07080          SUB      r0,r0,#0x100          ;163
000070  3813              SUBS     r0,r0,#0x13           ;163
000072  d07a              BEQ      |L10.362|
;;;221            TEXT_SetText(hItem,buf);
;;;222            
;;;223    //		WM_InvalidateWindow(hWinset);//œû–ß€Ø‘∞‡†ö        
;;;224    		WM_RestartTimer(pMsg->Data.v,500);//ÿ¥Œª÷® ±«∑ÀΩ÷µ‘Ω’≥À¢—Ç ±›§‘Ω◊å
;;;225    	}
;;;226    	break;
;;;227        
;;;228    		
;;;229      case WM_INIT_DIALOG:
;;;230        //
;;;231        // Initialization of 'R'
;;;232    	
;;;233        //
;;;234            hItem = pMsg->hWin;
;;;235            WINDOW_SetBkColor(hItem, GUI_BLACK);
;;;236    		WM_CreateTimer(hItem,ID_TimerTime5,1000,0);//‘¥›®—æ‘∞‡†ö÷® ±«∑
;;;237        //
;;;238    
;;;239        //    
;;;240    // 		hItem = WM_GetDialogItem(pMsg->hWin, ID_BUTTON_30);
;;;241    // 		BUTTON_SetTextColor(hItem,0,GUI_BLACK);// ®◊ÉÿñÕ•“ï…´Œ™€ö…´
;;;242    // 		BUTTON_SetFont      (hItem,    &GUI_FontHZ16);// ®÷®–¥≈•œÑ—æÿñÕ•
;;;243    // 		GUI_UC_SetEncodeUTF8();
;;;244    // 		BUTTON_SetText(hItem,"ÂÖÖÊîæÁîµ");
;;;245    	
;;;246    	
;;;247    		hItem = WM_GetDialogItem(pMsg->hWin, ID_BUTTON_31);
;;;248    //		BUTTON_SetTextColor(hItem,0,GUI_BLACK);// ®◊ÉÿñÕ•“ï…´Œ™€ö…´
;;;249    		BUTTON_SetFont      (hItem,    &GUI_FontHZ16);// ®÷®–¥≈•œÑ—æÿñÕ•
;;;250    		GUI_UC_SetEncodeUTF8();
;;;251    		BUTTON_SetText(hItem,"ÂÜÖÈòªÊµãËØï");
;;;252    	
;;;253    		hItem = WM_GetDialogItem(pMsg->hWin, ID_BUTTON_32);
;;;254    //		BUTTON_SetTextColor(hItem,0,GUI_BLACK);// ®◊ÉÿñÕ•“ï…´Œ™€ö…´
;;;255    		BUTTON_SetFont      (hItem,    &GUI_FontHZ16);// ®÷®–¥≈•œÑ—æÿñÕ•
;;;256    		GUI_UC_SetEncodeUTF8();
;;;257    		BUTTON_SetText(hItem,"Á®ãÊéßË¥üËΩΩ");
;;;258    		
;;;259    		hItem = WM_GetDialogItem(pMsg->hWin, ID_BUTTON_33);
;;;260    //		BUTTON_SetTextColor(hItem,0,GUI_BLACK);// ®◊ÉÿñÕ•“ï…´Œ™€ö…´
;;;261    		BUTTON_SetFont      (hItem,    &GUI_FontHZ16);// ®÷®–¥≈•œÑ—æÿñÕ•
;;;262    		GUI_UC_SetEncodeUTF8();
;;;263    		BUTTON_SetText(hItem,"Á®ãÊéßÁîµÊ∫ê");
;;;264    		
;;;265    		hItem = WM_GetDialogItem(pMsg->hWin, ID_BUTTON_34);
;;;266    //		BUTTON_SetTextColor(hItem,0,GUI_BLACK);// ®◊ÉÿñÕ•“ï…´Œ™€ö…´
;;;267    		BUTTON_SetFont      (hItem,    &GUI_FontHZ16);// ®÷®–¥≈•œÑ—æÿñÕ•
;;;268    		GUI_UC_SetEncodeUTF8();
;;;269    		BUTTON_SetText(hItem,"ÂÖÖÊîæÁîµ"); 
;;;270    		
;;;271    		hItem = WM_GetDialogItem(pMsg->hWin, ID_BUTTON_35);
;;;272    //		BUTTON_SetTextColor(hItem,0,GUI_BLACK);// ®◊ÉÿñÕ•“ï…´Œ™€ö…´
;;;273    		BUTTON_SetFont      (hItem,&GUI_FontHZ16);// ®÷®–¥≈•œÑ—æÿñÕ•
;;;274    		GUI_UC_SetEncodeUTF8();
;;;275    		BUTTON_SetText(hItem,"Êõ≤Á∫ø");
;;;276            
;;;277            hItem = WM_GetDialogItem(pMsg->hWin, ID_TEXT_21);
;;;278    		TEXT_SetTextColor(hItem, GUI_BLACK);//ËÆæÁΩÆÂ≠ó‰ΩìÈ¢úËâ≤
;;;279            TEXT_SetFont(hItem,&GUI_Fontset_font);//ËÆæÂÆöÊñáÊú¨Â≠ó‰Ωì
;;;280            TEXT_SetBkColor(hItem,0x00BFFFFF);
;;;281    		GUI_UC_SetEncodeUTF8();
;;;282    		TEXT_SetText(hItem,"ÂàÜÈÄâÂºÄÂÖ≥");
;;;283    		
;;;284    		hItem = WM_GetDialogItem(pMsg->hWin, ID_TEXT_22);
;;;285    		TEXT_SetTextColor(hItem, GUI_WHITE);//ËÆæÁΩÆÂ≠ó‰ΩìÈ¢úËâ≤
;;;286            TEXT_SetFont(hItem,&GUI_Fontset_font);//ËÆæÂÆöÊñáÊú¨Â≠ó‰Ωì
;;;287    		GUI_UC_SetEncodeUTF8();
;;;288    		TEXT_SetText(hItem,"ËøáÊµÅÊµãËØï");
;;;289            
;;;290            hItem = WM_GetDialogItem(pMsg->hWin, ID_TEXT_23);
;;;291    		TEXT_SetTextColor(hItem, GUI_WHITE);//ËÆæÁΩÆÂ≠ó‰ΩìÈ¢úËâ≤
;;;292            TEXT_SetFont(hItem,&GUI_Fontset_font);//ËÆæÂÆöÊñáÊú¨Â≠ó‰Ωì
;;;293    		GUI_UC_SetEncodeUTF8();
;;;294    		TEXT_SetText(hItem,"Êä•Ë≠¶Â£∞Èü≥");
;;;295    		
;;;296    		hItem = WM_GetDialogItem(pMsg->hWin, ID_TEXT_24);
;;;297    		TEXT_SetTextColor(hItem, GUI_WHITE);//ËÆæÁΩÆÂ≠ó‰ΩìÈ¢úËâ≤
;;;298            TEXT_SetFont(hItem,&GUI_Fontset_font);//ËÆæÂÆöÊñáÊú¨Â≠ó‰Ωì
;;;299    		GUI_UC_SetEncodeUTF8();
;;;300    		TEXT_SetText(hItem,"ÁîµÂéã‰∏ä‰∏ãÈôê");
;;;301            
;;;302            hItem = WM_GetDialogItem(pMsg->hWin, ID_TEXT_25);
;;;303    		TEXT_SetTextColor(hItem, GUI_WHITE);//ËÆæÁΩÆÂ≠ó‰ΩìÈ¢úËâ≤
;;;304            TEXT_SetFont(hItem,&GUI_Fontset_font);//ËÆæÂÆöÊñáÊú¨Â≠ó‰Ωì
;;;305    		GUI_UC_SetEncodeUTF8();
;;;306    		TEXT_SetText(hItem,"Ë¥üËΩΩÁîµÂéã‰∏ä‰∏ãÈôê");
;;;307            
;;;308            hItem = WM_GetDialogItem(pMsg->hWin, ID_TEXT_26);
;;;309    		TEXT_SetTextColor(hItem, GUI_WHITE);//ËÆæÁΩÆÂ≠ó‰ΩìÈ¢úËâ≤
;;;310            TEXT_SetFont(hItem,&GUI_Fontset_font);//ËÆæÂÆöÊñáÊú¨Â≠ó‰Ωì
;;;311    		GUI_UC_SetEncodeUTF8();
;;;312    		TEXT_SetText(hItem,"ÂÜÖÈòª‰∏äÈôê");
;;;313            
;;;314            hItem = WM_GetDialogItem(pMsg->hWin, ID_TEXT_27);
;;;315    		TEXT_SetTextColor(hItem, GUI_WHITE);//ËÆæÁΩÆÂ≠ó‰ΩìÈ¢úËâ≤
;;;316            TEXT_SetFont(hItem,&GUI_Fontset_font);//ËÆæÂÆöÊñáÊú¨Â≠ó‰Ωì
;;;317    		GUI_UC_SetEncodeUTF8();
;;;318    		TEXT_SetText(hItem,"ÂÜÖÈòª‰∏ãÈôê");
;;;319            
;;;320            switch(para_set1){
;;;321                case set_1_on:
;;;322                {
;;;323                    hItem = WM_GetDialogItem(pMsg->hWin, ID_TEXT_28);
;;;324                    TEXT_SetTextColor(hItem, GUI_WHITE);//ËÆæÁΩÆÂ≠ó‰ΩìÈ¢úËâ≤
;;;325                    TEXT_SetFont(hItem,&GUI_Font20_ASCII);//ËÆæÂÆöÊñáÊú¨Â≠ó‰Ωì
;;;326                    GUI_UC_SetEncodeUTF8();
;;;327                    TEXT_SetText(hItem,"ON");
;;;328                    break;
;;;329                }
;;;330                case set_1_off:
;;;331                {
;;;332                    hItem = WM_GetDialogItem(pMsg->hWin, ID_TEXT_28);
;;;333                    TEXT_SetTextColor(hItem, GUI_WHITE);//ËÆæÁΩÆÂ≠ó‰ΩìÈ¢úËâ≤
;;;334                    TEXT_SetFont(hItem,&GUI_Font20_ASCII);//ËÆæÂÆöÊñáÊú¨Â≠ó‰Ωì
;;;335                    GUI_UC_SetEncodeUTF8();
;;;336                    TEXT_SetText(hItem,"OFF");
;;;337                    break;
;;;338                }
;;;339            }
;;;340    
;;;341            switch(para_set2){
;;;342                case set_2_on:
;;;343                {
;;;344                    hItem = WM_GetDialogItem(pMsg->hWin, ID_TEXT_29);
;;;345                    TEXT_SetTextColor(hItem, GUI_WHITE);//ËÆæÁΩÆÂ≠ó‰ΩìÈ¢úËâ≤
;;;346                    TEXT_SetFont(hItem,&GUI_Font20_ASCII);//ËÆæÂÆöÊñáÊú¨Â≠ó‰Ωì
;;;347                    GUI_UC_SetEncodeUTF8();
;;;348                    TEXT_SetText(hItem,"ON");
;;;349                    break;
;;;350                }
;;;351                case set_2_off:
;;;352                {
;;;353                    hItem = WM_GetDialogItem(pMsg->hWin, ID_TEXT_29);
;;;354                    TEXT_SetTextColor(hItem, GUI_WHITE);//ËÆæÁΩÆÂ≠ó‰ΩìÈ¢úËâ≤
;;;355                    TEXT_SetFont(hItem,&GUI_Font20_ASCII);//ËÆæÂÆöÊñáÊú¨Â≠ó‰Ωì
;;;356                    GUI_UC_SetEncodeUTF8();
;;;357                    TEXT_SetText(hItem,"OFF");
;;;358                    break;
;;;359                }
;;;360            }
;;;361            
;;;362            switch(para_set4){
;;;363                case set_4_on:
;;;364                {
;;;365                    hItem = WM_GetDialogItem(pMsg->hWin, ID_TEXT_30);
;;;366                    TEXT_SetTextColor(hItem, GUI_WHITE);//ËÆæÁΩÆÂ≠ó‰ΩìÈ¢úËâ≤
;;;367                    TEXT_SetFont(hItem,&GUI_Font20_ASCII);//ËÆæÂÆöÊñáÊú¨Â≠ó‰Ωì
;;;368                    GUI_UC_SetEncodeUTF8();
;;;369                    TEXT_SetText(hItem,"ON");
;;;370                    break;
;;;371                }
;;;372                case set_4_off:
;;;373                {
;;;374                    hItem = WM_GetDialogItem(pMsg->hWin, ID_TEXT_30);
;;;375                    TEXT_SetTextColor(hItem, GUI_WHITE);//ËÆæÁΩÆÂ≠ó‰ΩìÈ¢úËâ≤
;;;376                    TEXT_SetFont(hItem,&GUI_Font20_ASCII);//ËÆæÂÆöÊñáÊú¨Â≠ó‰Ωì
;;;377                    GUI_UC_SetEncodeUTF8();
;;;378                    TEXT_SetText(hItem,"OFF");
;;;379                    break;
;;;380                }
;;;381            }
;;;382            hItem = WM_GetDialogItem(pMsg->hWin, ID_TEXT_31);
;;;383    		TEXT_SetTextColor(hItem, GUI_WHITE);//ËÆæÁΩÆÂ≠ó‰ΩìÈ¢úËâ≤
;;;384            TEXT_SetFont(hItem,&GUI_Fontset_font);//ËÆæÂÆöÊñáÊú¨Â≠ó‰Ωì
;;;385    		GUI_UC_SetEncodeUTF8();
;;;386    		TEXT_SetText(hItem,"ËøáÊµÅ‰∏ä‰∏ãÈôê");
;;;387    
;;;388            hItem = WM_GetDialogItem(pMsg->hWin, ID_TEXT_32);
;;;389    		TEXT_SetTextColor(hItem, GUI_WHITE);//ËÆæÁΩÆÂ≠ó‰ΩìÈ¢úËâ≤
;;;390            TEXT_SetFont(hItem,&GUI_Fontset_font);//ËÆæÂÆöÊñáÊú¨Â≠ó‰Ωì
;;;391    		GUI_UC_SetEncodeUTF8();
;;;392    		TEXT_SetText(hItem,"ÂÖÖÁîµÁîµÊµÅ‰∏ä‰∏ãÈôê");
;;;393            
;;;394            hItem = WM_GetDialogItem(pMsg->hWin, ID_TEXT_90);
;;;395    		TEXT_SetTextColor(hItem, GUI_WHITE);//ËÆæÁΩÆÂ≠ó‰ΩìÈ¢úËâ≤
;;;396            TEXT_SetFont(hItem,&GUI_Fontset_font);//ËÆæÂÆöÊñáÊú¨Â≠ó‰Ωì
;;;397    		GUI_UC_SetEncodeUTF8();
;;;398    		TEXT_SetText(hItem,"ÁîµÊ±†Á±ªÂûã");
;;;399            
;;;400            hItem = WM_GetDialogItem(pMsg->hWin, ID_TEXT_133);
;;;401            TEXT_SetTextColor(hItem, GUI_WHITE);//ËÆæÁΩÆÂ≠ó‰ΩìÈ¢úËâ≤
;;;402            TEXT_SetFont(hItem,&GUI_Fontset_font);//ËÆæÂÆöÊñáÊú¨Â≠ó‰Ωì
;;;403            GUI_UC_SetEncodeUTF8();
;;;404            TEXT_SetText(hItem,"ÊµãËØïÊ®°Âºè");
;;;405            
;;;406            hItem = WM_GetDialogItem(pMsg->hWin, ID_TEXT_134);
;;;407            TEXT_SetTextColor(hItem, GUI_WHITE);//ËÆæÁΩÆÂ≠ó‰ΩìÈ¢úËâ≤
;;;408            TEXT_SetFont(hItem,&GUI_Fontset_font);//ËÆæÂÆöÊñáÊú¨Â≠ó‰Ωì
;;;409            GUI_UC_SetEncodeUTF8();
;;;410            if(test_mode == 1)
;;;411            {
;;;412                TEXT_SetText(hItem,"Á≤æÂáÜ");
;;;413            }else if(test_mode == 0){
;;;414                TEXT_SetText(hItem,"Âø´ÈÄü");
;;;415            }
;;;416            
;;;417            
;;;418            
;;;419            
;;;420            
;;;421            
;;;422            switch(b_type)
;;;423            {
;;;424                case Lion:
;;;425                {
;;;426                    hItem = WM_GetDialogItem(pMsg->hWin, ID_TEXT_91);
;;;427                    TEXT_SetTextColor(hItem, GUI_WHITE);//ËÆæÁΩÆÂ≠ó‰ΩìÈ¢úËâ≤
;;;428                    TEXT_SetFont(hItem,&GUI_Fontset_font);//ËÆæÂÆöÊñáÊú¨Â≠ó‰Ωì
;;;429                    GUI_UC_SetEncodeUTF8();
;;;430                    TEXT_SetText(hItem,"ÈîÇÁîµÊ±†");
;;;431                    break;
;;;432                }
;;;433                case NiMH:
;;;434                {
;;;435                    hItem = WM_GetDialogItem(pMsg->hWin, ID_TEXT_91);
;;;436                    TEXT_SetTextColor(hItem, GUI_WHITE);//ËÆæÁΩÆÂ≠ó‰ΩìÈ¢úËâ≤
;;;437                    TEXT_SetFont(hItem,&GUI_Fontset_font);//ËÆæÂÆöÊñáÊú¨Â≠ó‰Ωì
;;;438                    GUI_UC_SetEncodeUTF8();
;;;439                    TEXT_SetText(hItem,"ÈïçÊ∞¢ÁîµÊ±†");
;;;440                    break;
;;;441                }
;;;442                case NiCd:
;;;443                {
;;;444                    hItem = WM_GetDialogItem(pMsg->hWin, ID_TEXT_91);
;;;445                    TEXT_SetTextColor(hItem, GUI_WHITE);//ËÆæÁΩÆÂ≠ó‰ΩìÈ¢úËâ≤
;;;446                    TEXT_SetFont(hItem,&GUI_Fontset_font);//ËÆæÂÆöÊñáÊú¨Â≠ó‰Ωì
;;;447                    GUI_UC_SetEncodeUTF8();
;;;448                    TEXT_SetText(hItem,"ÈïçÈïâÁîµÊ±†");
;;;449                    break;
;;;450                }
;;;451                case SLA:
;;;452                {
;;;453                    hItem = WM_GetDialogItem(pMsg->hWin, ID_TEXT_91);
;;;454                    TEXT_SetTextColor(hItem, GUI_WHITE);//ËÆæÁΩÆÂ≠ó‰ΩìÈ¢úËâ≤
;;;455                    TEXT_SetFont(hItem,&GUI_Fontset_font);//ËÆæÂÆöÊñáÊú¨Â≠ó‰Ωì
;;;456                    GUI_UC_SetEncodeUTF8();
;;;457                    TEXT_SetText(hItem,"Â∞èÂûãÈìÖÈÖ∏ÁîµÊ±†");
;;;458                    break;
;;;459                }
;;;460                case LiMH:
;;;461                {
;;;462                    hItem = WM_GetDialogItem(pMsg->hWin, ID_TEXT_91);
;;;463                    TEXT_SetTextColor(hItem, GUI_WHITE);//ËÆæÁΩÆÂ≠ó‰ΩìÈ¢úËâ≤
;;;464                    TEXT_SetFont(hItem,&GUI_Fontset_font);//ËÆæÂÆöÊñáÊú¨Â≠ó‰Ωì
;;;465                    GUI_UC_SetEncodeUTF8();
;;;466                    TEXT_SetText(hItem,"ÈîÇÈî∞ÁîµÊ±†");
;;;467                    break;
;;;468                }
;;;469                
;;;470            }
;;;471    
;;;472            
;;;473    
;;;474    
;;;475            hItem = WM_GetDialogItem(pMsg->hWin, ID_TEXT_35);
;;;476            sprintf(buf,"%.3f",dis_max_v);
;;;477    		TEXT_SetTextColor(hItem, GUI_WHITE);//ËÆæÁΩÆÂ≠ó‰ΩìÈ¢úËâ≤
;;;478            TEXT_SetFont(hItem,&GUI_Font16_1);//ËÆæÂÆöÊñáÊú¨Â≠ó‰Ωì
;;;479    		GUI_UC_SetEncodeUTF8();        
;;;480    		TEXT_SetText(hItem,buf);
;;;481    
;;;482            hItem = WM_GetDialogItem(pMsg->hWin, ID_TEXT_36);
;;;483            sprintf(buf,"%.3f",dis_min_v);
;;;484    		TEXT_SetTextColor(hItem, GUI_WHITE);//ËÆæÁΩÆÂ≠ó‰ΩìÈ¢úËâ≤
;;;485            TEXT_SetFont(hItem,&GUI_Font16_1);//ËÆæÂÆöÊñáÊú¨Â≠ó‰Ωì
;;;486    		GUI_UC_SetEncodeUTF8();        
;;;487    		TEXT_SetText(hItem,buf);
;;;488    		
;;;489    		hItem = WM_GetDialogItem(pMsg->hWin, ID_TEXT_154);
;;;490            sprintf(buf,"%.3f",(float)set_max_lv/1000);
;;;491    		TEXT_SetTextColor(hItem, GUI_WHITE);//ËÆæÁΩÆÂ≠ó‰ΩìÈ¢úËâ≤
;;;492            TEXT_SetFont(hItem,&GUI_Font16_1);//ËÆæÂÆöÊñáÊú¨Â≠ó‰Ωì
;;;493    		GUI_UC_SetEncodeUTF8();        
;;;494    		TEXT_SetText(hItem,buf);
;;;495    
;;;496            hItem = WM_GetDialogItem(pMsg->hWin, ID_TEXT_155);
;;;497            sprintf(buf,"%.3f",(float)set_min_lv/1000);
;;;498    		TEXT_SetTextColor(hItem, GUI_WHITE);//ËÆæÁΩÆÂ≠ó‰ΩìÈ¢úËâ≤
;;;499            TEXT_SetFont(hItem,&GUI_Font16_1);//ËÆæÂÆöÊñáÊú¨Â≠ó‰Ωì
;;;500    		GUI_UC_SetEncodeUTF8();        
;;;501    		TEXT_SetText(hItem,buf);
;;;502    //         
;;;503            hItem = WM_GetDialogItem(pMsg->hWin, ID_TEXT_37);
;;;504            sprintf(buf,"%4d",set_max_r);
;;;505    		TEXT_SetTextColor(hItem, GUI_WHITE);//ËÆæÁΩÆÂ≠ó‰ΩìÈ¢úËâ≤
;;;506            TEXT_SetFont(hItem,&GUI_Font24_1);//ËÆæÂÆöÊñáÊú¨Â≠ó‰Ωì
;;;507    		GUI_UC_SetEncodeUTF8();        
;;;508    		TEXT_SetText(hItem,buf);
;;;509    
;;;510            hItem = WM_GetDialogItem(pMsg->hWin, ID_TEXT_38);
;;;511            sprintf(buf,"%4d",set_min_r);
;;;512    		TEXT_SetTextColor(hItem, GUI_WHITE);//ËÆæÁΩÆÂ≠ó‰ΩìÈ¢úËâ≤
;;;513            TEXT_SetFont(hItem,&GUI_Font24_1);//ËÆæÂÆöÊñáÊú¨Â≠ó‰Ωì
;;;514    		GUI_UC_SetEncodeUTF8();        
;;;515    		TEXT_SetText(hItem,buf);
;;;516    // // // 		
;;;517            hItem = WM_GetDialogItem(pMsg->hWin, ID_TEXT_39);
;;;518            sprintf(buf,"%.3f",dis_max_c);        
;;;519    		TEXT_SetTextColor(hItem, GUI_WHITE);//ËÆæÁΩÆÂ≠ó‰ΩìÈ¢úËâ≤
;;;520            TEXT_SetFont(hItem,&GUI_Font16_1);//ËÆæÂÆöÊñáÊú¨Â≠ó‰Ωì
;;;521    		GUI_UC_SetEncodeUTF8();        
;;;522    		TEXT_SetText(hItem,buf);
;;;523            
;;;524            hItem = WM_GetDialogItem(pMsg->hWin, ID_TEXT_156);
;;;525            sprintf(buf,"%.3f",(float)set_max_pc/1000);
;;;526    		TEXT_SetTextColor(hItem, GUI_WHITE);//ËÆæÁΩÆÂ≠ó‰ΩìÈ¢úËâ≤
;;;527            TEXT_SetFont(hItem,&GUI_Font16_1);//ËÆæÂÆöÊñáÊú¨Â≠ó‰Ωì
;;;528    		GUI_UC_SetEncodeUTF8(); 
;;;529    		TEXT_SetText(hItem,buf);
;;;530    		
;;;531    		hItem = WM_GetDialogItem(pMsg->hWin, ID_TEXT_157);
;;;532            sprintf(buf,"%.3f",(float)set_min_pc/1000);        
;;;533    		TEXT_SetTextColor(hItem, GUI_WHITE);//ËÆæÁΩÆÂ≠ó‰ΩìÈ¢úËâ≤
;;;534            TEXT_SetFont(hItem,&GUI_Font16_1);//ËÆæÂÆöÊñáÊú¨Â≠ó‰Ωì
;;;535    		GUI_UC_SetEncodeUTF8();        
;;;536    		TEXT_SetText(hItem,buf);
;;;537            
;;;538            hItem = WM_GetDialogItem(pMsg->hWin, ID_TEXT_40);
;;;539            sprintf(buf,"%.3f",dis_min_c);
;;;540    		TEXT_SetTextColor(hItem, GUI_WHITE);//ËÆæÁΩÆÂ≠ó‰ΩìÈ¢úËâ≤
;;;541            TEXT_SetFont(hItem,&GUI_Font16_1);//ËÆæÂÆöÊñáÊú¨Â≠ó‰Ωì
;;;542    		GUI_UC_SetEncodeUTF8(); 
;;;543    		TEXT_SetText(hItem,buf);
;;;544            
;;;545            hItem = WM_GetDialogItem(pMsg->hWin, ID_TEXT_129);
;;;546            TEXT_SetTextColor(hItem, GUI_GREEN);//…Ë÷√◊÷ÃÂ—’…´
;;;547            TEXT_SetFont(hItem,&GUI_Font24_1);//…Ë∂®Œƒ±æ◊÷ÃÂ       
;;;548            sprintf(buf,"%.1f",temp);
;;;549            TEXT_SetText(hItem,buf);
;;;550            
;;;551            
;;;552    
;;;553            
;;;554            
;;;555            
;;;556    
;;;557        // USER START (Optionally insert additional code for further widget initialization)
;;;558        // USER END
;;;559            break;
;;;560      // USER START (Optionally insert additional message handling)
;;;561      // USER END
;;;562        default:
;;;563            WM_DefaultProc(pMsg);
000074  4620              MOV      r0,r4
000076  f7fffffe          BL       WM_DefaultProc
                  |L10.122|
;;;564            break;
;;;565      }
;;;566    }
00007a  b005              ADD      sp,sp,#0x14
00007c  ecbd8b06          VPOP     {d8-d10}
000080  e8bd8ff0          POP      {r4-r11,pc}
                  |L10.132|
000084  4640              MOV      r0,r8                 ;167
000086  f7fffffe          BL       GUI_SetColor
00008a  231a              MOVS     r3,#0x1a              ;168
00008c  f44f72f0          MOV      r2,#0x1e0             ;168
000090  2119              MOVS     r1,#0x19              ;168
000092  2000              MOVS     r0,#0                 ;168
000094  f7fffffe          BL       GUI_FillRect
000098  f24a50ff          MOV      r0,#0xa5ff            ;169
00009c  f7fffffe          BL       GUI_SetColor
0000a0  48db              LDR      r0,|L10.1040|
0000a2  f7fffffe          BL       GUI_SetFont
0000a6  f7fffffe          BL       GUI_UC_SetEncodeUTF8
0000aa  2002              MOVS     r0,#2                 ;172
0000ac  f7fffffe          BL       GUI_SetTextMode
0000b0  2201              MOVS     r2,#1                 ;173
0000b2  2105              MOVS     r1,#5                 ;173
0000b4  a0d7              ADR      r0,|L10.1044|
0000b6  f7fffffe          BL       GUI_DispStringAt
0000ba  4640              MOV      r0,r8                 ;174
0000bc  f7fffffe          BL       GUI_SetColor
0000c0  48d6              LDR      r0,|L10.1052|
0000c2  f7fffffe          BL       GUI_SetFont
0000c6  f7fffffe          BL       GUI_UC_SetEncodeUTF8
0000ca  2002              MOVS     r0,#2                 ;177
0000cc  f7fffffe          BL       GUI_SetTextMode
0000d0  2203              MOVS     r2,#3                 ;178
0000d2  2182              MOVS     r1,#0x82              ;178
0000d4  a0d2              ADR      r0,|L10.1056|
0000d6  f7fffffe          BL       GUI_DispStringAt
0000da  4640              MOV      r0,r8                 ;179
0000dc  f7fffffe          BL       GUI_SetColor
0000e0  48d3              LDR      r0,|L10.1072|
0000e2  f7fffffe          BL       GUI_SetFont
0000e6  227d              MOVS     r2,#0x7d              ;181
0000e8  21dc              MOVS     r1,#0xdc              ;181
0000ea  a0d2              ADR      r0,|L10.1076|
0000ec  f7fffffe          BL       GUI_DispStringAt
0000f0  2296              MOVS     r2,#0x96              ;182
0000f2  21dc              MOVS     r1,#0xdc              ;182
0000f4  a0cf              ADR      r0,|L10.1076|
0000f6  f7fffffe          BL       GUI_DispStringAt
0000fa  f24014c3          MOV      r4,#0x1c3             ;183
0000fe  2232              MOVS     r2,#0x32              ;183
000100  4621              MOV      r1,r4                 ;183
000102  a0cd              ADR      r0,|L10.1080|
000104  f7fffffe          BL       GUI_DispStringAt
000108  224b              MOVS     r2,#0x4b              ;184
00010a  4621              MOV      r1,r4                 ;184
00010c  a0ca              ADR      r0,|L10.1080|
00010e  f7fffffe          BL       GUI_DispStringAt
000112  22af              MOVS     r2,#0xaf              ;185
000114  21c3              MOVS     r1,#0xc3              ;185
000116  a0c9              ADR      r0,|L10.1084|
000118  f7fffffe          BL       GUI_DispStringAt
00011c  22c8              MOVS     r2,#0xc8              ;186
00011e  21c3              MOVS     r1,#0xc3              ;186
000120  a0c6              ADR      r0,|L10.1084|
000122  f7fffffe          BL       GUI_DispStringAt
000126  48c6              LDR      r0,|L10.1088|
000128  f7fffffe          BL       GUI_SetFont
00012c  22b6              MOVS     r2,#0xb6              ;188
00012e  21d3              MOVS     r1,#0xd3              ;188
000130  a0c4              ADR      r0,|L10.1092|
000132  f7fffffe          BL       GUI_DispStringAt
000136  22cf              MOVS     r2,#0xcf              ;189
000138  21d3              MOVS     r1,#0xd3              ;189
00013a  a0c2              ADR      r0,|L10.1092|
00013c  f7fffffe          BL       GUI_DispStringAt
000140  4640              MOV      r0,r8                 ;190
000142  f7fffffe          BL       GUI_SetColor
000146  48c0              LDR      r0,|L10.1096|
000148  f7fffffe          BL       GUI_SetFont
00014c  227a              MOVS     r2,#0x7a              ;192
00014e  21ad              MOVS     r1,#0xad              ;192
000150  a0be              ADR      r0,|L10.1100|
000152  f7fffffe          BL       GUI_DispStringAt
000156  2288              MOVS     r2,#0x88              ;193
000158  21ad              MOVS     r1,#0xad              ;193
00015a  a0bd              ADR      r0,|L10.1104|
00015c  f7fffffe          BL       GUI_DispStringAt
000160  2296              MOVS     r2,#0x96              ;194
000162  21ad              MOVS     r1,#0xad              ;194
000164  a0b9              ADR      r0,|L10.1100|
000166  e001              B        |L10.364|
                  |L10.360|
000168  e060              B        |L10.556|
                  |L10.362|
00016a  e034              B        |L10.470|
                  |L10.364|
00016c  f7fffffe          BL       GUI_DispStringAt
000170  22a4              MOVS     r2,#0xa4              ;195
000172  21ad              MOVS     r1,#0xad              ;195
000174  a0b6              ADR      r0,|L10.1104|
000176  f7fffffe          BL       GUI_DispStringAt
00017a  f44f74ca          MOV      r4,#0x194             ;196
00017e  222f              MOVS     r2,#0x2f              ;196
000180  4621              MOV      r1,r4                 ;196
000182  a0b2              ADR      r0,|L10.1100|
000184  f7fffffe          BL       GUI_DispStringAt
000188  223d              MOVS     r2,#0x3d              ;197
00018a  4621              MOV      r1,r4                 ;197
00018c  a0b0              ADR      r0,|L10.1104|
00018e  f7fffffe          BL       GUI_DispStringAt
000192  224b              MOVS     r2,#0x4b              ;198
000194  4621              MOV      r1,r4                 ;198
000196  a0ad              ADR      r0,|L10.1100|
000198  f7fffffe          BL       GUI_DispStringAt
00019c  2259              MOVS     r2,#0x59              ;199
00019e  4621              MOV      r1,r4                 ;199
0001a0  a0ab              ADR      r0,|L10.1104|
0001a2  f7fffffe          BL       GUI_DispStringAt
0001a6  4648              MOV      r0,r9                 ;201
0001a8  f7fffffe          BL       GUI_SetColor
0001ac  48a9              LDR      r0,|L10.1108|
0001ae  f7fffffe          BL       GUI_SetFont
0001b2  2202              MOVS     r2,#2                 ;203
0001b4  f44f71ab          MOV      r1,#0x156             ;203
0001b8  a0a7              ADR      r0,|L10.1112|
0001ba  f7fffffe          BL       GUI_DispStringAt
0001be  489c              LDR      r0,|L10.1072|
0001c0  f7fffffe          BL       GUI_SetFont
0001c4  2202              MOVS     r2,#2                 ;205
0001c6  f44f71af          MOV      r1,#0x15e             ;205
0001ca  a0a4              ADR      r0,|L10.1116|
0001cc  f7fffffe          BL       GUI_DispStringAt
0001d0  f7fffffe          BL       DrawLock
                  |L10.468|
0001d4  e751              B        |L10.122|
                  |L10.470|
0001d6  68e0              LDR      r0,[r4,#0xc]          ;210
0001d8  f7fffffe          BL       WM_GetTimerId
0001dc  2806              CMP      r0,#6                 ;210
0001de  d1f9              BNE      |L10.468|
0001e0  4a9f              LDR      r2,|L10.1120|
0001e2  49a0              LDR      r1,|L10.1124|
0001e4  7810              LDRB     r0,[r2,#0]            ;212  ; lockstat1
0001e6  7008              STRB     r0,[r1,#0]            ;212
0001e8  499f              LDR      r1,|L10.1128|
0001ea  7809              LDRB     r1,[r1,#0]            ;213  ; lock
0001ec  7011              STRB     r1,[r2,#0]            ;213
0001ee  4281              CMP      r1,r0                 ;214
0001f0  d002              BEQ      |L10.504|
0001f2  6868              LDR      r0,[r5,#4]            ;216  ; hWinset
0001f4  f7fffffe          BL       WM_InvalidateWindow
                  |L10.504|
0001f8  4659              MOV      r1,r11                ;219
0001fa  6860              LDR      r0,[r4,#4]            ;219
0001fc  f7fffffe          BL       WM_GetDialogItem
000200  4605              MOV      r5,r0                 ;219
000202  6838              LDR      r0,[r7,#0]            ;220  ; temp
000204  f7fffffe          BL       __aeabi_f2d
000208  ec410b10          VMOV     d0,r0,r1              ;220
00020c  a197              ADR      r1,|L10.1132|
00020e  ec532b10          VMOV     r2,r3,d0              ;220
000212  a803              ADD      r0,sp,#0xc            ;220
000214  f7fffffe          BL       __2sprintf
000218  a903              ADD      r1,sp,#0xc            ;221
00021a  4628              MOV      r0,r5                 ;221
00021c  f7fffffe          BL       TEXT_SetText
000220  f44f71fa          MOV      r1,#0x1f4             ;224
000224  68e0              LDR      r0,[r4,#0xc]          ;224
000226  f7fffffe          BL       WM_RestartTimer
00022a  e726              B        |L10.122|
                  |L10.556|
00022c  f8d4a004          LDR      r10,[r4,#4]           ;234
000230  2100              MOVS     r1,#0                 ;235
000232  4650              MOV      r0,r10                ;235
000234  f7fffffe          BL       WINDOW_SetBkColor
000238  2300              MOVS     r3,#0                 ;236
00023a  f44f727a          MOV      r2,#0x3e8             ;236
00023e  2106              MOVS     r1,#6                 ;236
000240  4650              MOV      r0,r10                ;236
000242  f7fffffe          BL       WM_CreateTimer
000246  f6400136          MOV      r1,#0x836             ;247
00024a  6860              LDR      r0,[r4,#4]            ;247
00024c  f7fffffe          BL       WM_GetDialogItem
000250  4682              MOV      r10,r0                ;247
000252  497b              LDR      r1,|L10.1088|
000254  4650              MOV      r0,r10                ;249
000256  f7fffffe          BL       BUTTON_SetFont
00025a  f7fffffe          BL       GUI_UC_SetEncodeUTF8
00025e  a185              ADR      r1,|L10.1140|
000260  4650              MOV      r0,r10                ;251
000262  f7fffffe          BL       BUTTON_SetText
000266  f6400137          MOV      r1,#0x837             ;253
00026a  6860              LDR      r0,[r4,#4]            ;253
00026c  f7fffffe          BL       WM_GetDialogItem
000270  4682              MOV      r10,r0                ;253
000272  4973              LDR      r1,|L10.1088|
000274  4650              MOV      r0,r10                ;255
000276  f7fffffe          BL       BUTTON_SetFont
00027a  f7fffffe          BL       GUI_UC_SetEncodeUTF8
00027e  a181              ADR      r1,|L10.1156|
000280  4650              MOV      r0,r10                ;257
000282  f7fffffe          BL       BUTTON_SetText
000286  f6400138          MOV      r1,#0x838             ;259
00028a  6860              LDR      r0,[r4,#4]            ;259
00028c  f7fffffe          BL       WM_GetDialogItem
000290  4682              MOV      r10,r0                ;259
000292  496b              LDR      r1,|L10.1088|
000294  4650              MOV      r0,r10                ;261
000296  f7fffffe          BL       BUTTON_SetFont
00029a  f7fffffe          BL       GUI_UC_SetEncodeUTF8
00029e  a17d              ADR      r1,|L10.1172|
0002a0  4650              MOV      r0,r10                ;263
0002a2  f7fffffe          BL       BUTTON_SetText
0002a6  f6400139          MOV      r1,#0x839             ;265
0002aa  6860              LDR      r0,[r4,#4]            ;265
0002ac  f7fffffe          BL       WM_GetDialogItem
0002b0  4682              MOV      r10,r0                ;265
0002b2  4963              LDR      r1,|L10.1088|
0002b4  4650              MOV      r0,r10                ;267
0002b6  f7fffffe          BL       BUTTON_SetFont
0002ba  f7fffffe          BL       GUI_UC_SetEncodeUTF8
0002be  a179              ADR      r1,|L10.1188|
0002c0  4650              MOV      r0,r10                ;269
0002c2  f7fffffe          BL       BUTTON_SetText
0002c6  f640013a          MOV      r1,#0x83a             ;271
0002ca  6860              LDR      r0,[r4,#4]            ;271
0002cc  f7fffffe          BL       WM_GetDialogItem
0002d0  4682              MOV      r10,r0                ;271
0002d2  495b              LDR      r1,|L10.1088|
0002d4  4650              MOV      r0,r10                ;273
0002d6  f7fffffe          BL       BUTTON_SetFont
0002da  f7fffffe          BL       GUI_UC_SetEncodeUTF8
0002de  a174              ADR      r1,|L10.1200|
0002e0  4650              MOV      r0,r10                ;275
0002e2  f7fffffe          BL       BUTTON_SetText
0002e6  f640012b          MOV      r1,#0x82b             ;277
0002ea  6860              LDR      r0,[r4,#4]            ;277
0002ec  f7fffffe          BL       WM_GetDialogItem
0002f0  4682              MOV      r10,r0                ;277
0002f2  2100              MOVS     r1,#0                 ;278
0002f4  4650              MOV      r0,r10                ;278
0002f6  f7fffffe          BL       TEXT_SetTextColor
0002fa  496f              LDR      r1,|L10.1208|
0002fc  4650              MOV      r0,r10                ;279
0002fe  f7fffffe          BL       TEXT_SetFont
000302  496e              LDR      r1,|L10.1212|
000304  4650              MOV      r0,r10                ;280
000306  f7fffffe          BL       TEXT_SetBkColor
00030a  f7fffffe          BL       GUI_UC_SetEncodeUTF8
00030e  a16c              ADR      r1,|L10.1216|
000310  4650              MOV      r0,r10                ;282
000312  f7fffffe          BL       TEXT_SetText
000316  f640012c          MOV      r1,#0x82c             ;284
00031a  6860              LDR      r0,[r4,#4]            ;284
00031c  f7fffffe          BL       WM_GetDialogItem
000320  4682              MOV      r10,r0                ;284
000322  4641              MOV      r1,r8                 ;285
000324  4650              MOV      r0,r10                ;285
000326  f7fffffe          BL       TEXT_SetTextColor
00032a  4963              LDR      r1,|L10.1208|
00032c  4650              MOV      r0,r10                ;286
00032e  f7fffffe          BL       TEXT_SetFont
000332  f7fffffe          BL       GUI_UC_SetEncodeUTF8
000336  a166              ADR      r1,|L10.1232|
000338  4650              MOV      r0,r10                ;288
00033a  f7fffffe          BL       TEXT_SetText
00033e  f640012d          MOV      r1,#0x82d             ;290
000342  6860              LDR      r0,[r4,#4]            ;290
000344  f7fffffe          BL       WM_GetDialogItem
000348  4682              MOV      r10,r0                ;290
00034a  4641              MOV      r1,r8                 ;291
00034c  4650              MOV      r0,r10                ;291
00034e  f7fffffe          BL       TEXT_SetTextColor
000352  4959              LDR      r1,|L10.1208|
000354  4650              MOV      r0,r10                ;292
000356  f7fffffe          BL       TEXT_SetFont
00035a  f7fffffe          BL       GUI_UC_SetEncodeUTF8
00035e  a160              ADR      r1,|L10.1248|
000360  4650              MOV      r0,r10                ;294
000362  f7fffffe          BL       TEXT_SetText
000366  f640012e          MOV      r1,#0x82e             ;296
00036a  6860              LDR      r0,[r4,#4]            ;296
00036c  f7fffffe          BL       WM_GetDialogItem
000370  4682              MOV      r10,r0                ;296
000372  4641              MOV      r1,r8                 ;297
000374  4650              MOV      r0,r10                ;297
000376  f7fffffe          BL       TEXT_SetTextColor
00037a  494f              LDR      r1,|L10.1208|
00037c  4650              MOV      r0,r10                ;298
00037e  f7fffffe          BL       TEXT_SetFont
000382  f7fffffe          BL       GUI_UC_SetEncodeUTF8
000386  a15a              ADR      r1,|L10.1264|
000388  4650              MOV      r0,r10                ;300
00038a  f7fffffe          BL       TEXT_SetText
00038e  f640012f          MOV      r1,#0x82f             ;302
000392  6860              LDR      r0,[r4,#4]            ;302
000394  f7fffffe          BL       WM_GetDialogItem
000398  4682              MOV      r10,r0                ;302
00039a  4641              MOV      r1,r8                 ;303
00039c  4650              MOV      r0,r10                ;303
00039e  f7fffffe          BL       TEXT_SetTextColor
0003a2  4945              LDR      r1,|L10.1208|
0003a4  4650              MOV      r0,r10                ;304
0003a6  f7fffffe          BL       TEXT_SetFont
0003aa  f7fffffe          BL       GUI_UC_SetEncodeUTF8
0003ae  a154              ADR      r1,|L10.1280|
0003b0  4650              MOV      r0,r10                ;306
0003b2  f7fffffe          BL       TEXT_SetText
0003b6  f44f6103          MOV      r1,#0x830             ;308
0003ba  6860              LDR      r0,[r4,#4]            ;308
0003bc  f7fffffe          BL       WM_GetDialogItem
0003c0  4682              MOV      r10,r0                ;308
0003c2  4641              MOV      r1,r8                 ;309
0003c4  4650              MOV      r0,r10                ;309
0003c6  f7fffffe          BL       TEXT_SetTextColor
0003ca  493b              LDR      r1,|L10.1208|
0003cc  4650              MOV      r0,r10                ;310
0003ce  f7fffffe          BL       TEXT_SetFont
0003d2  f7fffffe          BL       GUI_UC_SetEncodeUTF8
0003d6  a150              ADR      r1,|L10.1304|
0003d8  4650              MOV      r0,r10                ;312
0003da  f7fffffe          BL       TEXT_SetText
0003de  f6400131          MOV      r1,#0x831             ;314
0003e2  6860              LDR      r0,[r4,#4]            ;314
0003e4  f7fffffe          BL       WM_GetDialogItem
0003e8  4682              MOV      r10,r0                ;314
0003ea  4641              MOV      r1,r8                 ;315
0003ec  4650              MOV      r0,r10                ;315
0003ee  f7fffffe          BL       TEXT_SetTextColor
0003f2  4931              LDR      r1,|L10.1208|
0003f4  4650              MOV      r0,r10                ;316
0003f6  f7fffffe          BL       TEXT_SetFont
0003fa  f7fffffe          BL       GUI_UC_SetEncodeUTF8
0003fe  e093              B        |L10.1320|
                  |L10.1024|
                          DCD      Run_Control
                  |L10.1028|
000404  447a0000          DCFS     0x447a0000 ; 1000
                  |L10.1032|
                          DCD      temp
                  |L10.1036|
                          DCD      ||.data||
                  |L10.1040|
                          DCD      GUI_Fontsymbol
                  |L10.1044|
000414  4a696e6b          DCB      "Jinko",0
000418  6f00    
00041a  00                DCB      0
00041b  00                DCB      0
                  |L10.1052|
                          DCD      GUI_FontHZ20S
                  |L10.1056|
000420  e7b3bbe7          DCB      231,179,187,231,187,159,232,174,190,231,189,174,0
000424  bb9fe8ae
000428  bee7bdae
00042c  00      
00042d  00                DCB      0
00042e  00                DCB      0
00042f  00                DCB      0
                  |L10.1072|
                          DCD      GUI_Font24_1
                  |L10.1076|
000434  5600              DCB      "V",0
000436  00                DCB      0
000437  00                DCB      0
                  |L10.1080|
000438  4100              DCB      "A",0
00043a  00                DCB      0
00043b  00                DCB      0
                  |L10.1084|
00043c  6d00              DCB      "m",0
00043e  00                DCB      0
00043f  00                DCB      0
                  |L10.1088|
                          DCD      GUI_FontHZ16
                  |L10.1092|
000444  cea900            DCB      206,169,0
000447  00                DCB      0
                  |L10.1096|
                          DCD      GUI_Font16_1
                  |L10.1100|
00044c  4800              DCB      "H",0
00044e  00                DCB      0
00044f  00                DCB      0
                  |L10.1104|
000450  4c00              DCB      "L",0
000452  00                DCB      0
000453  00                DCB      0
                  |L10.1108|
                          DCD      GUI_Fontunit
                  |L10.1112|
000458  c2b000            DCB      194,176,0
00045b  00                DCB      0
                  |L10.1116|
00045c  4300              DCB      "C",0
00045e  00                DCB      0
00045f  00                DCB      0
                  |L10.1120|
                          DCD      lockstat1
                  |L10.1124|
                          DCD      lockstat2
                  |L10.1128|
                          DCD      lock
                  |L10.1132|
00046c  252e3166          DCB      "%.1f",0
000470  00      
000471  00                DCB      0
000472  00                DCB      0
000473  00                DCB      0
                  |L10.1140|
000474  e58685e9          DCB      229,134,133,233,152,187,230,181,139,232,175,149,0
000478  98bbe6b5
00047c  8be8af95
000480  00      
000481  00                DCB      0
000482  00                DCB      0
000483  00                DCB      0
                  |L10.1156|
000484  e7a88be6          DCB      231,168,139,230,142,167,232,180,159,232,189,189,0
000488  8ea7e8b4
00048c  9fe8bdbd
000490  00      
000491  00                DCB      0
000492  00                DCB      0
000493  00                DCB      0
                  |L10.1172|
000494  e7a88be6          DCB      231,168,139,230,142,167,231,148,181,230,186,144,0
000498  8ea7e794
00049c  b5e6ba90
0004a0  00      
0004a1  00                DCB      0
0004a2  00                DCB      0
0004a3  00                DCB      0
                  |L10.1188|
0004a4  e58585e6          DCB      229,133,133,230,148,190,231,148,181,0
0004a8  94bee794
0004ac  b500    
0004ae  00                DCB      0
0004af  00                DCB      0
                  |L10.1200|
0004b0  e69bb2e7          DCB      230,155,178,231,186,191,0
0004b4  babf00  
0004b7  00                DCB      0
                  |L10.1208|
                          DCD      GUI_Fontset_font
                  |L10.1212|
                          DCD      0x00bfffff
                  |L10.1216|
0004c0  e58886e9          DCB      229,136,134,233,128,137,229,188,128,229,133,179,0
0004c4  8089e5bc
0004c8  80e585b3
0004cc  00      
0004cd  00                DCB      0
0004ce  00                DCB      0
0004cf  00                DCB      0
                  |L10.1232|
0004d0  e8bf87e6          DCB      232,191,135,230,181,129,230,181,139,232,175,149,0
0004d4  b581e6b5
0004d8  8be8af95
0004dc  00      
0004dd  00                DCB      0
0004de  00                DCB      0
0004df  00                DCB      0
                  |L10.1248|
0004e0  e68aa5e8          DCB      230,138,165,232,173,166,229,163,176,233,159,179,0
0004e4  ada6e5a3
0004e8  b0e99fb3
0004ec  00      
0004ed  00                DCB      0
0004ee  00                DCB      0
0004ef  00                DCB      0
                  |L10.1264|
0004f0  e794b5e5          DCB      231,148,181,229,142,139,228,184,138,228,184,139,233,153,144
0004f4  8e8be4b8
0004f8  8ae4b88b
0004fc  e99990  
0004ff  00                DCB      0
                  |L10.1280|
000500  e8b49fe8          DCB      232,180,159,232,189,189,231,148,181,229,142,139,228,184,138
000504  bdbde794
000508  b5e58e8b
00050c  e4b88a  
00050f  e4b88be9          DCB      228,184,139,233,153,144,0
000513  999000  
000516  00                DCB      0
000517  00                DCB      0
                  |L10.1304|
000518  e58685e9          DCB      229,134,133,233,152,187,228,184,138,233,153,144,0
00051c  98bbe4b8
000520  8ae99990
000524  00      
000525  00                DCB      0
000526  00                DCB      0
000527  00                DCB      0
                  |L10.1320|
000528  a1fc              ADR      r1,|L10.2332|
00052a  4650              MOV      r0,r10                ;318
00052c  f7fffffe          BL       TEXT_SetText
000530  48fe              LDR      r0,|L10.2348|
000532  7800              LDRB     r0,[r0,#0]            ;320  ; para_set1
000534  f6400132          MOV      r1,#0x832             ;323
000538  b1a0              CBZ      r0,|L10.1380|
00053a  28ff              CMP      r0,#0xff              ;320
00053c  d124              BNE      |L10.1416|
00053e  6860              LDR      r0,[r4,#4]            ;323
000540  f7fffffe          BL       WM_GetDialogItem
000544  4682              MOV      r10,r0                ;323
000546  4641              MOV      r1,r8                 ;324
000548  4650              MOV      r0,r10                ;324
00054a  f7fffffe          BL       TEXT_SetTextColor
00054e  49f8              LDR      r1,|L10.2352|
000550  4650              MOV      r0,r10                ;325
000552  f7fffffe          BL       TEXT_SetFont
000556  f7fffffe          BL       GUI_UC_SetEncodeUTF8
00055a  a1f6              ADR      r1,|L10.2356|
00055c  4650              MOV      r0,r10                ;327
00055e  f7fffffe          BL       TEXT_SetText
000562  e011              B        |L10.1416|
                  |L10.1380|
000564  6860              LDR      r0,[r4,#4]            ;332
000566  f7fffffe          BL       WM_GetDialogItem
00056a  4682              MOV      r10,r0                ;332
00056c  4641              MOV      r1,r8                 ;333
00056e  4650              MOV      r0,r10                ;333
000570  f7fffffe          BL       TEXT_SetTextColor
000574  49ee              LDR      r1,|L10.2352|
000576  4650              MOV      r0,r10                ;334
000578  f7fffffe          BL       TEXT_SetFont
00057c  f7fffffe          BL       GUI_UC_SetEncodeUTF8
000580  a1ed              ADR      r1,|L10.2360|
000582  4650              MOV      r0,r10                ;336
000584  f7fffffe          BL       TEXT_SetText
                  |L10.1416|
000588  48ec              LDR      r0,|L10.2364|
00058a  7800              LDRB     r0,[r0,#0]            ;341  ; para_set2
00058c  f6400133          MOV      r1,#0x833             ;344
000590  b1a0              CBZ      r0,|L10.1468|
000592  28ff              CMP      r0,#0xff              ;341
000594  d124              BNE      |L10.1504|
000596  6860              LDR      r0,[r4,#4]            ;344
000598  f7fffffe          BL       WM_GetDialogItem
00059c  4682              MOV      r10,r0                ;344
00059e  4641              MOV      r1,r8                 ;345
0005a0  4650              MOV      r0,r10                ;345
0005a2  f7fffffe          BL       TEXT_SetTextColor
0005a6  49e2              LDR      r1,|L10.2352|
0005a8  4650              MOV      r0,r10                ;346
0005aa  f7fffffe          BL       TEXT_SetFont
0005ae  f7fffffe          BL       GUI_UC_SetEncodeUTF8
0005b2  a1e0              ADR      r1,|L10.2356|
0005b4  4650              MOV      r0,r10                ;348
0005b6  f7fffffe          BL       TEXT_SetText
0005ba  e011              B        |L10.1504|
                  |L10.1468|
0005bc  6860              LDR      r0,[r4,#4]            ;353
0005be  f7fffffe          BL       WM_GetDialogItem
0005c2  4682              MOV      r10,r0                ;353
0005c4  4641              MOV      r1,r8                 ;354
0005c6  4650              MOV      r0,r10                ;354
0005c8  f7fffffe          BL       TEXT_SetTextColor
0005cc  49d8              LDR      r1,|L10.2352|
0005ce  4650              MOV      r0,r10                ;355
0005d0  f7fffffe          BL       TEXT_SetFont
0005d4  f7fffffe          BL       GUI_UC_SetEncodeUTF8
0005d8  a1d7              ADR      r1,|L10.2360|
0005da  4650              MOV      r0,r10                ;357
0005dc  f7fffffe          BL       TEXT_SetText
                  |L10.1504|
0005e0  48d7              LDR      r0,|L10.2368|
0005e2  7800              LDRB     r0,[r0,#0]            ;362  ; para_set4
0005e4  f6400134          MOV      r1,#0x834             ;365
0005e8  b1a0              CBZ      r0,|L10.1556|
0005ea  28ff              CMP      r0,#0xff              ;362
0005ec  d124              BNE      |L10.1592|
0005ee  6860              LDR      r0,[r4,#4]            ;365
0005f0  f7fffffe          BL       WM_GetDialogItem
0005f4  4682              MOV      r10,r0                ;365
0005f6  4641              MOV      r1,r8                 ;366
0005f8  4650              MOV      r0,r10                ;366
0005fa  f7fffffe          BL       TEXT_SetTextColor
0005fe  49cc              LDR      r1,|L10.2352|
000600  4650              MOV      r0,r10                ;367
000602  f7fffffe          BL       TEXT_SetFont
000606  f7fffffe          BL       GUI_UC_SetEncodeUTF8
00060a  a1ca              ADR      r1,|L10.2356|
00060c  4650              MOV      r0,r10                ;369
00060e  f7fffffe          BL       TEXT_SetText
000612  e011              B        |L10.1592|
                  |L10.1556|
000614  6860              LDR      r0,[r4,#4]            ;374
000616  f7fffffe          BL       WM_GetDialogItem
00061a  4682              MOV      r10,r0                ;374
00061c  4641              MOV      r1,r8                 ;375
00061e  4650              MOV      r0,r10                ;375
000620  f7fffffe          BL       TEXT_SetTextColor
000624  49c2              LDR      r1,|L10.2352|
000626  4650              MOV      r0,r10                ;376
000628  f7fffffe          BL       TEXT_SetFont
00062c  f7fffffe          BL       GUI_UC_SetEncodeUTF8
000630  a1c1              ADR      r1,|L10.2360|
000632  4650              MOV      r0,r10                ;378
000634  f7fffffe          BL       TEXT_SetText
                  |L10.1592|
000638  f640013b          MOV      r1,#0x83b             ;382
00063c  6860              LDR      r0,[r4,#4]            ;382
00063e  f7fffffe          BL       WM_GetDialogItem
000642  4682              MOV      r10,r0                ;382
000644  4641              MOV      r1,r8                 ;383
000646  4650              MOV      r0,r10                ;383
000648  f7fffffe          BL       TEXT_SetTextColor
00064c  49bd              LDR      r1,|L10.2372|
00064e  4650              MOV      r0,r10                ;384
000650  f7fffffe          BL       TEXT_SetFont
000654  f7fffffe          BL       GUI_UC_SetEncodeUTF8
000658  a1bb              ADR      r1,|L10.2376|
00065a  4650              MOV      r0,r10                ;386
00065c  f7fffffe          BL       TEXT_SetText
000660  f640013c          MOV      r1,#0x83c             ;388
000664  6860              LDR      r0,[r4,#4]            ;388
000666  f7fffffe          BL       WM_GetDialogItem
00066a  4682              MOV      r10,r0                ;388
00066c  4641              MOV      r1,r8                 ;389
00066e  4650              MOV      r0,r10                ;389
000670  f7fffffe          BL       TEXT_SetTextColor
000674  49b3              LDR      r1,|L10.2372|
000676  4650              MOV      r0,r10                ;390
000678  f7fffffe          BL       TEXT_SetFont
00067c  f7fffffe          BL       GUI_UC_SetEncodeUTF8
000680  a1b5              ADR      r1,|L10.2392|
000682  4650              MOV      r0,r10                ;392
000684  f7fffffe          BL       TEXT_SetText
000688  f640019e          MOV      r1,#0x89e             ;394
00068c  6860              LDR      r0,[r4,#4]            ;394
00068e  f7fffffe          BL       WM_GetDialogItem
000692  4682              MOV      r10,r0                ;394
000694  4641              MOV      r1,r8                 ;395
000696  4650              MOV      r0,r10                ;395
000698  f7fffffe          BL       TEXT_SetTextColor
00069c  49a9              LDR      r1,|L10.2372|
00069e  4650              MOV      r0,r10                ;396
0006a0  f7fffffe          BL       TEXT_SetFont
0006a4  f7fffffe          BL       GUI_UC_SetEncodeUTF8
0006a8  a1b1              ADR      r1,|L10.2416|
0006aa  4650              MOV      r0,r10                ;398
0006ac  f7fffffe          BL       TEXT_SetText
0006b0  f6401122          MOV      r1,#0x922             ;400
0006b4  6860              LDR      r0,[r4,#4]            ;400
0006b6  f7fffffe          BL       WM_GetDialogItem
0006ba  4682              MOV      r10,r0                ;400
0006bc  4641              MOV      r1,r8                 ;401
0006be  4650              MOV      r0,r10                ;401
0006c0  f7fffffe          BL       TEXT_SetTextColor
0006c4  499f              LDR      r1,|L10.2372|
0006c6  4650              MOV      r0,r10                ;402
0006c8  f7fffffe          BL       TEXT_SetFont
0006cc  f7fffffe          BL       GUI_UC_SetEncodeUTF8
0006d0  a1ab              ADR      r1,|L10.2432|
0006d2  4650              MOV      r0,r10                ;404
0006d4  f7fffffe          BL       TEXT_SetText
0006d8  f6401123          MOV      r1,#0x923             ;406
0006dc  6860              LDR      r0,[r4,#4]            ;406
0006de  f7fffffe          BL       WM_GetDialogItem
0006e2  4682              MOV      r10,r0                ;406
0006e4  4641              MOV      r1,r8                 ;407
0006e6  4650              MOV      r0,r10                ;407
0006e8  f7fffffe          BL       TEXT_SetTextColor
0006ec  4995              LDR      r1,|L10.2372|
0006ee  4650              MOV      r0,r10                ;408
0006f0  f7fffffe          BL       TEXT_SetFont
0006f4  f7fffffe          BL       GUI_UC_SetEncodeUTF8
0006f8  7828              LDRB     r0,[r5,#0]            ;410  ; test_mode
0006fa  2801              CMP      r0,#1                 ;410
0006fc  d002              BEQ      |L10.1796|
0006fe  7828              LDRB     r0,[r5,#0]            ;413  ; test_mode
000700  b128              CBZ      r0,|L10.1806|
000702  e008              B        |L10.1814|
                  |L10.1796|
000704  a1a2              ADR      r1,|L10.2448|
000706  4650              MOV      r0,r10                ;412
000708  f7fffffe          BL       TEXT_SetText
00070c  e003              B        |L10.1814|
                  |L10.1806|
00070e  a1a2              ADR      r1,|L10.2456|
000710  4650              MOV      r0,r10                ;414
000712  f7fffffe          BL       TEXT_SetText
                  |L10.1814|
000716  48a2              LDR      r0,|L10.2464|
000718  7800              LDRB     r0,[r0,#0]            ;422  ; b_type
00071a  f640019f          MOV      r1,#0x89f             ;426
00071e  2806              CMP      r0,#6                 ;422
000720  d262              BCS      |L10.2024|
000722  e8dff000          TBB      [pc,r0]               ;422
000726  6103              DCB      0x61,0x03
000728  16293c4f          DCB      0x16,0x29,0x3c,0x4f
00072c  6860              LDR      r0,[r4,#4]            ;426
00072e  f7fffffe          BL       WM_GetDialogItem
000732  4605              MOV      r5,r0                 ;426
000734  4641              MOV      r1,r8                 ;427
000736  4628              MOV      r0,r5                 ;427
000738  f7fffffe          BL       TEXT_SetTextColor
00073c  4981              LDR      r1,|L10.2372|
00073e  4628              MOV      r0,r5                 ;428
000740  f7fffffe          BL       TEXT_SetFont
000744  f7fffffe          BL       GUI_UC_SetEncodeUTF8
000748  a196              ADR      r1,|L10.2468|
00074a  4628              MOV      r0,r5                 ;430
00074c  f7fffffe          BL       TEXT_SetText
000750  e04a              B        |L10.2024|
000752  6860              LDR      r0,[r4,#4]            ;435
000754  f7fffffe          BL       WM_GetDialogItem
000758  4605              MOV      r5,r0                 ;435
00075a  4641              MOV      r1,r8                 ;436
00075c  4628              MOV      r0,r5                 ;436
00075e  f7fffffe          BL       TEXT_SetTextColor
000762  4978              LDR      r1,|L10.2372|
000764  4628              MOV      r0,r5                 ;437
000766  f7fffffe          BL       TEXT_SetFont
00076a  f7fffffe          BL       GUI_UC_SetEncodeUTF8
00076e  a190              ADR      r1,|L10.2480|
000770  4628              MOV      r0,r5                 ;439
000772  f7fffffe          BL       TEXT_SetText
000776  e037              B        |L10.2024|
000778  6860              LDR      r0,[r4,#4]            ;444
00077a  f7fffffe          BL       WM_GetDialogItem
00077e  4605              MOV      r5,r0                 ;444
000780  4641              MOV      r1,r8                 ;445
000782  4628              MOV      r0,r5                 ;445
000784  f7fffffe          BL       TEXT_SetTextColor
000788  496e              LDR      r1,|L10.2372|
00078a  4628              MOV      r0,r5                 ;446
00078c  f7fffffe          BL       TEXT_SetFont
000790  f7fffffe          BL       GUI_UC_SetEncodeUTF8
000794  a18a              ADR      r1,|L10.2496|
000796  4628              MOV      r0,r5                 ;448
000798  f7fffffe          BL       TEXT_SetText
00079c  e024              B        |L10.2024|
00079e  6860              LDR      r0,[r4,#4]            ;453
0007a0  f7fffffe          BL       WM_GetDialogItem
0007a4  4605              MOV      r5,r0                 ;453
0007a6  4641              MOV      r1,r8                 ;454
0007a8  4628              MOV      r0,r5                 ;454
0007aa  f7fffffe          BL       TEXT_SetTextColor
0007ae  4965              LDR      r1,|L10.2372|
0007b0  4628              MOV      r0,r5                 ;455
0007b2  f7fffffe          BL       TEXT_SetFont
0007b6  f7fffffe          BL       GUI_UC_SetEncodeUTF8
0007ba  a185              ADR      r1,|L10.2512|
0007bc  4628              MOV      r0,r5                 ;457
0007be  f7fffffe          BL       TEXT_SetText
0007c2  e011              B        |L10.2024|
0007c4  6860              LDR      r0,[r4,#4]            ;462
0007c6  f7fffffe          BL       WM_GetDialogItem
0007ca  4605              MOV      r5,r0                 ;462
0007cc  4641              MOV      r1,r8                 ;463
0007ce  4628              MOV      r0,r5                 ;463
0007d0  f7fffffe          BL       TEXT_SetTextColor
0007d4  495b              LDR      r1,|L10.2372|
0007d6  4628              MOV      r0,r5                 ;464
0007d8  f7fffffe          BL       TEXT_SetFont
0007dc  f7fffffe          BL       GUI_UC_SetEncodeUTF8
0007e0  a180              ADR      r1,|L10.2532|
0007e2  4628              MOV      r0,r5                 ;466
0007e4  f7fffffe          BL       TEXT_SetText
                  |L10.2024|
0007e8  f44f6106          MOV      r1,#0x860             ;475
0007ec  6860              LDR      r0,[r4,#4]            ;475
0007ee  f7fffffe          BL       WM_GetDialogItem
0007f2  4605              MOV      r5,r0                 ;475
0007f4  ee1a0a10          VMOV     r0,s20                ;476
0007f8  f7fffffe          BL       __aeabi_f2d
0007fc  ec410b10          VMOV     d0,r0,r1              ;476
000800  a17c              ADR      r1,|L10.2548|
000802  ec532b10          VMOV     r2,r3,d0              ;476
000806  a803              ADD      r0,sp,#0xc            ;476
000808  f7fffffe          BL       __2sprintf
00080c  4641              MOV      r1,r8                 ;477
00080e  4628              MOV      r0,r5                 ;477
000810  f7fffffe          BL       TEXT_SetTextColor
000814  4979              LDR      r1,|L10.2556|
000816  4628              MOV      r0,r5                 ;478
000818  f7fffffe          BL       TEXT_SetFont
00081c  f7fffffe          BL       GUI_UC_SetEncodeUTF8
000820  a903              ADD      r1,sp,#0xc            ;480
000822  4628              MOV      r0,r5                 ;480
000824  f7fffffe          BL       TEXT_SetText
000828  f6400161          MOV      r1,#0x861             ;482
00082c  6860              LDR      r0,[r4,#4]            ;482
00082e  f7fffffe          BL       WM_GetDialogItem
000832  4605              MOV      r5,r0                 ;482
000834  ee190a90          VMOV     r0,s19                ;483
000838  f7fffffe          BL       __aeabi_f2d
00083c  ec410b10          VMOV     d0,r0,r1              ;483
000840  a16c              ADR      r1,|L10.2548|
000842  ec532b10          VMOV     r2,r3,d0              ;483
000846  a803              ADD      r0,sp,#0xc            ;483
000848  f7fffffe          BL       __2sprintf
00084c  4641              MOV      r1,r8                 ;484
00084e  4628              MOV      r0,r5                 ;484
000850  f7fffffe          BL       TEXT_SetTextColor
000854  4969              LDR      r1,|L10.2556|
000856  4628              MOV      r0,r5                 ;485
000858  f7fffffe          BL       TEXT_SetFont
00085c  f7fffffe          BL       GUI_UC_SetEncodeUTF8
000860  a903              ADD      r1,sp,#0xc            ;487
000862  4628              MOV      r0,r5                 ;487
000864  f7fffffe          BL       TEXT_SetText
000868  f6401135          MOV      r1,#0x935             ;489
00086c  6860              LDR      r0,[r4,#4]            ;489
00086e  f7fffffe          BL       WM_GetDialogItem
000872  4682              MOV      r10,r0                ;489
000874  4d62              LDR      r5,|L10.2560|
000876  f9b50000          LDRSH    r0,[r5,#0]            ;490  ; InFlashSave
00087a  ee000a10          VMOV     s0,r0                 ;490
00087e  eef80ac0          VCVT.F32.S32 s1,s0                 ;490
000882  ee800aa8          VDIV.F32 s0,s1,s17             ;490
000886  ee100a10          VMOV     r0,s0                 ;490
00088a  f7fffffe          BL       __aeabi_f2d
00088e  ec410b10          VMOV     d0,r0,r1              ;490
000892  a158              ADR      r1,|L10.2548|
000894  ec532b10          VMOV     r2,r3,d0              ;490
000898  a803              ADD      r0,sp,#0xc            ;490
00089a  f7fffffe          BL       __2sprintf
00089e  4641              MOV      r1,r8                 ;491
0008a0  4650              MOV      r0,r10                ;491
0008a2  f7fffffe          BL       TEXT_SetTextColor
0008a6  4955              LDR      r1,|L10.2556|
0008a8  4650              MOV      r0,r10                ;492
0008aa  f7fffffe          BL       TEXT_SetFont
0008ae  f7fffffe          BL       GUI_UC_SetEncodeUTF8
0008b2  a903              ADD      r1,sp,#0xc            ;494
0008b4  4650              MOV      r0,r10                ;494
0008b6  f7fffffe          BL       TEXT_SetText
0008ba  f6401136          MOV      r1,#0x936             ;496
0008be  6860              LDR      r0,[r4,#4]            ;496
0008c0  f7fffffe          BL       WM_GetDialogItem
0008c4  4682              MOV      r10,r0                ;496
0008c6  f9b50002          LDRSH    r0,[r5,#2]            ;497  ; InFlashSave
0008ca  ee000a10          VMOV     s0,r0                 ;497
0008ce  eef80ac0          VCVT.F32.S32 s1,s0                 ;497
0008d2  ee800aa8          VDIV.F32 s0,s1,s17             ;497
0008d6  ee100a10          VMOV     r0,s0                 ;497
0008da  f7fffffe          BL       __aeabi_f2d
0008de  ec410b10          VMOV     d0,r0,r1              ;497
0008e2  a144              ADR      r1,|L10.2548|
0008e4  ec532b10          VMOV     r2,r3,d0              ;497
0008e8  a803              ADD      r0,sp,#0xc            ;497
0008ea  f7fffffe          BL       __2sprintf
0008ee  4641              MOV      r1,r8                 ;498
0008f0  4650              MOV      r0,r10                ;498
0008f2  f7fffffe          BL       TEXT_SetTextColor
0008f6  4941              LDR      r1,|L10.2556|
0008f8  4650              MOV      r0,r10                ;499
0008fa  f7fffffe          BL       TEXT_SetFont
0008fe  f7fffffe          BL       GUI_UC_SetEncodeUTF8
000902  a903              ADD      r1,sp,#0xc            ;501
000904  4650              MOV      r0,r10                ;501
000906  f7fffffe          BL       TEXT_SetText
00090a  f6400162          MOV      r1,#0x862             ;503
00090e  6860              LDR      r0,[r4,#4]            ;503
000910  f7fffffe          BL       WM_GetDialogItem
000914  4682              MOV      r10,r0                ;503
000916  6c32              LDR      r2,[r6,#0x40]         ;504  ; Run_Control
000918  a13a              ADR      r1,|L10.2564|
00091a  e075              B        |L10.2568|
                  |L10.2332|
00091c  e58685e9          DCB      229,134,133,233,152,187,228,184,139,233,153,144,0
000920  98bbe4b8
000924  8be99990
000928  00      
000929  00                DCB      0
00092a  00                DCB      0
00092b  00                DCB      0
                  |L10.2348|
                          DCD      para_set1
                  |L10.2352|
                          DCD      GUI_Font20_ASCII
                  |L10.2356|
000934  4f4e00            DCB      "ON",0
000937  00                DCB      0
                  |L10.2360|
000938  4f464600          DCB      "OFF",0
                  |L10.2364|
                          DCD      para_set2
                  |L10.2368|
                          DCD      para_set4
                  |L10.2372|
                          DCD      GUI_Fontset_font
                  |L10.2376|
000948  e8bf87e6          DCB      232,191,135,230,181,129,228,184,138,228,184,139,233,153,144
00094c  b581e4b8
000950  8ae4b88b
000954  e99990  
000957  00                DCB      0
                  |L10.2392|
000958  e58585e7          DCB      229,133,133,231,148,181,231,148,181,230,181,129,228,184,138
00095c  94b5e794
000960  b5e6b581
000964  e4b88a  
000967  e4b88be9          DCB      228,184,139,233,153,144,0
00096b  999000  
00096e  00                DCB      0
00096f  00                DCB      0
                  |L10.2416|
000970  e794b5e6          DCB      231,148,181,230,177,160,231,177,187,229,158,139,0
000974  b1a0e7b1
000978  bbe59e8b
00097c  00      
00097d  00                DCB      0
00097e  00                DCB      0
00097f  00                DCB      0
                  |L10.2432|
000980  e6b58be8          DCB      230,181,139,232,175,149,230,168,161,229,188,143,0
000984  af95e6a8
000988  a1e5bc8f
00098c  00      
00098d  00                DCB      0
00098e  00                DCB      0
00098f  00                DCB      0
                  |L10.2448|
000990  e7b2bee5          DCB      231,178,190,229,135,134,0
000994  878600  
000997  00                DCB      0
                  |L10.2456|
000998  e5bfabe9          DCB      229,191,171,233,128,159,0
00099c  809f00  
00099f  00                DCB      0
                  |L10.2464|
                          DCD      b_type
                  |L10.2468|
0009a4  e99482e7          DCB      233,148,130,231,148,181,230,177,160,0
0009a8  94b5e6b1
0009ac  a000    
0009ae  00                DCB      0
0009af  00                DCB      0
                  |L10.2480|
0009b0  e9958de6          DCB      233,149,141,230,176,162,231,148,181,230,177,160,0
0009b4  b0a2e794
0009b8  b5e6b1a0
0009bc  00      
0009bd  00                DCB      0
0009be  00                DCB      0
0009bf  00                DCB      0
                  |L10.2496|
0009c0  e9958de9          DCB      233,149,141,233,149,137,231,148,181,230,177,160,0
0009c4  9589e794
0009c8  b5e6b1a0
0009cc  00      
0009cd  00                DCB      0
0009ce  00                DCB      0
0009cf  00                DCB      0
                  |L10.2512|
0009d0  e5b08fe5          DCB      229,176,143,229,158,139,233,147,133,233,133,184,231,148,181
0009d4  9e8be993
0009d8  85e985b8
0009dc  e794b5  
0009df  e6b1a000          DCB      230,177,160,0
0009e3  00                DCB      0
                  |L10.2532|
0009e4  e99482e9          DCB      233,148,130,233,148,176,231,148,181,230,177,160,0
0009e8  94b0e794
0009ec  b5e6b1a0
0009f0  00      
0009f1  00                DCB      0
0009f2  00                DCB      0
0009f3  00                DCB      0
                  |L10.2548|
0009f4  252e3366          DCB      "%.3f",0
0009f8  00      
0009f9  00                DCB      0
0009fa  00                DCB      0
0009fb  00                DCB      0
                  |L10.2556|
                          DCD      GUI_Font16_1
                  |L10.2560|
                          DCD      ||.bss||
                  |L10.2564|
000a04  25346400          DCB      "%4d",0
                  |L10.2568|
000a08  a803              ADD      r0,sp,#0xc            ;504
000a0a  f7fffffe          BL       __2sprintf
000a0e  4641              MOV      r1,r8                 ;505
000a10  4650              MOV      r0,r10                ;505
000a12  f7fffffe          BL       TEXT_SetTextColor
000a16  496d              LDR      r1,|L10.3020|
000a18  4650              MOV      r0,r10                ;506
000a1a  f7fffffe          BL       TEXT_SetFont
000a1e  f7fffffe          BL       GUI_UC_SetEncodeUTF8
000a22  a903              ADD      r1,sp,#0xc            ;508
000a24  4650              MOV      r0,r10                ;508
000a26  f7fffffe          BL       TEXT_SetText
000a2a  f6400163          MOV      r1,#0x863             ;510
000a2e  6860              LDR      r0,[r4,#4]            ;510
000a30  f7fffffe          BL       WM_GetDialogItem
000a34  4682              MOV      r10,r0                ;510
000a36  6c72              LDR      r2,[r6,#0x44]         ;511  ; Run_Control
000a38  f2af0138          ADR      r1,|L10.2564|
000a3c  a803              ADD      r0,sp,#0xc            ;511
000a3e  f7fffffe          BL       __2sprintf
000a42  4641              MOV      r1,r8                 ;512
000a44  4650              MOV      r0,r10                ;512
000a46  f7fffffe          BL       TEXT_SetTextColor
000a4a  4960              LDR      r1,|L10.3020|
000a4c  4650              MOV      r0,r10                ;513
000a4e  f7fffffe          BL       TEXT_SetFont
000a52  f7fffffe          BL       GUI_UC_SetEncodeUTF8
000a56  a903              ADD      r1,sp,#0xc            ;515
000a58  4650              MOV      r0,r10                ;515
000a5a  f7fffffe          BL       TEXT_SetText
000a5e  f6400164          MOV      r1,#0x864             ;517
000a62  6860              LDR      r0,[r4,#4]            ;517
000a64  f7fffffe          BL       WM_GetDialogItem
000a68  4606              MOV      r6,r0                 ;517
000a6a  ee190a10          VMOV     r0,s18                ;518
000a6e  f7fffffe          BL       __aeabi_f2d
000a72  ec410b10          VMOV     d0,r0,r1              ;518
000a76  ec532b10          VMOV     r2,r3,d0              ;518
000a7a  f2af0188          ADR      r1,|L10.2548|
000a7e  a803              ADD      r0,sp,#0xc            ;518
000a80  f7fffffe          BL       __2sprintf
000a84  4641              MOV      r1,r8                 ;519
000a86  4630              MOV      r0,r6                 ;519
000a88  f7fffffe          BL       TEXT_SetTextColor
000a8c  4950              LDR      r1,|L10.3024|
000a8e  4630              MOV      r0,r6                 ;520
000a90  f7fffffe          BL       TEXT_SetFont
000a94  f7fffffe          BL       GUI_UC_SetEncodeUTF8
000a98  a903              ADD      r1,sp,#0xc            ;522
000a9a  4630              MOV      r0,r6                 ;522
000a9c  f7fffffe          BL       TEXT_SetText
000aa0  f6401137          MOV      r1,#0x937             ;524
000aa4  6860              LDR      r0,[r4,#4]            ;524
000aa6  f7fffffe          BL       WM_GetDialogItem
000aaa  4606              MOV      r6,r0                 ;524
000aac  f9b50004          LDRSH    r0,[r5,#4]            ;525  ; InFlashSave
000ab0  ee000a10          VMOV     s0,r0                 ;525
000ab4  eef80ac0          VCVT.F32.S32 s1,s0                 ;525
000ab8  ee800aa8          VDIV.F32 s0,s1,s17             ;525
000abc  ee100a10          VMOV     r0,s0                 ;525
000ac0  f7fffffe          BL       __aeabi_f2d
000ac4  ec410b10          VMOV     d0,r0,r1              ;525
000ac8  ec532b10          VMOV     r2,r3,d0              ;525
000acc  f2af01dc          ADR      r1,|L10.2548|
000ad0  a803              ADD      r0,sp,#0xc            ;525
000ad2  f7fffffe          BL       __2sprintf
000ad6  4641              MOV      r1,r8                 ;526
000ad8  4630              MOV      r0,r6                 ;526
000ada  f7fffffe          BL       TEXT_SetTextColor
000ade  493c              LDR      r1,|L10.3024|
000ae0  4630              MOV      r0,r6                 ;527
000ae2  f7fffffe          BL       TEXT_SetFont
000ae6  f7fffffe          BL       GUI_UC_SetEncodeUTF8
000aea  a903              ADD      r1,sp,#0xc            ;529
000aec  4630              MOV      r0,r6                 ;529
000aee  f7fffffe          BL       TEXT_SetText
000af2  f6401138          MOV      r1,#0x938             ;531
000af6  6860              LDR      r0,[r4,#4]            ;531
000af8  f7fffffe          BL       WM_GetDialogItem
000afc  4606              MOV      r6,r0                 ;531
000afe  f9b50006          LDRSH    r0,[r5,#6]            ;532  ; InFlashSave
000b02  ee000a10          VMOV     s0,r0                 ;532
000b06  eef80ac0          VCVT.F32.S32 s1,s0                 ;532
000b0a  ee800aa8          VDIV.F32 s0,s1,s17             ;532
000b0e  ee100a10          VMOV     r0,s0                 ;532
000b12  f7fffffe          BL       __aeabi_f2d
000b16  ec410b10          VMOV     d0,r0,r1              ;532
000b1a  ec532b10          VMOV     r2,r3,d0              ;532
000b1e  f2af112c          ADR      r1,|L10.2548|
000b22  a803              ADD      r0,sp,#0xc            ;532
000b24  f7fffffe          BL       __2sprintf
000b28  4641              MOV      r1,r8                 ;533
000b2a  4630              MOV      r0,r6                 ;533
000b2c  f7fffffe          BL       TEXT_SetTextColor
000b30  4927              LDR      r1,|L10.3024|
000b32  4630              MOV      r0,r6                 ;534
000b34  f7fffffe          BL       TEXT_SetFont
000b38  f7fffffe          BL       GUI_UC_SetEncodeUTF8
000b3c  a903              ADD      r1,sp,#0xc            ;536
000b3e  4630              MOV      r0,r6                 ;536
000b40  f7fffffe          BL       TEXT_SetText
000b44  f6400165          MOV      r1,#0x865             ;538
000b48  6860              LDR      r0,[r4,#4]            ;538
000b4a  f7fffffe          BL       WM_GetDialogItem
000b4e  4605              MOV      r5,r0                 ;538
000b50  ee180a10          VMOV     r0,s16                ;539
000b54  f7fffffe          BL       __aeabi_f2d
000b58  ec410b10          VMOV     d0,r0,r1              ;539
000b5c  ec532b10          VMOV     r2,r3,d0              ;539
000b60  f2af1170          ADR      r1,|L10.2548|
000b64  a803              ADD      r0,sp,#0xc            ;539
000b66  f7fffffe          BL       __2sprintf
000b6a  4641              MOV      r1,r8                 ;540
000b6c  4628              MOV      r0,r5                 ;540
000b6e  f7fffffe          BL       TEXT_SetTextColor
000b72  4917              LDR      r1,|L10.3024|
000b74  4628              MOV      r0,r5                 ;541
000b76  f7fffffe          BL       TEXT_SetFont
000b7a  f7fffffe          BL       GUI_UC_SetEncodeUTF8
000b7e  a903              ADD      r1,sp,#0xc            ;543
000b80  4628              MOV      r0,r5                 ;543
000b82  f7fffffe          BL       TEXT_SetText
000b86  4659              MOV      r1,r11                ;545
000b88  6860              LDR      r0,[r4,#4]            ;545
000b8a  f7fffffe          BL       WM_GetDialogItem
000b8e  4604              MOV      r4,r0                 ;545
000b90  4649              MOV      r1,r9                 ;546
000b92  4620              MOV      r0,r4                 ;546
000b94  f7fffffe          BL       TEXT_SetTextColor
000b98  490c              LDR      r1,|L10.3020|
000b9a  4620              MOV      r0,r4                 ;547
000b9c  f7fffffe          BL       TEXT_SetFont
000ba0  6838              LDR      r0,[r7,#0]            ;548  ; temp
000ba2  f7fffffe          BL       __aeabi_f2d
000ba6  ec410b10          VMOV     d0,r0,r1              ;548
000baa  ec532b10          VMOV     r2,r3,d0              ;548
000bae  f2af7144          ADR      r1,|L10.1132|
000bb2  a803              ADD      r0,sp,#0xc            ;548
000bb4  f7fffffe          BL       __2sprintf
000bb8  a903              ADD      r1,sp,#0xc            ;549
000bba  4620              MOV      r0,r4                 ;549
000bbc  f7fffffe          BL       TEXT_SetText
000bc0  b005              ADD      sp,sp,#0x14
000bc2  ecbd8b06          VPOP     {d8-d10}
000bc6  e8bd8ff0          POP      {r4-r11,pc}
;;;567    
                          ENDP

000bca  0000              DCW      0x0000
                  |L10.3020|
                          DCD      GUI_Font24_1
                  |L10.3024|
                          DCD      GUI_Font16_1

                          AREA ||.bss||, DATA, NOINIT, ALIGN=1

                  InFlashSave
                          %        40

                          AREA ||.constdata||, DATA, READONLY, ALIGN=2

                  _aDialogCreate5
                          DCD      WINDOW_CreateIndirect
                          DCD      ||.conststring||
000008  082a0000          DCW      0x082a,0x0000
00000c  000001e0          DCW      0x0000,0x01e0
000010  01100000          DCW      0x0110,0x0000
                          DCD      0x00000000
                          DCD      0x00000000
                          DCD      BUTTON_CreateIndirect
                          DCD      ||.conststring||+0x8
000024  08360053          DCW      0x0836,0x0053
000028  00e2004d          DCW      0x00e2,0x004d
00002c  002d0000          DCW      0x002d,0x0000
                          DCD      0x00000000
                          DCD      0x00000000
                          DCD      BUTTON_CreateIndirect
                          DCD      ||.conststring||+0x8
000040  083700a3          DCW      0x0837,0x00a3
000044  00e2004d          DCW      0x00e2,0x004d
000048  002d0000          DCW      0x002d,0x0000
                          DCD      0x00000000
                          DCD      0x00000000
                          DCD      BUTTON_CreateIndirect
                          DCD      ||.conststring||+0x8
00005c  083800f3          DCW      0x0838,0x00f3
000060  00e2004d          DCW      0x00e2,0x004d
000064  002d0000          DCW      0x002d,0x0000
                          DCD      0x00000000
                          DCD      0x00000000
                          DCD      BUTTON_CreateIndirect
                          DCD      ||.conststring||+0x8
000078  08390143          DCW      0x0839,0x0143
00007c  00e2004d          DCW      0x00e2,0x004d
000080  002d0000          DCW      0x002d,0x0000
                          DCD      0x00000000
                          DCD      0x00000000
                          DCD      BUTTON_CreateIndirect
                          DCD      ||.conststring||+0x8
000094  083a0193          DCW      0x083a,0x0193
000098  00e2004d          DCW      0x00e2,0x004d
00009c  002d0000          DCW      0x002d,0x0000
                          DCD      0x00000000
                          DCD      0x00000000
                          DCD      TEXT_CreateIndirect
                          DCD      ||.conststring||+0x10
0000b0  082b001e          DCW      0x082b,0x001e
0000b4  00320050          DCW      0x0032,0x0050
0000b8  00140000          DCW      0x0014,0x0000
                          DCD      0x00000000
                          DCD      0x00000000
                          DCD      TEXT_CreateIndirect
                          DCD      ||.conststring||+0x10
0000cc  082c001e          DCW      0x082c,0x001e
0000d0  004b0050          DCW      0x004b,0x0050
0000d4  00140000          DCW      0x0014,0x0000
                          DCD      0x00000000
                          DCD      0x00000000
                          DCD      TEXT_CreateIndirect
                          DCD      ||.conststring||+0x10
0000e8  082d001e          DCW      0x082d,0x001e
0000ec  00640050          DCW      0x0064,0x0050
0000f0  00140000          DCW      0x0014,0x0000
                          DCD      0x00000000
                          DCD      0x00000000
                          DCD      TEXT_CreateIndirect
                          DCD      ||.conststring||+0x10
000104  082e001e          DCW      0x082e,0x001e
000108  007d0064          DCW      0x007d,0x0064
00010c  00140000          DCW      0x0014,0x0000
                          DCD      0x00000000
                          DCD      0x00000000
                          DCD      TEXT_CreateIndirect
                          DCD      ||.conststring||+0x10
000120  082f001e          DCW      0x082f,0x001e
000124  0096008c          DCW      0x0096,0x008c
000128  00140000          DCW      0x0014,0x0000
                          DCD      0x00000000
                          DCD      0x00000000
                          DCD      TEXT_CreateIndirect
                          DCD      ||.conststring||+0x10
00013c  0830001e          DCW      0x0830,0x001e
000140  00af0050          DCW      0x00af,0x0050
000144  00140000          DCW      0x0014,0x0000
                          DCD      0x00000000
                          DCD      0x00000000
                          DCD      TEXT_CreateIndirect
                          DCD      ||.conststring||+0x10
000158  0831001e          DCW      0x0831,0x001e
00015c  00c80050          DCW      0x00c8,0x0050
000160  00140000          DCW      0x0014,0x0000
                          DCD      0x00000064
                          DCD      0x00000000
                          DCD      TEXT_CreateIndirect
                          DCD      ||.conststring||+0x10
000174  08320076          DCW      0x0832,0x0076
000178  00320028          DCW      0x0032,0x0028
00017c  00140000          DCW      0x0014,0x0000
                          DCD      0x00000064
                          DCD      0x00000000
                          DCD      TEXT_CreateIndirect
                          DCD      ||.conststring||+0x10
000190  08330076          DCW      0x0833,0x0076
000194  004b0028          DCW      0x004b,0x0028
000198  00140000          DCW      0x0014,0x0000
                          DCD      0x00000000
                          DCD      0x00000000
                          DCD      TEXT_CreateIndirect
                          DCD      ||.conststring||+0x10
0001ac  08340076          DCW      0x0834,0x0076
0001b0  00640028          DCW      0x0064,0x0028
0001b4  00140000          DCW      0x0014,0x0000
                          DCD      0x00000000
                          DCD      0x00000000
                          DCD      TEXT_CreateIndirect
                          DCD      ||.conststring||+0x10
0001c8  083b0104          DCW      0x083b,0x0104
0001cc  00320064          DCW      0x0032,0x0064
0001d0  00140000          DCW      0x0014,0x0000
                          DCD      0x00000000
                          DCD      0x00000000
                          DCD      TEXT_CreateIndirect
                          DCD      ||.conststring||+0x10
0001e4  083c0104          DCW      0x083c,0x0104
0001e8  004b008c          DCW      0x004b,0x008c
0001ec  00140000          DCW      0x0014,0x0000
                          DCD      0x00000000
                          DCD      0x00000000
                          DCD      TEXT_CreateIndirect
                          DCD      ||.conststring||+0x10
000200  086000b9          DCW      0x0860,0x00b9
000204  007a0028          DCW      0x007a,0x0028
000208  000e0000          DCW      0x000e,0x0000
                          DCD      0x00000000
                          DCD      0x00000000
                          DCD      TEXT_CreateIndirect
                          DCD      ||.conststring||+0x10
00021c  086100b9          DCW      0x0861,0x00b9
000220  00880028          DCW      0x0088,0x0028
000224  000e0000          DCW      0x000e,0x0000
                          DCD      0x00000000
                          DCD      0x00000000
                          DCD      TEXT_CreateIndirect
                          DCD      ||.conststring||+0x10
000238  093500b9          DCW      0x0935,0x00b9
00023c  00960028          DCW      0x0096,0x0028
000240  000e0000          DCW      0x000e,0x0000
                          DCD      0x00000000
                          DCD      0x00000000
                          DCD      TEXT_CreateIndirect
                          DCD      ||.conststring||+0x10
000254  093600b9          DCW      0x0936,0x00b9
000258  00a40028          DCW      0x00a4,0x0028
00025c  000e0000          DCW      0x000e,0x0000
                          DCD      0x00000000
                          DCD      0x00000000
                          DCD      TEXT_CreateIndirect
                          DCD      ||.conststring||+0x10
000270  08620076          DCW      0x0862,0x0076
000274  00af0030          DCW      0x00af,0x0030
000278  00140000          DCW      0x0014,0x0000
                          DCD      0x00000000
                          DCD      0x00000000
                          DCD      TEXT_CreateIndirect
                          DCD      ||.conststring||+0x10
00028c  08630076          DCW      0x0863,0x0076
000290  00c80030          DCW      0x00c8,0x0030
000294  00140000          DCW      0x0014,0x0000
                          DCD      0x00000000
                          DCD      0x00000000
                          DCD      TEXT_CreateIndirect
                          DCD      ||.conststring||+0x10
0002a8  0864019e          DCW      0x0864,0x019e
0002ac  002f0028          DCW      0x002f,0x0028
0002b0  000e0000          DCW      0x000e,0x0000
                          DCD      0x00000000
                          DCD      0x00000000
                          DCD      TEXT_CreateIndirect
                          DCD      ||.conststring||+0x10
0002c4  0865019e          DCW      0x0865,0x019e
0002c8  003d0028          DCW      0x003d,0x0028
0002cc  000e0000          DCW      0x000e,0x0000
                          DCD      0x00000000
                          DCD      0x00000000
                          DCD      TEXT_CreateIndirect
                          DCD      ||.conststring||+0x10
0002e0  0937019e          DCW      0x0937,0x019e
0002e4  004b0028          DCW      0x004b,0x0028
0002e8  000e0000          DCW      0x000e,0x0000
                          DCD      0x00000000
                          DCD      0x00000000
                          DCD      TEXT_CreateIndirect
                          DCD      ||.conststring||+0x10
0002fc  0938019e          DCW      0x0938,0x019e
000300  00590028          DCW      0x0059,0x0028
000304  000e0000          DCW      0x000e,0x0000
                          DCD      0x00000000
                          DCD      0x00000000
                          DCD      TEXT_CreateIndirect
                          DCD      ||.conststring||+0x10
000318  089e0104          DCW      0x089e,0x0104
00031c  00640050          DCW      0x0064,0x0050
000320  00140000          DCW      0x0014,0x0000
                          DCD      0x00000000
                          DCD      0x00000000
                          DCD      TEXT_CreateIndirect
                          DCD      ||.conststring||+0x10
000334  089f015c          DCW      0x089f,0x015c
000338  00640078          DCW      0x0064,0x0078
00033c  00140000          DCW      0x0014,0x0000
                          DCD      0x00000000
                          DCD      0x00000000
                          DCD      TEXT_CreateIndirect
                          DCD      ||.conststring||+0x10
000350  09000168          DCW      0x0900,0x0168
000354  007d0078          DCW      0x007d,0x0078
000358  00140000          DCW      0x0014,0x0000
                          DCD      0x00000000
                          DCD      0x00000000
                          DCD      TEXT_CreateIndirect
                          DCD      ||.conststring||+0x10
00036c  09010168          DCW      0x0901,0x0168
000370  00960078          DCW      0x0096,0x0078
000374  00140000          DCW      0x0014,0x0000
                          DCD      0x00000000
                          DCD      0x00000000
                          DCD      TEXT_CreateIndirect
                          DCD      ||.conststring||+0x10
000388  09020168          DCW      0x0902,0x0168
00038c  00af0078          DCW      0x00af,0x0078
000390  00140000          DCW      0x0014,0x0000
                          DCD      0x00000000
                          DCD      0x00000000
                          DCD      TEXT_CreateIndirect
                          DCD      ||.conststring||+0x10
0003a4  09030168          DCW      0x0903,0x0168
0003a8  00c80078          DCW      0x00c8,0x0078
0003ac  00140000          DCW      0x0014,0x0000
                          DCD      0x00000000
                          DCD      0x00000000
                          DCD      TEXT_CreateIndirect
                          DCD      ||.conststring||+0x10
0003c0  09220104          DCW      0x0922,0x0104
0003c4  007d0064          DCW      0x007d,0x0064
0003c8  00140000          DCW      0x0014,0x0000
                          DCD      0x00000000
                          DCD      0x00000000
                          DCD      TEXT_CreateIndirect
                          DCD      ||.conststring||+0x10
0003dc  09230168          DCW      0x0923,0x0168
0003e0  007d0050          DCW      0x007d,0x0050
0003e4  00140000          DCW      0x0014,0x0000
                          DCD      0x00000000
                          DCD      0x00000000
                          DCD      TEXT_CreateIndirect
                          DCD      ||.conststring||+0x10
0003f8  090a012c          DCW      0x090a,0x012c
0003fc  00020050          DCW      0x0002,0x0050
000400  00140000          DCW      0x0014,0x0000
                          DCD      0x00000000
                          DCD      0x00000000

                          AREA ||.conststring||, DATA, READONLY, MERGE=1, STRINGS, ALIGN=2

000000  53595353          DCB      "SYSSET",0
000004  455400  
000007  00                DCB      0
000008  42757474          DCB      "Button",0
00000c  6f6e00  
00000f  00                DCB      0
000010  54657874          DCB      "Text",0
000014  00      

                          AREA ||.data||, DATA, ALIGN=2

                  test_mode
000000  00000000          DCB      0x00,0x00,0x00,0x00
                  hWinset
                          DCD      0x00000000

;*** Start embedded assembler ***

#line 1 "..\\APP\\settings.c"
	AREA ||.rev16_text||, CODE
	THUMB
	EXPORT |__asm___10_settings_c_7a1dfd46____REV16|
#line 129 "D:\\Keil_v5\\ARM\\CMSIS\\Include\\core_cmInstr.h"
|__asm___10_settings_c_7a1dfd46____REV16| PROC
#line 130

 rev16 r0, r0
 bx lr
	ENDP
	AREA ||.revsh_text||, CODE
	THUMB
	EXPORT |__asm___10_settings_c_7a1dfd46____REVSH|
#line 144
|__asm___10_settings_c_7a1dfd46____REVSH| PROC
#line 145

 revsh r0, r0
 bx lr
	ENDP

;*** End   embedded assembler ***
