; generated by Component: ARM Compiler 5.06 update 6 (build 750) Tool: ArmCC [4d3637]
; commandline ArmCC [--list --split_sections --debug -c --asm --interleave -o..\output\settings.o --asm_dir=..\Listing\ --list_dir=..\Listing\ --depend=..\output\settings.d --cpu=Cortex-M4.fp --apcs=interwork -O1 --diag_suppress=9931,870 -I..\APP -I..\drive -I..\Include -I..\Libraries\CMSIS\inc -I..\Libraries\CMSIS\src -I..\Libraries\FWlib\inc -I..\Libraries\FWlib\src -I..\Listing -I..\Output -I..\Project -I..\STemWinLibrary522\Config -I..\STemWinLibrary522\emWinTask -I..\STemWinLibrary522\GUILib -I..\STemWinLibrary522\inc -I..\User -I..\USB\STM32_USB_HOST_Library\Class\HID\inc -I..\USB\STM32_USB_HOST_Library\Class\MSC\src -I..\USB\STM32_USB_HOST_Library\Core\src -I..\USB\USB_APP -I..\USB\STM32_USB_HOST_Library\Class\HID\src -I..\USB\STM32_USB_HOST_Library\Class\MSC\inc -I..\USB\STM32_USB_HOST_Library\Core\inc -I..\USB\STM32_USB_OTG_Driver\inc -I..\FATFS\exfuns -I..\FATFS\src\option -I..\FATFS\src -I..\MALLOC -I..\FATFS -I..\IAP -IE:\Keil_v5\ARM\RV31\INC -IE:\Keil_v5\ARM\CMSIS\Include -IE:\Keil_v5\ARM\INC\ST\STM32F4xx -D__UVISION_VERSION=525 -DUSE_STDPERIPH_DRIVER -DSTM32F40XX -DUSE_USB_OTG_FS -DUSE_EMBEDDED_PHY -DUSE_USB_OTG_HS -DSTM32F40XX --omf_browse=..\output\settings.crf --no_multibyte_chars ..\APP\settings.c]
                          THUMB

                          AREA ||i.CreateSET||, CODE, READONLY, ALIGN=2

                  CreateSET PROC
;;;767    WM_HWIN CreateSET(void);
;;;768    WM_HWIN CreateSET(void) {
000000  b51c              PUSH     {r2-r4,lr}
;;;769      page_sw = face_set;
000002  490f              LDR      r1,|L1.64|
000004  2005              MOVS     r0,#5
000006  7008              STRB     r0,[r1,#0]
;;;770      set_sw = set_1;
000008  480e              LDR      r0,|L1.68|
00000a  2400              MOVS     r4,#0
00000c  7004              STRB     r4,[r0,#0]
;;;771      pass = 0;
00000e  480e              LDR      r0,|L1.72|
000010  7004              STRB     r4,[r0,#0]
;;;772      TM1650_SET_LED(0x68,0x70);
000012  2170              MOVS     r1,#0x70
000014  2068              MOVS     r0,#0x68
000016  f7fffffe          BL       TM1650_SET_LED
;;;773      GPIO_ResetBits(GPIOD,GPIO_Pin_12);//√µ∆
00001a  f44f5180          MOV      r1,#0x1000
00001e  480b              LDR      r0,|L1.76|
000020  f7fffffe          BL       GPIO_ResetBits
;;;774      hWinset = GUI_CreateDialogBox(_aDialogCreate5, GUI_COUNTOF(_aDialogCreate5), _cbDialog, WM_HBKWIN, 0, 0);
000024  f7fffffe          BL       WM_GetDesktopWindow
000028  4603              MOV      r3,r0
00002a  9400              STR      r4,[sp,#0]
00002c  4a08              LDR      r2,|L1.80|
00002e  2127              MOVS     r1,#0x27
000030  4808              LDR      r0,|L1.84|
000032  9401              STR      r4,[sp,#4]
000034  f7fffffe          BL       GUI_CreateDialogBox
000038  4907              LDR      r1,|L1.88|
00003a  6048              STR      r0,[r1,#4]  ; hWinset
;;;775      return hWinset;
;;;776    }
00003c  bd1c              POP      {r2-r4,pc}
;;;777    
                          ENDP

00003e  0000              DCW      0x0000
                  |L1.64|
                          DCD      page_sw
                  |L1.68|
                          DCD      set_sw
                  |L1.72|
                          DCD      pass
                  |L1.76|
                          DCD      0x40020c00
                  |L1.80|
                          DCD      _cbDialog
                  |L1.84|
                          DCD      ||.constdata||
                  |L1.88|
                          DCD      ||.data||

                          AREA ||i.DEL_NUM||, CODE, READONLY, ALIGN=2

                  DEL_NUM PROC
;;;3929   
;;;3930   void DEL_NUM(void){
000000  e92d41f0          PUSH     {r4-r8,lr}
;;;3931       u8 i;
;;;3932       switch(set_sw){
000004  4879              LDR      r0,|L2.492|
000006  7801              LDRB     r1,[r0,#0]  ; set_sw
;;;3933           case set_12:
;;;3934           {
;;;3935               WM_HWIN hItem;
;;;3936   //            WM_InvalidateWindow(hWinset);
;;;3937               hItem = WM_GetDialogItem(hWinset, ID_TEXT_35);
000008  4879              LDR      r0,|L2.496|
;;;3938               if(bit > 0)
;;;3939   			{
;;;3940   				bit --;
;;;3941   				set_limit[bit] = '\0';
00000a  4f7a              LDR      r7,|L2.500|
00000c  2400              MOVS     r4,#0                 ;3937
00000e  6840              LDR      r0,[r0,#4]            ;3937
000010  4d79              LDR      r5,|L2.504|
;;;3942   			}
;;;3943   			if(bit == dot_flag)
000012  4e7a              LDR      r6,|L2.508|
000014  2910              CMP      r1,#0x10              ;3932
000016  d07d              BEQ      |L2.276|
000018  dc08              BGT      |L2.44|
00001a  f1a1010b          SUB      r1,r1,#0xb            ;3932
00001e  2905              CMP      r1,#5                 ;3932
000020  d279              BCS      |L2.278|
000022  e8dff001          TBB      [pc,r1]               ;3932
000026  2035              DCB      0x20,0x35
000028  748da200          DCB      0x74,0x8d,0xa2,0x00
                  |L2.44|
00002c  2951              CMP      r1,#0x51              ;3932
00002e  d044              BEQ      |L2.186|
000030  2952              CMP      r1,#0x52              ;3932
000032  d057              BEQ      |L2.228|
000034  2953              CMP      r1,#0x53              ;3932
000036  d06f              BEQ      |L2.280|
000038  2954              CMP      r1,#0x54              ;3932
00003a  d16c              BNE      |L2.278|
;;;3944   			{
;;;3945   				dot_flag = 0;
;;;3946   			}
;;;3947   			TEXT_SetText(hItem,set_limit);
;;;3948               break;
;;;3949           }
;;;3950           case set_13:
;;;3951           {
;;;3952               WM_HWIN hItem;
;;;3953   //            WM_InvalidateWindow(hWinset);
;;;3954               hItem = WM_GetDialogItem(hWinset, ID_TEXT_36);
;;;3955               if(bit > 0)
;;;3956   			{
;;;3957   				bit --;
;;;3958   				set_limit[bit] = '\0';
;;;3959   			}
;;;3960   			if(bit == dot_flag)
;;;3961   			{
;;;3962   				dot_flag = 0;
;;;3963   			}
;;;3964   			TEXT_SetText(hItem,set_limit);
;;;3965               break;
;;;3966           }
;;;3967   		case set_82:
;;;3968           {
;;;3969               WM_HWIN hItem;
;;;3970   //            WM_InvalidateWindow(hWinset);
;;;3971               hItem = WM_GetDialogItem(hWinset, ID_TEXT_154);
;;;3972               if(bit > 0)
;;;3973   			{
;;;3974   				bit --;
;;;3975   				set_limit[bit] = '\0';
;;;3976   			}
;;;3977   			if(bit == dot_flag)
;;;3978   			{
;;;3979   				dot_flag = 0;
;;;3980   			}
;;;3981   			TEXT_SetText(hItem,set_limit);
;;;3982               break;
;;;3983           }
;;;3984           case set_83:
;;;3985           {
;;;3986               WM_HWIN hItem;
;;;3987   //            WM_InvalidateWindow(hWinset);
;;;3988               hItem = WM_GetDialogItem(hWinset, ID_TEXT_155);
;;;3989               if(bit > 0)
;;;3990   			{
;;;3991   				bit --;
;;;3992   				set_limit[bit] = '\0';
;;;3993   			}
;;;3994   			if(bit == dot_flag)
;;;3995   			{
;;;3996   				dot_flag = 0;
;;;3997   			}
;;;3998   			TEXT_SetText(hItem,set_limit);
;;;3999               break;
;;;4000           }
;;;4001   		
;;;4002           case set_14:
;;;4003           {
;;;4004               WM_HWIN hItem;
;;;4005   //            WM_InvalidateWindow(hWinset);
;;;4006               hItem = WM_GetDialogItem(hWinset, ID_TEXT_37);
;;;4007               if(bit > 0)
;;;4008   			{
;;;4009   				bit --;
;;;4010   				set_limit[bit] = '\0';
;;;4011   			}
;;;4012   			if(bit == dot_flag)
;;;4013   			{
;;;4014   				dot_flag = 0;
;;;4015   			}
;;;4016   			TEXT_SetText(hItem,set_limit);
;;;4017               break;           
;;;4018           }
;;;4019           case set_15:
;;;4020           {
;;;4021               WM_HWIN hItem;
;;;4022   //            WM_InvalidateWindow(hWinset);
;;;4023               hItem = WM_GetDialogItem(hWinset, ID_TEXT_38);
;;;4024               if(bit > 0)
;;;4025   			{
;;;4026   				bit --;
;;;4027   				set_limit[bit] = '\0';
;;;4028   			}
;;;4029   			if(bit == dot_flag)
;;;4030   			{
;;;4031   				dot_flag = 0;
;;;4032   			}
;;;4033   			TEXT_SetText(hItem,set_limit);
;;;4034               break;
;;;4035           }
;;;4036           case set_16:
;;;4037           {
;;;4038               WM_HWIN hItem;
;;;4039   //            WM_InvalidateWindow(hWinset);
;;;4040               hItem = WM_GetDialogItem(hWinset, ID_TEXT_39);
;;;4041               if(bit > 0)
;;;4042   			{
;;;4043   				bit --;
;;;4044   				set_limit[bit] = '\0';
;;;4045   			}
;;;4046   			if(bit == dot_flag)
;;;4047   			{
;;;4048   				dot_flag = 0;
;;;4049   			}
;;;4050   			TEXT_SetText(hItem,set_limit);
;;;4051               break;
;;;4052           }
;;;4053           case set_17:
;;;4054           {
;;;4055               WM_HWIN hItem;
;;;4056   //            WM_InvalidateWindow(hWinset);
;;;4057               hItem = WM_GetDialogItem(hWinset, ID_TEXT_40);
;;;4058               if(bit > 0)
;;;4059   			{
;;;4060   				bit --;
;;;4061   				set_limit[bit] = '\0';
;;;4062   			}
;;;4063   			if(bit == dot_flag)
;;;4064   			{
;;;4065   				dot_flag = 0;
;;;4066   			}
;;;4067   			TEXT_SetText(hItem,set_limit);
;;;4068               break;
;;;4069   		}
;;;4070   		case set_84:
;;;4071   		{
;;;4072               WM_HWIN hItem;
;;;4073   //            WM_InvalidateWindow(hWinset);
;;;4074               hItem = WM_GetDialogItem(hWinset, ID_TEXT_156);
;;;4075               if(bit > 0)
;;;4076   			{
;;;4077   				bit --;
;;;4078   				set_limit[bit] = '\0';
;;;4079   			}
;;;4080   			if(bit == dot_flag)
;;;4081   			{
;;;4082   				dot_flag = 0;
;;;4083   			}
;;;4084   			TEXT_SetText(hItem,set_limit);
;;;4085               break;
;;;4086           }
;;;4087           case set_85:
;;;4088           {
;;;4089               WM_HWIN hItem;
;;;4090   //            WM_InvalidateWindow(hWinset);
;;;4091               hItem = WM_GetDialogItem(hWinset, ID_TEXT_157);
00003c  f6401138          MOV      r1,#0x938
000040  f7fffffe          BL       WM_GetDialogItem
;;;4092               if(bit > 0)
000044  7829              LDRB     r1,[r5,#0]  ; bit
000046  b121              CBZ      r1,|L2.82|
;;;4093   			{
;;;4094   				bit --;
000048  7829              LDRB     r1,[r5,#0]  ; bit
00004a  1e49              SUBS     r1,r1,#1
00004c  7029              STRB     r1,[r5,#0]
;;;4095   				set_limit[bit] = '\0';
00004e  7829              LDRB     r1,[r5,#0]  ; bit
000050  547c              STRB     r4,[r7,r1]
                  |L2.82|
;;;4096   			}
;;;4097   			if(bit == dot_flag)
000052  7829              LDRB     r1,[r5,#0]  ; bit
000054  7832              LDRB     r2,[r6,#0]  ; dot_flag
000056  4291              CMP      r1,r2
000058  d100              BNE      |L2.92|
;;;4098   			{
;;;4099   				dot_flag = 0;
00005a  7034              STRB     r4,[r6,#0]
                  |L2.92|
;;;4100   			}
;;;4101   			TEXT_SetText(hItem,set_limit);
00005c  e8bd41f0          POP      {r4-r8,lr}
000060  4964              LDR      r1,|L2.500|
000062  f7ffbffe          B.W      TEXT_SetText
000066  f44f6106          MOV      r1,#0x860             ;3937
00006a  f7fffffe          BL       WM_GetDialogItem
00006e  7829              LDRB     r1,[r5,#0]            ;3938  ; bit
000070  b121              CBZ      r1,|L2.124|
000072  7829              LDRB     r1,[r5,#0]            ;3940  ; bit
000074  1e49              SUBS     r1,r1,#1              ;3940
000076  7029              STRB     r1,[r5,#0]            ;3940
000078  7829              LDRB     r1,[r5,#0]            ;3941  ; bit
00007a  547c              STRB     r4,[r7,r1]            ;3941
                  |L2.124|
00007c  7829              LDRB     r1,[r5,#0]            ;3943  ; bit
00007e  7832              LDRB     r2,[r6,#0]            ;3943  ; dot_flag
000080  4291              CMP      r1,r2                 ;3943
000082  d100              BNE      |L2.134|
000084  7034              STRB     r4,[r6,#0]            ;3945
                  |L2.134|
000086  e8bd41f0          POP      {r4-r8,lr}            ;3947
00008a  495a              LDR      r1,|L2.500|
00008c  f7ffbffe          B.W      TEXT_SetText
000090  f6400161          MOV      r1,#0x861             ;3954
000094  f7fffffe          BL       WM_GetDialogItem
000098  7829              LDRB     r1,[r5,#0]            ;3955  ; bit
00009a  b121              CBZ      r1,|L2.166|
00009c  7829              LDRB     r1,[r5,#0]            ;3957  ; bit
00009e  1e49              SUBS     r1,r1,#1              ;3957
0000a0  7029              STRB     r1,[r5,#0]            ;3957
0000a2  7829              LDRB     r1,[r5,#0]            ;3958  ; bit
0000a4  547c              STRB     r4,[r7,r1]            ;3958
                  |L2.166|
0000a6  7829              LDRB     r1,[r5,#0]            ;3960  ; bit
0000a8  7832              LDRB     r2,[r6,#0]            ;3960  ; dot_flag
0000aa  4291              CMP      r1,r2                 ;3960
0000ac  d100              BNE      |L2.176|
0000ae  7034              STRB     r4,[r6,#0]            ;3962
                  |L2.176|
0000b0  e8bd41f0          POP      {r4-r8,lr}            ;3964
0000b4  494f              LDR      r1,|L2.500|
0000b6  f7ffbffe          B.W      TEXT_SetText
                  |L2.186|
0000ba  f6401135          MOV      r1,#0x935             ;3971
0000be  f7fffffe          BL       WM_GetDialogItem
0000c2  7829              LDRB     r1,[r5,#0]            ;3972  ; bit
0000c4  b121              CBZ      r1,|L2.208|
0000c6  7829              LDRB     r1,[r5,#0]            ;3974  ; bit
0000c8  1e49              SUBS     r1,r1,#1              ;3974
0000ca  7029              STRB     r1,[r5,#0]            ;3974
0000cc  7829              LDRB     r1,[r5,#0]            ;3975  ; bit
0000ce  547c              STRB     r4,[r7,r1]            ;3975
                  |L2.208|
0000d0  7829              LDRB     r1,[r5,#0]            ;3977  ; bit
0000d2  7832              LDRB     r2,[r6,#0]            ;3977  ; dot_flag
0000d4  4291              CMP      r1,r2                 ;3977
0000d6  d100              BNE      |L2.218|
0000d8  7034              STRB     r4,[r6,#0]            ;3979
                  |L2.218|
0000da  e8bd41f0          POP      {r4-r8,lr}            ;3981
0000de  4945              LDR      r1,|L2.500|
0000e0  f7ffbffe          B.W      TEXT_SetText
                  |L2.228|
0000e4  f6401136          MOV      r1,#0x936             ;3988
0000e8  f7fffffe          BL       WM_GetDialogItem
0000ec  7829              LDRB     r1,[r5,#0]            ;3989  ; bit
0000ee  b121              CBZ      r1,|L2.250|
0000f0  7829              LDRB     r1,[r5,#0]            ;3991  ; bit
0000f2  1e49              SUBS     r1,r1,#1              ;3991
0000f4  7029              STRB     r1,[r5,#0]            ;3991
0000f6  7829              LDRB     r1,[r5,#0]            ;3992  ; bit
0000f8  547c              STRB     r4,[r7,r1]            ;3992
                  |L2.250|
0000fa  7829              LDRB     r1,[r5,#0]            ;3994  ; bit
0000fc  7832              LDRB     r2,[r6,#0]            ;3994  ; dot_flag
0000fe  4291              CMP      r1,r2                 ;3994
000100  d100              BNE      |L2.260|
000102  7034              STRB     r4,[r6,#0]            ;3996
                  |L2.260|
000104  e8bd41f0          POP      {r4-r8,lr}            ;3998
000108  493a              LDR      r1,|L2.500|
00010a  f7ffbffe          B.W      TEXT_SetText
00010e  f6400162          MOV      r1,#0x862             ;4006
000112  e002              B        |L2.282|
                  |L2.276|
000114  e03e              B        |L2.404|
                  |L2.278|
000116  e067              B        |L2.488|
                  |L2.280|
000118  e051              B        |L2.446|
                  |L2.282|
00011a  f7fffffe          BL       WM_GetDialogItem
00011e  7829              LDRB     r1,[r5,#0]            ;4007  ; bit
000120  b121              CBZ      r1,|L2.300|
000122  7829              LDRB     r1,[r5,#0]            ;4009  ; bit
000124  1e49              SUBS     r1,r1,#1              ;4009
000126  7029              STRB     r1,[r5,#0]            ;4009
000128  7829              LDRB     r1,[r5,#0]            ;4010  ; bit
00012a  547c              STRB     r4,[r7,r1]            ;4010
                  |L2.300|
00012c  7829              LDRB     r1,[r5,#0]            ;4012  ; bit
00012e  7832              LDRB     r2,[r6,#0]            ;4012  ; dot_flag
000130  4291              CMP      r1,r2                 ;4012
000132  d100              BNE      |L2.310|
000134  7034              STRB     r4,[r6,#0]            ;4014
                  |L2.310|
000136  e8bd41f0          POP      {r4-r8,lr}            ;4016
00013a  492e              LDR      r1,|L2.500|
00013c  f7ffbffe          B.W      TEXT_SetText
000140  f6400163          MOV      r1,#0x863             ;4023
000144  f7fffffe          BL       WM_GetDialogItem
000148  7829              LDRB     r1,[r5,#0]            ;4024  ; bit
00014a  b121              CBZ      r1,|L2.342|
00014c  7829              LDRB     r1,[r5,#0]            ;4026  ; bit
00014e  1e49              SUBS     r1,r1,#1              ;4026
000150  7029              STRB     r1,[r5,#0]            ;4026
000152  7829              LDRB     r1,[r5,#0]            ;4027  ; bit
000154  547c              STRB     r4,[r7,r1]            ;4027
                  |L2.342|
000156  7829              LDRB     r1,[r5,#0]            ;4029  ; bit
000158  7832              LDRB     r2,[r6,#0]            ;4029  ; dot_flag
00015a  4291              CMP      r1,r2                 ;4029
00015c  d100              BNE      |L2.352|
00015e  7034              STRB     r4,[r6,#0]            ;4031
                  |L2.352|
000160  e8bd41f0          POP      {r4-r8,lr}            ;4033
000164  4923              LDR      r1,|L2.500|
000166  f7ffbffe          B.W      TEXT_SetText
00016a  f6400164          MOV      r1,#0x864             ;4040
00016e  f7fffffe          BL       WM_GetDialogItem
000172  7829              LDRB     r1,[r5,#0]            ;4041  ; bit
000174  b121              CBZ      r1,|L2.384|
000176  7829              LDRB     r1,[r5,#0]            ;4043  ; bit
000178  1e49              SUBS     r1,r1,#1              ;4043
00017a  7029              STRB     r1,[r5,#0]            ;4043
00017c  7829              LDRB     r1,[r5,#0]            ;4044  ; bit
00017e  547c              STRB     r4,[r7,r1]            ;4044
                  |L2.384|
000180  7829              LDRB     r1,[r5,#0]            ;4046  ; bit
000182  7832              LDRB     r2,[r6,#0]            ;4046  ; dot_flag
000184  4291              CMP      r1,r2                 ;4046
000186  d100              BNE      |L2.394|
000188  7034              STRB     r4,[r6,#0]            ;4048
                  |L2.394|
00018a  e8bd41f0          POP      {r4-r8,lr}            ;4050
00018e  4919              LDR      r1,|L2.500|
000190  f7ffbffe          B.W      TEXT_SetText
                  |L2.404|
000194  f6400165          MOV      r1,#0x865             ;4057
000198  f7fffffe          BL       WM_GetDialogItem
00019c  7829              LDRB     r1,[r5,#0]            ;4058  ; bit
00019e  b121              CBZ      r1,|L2.426|
0001a0  7829              LDRB     r1,[r5,#0]            ;4060  ; bit
0001a2  1e49              SUBS     r1,r1,#1              ;4060
0001a4  7029              STRB     r1,[r5,#0]            ;4060
0001a6  7829              LDRB     r1,[r5,#0]            ;4061  ; bit
0001a8  547c              STRB     r4,[r7,r1]            ;4061
                  |L2.426|
0001aa  7829              LDRB     r1,[r5,#0]            ;4063  ; bit
0001ac  7832              LDRB     r2,[r6,#0]            ;4063  ; dot_flag
0001ae  4291              CMP      r1,r2                 ;4063
0001b0  d100              BNE      |L2.436|
0001b2  7034              STRB     r4,[r6,#0]            ;4065
                  |L2.436|
0001b4  e8bd41f0          POP      {r4-r8,lr}            ;4067
0001b8  490e              LDR      r1,|L2.500|
0001ba  f7ffbffe          B.W      TEXT_SetText
                  |L2.446|
0001be  f6401137          MOV      r1,#0x937             ;4074
0001c2  f7fffffe          BL       WM_GetDialogItem
0001c6  7829              LDRB     r1,[r5,#0]            ;4075  ; bit
0001c8  b121              CBZ      r1,|L2.468|
0001ca  7829              LDRB     r1,[r5,#0]            ;4077  ; bit
0001cc  1e49              SUBS     r1,r1,#1              ;4077
0001ce  7029              STRB     r1,[r5,#0]            ;4077
0001d0  7829              LDRB     r1,[r5,#0]            ;4078  ; bit
0001d2  547c              STRB     r4,[r7,r1]            ;4078
                  |L2.468|
0001d4  7829              LDRB     r1,[r5,#0]            ;4080  ; bit
0001d6  7832              LDRB     r2,[r6,#0]            ;4080  ; dot_flag
0001d8  4291              CMP      r1,r2                 ;4080
0001da  d100              BNE      |L2.478|
0001dc  7034              STRB     r4,[r6,#0]            ;4082
                  |L2.478|
0001de  e8bd41f0          POP      {r4-r8,lr}            ;4084
0001e2  4904              LDR      r1,|L2.500|
0001e4  f7ffbffe          B.W      TEXT_SetText
                  |L2.488|
;;;4102               break;
;;;4103           }
;;;4104   	}
;;;4105           
;;;4106   }
0001e8  e8bd81f0          POP      {r4-r8,pc}
;;;4107   //Á≥ªÁªüËÆæÁΩÆÁïåÈù¢Êï∞ÊçÆËæìÂÖ•
                          ENDP

                  |L2.492|
                          DCD      set_sw
                  |L2.496|
                          DCD      ||.data||
                  |L2.500|
                          DCD      set_limit
                  |L2.504|
                          DCD      bit
                  |L2.508|
                          DCD      dot_flag

                          AREA ||i.INPUT_NUM||, CODE, READONLY, ALIGN=2

                  INPUT_NUM PROC
;;;4108   void INPUT_NUM(char* num);            
;;;4109   void INPUT_NUM(char* num){
000000  e92d47f0          PUSH     {r4-r10,lr}
000004  4681              MOV      r9,r0
;;;4110       u8 i;
;;;4111       switch(set_sw){
000006  48f7              LDR      r0,|L3.996|
000008  7802              LDRB     r2,[r0,#0]  ; set_sw
;;;4112           case set_12:
;;;4113           {
;;;4114               WM_HWIN hItem;
;;;4115   //            WM_InvalidateWindow(hWinset);
;;;4116               hItem = WM_GetDialogItem(hWinset, ID_TEXT_35);
00000a  48f7              LDR      r0,|L3.1000|
;;;4117               if(bit < 6)
;;;4118   			{
;;;4119   				strcat(set_limit,num);
;;;4120   				if(dot_flag != 0 && strcmp(num,".") == 0)
00000c  4ff7              LDR      r7,|L3.1004|
00000e  4ef8              LDR      r6,|L3.1008|
000010  6840              LDR      r0,[r0,#4]            ;4116
000012  2400              MOVS     r4,#0                 ;4117
000014  4df7              LDR      r5,|L3.1012|
000016  2a10              CMP      r2,#0x10              ;4111
000018  d076              BEQ      |L3.264|
00001a  dc08              BGT      |L3.46|
00001c  f1a2020b          SUB      r2,r2,#0xb            ;4111
000020  2a05              CMP      r2,#5                 ;4111
000022  d272              BCS      |L3.266|
000024  e8dff002          TBB      [pc,r2]               ;4111
000028  2350e0fd          DCB      0x23,0x50,0xe0,0xfd
00002c  fc00              DCB      0xfc,0x00
                  |L3.46|
00002e  2a51              CMP      r2,#0x51              ;4111
000030  d07c              BEQ      |L3.300|
000032  2a52              CMP      r2,#0x52              ;4111
000034  d06b              BEQ      |L3.270|
000036  2a53              CMP      r2,#0x53              ;4111
000038  d06a              BEQ      |L3.272|
00003a  2a54              CMP      r2,#0x54              ;4111
00003c  d165              BNE      |L3.266|
;;;4121   				{
;;;4122   					
;;;4123   				}else{			
;;;4124   					
;;;4125   					if(dot_flag == 0 && strcmp(num,".") == 0)
;;;4126   					{
;;;4127   						dot_flag = bit;
;;;4128   					}
;;;4129   					bit ++;
;;;4130   				}
;;;4131   			}else{
;;;4132   				bit = 0;
;;;4133   				for(i=0;i<6;i++)
;;;4134   				{
;;;4135   					set_limit[i] = '\0';
;;;4136   				}
;;;4137   			}
;;;4138   			TEXT_SetText(hItem,set_limit);
;;;4139               break;
;;;4140           }
;;;4141           case set_13:
;;;4142           {
;;;4143               WM_HWIN hItem;
;;;4144   //            WM_InvalidateWindow(hWinset);
;;;4145               hItem = WM_GetDialogItem(hWinset, ID_TEXT_36);
;;;4146               if(bit < 6)
;;;4147   			{
;;;4148   				strcat(set_limit,num);
;;;4149   				if(dot_flag != 0 && strcmp(num,".") == 0)
;;;4150   				{
;;;4151   					
;;;4152   				}else{			
;;;4153   					
;;;4154   					if(dot_flag == 0 && strcmp(num,".") == 0)
;;;4155   					{
;;;4156   						dot_flag = bit;
;;;4157   					}
;;;4158   					bit ++;
;;;4159   				}
;;;4160   			}else{
;;;4161   				bit = 0;
;;;4162   				for(i=0;i<6;i++)
;;;4163   				{
;;;4164   					set_limit[i] = '\0';
;;;4165   				}
;;;4166   			}
;;;4167   			TEXT_SetText(hItem,set_limit);
;;;4168               break;
;;;4169           }
;;;4170   		case set_82:
;;;4171           {
;;;4172               WM_HWIN hItem;
;;;4173   //            WM_InvalidateWindow(hWinset);
;;;4174               hItem = WM_GetDialogItem(hWinset, ID_TEXT_154);
;;;4175               if(bit < 6)
;;;4176   			{
;;;4177   				strcat(set_limit,num);
;;;4178   				if(dot_flag != 0 && strcmp(num,".") == 0)
;;;4179   				{
;;;4180   					
;;;4181   				}else{			
;;;4182   					
;;;4183   					if(dot_flag == 0 && strcmp(num,".") == 0)
;;;4184   					{
;;;4185   						dot_flag = bit;
;;;4186   					}
;;;4187   					bit ++;
;;;4188   				}
;;;4189   			}else{
;;;4190   				bit = 0;
;;;4191   				for(i=0;i<6;i++)
;;;4192   				{
;;;4193   					set_limit[i] = '\0';
;;;4194   				}
;;;4195   			}
;;;4196   			TEXT_SetText(hItem,set_limit);
;;;4197               break;
;;;4198           }
;;;4199           case set_83:
;;;4200           {
;;;4201               WM_HWIN hItem;
;;;4202   //            WM_InvalidateWindow(hWinset);
;;;4203               hItem = WM_GetDialogItem(hWinset, ID_TEXT_155);
;;;4204               if(bit < 6)
;;;4205   			{
;;;4206   				strcat(set_limit,num);
;;;4207   				if(dot_flag != 0 && strcmp(num,".") == 0)
;;;4208   				{
;;;4209   					
;;;4210   				}else{			
;;;4211   					
;;;4212   					if(dot_flag == 0 && strcmp(num,".") == 0)
;;;4213   					{
;;;4214   						dot_flag = bit;
;;;4215   					}
;;;4216   					bit ++;
;;;4217   				}
;;;4218   			}else{
;;;4219   				bit = 0;
;;;4220   				for(i=0;i<6;i++)
;;;4221   				{
;;;4222   					set_limit[i] = '\0';
;;;4223   				}
;;;4224   			}
;;;4225   			TEXT_SetText(hItem,set_limit);
;;;4226               break;
;;;4227           }
;;;4228   		
;;;4229           case set_14:
;;;4230           {
;;;4231               WM_HWIN hItem;
;;;4232   //            WM_InvalidateWindow(hWinset);
;;;4233               hItem = WM_GetDialogItem(hWinset, ID_TEXT_37);
;;;4234               if(bit < 6)
;;;4235   			{
;;;4236   				strcat(set_limit,num);
;;;4237   				if(dot_flag != 0 && strcmp(num,".") == 0)
;;;4238   				{
;;;4239   					
;;;4240   				}else{			
;;;4241   					
;;;4242   					if(dot_flag == 0 && strcmp(num,".") == 0)
;;;4243   					{
;;;4244   						dot_flag = bit;
;;;4245   					}
;;;4246   					bit ++;
;;;4247   				}
;;;4248   			}else{
;;;4249   				bit = 0;
;;;4250   				for(i=0;i<6;i++)
;;;4251   				{
;;;4252   					set_limit[i] = '\0';
;;;4253   				}
;;;4254   			}
;;;4255   			TEXT_SetText(hItem,set_limit);
;;;4256               break;           
;;;4257           }
;;;4258           case set_15:
;;;4259           {
;;;4260               WM_HWIN hItem;
;;;4261   //            WM_InvalidateWindow(hWinset);
;;;4262               hItem = WM_GetDialogItem(hWinset, ID_TEXT_38);
;;;4263               if(bit < 6)
;;;4264   			{
;;;4265   				strcat(set_limit,num);
;;;4266   				if(dot_flag != 0 && strcmp(num,".") == 0)
;;;4267   				{
;;;4268   					
;;;4269   				}else{			
;;;4270   					
;;;4271   					if(dot_flag == 0 && strcmp(num,".") == 0)
;;;4272   					{
;;;4273   						dot_flag = bit;
;;;4274   					}
;;;4275   					bit ++;
;;;4276   				}
;;;4277   			}else{
;;;4278   				bit = 0;
;;;4279   				for(i=0;i<6;i++)
;;;4280   				{
;;;4281   					set_limit[i] = '\0';
;;;4282   				}
;;;4283   			}
;;;4284   			TEXT_SetText(hItem,set_limit);
;;;4285               break;
;;;4286           }
;;;4287           case set_16:
;;;4288           {
;;;4289               WM_HWIN hItem;
;;;4290   //            WM_InvalidateWindow(hWinset);
;;;4291               hItem = WM_GetDialogItem(hWinset, ID_TEXT_39);
;;;4292               if(bit < 6)
;;;4293   			{
;;;4294   				strcat(set_limit,num);
;;;4295   				if(dot_flag != 0 && strcmp(num,".") == 0)
;;;4296   				{
;;;4297   					
;;;4298   				}else{			
;;;4299   					
;;;4300   					if(dot_flag == 0 && strcmp(num,".") == 0)
;;;4301   					{
;;;4302   						dot_flag = bit;
;;;4303   					}
;;;4304   					bit ++;
;;;4305   				}
;;;4306   			}else{
;;;4307   				bit = 0;
;;;4308   				for(i=0;i<6;i++)
;;;4309   				{
;;;4310   					set_limit[i] = '\0';
;;;4311   				}
;;;4312   			}
;;;4313   			TEXT_SetText(hItem,set_limit);
;;;4314               break;
;;;4315           }
;;;4316           case set_17:
;;;4317           {
;;;4318               WM_HWIN hItem;
;;;4319   //            WM_InvalidateWindow(hWinset);
;;;4320               hItem = WM_GetDialogItem(hWinset, ID_TEXT_40);
;;;4321               if(bit < 6)
;;;4322   			{
;;;4323   				strcat(set_limit,num);
;;;4324   				if(dot_flag != 0 && strcmp(num,".") == 0)
;;;4325   				{
;;;4326   					
;;;4327   				}else{			
;;;4328   					
;;;4329   					if(dot_flag == 0 && strcmp(num,".") == 0)
;;;4330   					{
;;;4331   						dot_flag = bit;
;;;4332   					}
;;;4333   					bit ++;
;;;4334   				}
;;;4335   			}else{
;;;4336   				bit = 0;
;;;4337   				for(i=0;i<6;i++)
;;;4338   				{
;;;4339   					set_limit[i] = '\0';
;;;4340   				}
;;;4341   			}
;;;4342   			TEXT_SetText(hItem,set_limit);
;;;4343               break;
;;;4344   		}
;;;4345   		case set_84:
;;;4346   		{
;;;4347               WM_HWIN hItem;
;;;4348   //            WM_InvalidateWindow(hWinset);
;;;4349               hItem = WM_GetDialogItem(hWinset, ID_TEXT_156);
;;;4350               if(bit < 6)
;;;4351   			{
;;;4352   				strcat(set_limit,num);
;;;4353   				if(dot_flag != 0 && strcmp(num,".") == 0)
;;;4354   				{
;;;4355   					
;;;4356   				}else{			
;;;4357   					
;;;4358   					if(dot_flag == 0 && strcmp(num,".") == 0)
;;;4359   					{
;;;4360   						dot_flag = bit;
;;;4361   					}
;;;4362   					bit ++;
;;;4363   				}
;;;4364   			}else{
;;;4365   				bit = 0;
;;;4366   				for(i=0;i<6;i++)
;;;4367   				{
;;;4368   					set_limit[i] = '\0';
;;;4369   				}
;;;4370   			}
;;;4371   			TEXT_SetText(hItem,set_limit);
;;;4372               break;
;;;4373           }
;;;4374           case set_85:
;;;4375           {
;;;4376               WM_HWIN hItem;
;;;4377   //            WM_InvalidateWindow(hWinset);
;;;4378               hItem = WM_GetDialogItem(hWinset, ID_TEXT_157);
00003e  f6401138          MOV      r1,#0x938
000042  f7fffffe          BL       WM_GetDialogItem
000046  4680              MOV      r8,r0
;;;4379               if(bit < 6)
000048  7830              LDRB     r0,[r6,#0]  ; bit
00004a  2806              CMP      r0,#6
00004c  d27e              BCS      |L3.332|
;;;4380   			{
;;;4381   				strcat(set_limit,num);
00004e  4649              MOV      r1,r9
000050  48e8              LDR      r0,|L3.1012|
000052  f7fffffe          BL       strcat
;;;4382   				if(dot_flag != 0 && strcmp(num,".") == 0)
000056  7838              LDRB     r0,[r7,#0]  ; dot_flag
000058  b128              CBZ      r0,|L3.102|
00005a  a1e7              ADR      r1,|L3.1016|
00005c  4648              MOV      r0,r9
00005e  f7fffffe          BL       strcmp
000062  2800              CMP      r0,#0
000064  d073              BEQ      |L3.334|
                  |L3.102|
;;;4383   				{
;;;4384   					
;;;4385   				}else{			
;;;4386   					
;;;4387   					if(dot_flag == 0 && strcmp(num,".") == 0)
000066  7838              LDRB     r0,[r7,#0]  ; dot_flag
000068  2800              CMP      r0,#0
00006a  d071              BEQ      |L3.336|
00006c  e1a7              B        |L3.958|
00006e  f44f6106          MOV      r1,#0x860             ;4116
000072  f7fffffe          BL       WM_GetDialogItem
000076  4680              MOV      r8,r0                 ;4116
000078  7830              LDRB     r0,[r6,#0]            ;4117  ; bit
00007a  2806              CMP      r0,#6                 ;4117
00007c  d217              BCS      |L3.174|
00007e  4649              MOV      r1,r9                 ;4119
000080  48dc              LDR      r0,|L3.1012|
000082  f7fffffe          BL       strcat
000086  7838              LDRB     r0,[r7,#0]            ;4120  ; dot_flag
000088  b120              CBZ      r0,|L3.148|
00008a  a1db              ADR      r1,|L3.1016|
00008c  4648              MOV      r0,r9                 ;4120
00008e  f7fffffe          BL       strcmp
000092  b198              CBZ      r0,|L3.188|
                  |L3.148|
000094  7838              LDRB     r0,[r7,#0]            ;4125  ; dot_flag
000096  b930              CBNZ     r0,|L3.166|
000098  a1d7              ADR      r1,|L3.1016|
00009a  4648              MOV      r0,r9                 ;4125
00009c  f7fffffe          BL       strcmp
0000a0  b908              CBNZ     r0,|L3.166|
0000a2  7830              LDRB     r0,[r6,#0]            ;4127  ; bit
0000a4  7038              STRB     r0,[r7,#0]            ;4127
                  |L3.166|
0000a6  7830              LDRB     r0,[r6,#0]            ;4129  ; bit
0000a8  1c40              ADDS     r0,r0,#1              ;4129
0000aa  7030              STRB     r0,[r6,#0]            ;4129
0000ac  e006              B        |L3.188|
                  |L3.174|
0000ae  7034              STRB     r4,[r6,#0]            ;4132
0000b0  2000              MOVS     r0,#0                 ;4133
                  |L3.178|
0000b2  542c              STRB     r4,[r5,r0]            ;4135
0000b4  1c40              ADDS     r0,r0,#1              ;4133
0000b6  b2c0              UXTB     r0,r0                 ;4133
0000b8  2806              CMP      r0,#6                 ;4133
0000ba  d3fa              BCC      |L3.178|
                  |L3.188|
0000bc  4640              MOV      r0,r8                 ;4138
0000be  e8bd47f0          POP      {r4-r10,lr}           ;4138
0000c2  49cc              LDR      r1,|L3.1012|
0000c4  f7ffbffe          B.W      TEXT_SetText
0000c8  f6400161          MOV      r1,#0x861             ;4145
0000cc  f7fffffe          BL       WM_GetDialogItem
0000d0  4680              MOV      r8,r0                 ;4145
0000d2  7830              LDRB     r0,[r6,#0]            ;4146  ; bit
0000d4  2806              CMP      r0,#6                 ;4146
0000d6  d21c              BCS      |L3.274|
0000d8  4649              MOV      r1,r9                 ;4148
0000da  48c6              LDR      r0,|L3.1012|
0000dc  f7fffffe          BL       strcat
0000e0  7838              LDRB     r0,[r7,#0]            ;4149  ; dot_flag
0000e2  b120              CBZ      r0,|L3.238|
0000e4  a1c4              ADR      r1,|L3.1016|
0000e6  4648              MOV      r0,r9                 ;4149
0000e8  f7fffffe          BL       strcmp
0000ec  b1c0              CBZ      r0,|L3.288|
                  |L3.238|
0000ee  7838              LDRB     r0,[r7,#0]            ;4154  ; dot_flag
0000f0  b930              CBNZ     r0,|L3.256|
0000f2  a1c1              ADR      r1,|L3.1016|
0000f4  4648              MOV      r0,r9                 ;4154
0000f6  f7fffffe          BL       strcmp
0000fa  b908              CBNZ     r0,|L3.256|
0000fc  7830              LDRB     r0,[r6,#0]            ;4156  ; bit
0000fe  7038              STRB     r0,[r7,#0]            ;4156
                  |L3.256|
000100  7830              LDRB     r0,[r6,#0]            ;4158  ; bit
000102  1c40              ADDS     r0,r0,#1              ;4158
000104  7030              STRB     r0,[r6,#0]            ;4158
000106  e00b              B        |L3.288|
                  |L3.264|
000108  e0f8              B        |L3.764|
                  |L3.266|
00010a  e169              B        |L3.992|
00010c  e00e              B        |L3.300|
                  |L3.270|
00010e  e03e              B        |L3.398|
                  |L3.272|
000110  e121              B        |L3.854|
                  |L3.274|
000112  7034              STRB     r4,[r6,#0]            ;4161
000114  2000              MOVS     r0,#0                 ;4162
                  |L3.278|
000116  542c              STRB     r4,[r5,r0]            ;4164
000118  1c40              ADDS     r0,r0,#1              ;4162
00011a  b2c0              UXTB     r0,r0                 ;4162
00011c  2806              CMP      r0,#6                 ;4162
00011e  d3fa              BCC      |L3.278|
                  |L3.288|
000120  4640              MOV      r0,r8                 ;4167
000122  e8bd47f0          POP      {r4-r10,lr}           ;4167
000126  49b3              LDR      r1,|L3.1012|
000128  f7ffbffe          B.W      TEXT_SetText
                  |L3.300|
00012c  f6401135          MOV      r1,#0x935             ;4174
000130  f7fffffe          BL       WM_GetDialogItem
000134  4680              MOV      r8,r0                 ;4174
000136  7830              LDRB     r0,[r6,#0]            ;4175  ; bit
000138  2806              CMP      r0,#6                 ;4175
00013a  d21b              BCS      |L3.372|
00013c  4649              MOV      r1,r9                 ;4177
00013e  48ad              LDR      r0,|L3.1012|
000140  f7fffffe          BL       strcat
000144  7838              LDRB     r0,[r7,#0]            ;4178  ; dot_flag
000146  b140              CBZ      r0,|L3.346|
000148  a1ab              ADR      r1,|L3.1016|
00014a  e002              B        |L3.338|
                  |L3.332|
00014c  e13b              B        |L3.966|
                  |L3.334|
00014e  e141              B        |L3.980|
                  |L3.336|
000150  e12e              B        |L3.944|
                  |L3.338|
000152  4648              MOV      r0,r9                 ;4178
000154  f7fffffe          BL       strcmp
000158  b198              CBZ      r0,|L3.386|
                  |L3.346|
00015a  7838              LDRB     r0,[r7,#0]            ;4183  ; dot_flag
00015c  b930              CBNZ     r0,|L3.364|
00015e  a1a6              ADR      r1,|L3.1016|
000160  4648              MOV      r0,r9                 ;4183
000162  f7fffffe          BL       strcmp
000166  b908              CBNZ     r0,|L3.364|
000168  7830              LDRB     r0,[r6,#0]            ;4185  ; bit
00016a  7038              STRB     r0,[r7,#0]            ;4185
                  |L3.364|
00016c  7830              LDRB     r0,[r6,#0]            ;4187  ; bit
00016e  1c40              ADDS     r0,r0,#1              ;4187
000170  7030              STRB     r0,[r6,#0]            ;4187
000172  e006              B        |L3.386|
                  |L3.372|
000174  7034              STRB     r4,[r6,#0]            ;4190
000176  2000              MOVS     r0,#0                 ;4191
                  |L3.376|
000178  542c              STRB     r4,[r5,r0]            ;4193
00017a  1c40              ADDS     r0,r0,#1              ;4191
00017c  b2c0              UXTB     r0,r0                 ;4191
00017e  2806              CMP      r0,#6                 ;4191
000180  d3fa              BCC      |L3.376|
                  |L3.386|
000182  4640              MOV      r0,r8                 ;4196
000184  e8bd47f0          POP      {r4-r10,lr}           ;4196
000188  499a              LDR      r1,|L3.1012|
00018a  f7ffbffe          B.W      TEXT_SetText
                  |L3.398|
00018e  f6401136          MOV      r1,#0x936             ;4203
000192  f7fffffe          BL       WM_GetDialogItem
000196  4680              MOV      r8,r0                 ;4203
000198  7830              LDRB     r0,[r6,#0]            ;4204  ; bit
00019a  2806              CMP      r0,#6                 ;4204
00019c  d217              BCS      |L3.462|
00019e  4649              MOV      r1,r9                 ;4206
0001a0  4894              LDR      r0,|L3.1012|
0001a2  f7fffffe          BL       strcat
0001a6  7838              LDRB     r0,[r7,#0]            ;4207  ; dot_flag
0001a8  b120              CBZ      r0,|L3.436|
0001aa  a193              ADR      r1,|L3.1016|
0001ac  4648              MOV      r0,r9                 ;4207
0001ae  f7fffffe          BL       strcmp
0001b2  b198              CBZ      r0,|L3.476|
                  |L3.436|
0001b4  7838              LDRB     r0,[r7,#0]            ;4212  ; dot_flag
0001b6  b930              CBNZ     r0,|L3.454|
0001b8  a18f              ADR      r1,|L3.1016|
0001ba  4648              MOV      r0,r9                 ;4212
0001bc  f7fffffe          BL       strcmp
0001c0  b908              CBNZ     r0,|L3.454|
0001c2  7830              LDRB     r0,[r6,#0]            ;4214  ; bit
0001c4  7038              STRB     r0,[r7,#0]            ;4214
                  |L3.454|
0001c6  7830              LDRB     r0,[r6,#0]            ;4216  ; bit
0001c8  1c40              ADDS     r0,r0,#1              ;4216
0001ca  7030              STRB     r0,[r6,#0]            ;4216
0001cc  e006              B        |L3.476|
                  |L3.462|
0001ce  7034              STRB     r4,[r6,#0]            ;4219
0001d0  2000              MOVS     r0,#0                 ;4220
                  |L3.466|
0001d2  542c              STRB     r4,[r5,r0]            ;4222
0001d4  1c40              ADDS     r0,r0,#1              ;4220
0001d6  b2c0              UXTB     r0,r0                 ;4220
0001d8  2806              CMP      r0,#6                 ;4220
0001da  d3fa              BCC      |L3.466|
                  |L3.476|
0001dc  4640              MOV      r0,r8                 ;4225
0001de  e8bd47f0          POP      {r4-r10,lr}           ;4225
0001e2  4984              LDR      r1,|L3.1012|
0001e4  f7ffbffe          B.W      TEXT_SetText
0001e8  f6400162          MOV      r1,#0x862             ;4233
0001ec  f7fffffe          BL       WM_GetDialogItem
0001f0  4680              MOV      r8,r0                 ;4233
0001f2  7830              LDRB     r0,[r6,#0]            ;4234  ; bit
0001f4  2806              CMP      r0,#6                 ;4234
0001f6  d21a              BCS      |L3.558|
0001f8  4649              MOV      r1,r9                 ;4236
0001fa  487e              LDR      r0,|L3.1012|
0001fc  f7fffffe          BL       strcat
000200  7838              LDRB     r0,[r7,#0]            ;4237  ; dot_flag
000202  b120              CBZ      r0,|L3.526|
000204  a17c              ADR      r1,|L3.1016|
000206  4648              MOV      r0,r9                 ;4237
000208  f7fffffe          BL       strcmp
00020c  b1b0              CBZ      r0,|L3.572|
                  |L3.526|
00020e  7838              LDRB     r0,[r7,#0]            ;4242  ; dot_flag
000210  b948              CBNZ     r0,|L3.550|
000212  a179              ADR      r1,|L3.1016|
000214  4648              MOV      r0,r9                 ;4242
000216  f7fffffe          BL       strcmp
00021a  b920              CBNZ     r0,|L3.550|
00021c  7830              LDRB     r0,[r6,#0]            ;4244  ; bit
00021e  e001              B        |L3.548|
000220  e03f              B        |L3.674|
000222  e011              B        |L3.584|
                  |L3.548|
000224  7038              STRB     r0,[r7,#0]            ;4244
                  |L3.550|
000226  7830              LDRB     r0,[r6,#0]            ;4246  ; bit
000228  1c40              ADDS     r0,r0,#1              ;4246
00022a  7030              STRB     r0,[r6,#0]            ;4246
00022c  e006              B        |L3.572|
                  |L3.558|
00022e  7034              STRB     r4,[r6,#0]            ;4249
000230  2000              MOVS     r0,#0                 ;4250
                  |L3.562|
000232  542c              STRB     r4,[r5,r0]            ;4252
000234  1c40              ADDS     r0,r0,#1              ;4250
000236  b2c0              UXTB     r0,r0                 ;4250
000238  2806              CMP      r0,#6                 ;4250
00023a  d3fa              BCC      |L3.562|
                  |L3.572|
00023c  4640              MOV      r0,r8                 ;4255
00023e  e8bd47f0          POP      {r4-r10,lr}           ;4255
000242  496c              LDR      r1,|L3.1012|
000244  f7ffbffe          B.W      TEXT_SetText
                  |L3.584|
000248  f6400163          MOV      r1,#0x863             ;4262
00024c  f7fffffe          BL       WM_GetDialogItem
000250  4680              MOV      r8,r0                 ;4262
000252  7830              LDRB     r0,[r6,#0]            ;4263  ; bit
000254  2806              CMP      r0,#6                 ;4263
000256  d217              BCS      |L3.648|
000258  4649              MOV      r1,r9                 ;4265
00025a  4866              LDR      r0,|L3.1012|
00025c  f7fffffe          BL       strcat
000260  7838              LDRB     r0,[r7,#0]            ;4266  ; dot_flag
000262  b120              CBZ      r0,|L3.622|
000264  a164              ADR      r1,|L3.1016|
000266  4648              MOV      r0,r9                 ;4266
000268  f7fffffe          BL       strcmp
00026c  b198              CBZ      r0,|L3.662|
                  |L3.622|
00026e  7838              LDRB     r0,[r7,#0]            ;4271  ; dot_flag
000270  b930              CBNZ     r0,|L3.640|
000272  a161              ADR      r1,|L3.1016|
000274  4648              MOV      r0,r9                 ;4271
000276  f7fffffe          BL       strcmp
00027a  b908              CBNZ     r0,|L3.640|
00027c  7830              LDRB     r0,[r6,#0]            ;4273  ; bit
00027e  7038              STRB     r0,[r7,#0]            ;4273
                  |L3.640|
000280  7830              LDRB     r0,[r6,#0]            ;4275  ; bit
000282  1c40              ADDS     r0,r0,#1              ;4275
000284  7030              STRB     r0,[r6,#0]            ;4275
000286  e006              B        |L3.662|
                  |L3.648|
000288  7034              STRB     r4,[r6,#0]            ;4278
00028a  2000              MOVS     r0,#0                 ;4279
                  |L3.652|
00028c  542c              STRB     r4,[r5,r0]            ;4281
00028e  1c40              ADDS     r0,r0,#1              ;4279
000290  b2c0              UXTB     r0,r0                 ;4279
000292  2806              CMP      r0,#6                 ;4279
000294  d3fa              BCC      |L3.652|
                  |L3.662|
000296  4640              MOV      r0,r8                 ;4284
000298  e8bd47f0          POP      {r4-r10,lr}           ;4284
00029c  4955              LDR      r1,|L3.1012|
00029e  f7ffbffe          B.W      TEXT_SetText
                  |L3.674|
0002a2  f6400164          MOV      r1,#0x864             ;4291
0002a6  f7fffffe          BL       WM_GetDialogItem
0002aa  4680              MOV      r8,r0                 ;4291
0002ac  7830              LDRB     r0,[r6,#0]            ;4292  ; bit
0002ae  2806              CMP      r0,#6                 ;4292
0002b0  d217              BCS      |L3.738|
0002b2  4649              MOV      r1,r9                 ;4294
0002b4  484f              LDR      r0,|L3.1012|
0002b6  f7fffffe          BL       strcat
0002ba  7838              LDRB     r0,[r7,#0]            ;4295  ; dot_flag
0002bc  b120              CBZ      r0,|L3.712|
0002be  a14e              ADR      r1,|L3.1016|
0002c0  4648              MOV      r0,r9                 ;4295
0002c2  f7fffffe          BL       strcmp
0002c6  b198              CBZ      r0,|L3.752|
                  |L3.712|
0002c8  7838              LDRB     r0,[r7,#0]            ;4300  ; dot_flag
0002ca  b930              CBNZ     r0,|L3.730|
0002cc  a14a              ADR      r1,|L3.1016|
0002ce  4648              MOV      r0,r9                 ;4300
0002d0  f7fffffe          BL       strcmp
0002d4  b908              CBNZ     r0,|L3.730|
0002d6  7830              LDRB     r0,[r6,#0]            ;4302  ; bit
0002d8  7038              STRB     r0,[r7,#0]            ;4302
                  |L3.730|
0002da  7830              LDRB     r0,[r6,#0]            ;4304  ; bit
0002dc  1c40              ADDS     r0,r0,#1              ;4304
0002de  7030              STRB     r0,[r6,#0]            ;4304
0002e0  e006              B        |L3.752|
                  |L3.738|
0002e2  7034              STRB     r4,[r6,#0]            ;4307
0002e4  2000              MOVS     r0,#0                 ;4308
                  |L3.742|
0002e6  542c              STRB     r4,[r5,r0]            ;4310
0002e8  1c40              ADDS     r0,r0,#1              ;4308
0002ea  b2c0              UXTB     r0,r0                 ;4308
0002ec  2806              CMP      r0,#6                 ;4308
0002ee  d3fa              BCC      |L3.742|
                  |L3.752|
0002f0  4640              MOV      r0,r8                 ;4313
0002f2  e8bd47f0          POP      {r4-r10,lr}           ;4313
0002f6  493f              LDR      r1,|L3.1012|
0002f8  f7ffbffe          B.W      TEXT_SetText
                  |L3.764|
0002fc  f6400165          MOV      r1,#0x865             ;4320
000300  f7fffffe          BL       WM_GetDialogItem
000304  4680              MOV      r8,r0                 ;4320
000306  7830              LDRB     r0,[r6,#0]            ;4321  ; bit
000308  2806              CMP      r0,#6                 ;4321
00030a  d217              BCS      |L3.828|
00030c  4649              MOV      r1,r9                 ;4323
00030e  4839              LDR      r0,|L3.1012|
000310  f7fffffe          BL       strcat
000314  7838              LDRB     r0,[r7,#0]            ;4324  ; dot_flag
000316  b120              CBZ      r0,|L3.802|
000318  a137              ADR      r1,|L3.1016|
00031a  4648              MOV      r0,r9                 ;4324
00031c  f7fffffe          BL       strcmp
000320  b198              CBZ      r0,|L3.842|
                  |L3.802|
000322  7838              LDRB     r0,[r7,#0]            ;4329  ; dot_flag
000324  b930              CBNZ     r0,|L3.820|
000326  a134              ADR      r1,|L3.1016|
000328  4648              MOV      r0,r9                 ;4329
00032a  f7fffffe          BL       strcmp
00032e  b908              CBNZ     r0,|L3.820|
000330  7830              LDRB     r0,[r6,#0]            ;4331  ; bit
000332  7038              STRB     r0,[r7,#0]            ;4331
                  |L3.820|
000334  7830              LDRB     r0,[r6,#0]            ;4333  ; bit
000336  1c40              ADDS     r0,r0,#1              ;4333
000338  7030              STRB     r0,[r6,#0]            ;4333
00033a  e006              B        |L3.842|
                  |L3.828|
00033c  7034              STRB     r4,[r6,#0]            ;4336
00033e  2000              MOVS     r0,#0                 ;4337
                  |L3.832|
000340  542c              STRB     r4,[r5,r0]            ;4339
000342  1c40              ADDS     r0,r0,#1              ;4337
000344  b2c0              UXTB     r0,r0                 ;4337
000346  2806              CMP      r0,#6                 ;4337
000348  d3fa              BCC      |L3.832|
                  |L3.842|
00034a  4640              MOV      r0,r8                 ;4342
00034c  e8bd47f0          POP      {r4-r10,lr}           ;4342
000350  4928              LDR      r1,|L3.1012|
000352  f7ffbffe          B.W      TEXT_SetText
                  |L3.854|
000356  f6401137          MOV      r1,#0x937             ;4349
00035a  f7fffffe          BL       WM_GetDialogItem
00035e  4680              MOV      r8,r0                 ;4349
000360  7830              LDRB     r0,[r6,#0]            ;4350  ; bit
000362  2806              CMP      r0,#6                 ;4350
000364  d217              BCS      |L3.918|
000366  4649              MOV      r1,r9                 ;4352
000368  4822              LDR      r0,|L3.1012|
00036a  f7fffffe          BL       strcat
00036e  7838              LDRB     r0,[r7,#0]            ;4353  ; dot_flag
000370  b120              CBZ      r0,|L3.892|
000372  a121              ADR      r1,|L3.1016|
000374  4648              MOV      r0,r9                 ;4353
000376  f7fffffe          BL       strcmp
00037a  b198              CBZ      r0,|L3.932|
                  |L3.892|
00037c  7838              LDRB     r0,[r7,#0]            ;4358  ; dot_flag
00037e  b930              CBNZ     r0,|L3.910|
000380  a11d              ADR      r1,|L3.1016|
000382  4648              MOV      r0,r9                 ;4358
000384  f7fffffe          BL       strcmp
000388  b908              CBNZ     r0,|L3.910|
00038a  7830              LDRB     r0,[r6,#0]            ;4360  ; bit
00038c  7038              STRB     r0,[r7,#0]            ;4360
                  |L3.910|
00038e  7830              LDRB     r0,[r6,#0]            ;4362  ; bit
000390  1c40              ADDS     r0,r0,#1              ;4362
000392  7030              STRB     r0,[r6,#0]            ;4362
000394  e006              B        |L3.932|
                  |L3.918|
000396  7034              STRB     r4,[r6,#0]            ;4365
000398  2000              MOVS     r0,#0                 ;4366
                  |L3.922|
00039a  542c              STRB     r4,[r5,r0]            ;4368
00039c  1c40              ADDS     r0,r0,#1              ;4366
00039e  b2c0              UXTB     r0,r0                 ;4366
0003a0  2806              CMP      r0,#6                 ;4366
0003a2  d3fa              BCC      |L3.922|
                  |L3.932|
0003a4  4640              MOV      r0,r8                 ;4371
0003a6  e8bd47f0          POP      {r4-r10,lr}           ;4371
0003aa  4912              LDR      r1,|L3.1012|
0003ac  f7ffbffe          B.W      TEXT_SetText
                  |L3.944|
0003b0  a111              ADR      r1,|L3.1016|
0003b2  4648              MOV      r0,r9
0003b4  f7fffffe          BL       strcmp
0003b8  b908              CBNZ     r0,|L3.958|
;;;4388   					{
;;;4389   						dot_flag = bit;
0003ba  7830              LDRB     r0,[r6,#0]  ; bit
0003bc  7038              STRB     r0,[r7,#0]
                  |L3.958|
;;;4390   					}
;;;4391   					bit ++;
0003be  7830              LDRB     r0,[r6,#0]  ; bit
0003c0  1c40              ADDS     r0,r0,#1
0003c2  7030              STRB     r0,[r6,#0]
0003c4  e006              B        |L3.980|
                  |L3.966|
;;;4392   				}
;;;4393   			}else{
;;;4394   				bit = 0;
0003c6  7034              STRB     r4,[r6,#0]
;;;4395   				for(i=0;i<6;i++)
0003c8  2000              MOVS     r0,#0
                  |L3.970|
;;;4396   				{
;;;4397   					set_limit[i] = '\0';
0003ca  542c              STRB     r4,[r5,r0]
0003cc  1c40              ADDS     r0,r0,#1              ;4395
0003ce  b2c0              UXTB     r0,r0                 ;4395
0003d0  2806              CMP      r0,#6                 ;4395
0003d2  d3fa              BCC      |L3.970|
                  |L3.980|
;;;4398   				}
;;;4399   			}
;;;4400   			TEXT_SetText(hItem,set_limit);
0003d4  4640              MOV      r0,r8
0003d6  e8bd47f0          POP      {r4-r10,lr}
0003da  4906              LDR      r1,|L3.1012|
0003dc  f7ffbffe          B.W      TEXT_SetText
                  |L3.992|
;;;4401               break;
;;;4402           }
;;;4403   	}
;;;4404           
;;;4405   }
0003e0  e8bd87f0          POP      {r4-r10,pc}
                  |L3.996|
                          DCD      set_sw
                  |L3.1000|
                          DCD      ||.data||
                  |L3.1004|
                          DCD      dot_flag
                  |L3.1008|
                          DCD      bit
                  |L3.1012|
                          DCD      set_limit
                  |L3.1016|
0003f8  2e00              DCB      ".",0
0003fa  00                DCB      0
0003fb  00                DCB      0
                          ENDP


                          AREA ||i.PARA_SET||, CODE, READONLY, ALIGN=2

                          REQUIRE _printf_percent
                          REQUIRE _printf_widthprec
                          REQUIRE _printf_f
                          REQUIRE _printf_fp_dec
                          REQUIRE _printf_pre_padding
                          REQUIRE _printf_d
                          REQUIRE _printf_int_dec
                  PARA_SET PROC
;;;2181   
;;;2182   void PARA_SET(void) {
000000  e92d4ff0          PUSH     {r4-r11,lr}
000004  ed2d8b06          VPUSH    {d8-d10}
000008  b087              SUB      sp,sp,#0x1c
;;;2183                   vu8 i;
;;;2184                   char buf[5];
;;;2185     
;;;2186   
;;;2187                   float dis_max_v = (float)set_max_v/1000;
00000a  4efc              LDR      r6,|L4.1020|
00000c  6bb0              LDR      r0,[r6,#0x38]  ; Run_Control
00000e  ee000a10          VMOV     s0,r0
000012  eeb80a40          VCVT.F32.U32 s0,s0
000016  eddf0afa          VLDR     s1,|L4.1024|
00001a  ee80aa20          VDIV.F32 s20,s0,s1
;;;2188                   float dis_min_v = (float)set_min_v/1000;
00001e  6bf0              LDR      r0,[r6,#0x3c]  ; Run_Control
000020  ee000a10          VMOV     s0,r0
000024  eeb80a40          VCVT.F32.U32 s0,s0
000028  eddf0af5          VLDR     s1,|L4.1024|
00002c  ee809a20          VDIV.F32 s18,s0,s1
;;;2189                   vu16 dis_max_r = set_max_r;
000030  6c30              LDR      r0,[r6,#0x40]  ; Run_Control
000032  9003              STR      r0,[sp,#0xc]
;;;2190                   vu16 dis_min_r = set_min_r;
000034  6c70              LDR      r0,[r6,#0x44]  ; Run_Control
000036  9002              STR      r0,[sp,#8]
;;;2191                   float dis_max_c = (float)set_max_c/1000;
000038  6cb0              LDR      r0,[r6,#0x48]  ; Run_Control
00003a  ee000a10          VMOV     s0,r0
00003e  eeb80a40          VCVT.F32.U32 s0,s0
000042  eddf0aef          VLDR     s1,|L4.1024|
000046  eec0aa20          VDIV.F32 s21,s0,s1
;;;2192                   float dis_min_c = (float)set_min_c/1000;
00004a  6cf0              LDR      r0,[r6,#0x4c]  ; Run_Control
00004c  ee000a10          VMOV     s0,r0
000050  eeb80a40          VCVT.F32.U32 s0,s0
000054  eddf0aea          VLDR     s1,|L4.1024|
000058  eec09a20          VDIV.F32 s19,s0,s1
;;;2193       
;;;2194                   switch(set_sw){
00005c  48e9              LDR      r0,|L4.1028|
00005e  7801              LDRB     r1,[r0,#0]  ; set_sw
;;;2195                       case set_1:
;;;2196                       {
;;;2197                           switch(para_set1){
;;;2198                               case set_1_on:
;;;2199                               {
;;;2200                                   WM_HWIN hItem;
;;;2201   //                                WM_InvalidateWindow(hWinset);
;;;2202                                   hItem = WM_GetDialogItem(hWinset, ID_TEXT_28);
;;;2203                                   TEXT_SetText(hItem,"OFF");
;;;2204                                   para_set1 = set_1_off;
;;;2205                                   Wrtite_S();
;;;2206                                   break;
;;;2207                               }
;;;2208                               case set_1_off:
;;;2209                               {
;;;2210                                   WM_HWIN hItem;
;;;2211   //                                WM_InvalidateWindow(hWinset);
;;;2212                                   hItem = WM_GetDialogItem(hWinset, ID_TEXT_28);
;;;2213                                   TEXT_SetText(hItem,"ON");
;;;2214                                   para_set1 = set_1_on;
;;;2215                                   Wrtite_S();
;;;2216                                   break;
;;;2217                               }
;;;2218                           }                        
;;;2219                           break;
;;;2220                       }
;;;2221                       case set_2:
;;;2222                       {
;;;2223                           switch(para_set2){
;;;2224                               case set_2_on:
;;;2225                               {
;;;2226                                   WM_HWIN hItem;
;;;2227   //                                WM_InvalidateWindow(hWinset);
;;;2228                                   hItem = WM_GetDialogItem(hWinset, ID_TEXT_29);
;;;2229                                   TEXT_SetText(hItem,"OFF");
;;;2230                                   para_set2 = set_2_off;
;;;2231                                   Write_oct();
;;;2232                                   break;
;;;2233                               }
;;;2234                               case set_2_off:
;;;2235                               {
;;;2236                                   WM_HWIN hItem;
;;;2237   //                                WM_InvalidateWindow(hWinset);
;;;2238                                   hItem = WM_GetDialogItem(hWinset, ID_TEXT_29);
;;;2239                                   TEXT_SetText(hItem,"ON");
;;;2240                                   para_set2 = set_2_on;
;;;2241                                   Write_oct();
;;;2242                                   break;
;;;2243                               }                       
;;;2244                           }
;;;2245                           break;
;;;2246                       }
;;;2247                       case set_3:
;;;2248                       {
;;;2249                           switch(para_set4){
;;;2250                           case set_4_on:
;;;2251                           {
;;;2252                               WM_HWIN hItem;
;;;2253   //                            WM_InvalidateWindow(hWinset);
;;;2254                               hItem = WM_GetDialogItem(hWinset, ID_TEXT_30);
;;;2255                               TEXT_SetText(hItem,"OFF");
;;;2256                               para_set4 = set_4_off;
;;;2257                               Write_alarm();
;;;2258                               break;
;;;2259                           }
;;;2260                           case set_4_off:
;;;2261                           {
;;;2262                               WM_HWIN hItem;
;;;2263   //                            WM_InvalidateWindow(hWinset);
;;;2264                               hItem = WM_GetDialogItem(hWinset, ID_TEXT_30);
;;;2265                               TEXT_SetText(hItem,"ON");
;;;2266                               para_set4 = set_4_on;
;;;2267                               Write_alarm();
;;;2268                               break;
;;;2269                           }
;;;2270   //                        break;
;;;2271                           }
;;;2272                       break;
;;;2273                       }
;;;2274                       case set_4:
;;;2275                       {
;;;2276                               WM_HWIN hItem;
;;;2277   //                            WM_InvalidateWindow(hWinset);
;;;2278                               hItem = WM_GetDialogItem(hWinset, ID_TEXT_24);
;;;2279                               TEXT_SetBkColor(hItem,GUI_INVALID_COLOR);//ÈÄâÈ°πËÉåÊôØËâ≤ËÆæ‰∏∫ÈÄèÊòé
;;;2280                               TEXT_SetTextColor(hItem, GUI_WHITE);
;;;2281                  
;;;2282                               hItem = WM_GetDialogItem(hWinset, ID_TEXT_35);
;;;2283                               TEXT_SetBkColor(hItem,0x00BFFFFF);//ÈÄâÈ°πËÉåÊôØËâ≤ËÆæ‰∏∫Á±≥Ëâ≤
;;;2284                               TEXT_SetTextColor(hItem, GUI_BLACK);
;;;2285                               
;;;2286                               for(i=0;i<6;i++){
;;;2287                                   set_limit[i] = '\0';
;;;2288                               }
;;;2289                               set_sw = set_12;
;;;2290                               break;                        
;;;2291                       }
;;;2292                       case set_12:
;;;2293                       {
;;;2294                           WM_HWIN hItem;
;;;2295   //                        WM_InvalidateWindow(hWinset);
;;;2296   
;;;2297                           hItem = WM_GetDialogItem(hWinset, ID_TEXT_35);
;;;2298                           TEXT_SetBkColor(hItem,GUI_INVALID_COLOR);//ÈÄâÈ°πËÉåÊôØËâ≤ËÆæ‰∏∫ÈÄèÊòé
;;;2299                           TEXT_SetTextColor(hItem, GUI_WHITE);
;;;2300   						if(dot_flag == 0){
;;;2301   							set_max_v = atoi(set_limit)*1000;					
;;;2302   						}else if(dot_flag != 0){
;;;2303   							memset(buf, '\0', sizeof(buf));
;;;2304   							strncpy(buf,set_limit,dot_flag + 2);
;;;2305   							set_max_v = atof(buf)*1000;
000060  ed9f8be9          VLDR     d8,|L4.1032|
000064  48eb              LDR      r0,|L4.1044|
;;;2306   						}
;;;2307   						if(set_max_v > 62000)
;;;2308   						{
;;;2309   							set_max_v = 62000;
;;;2310   						}
;;;2311   						dis_max_v = (float)set_max_v/1000;
;;;2312   //                        if(set_max_v > 80000)
;;;2313   //                        {
;;;2314   //                            set_max_v = 80000;
;;;2315   //                            TEXT_SetText(hItem,"80.00");                                                       
;;;2316   //                        }
;;;2317                           sprintf(buf,"%.3f",dis_max_v);
;;;2318                           TEXT_SetText(hItem,buf);
;;;2319   						
;;;2320   						hItem = WM_GetDialogItem(hWinset, ID_TEXT_36);
;;;2321                           TEXT_SetBkColor(hItem,GUI_INVALID_COLOR);//ÈÄâÈ°πËÉåÊôØËâ≤ËÆæ‰∏∫ÈÄèÊòé
;;;2322                           TEXT_SetTextColor(hItem, GUI_WHITE);
;;;2323                          
;;;2324                           sprintf(buf,"%.3f",dis_min_v);
;;;2325                           TEXT_SetText(hItem,buf);
;;;2326                           
;;;2327                           hItem = WM_GetDialogItem(hWinset, ID_TEXT_24);
;;;2328                           TEXT_SetBkColor(hItem,0x00BFFFFF);//ÈÄâÈ°πËÉåÊôØËâ≤ËÆæ‰∏∫Á±≥Ëâ≤
;;;2329                           TEXT_SetTextColor(hItem, GUI_BLACK);
;;;2330                           Write_Limits();
;;;2331                           set_sw = set_4;
;;;2332                           bit = 0;
000066  f8df83a8          LDR      r8,|L4.1040|
00006a  2400              MOVS     r4,#0                 ;2202
00006c  6842              LDR      r2,[r0,#4]            ;2194
00006e  f04f0b03          MOV      r11,#3                ;2331
000072  f06f477f          MVN      r7,#0xff000000        ;2280
000076  f06f4970          MVN      r9,#0xf0000000        ;2279
00007a  290f              CMP      r1,#0xf               ;2194
00007c  d07e              BEQ      |L4.380|
00007e  dc0e              BGT      |L4.158|
000080  4de5              LDR      r5,|L4.1048|
000082  f04f0aff          MOV      r10,#0xff             ;2214
000086  290f              CMP      r1,#0xf               ;2194
000088  d279              BCS      |L4.382|
00008a  e8dff001          TBB      [pc,r1]               ;2194
00008e  f9f8              DCB      0xf9,0xf8
000090  f7f6f5f4          DCB      0xf7,0xf6,0xf5,0xf4
000094  f3f2f178          DCB      0xf3,0xf2,0xf1,0x78
000098  78f0efee          DCB      0x78,0xf0,0xef,0xee
00009c  ed00              DCB      0xed,0x00
                  |L4.158|
;;;2333                           dot_flag = 0;
;;;2334                           break; 
;;;2335                       }
;;;2336   					 case set_13:
;;;2337                       {
;;;2338                           WM_HWIN hItem;
;;;2339   //                        WM_InvalidateWindow(hWinset);
;;;2340   
;;;2341                           hItem = WM_GetDialogItem(hWinset, ID_TEXT_35);
;;;2342                           TEXT_SetBkColor(hItem,GUI_INVALID_COLOR);//ÈÄâÈ°πËÉåÊôØËâ≤ËÆæ‰∏∫ÈÄèÊòé
;;;2343                           TEXT_SetTextColor(hItem, GUI_WHITE);
;;;2344   //                        if(set_max_v > 80000)
;;;2345   //                        {
;;;2346   //                            set_max_v = 80000;
;;;2347   //                            TEXT_SetText(hItem,"80.00");                                                       
;;;2348   //                        }
;;;2349   						if(dot_flag == 0){
;;;2350   							set_min_v = atoi(set_limit)*1000;					
;;;2351   						}else if(dot_flag != 0){
;;;2352   							memset(buf, '\0', sizeof(buf));
;;;2353   							strncpy(buf,set_limit,dot_flag + 2);
;;;2354   							set_min_v = atof(buf)*1000;
;;;2355   						}
;;;2356   						if(set_min_v > 62000)
;;;2357   						{
;;;2358   							set_min_v = 62000;
;;;2359   						}
;;;2360   						dis_min_v = (float)set_min_v/1000;
;;;2361                           sprintf(buf,"%.3f",dis_max_v);
;;;2362                           TEXT_SetText(hItem,buf);
;;;2363   						
;;;2364   						hItem = WM_GetDialogItem(hWinset, ID_TEXT_36);
;;;2365                           TEXT_SetBkColor(hItem,GUI_INVALID_COLOR);//ÈÄâÈ°πËÉåÊôØËâ≤ËÆæ‰∏∫ÈÄèÊòé
;;;2366                           TEXT_SetTextColor(hItem, GUI_WHITE);
;;;2367                          
;;;2368                           sprintf(buf,"%.3f",dis_min_v);
;;;2369                           TEXT_SetText(hItem,buf);
;;;2370   						
;;;2371                       
;;;2372                           hItem = WM_GetDialogItem(hWinset, ID_TEXT_24);
;;;2373                           TEXT_SetBkColor(hItem,0x00BFFFFF);//ÈÄâÈ°πËÉåÊôØËâ≤ËÆæ‰∏∫Á±≥Ëâ≤
;;;2374                           TEXT_SetTextColor(hItem, GUI_BLACK);
;;;2375      
;;;2376                           Write_Limits();
;;;2377                           set_sw = set_4;
;;;2378                           bit = 0;
;;;2379                           dot_flag = 0;
;;;2380                           break; 
;;;2381                       }
;;;2382   					
;;;2383   					case set_82:
;;;2384                       {
;;;2385                           WM_HWIN hItem;
;;;2386   //                        WM_InvalidateWindow(hWinset);
;;;2387   
;;;2388                           hItem = WM_GetDialogItem(hWinset, ID_TEXT_154);
;;;2389                           TEXT_SetBkColor(hItem,GUI_INVALID_COLOR);//ÈÄâÈ°πËÉåÊôØËâ≤ËÆæ‰∏∫ÈÄèÊòé
;;;2390                           TEXT_SetTextColor(hItem, GUI_WHITE);
;;;2391   						if(dot_flag == 0){
;;;2392   							set_max_lv = atoi(set_limit)*1000;					
;;;2393   						}else if(dot_flag != 0){
;;;2394   							memset(buf, '\0', sizeof(buf));
;;;2395   							strncpy(buf,set_limit,dot_flag + 3);
;;;2396   							set_max_lv = atof(buf)*1000;
;;;2397   						}
;;;2398                           sprintf(buf,"%.3f",(float)set_max_lv/1000);
;;;2399                           TEXT_SetText(hItem,buf);
;;;2400   						
;;;2401   						hItem = WM_GetDialogItem(hWinset, ID_TEXT_155);
;;;2402                           TEXT_SetBkColor(hItem,GUI_INVALID_COLOR);//ÈÄâÈ°πËÉåÊôØËâ≤ËÆæ‰∏∫ÈÄèÊòé
;;;2403                           TEXT_SetTextColor(hItem, GUI_WHITE);
;;;2404                          
;;;2405                           sprintf(buf,"%.3f",(float)set_min_lv/1000);
;;;2406                           TEXT_SetText(hItem,buf);
;;;2407                           
;;;2408                           hItem = WM_GetDialogItem(hWinset, ID_TEXT_25);
;;;2409                           TEXT_SetBkColor(hItem,0x00BFFFFF);//ÈÄâÈ°πËÉåÊôØËâ≤ËÆæ‰∏∫Á±≥Ëâ≤
;;;2410                           TEXT_SetTextColor(hItem, GUI_BLACK);
;;;2411                           Flash_Write32BitDatas(FLASH_USER_START_ADDR,40, InFlashSave);
;;;2412                           set_sw = set_5;
;;;2413                           bit = 0;
;;;2414                           dot_flag = 0;
;;;2415                           break; 
;;;2416                       }
;;;2417   					 case set_83:
;;;2418                       {
;;;2419                           WM_HWIN hItem;
;;;2420   //                        WM_InvalidateWindow(hWinset);
;;;2421   
;;;2422                           hItem = WM_GetDialogItem(hWinset, ID_TEXT_154);
;;;2423                           TEXT_SetBkColor(hItem,GUI_INVALID_COLOR);//ÈÄâÈ°πËÉåÊôØËâ≤ËÆæ‰∏∫ÈÄèÊòé
;;;2424                           TEXT_SetTextColor(hItem, GUI_WHITE);
;;;2425   						if(dot_flag == 0){
;;;2426   							set_min_lv = atoi(set_limit)*1000;					
;;;2427   						}else if(dot_flag != 0){
;;;2428   							memset(buf, '\0', sizeof(buf));
;;;2429   							strncpy(buf,set_limit,dot_flag + 3);
;;;2430   							set_min_lv = atof(buf)*1000;
;;;2431   						}
;;;2432                           sprintf(buf,"%.3f",(float)set_max_lv/1000);
;;;2433                           TEXT_SetText(hItem,buf);
;;;2434   						
;;;2435   						hItem = WM_GetDialogItem(hWinset, ID_TEXT_155);
;;;2436                           TEXT_SetBkColor(hItem,GUI_INVALID_COLOR);//ÈÄâÈ°πËÉåÊôØËâ≤ËÆæ‰∏∫ÈÄèÊòé
;;;2437                           TEXT_SetTextColor(hItem, GUI_WHITE);
;;;2438                          
;;;2439                           sprintf(buf,"%.3f",(float)set_min_lv/1000);
;;;2440                           TEXT_SetText(hItem,buf);
;;;2441   						
;;;2442                       
;;;2443                           hItem = WM_GetDialogItem(hWinset, ID_TEXT_25);
;;;2444                           TEXT_SetBkColor(hItem,0x00BFFFFF);//ÈÄâÈ°πËÉåÊôØËâ≤ËÆæ‰∏∫Á±≥Ëâ≤
;;;2445                           TEXT_SetTextColor(hItem, GUI_BLACK);
;;;2446      
;;;2447                           Flash_Write32BitDatas(FLASH_USER_START_ADDR,40, InFlashSave);
;;;2448                           set_sw = set_5;
;;;2449                           bit = 0;
;;;2450                           dot_flag = 0;
;;;2451                           break; 
;;;2452                       }
;;;2453   					
;;;2454                       case set_5:
;;;2455                       {
;;;2456                               WM_HWIN hItem;
;;;2457   //                            WM_InvalidateWindow(hWinset);
;;;2458                               hItem = WM_GetDialogItem(hWinset, ID_TEXT_25);
;;;2459                               TEXT_SetBkColor(hItem,GUI_INVALID_COLOR);//ÈÄâÈ°πËÉåÊôØËâ≤ËÆæ‰∏∫ÈÄèÊòé
;;;2460                               TEXT_SetTextColor(hItem, GUI_WHITE);
;;;2461                  
;;;2462                               hItem = WM_GetDialogItem(hWinset, ID_TEXT_154);
;;;2463                               TEXT_SetBkColor(hItem,0x00BFFFFF);//ÈÄâÈ°πËÉåÊôØËâ≤ËÆæ‰∏∫Á±≥Ëâ≤
;;;2464                               TEXT_SetTextColor(hItem, GUI_BLACK);
;;;2465   
;;;2466                               for(i=0;i<6;i++){
;;;2467                                   set_limit[i] = '\0';
;;;2468                               }
;;;2469                               set_sw = set_82;
;;;2470                               break;                        
;;;2471                       }
;;;2472                      
;;;2473                       case set_6:
;;;2474                       {
;;;2475                               WM_HWIN hItem;
;;;2476   //                            WM_InvalidateWindow(hWinset);
;;;2477                               hItem = WM_GetDialogItem(hWinset, ID_TEXT_26);
;;;2478                               TEXT_SetBkColor(hItem,GUI_INVALID_COLOR);//ÈÄâÈ°πËÉåÊôØËâ≤ËÆæ‰∏∫ÈÄèÊòé
;;;2479                               TEXT_SetTextColor(hItem, GUI_WHITE);
;;;2480                  
;;;2481                               hItem = WM_GetDialogItem(hWinset, ID_TEXT_37);
;;;2482                               TEXT_SetBkColor(hItem,0x00BFFFFF);//ÈÄâÈ°πËÉåÊôØËâ≤ËÆæ‰∏∫Á±≥Ëâ≤
;;;2483                               TEXT_SetTextColor(hItem, GUI_BLACK);
;;;2484                               
;;;2485                               for(i=0;i<6;i++){
;;;2486                                   set_limit[i] = '\0';
;;;2487                               }
;;;2488                               set_sw = set_14;
;;;2489                               break;                        
;;;2490                       }
;;;2491                       case set_14:
;;;2492                       {
;;;2493                           WM_HWIN hItem;
;;;2494   //                        WM_InvalidateWindow(hWinset);
;;;2495                           hItem = WM_GetDialogItem(hWinset, ID_TEXT_37);
;;;2496                           TEXT_SetBkColor(hItem,GUI_INVALID_COLOR);//ÈÄâÈ°πËÉåÊôØËâ≤ËÆæ‰∏∫ÈÄèÊòé
;;;2497                           TEXT_SetTextColor(hItem, GUI_WHITE);
;;;2498   						if(dot_flag == 0){
;;;2499   							set_max_r = atoi(set_limit);					
;;;2500   						}else if(dot_flag != 0){
;;;2501   							memset(buf, '\0', sizeof(buf));
;;;2502   							strncpy(buf,set_limit,dot_flag);
;;;2503   							set_max_r = atof(buf);
;;;2504   						}
;;;2505                           sprintf(buf,"%4d",set_max_r);
;;;2506                           TEXT_SetText(hItem,buf);
;;;2507                  
;;;2508                           hItem = WM_GetDialogItem(hWinset, ID_TEXT_26);
;;;2509                           TEXT_SetBkColor(hItem,0x00BFFFFF);//ÈÄâÈ°πËÉåÊôØËâ≤ËÆæ‰∏∫Á±≥Ëâ≤
;;;2510                           TEXT_SetTextColor(hItem, GUI_BLACK);
;;;2511   
;;;2512                           Write_Limits();
;;;2513                           set_sw = set_6;
;;;2514                           bit = 0;
;;;2515                           dot_flag = 0;
;;;2516                           break; 
;;;2517                       }
;;;2518                       case set_7:
;;;2519                       {
;;;2520                               WM_HWIN hItem;
;;;2521   //                            WM_InvalidateWindow(hWinset);
;;;2522                               hItem = WM_GetDialogItem(hWinset, ID_TEXT_27);
;;;2523                               TEXT_SetBkColor(hItem,GUI_INVALID_COLOR);//ÈÄâÈ°πËÉåÊôØËâ≤ËÆæ‰∏∫ÈÄèÊòé
;;;2524                               TEXT_SetTextColor(hItem, GUI_WHITE);
;;;2525                  
;;;2526                               hItem = WM_GetDialogItem(hWinset, ID_TEXT_38);
;;;2527                               TEXT_SetBkColor(hItem,0x00BFFFFF);//ÈÄâÈ°πËÉåÊôØËâ≤ËÆæ‰∏∫Á±≥Ëâ≤
;;;2528                               TEXT_SetTextColor(hItem, GUI_BLACK);
;;;2529                               
;;;2530                               for(i=0;i<6;i++){
;;;2531                                   set_limit[i] = '\0';
;;;2532                               }
;;;2533                               set_sw = set_15;
;;;2534                               break;                        
;;;2535                       }
;;;2536                       case set_15:
;;;2537                       {
;;;2538                           WM_HWIN hItem;
;;;2539   //                        WM_InvalidateWindow(hWinset);
;;;2540                           hItem = WM_GetDialogItem(hWinset, ID_TEXT_38);
;;;2541                           TEXT_SetBkColor(hItem,GUI_INVALID_COLOR);//ÈÄâÈ°πËÉåÊôØËâ≤ËÆæ‰∏∫ÈÄèÊòé
;;;2542                           TEXT_SetTextColor(hItem, GUI_WHITE);
;;;2543                           if(dot_flag == 0){
;;;2544   							set_min_r = atoi(set_limit);					
;;;2545   						}else if(dot_flag != 0){
;;;2546   							memset(buf, '\0', sizeof(buf));
;;;2547   							strncpy(buf,set_limit,dot_flag);
;;;2548   							set_min_r = atof(buf);
;;;2549   						}
;;;2550                           sprintf(buf,"%4d",set_min_r);
;;;2551                           TEXT_SetText(hItem,buf);
;;;2552                           
;;;2553                           hItem = WM_GetDialogItem(hWinset, ID_TEXT_27);
;;;2554                           TEXT_SetBkColor(hItem,0x00BFFFFF);//ÈÄâÈ°πËÉåÊôØËâ≤ËÆæ‰∏∫Á±≥Ëâ≤
;;;2555                           TEXT_SetTextColor(hItem, GUI_BLACK);
;;;2556   
;;;2557                           Write_Limits();
;;;2558                           set_sw = set_7;
;;;2559                           bit = 0;
;;;2560                           dot_flag = 0;
;;;2561                           break; 
;;;2562                       }
;;;2563                       case set_8:
;;;2564                       {
;;;2565                               WM_HWIN hItem;
;;;2566   //                            WM_InvalidateWindow(hWinset);
;;;2567                               hItem = WM_GetDialogItem(hWinset, ID_TEXT_31);
;;;2568                               TEXT_SetBkColor(hItem,GUI_INVALID_COLOR);//ÈÄâÈ°πËÉåÊôØËâ≤ËÆæ‰∏∫ÈÄèÊòé
;;;2569                               TEXT_SetTextColor(hItem, GUI_WHITE);
;;;2570                  
;;;2571                               hItem = WM_GetDialogItem(hWinset, ID_TEXT_39);
;;;2572                               TEXT_SetBkColor(hItem,0x00BFFFFF);//ÈÄâÈ°πËÉåÊôØËâ≤ËÆæ‰∏∫Á±≥Ëâ≤
;;;2573                               TEXT_SetTextColor(hItem, GUI_BLACK);
;;;2574   
;;;2575                               for(i=0;i<6;i++){
;;;2576                                   set_limit[i] = '\0';
;;;2577                               }
;;;2578                               set_sw = set_16;
;;;2579                               break;                        
;;;2580                       }
;;;2581                       case set_16:
;;;2582                       {
;;;2583                           WM_HWIN hItem;
;;;2584   //                        WM_InvalidateWindow(hWinset);
;;;2585                           hItem = WM_GetDialogItem(hWinset, ID_TEXT_39);
;;;2586                           TEXT_SetBkColor(hItem,GUI_INVALID_COLOR);//ÈÄâÈ°πËÉåÊôØËâ≤ËÆæ‰∏∫ÈÄèÊòé
;;;2587                           TEXT_SetTextColor(hItem, GUI_WHITE);
;;;2588   						if(dot_flag == 0){
;;;2589   							set_max_c = atoi(set_limit)*1000;					
;;;2590   						}else if(dot_flag != 0){
;;;2591   							memset(buf, '\0', sizeof(buf));
;;;2592   							strncpy(buf,set_limit,dot_flag + 3);
;;;2593   							set_max_c = atof(buf)*1000;
;;;2594   						}
;;;2595                           if(set_max_c > 30000)
;;;2596                           {
;;;2597                               set_max_c = 30000;
;;;2598                           }
;;;2599   						dis_max_c = (float)set_max_c/1000;
;;;2600                           sprintf(buf,"%.3f",dis_max_c);
;;;2601                           TEXT_SetText(hItem,buf);
;;;2602   						
;;;2603   						 hItem = WM_GetDialogItem(hWinset, ID_TEXT_40);
;;;2604                           TEXT_SetBkColor(hItem,GUI_INVALID_COLOR);//ÈÄâÈ°πËÉåÊôØËâ≤ËÆæ‰∏∫ÈÄèÊòé
;;;2605                           TEXT_SetTextColor(hItem, GUI_WHITE);
;;;2606                           if(set_min_c >= set_max_c)
;;;2607                           {
;;;2608                               set_min_c = 0;
;;;2609                               TEXT_SetText(hItem,"0.000");
;;;2610                           }
;;;2611                           
;;;2612                           sprintf(buf,"%.3f",dis_min_c);
;;;2613                           TEXT_SetText(hItem,buf);
;;;2614   						
;;;2615   						
;;;2616                           
;;;2617                           hItem = WM_GetDialogItem(hWinset, ID_TEXT_31);
;;;2618                           TEXT_SetBkColor(hItem,0x00BFFFFF);//ÈÄâÈ°πËÉåÊôØËâ≤ËÆæ‰∏∫Á±≥Ëâ≤
;;;2619                           TEXT_SetTextColor(hItem, GUI_BLACK);
;;;2620   
;;;2621                           Write_Limits();
;;;2622                           set_sw = set_8;
;;;2623                           bit = 0;
;;;2624                           dot_flag = 0;
;;;2625                           break; 
;;;2626                       }
;;;2627   					
;;;2628   					case set_17:
;;;2629                       {
;;;2630                           WM_HWIN hItem;
;;;2631   //                        WM_InvalidateWindow(hWinset);
;;;2632                           hItem = WM_GetDialogItem(hWinset, ID_TEXT_39);
;;;2633                           TEXT_SetBkColor(hItem,GUI_INVALID_COLOR);//ÈÄâÈ°πËÉåÊôØËâ≤ËÆæ‰∏∫ÈÄèÊòé
;;;2634                           TEXT_SetTextColor(hItem, GUI_WHITE);
;;;2635   //                        if(set_max_c > 60000)
;;;2636   //                        {
;;;2637   //                            set_max_c = 60000;
;;;2638   //                            TEXT_SetText(hItem,"60.00");
;;;2639   //                        }
;;;2640                           sprintf(buf,"%.3f",dis_max_c);
;;;2641                           TEXT_SetText(hItem,buf);
;;;2642   						
;;;2643   						 hItem = WM_GetDialogItem(hWinset, ID_TEXT_40);
;;;2644                           TEXT_SetBkColor(hItem,GUI_INVALID_COLOR);//ÈÄâÈ°πËÉåÊôØËâ≤ËÆæ‰∏∫ÈÄèÊòé
;;;2645                           TEXT_SetTextColor(hItem, GUI_WHITE);
;;;2646   						if(dot_flag == 0){
;;;2647   							set_min_c = atoi(set_limit)*1000;					
;;;2648   						}else if(dot_flag != 0){
;;;2649   							memset(buf, '\0', sizeof(buf));
;;;2650   							strncpy(buf,set_limit,dot_flag + 3);
;;;2651   							set_min_c = atof(buf)*1000;
;;;2652   						}
;;;2653                           if(set_max_c > 30000)
;;;2654                           {
;;;2655                               set_max_c = 30000;
;;;2656                           }
;;;2657                           if(set_min_c >= set_max_c)
;;;2658                           {
;;;2659                               set_min_c = 0;
;;;2660                           }
;;;2661                           dis_min_c = (float)set_min_c/1000;
;;;2662                           sprintf(buf,"%.3f",dis_min_c);
;;;2663                           TEXT_SetText(hItem,buf);
;;;2664   						
;;;2665                           hItem = WM_GetDialogItem(hWinset, ID_TEXT_31);
;;;2666                           TEXT_SetBkColor(hItem,0x00BFFFFF);//ÈÄâÈ°πËÉåÊôØËâ≤ËÆæ‰∏∫Á±≥Ëâ≤
;;;2667                           TEXT_SetTextColor(hItem, GUI_BLACK);
;;;2668   
;;;2669                           Write_Limits();
;;;2670                           set_sw = set_8;
;;;2671                           bit = 0;
;;;2672                           dot_flag = 0;
;;;2673                           break; 
;;;2674                       }
;;;2675   					
;;;2676                       case set_9:
;;;2677                       {
;;;2678                               WM_HWIN hItem;
;;;2679   //                            WM_InvalidateWindow(hWinset);
;;;2680                               hItem = WM_GetDialogItem(hWinset, ID_TEXT_32);
;;;2681                               TEXT_SetBkColor(hItem,GUI_INVALID_COLOR);//ÈÄâÈ°πËÉåÊôØËâ≤ËÆæ‰∏∫ÈÄèÊòé
;;;2682                               TEXT_SetTextColor(hItem, GUI_WHITE);
;;;2683                               
;;;2684                               hItem = WM_GetDialogItem(hWinset, ID_TEXT_156);
;;;2685                               TEXT_SetBkColor(hItem,0x00BFFFFF);//ÈÄâÈ°πËÉåÊôØËâ≤ËÆæ‰∏∫Á±≥Ëâ≤
;;;2686                               TEXT_SetTextColor(hItem, GUI_BLACK);
;;;2687   
;;;2688                               for(i=0;i<6;i++){
;;;2689                                   set_limit[i] = '\0';
;;;2690                               }
;;;2691                               set_sw = set_84;
;;;2692                               break;                        
;;;2693                       }
;;;2694   					
;;;2695   					case set_84:
;;;2696                       {
;;;2697                           WM_HWIN hItem;
;;;2698   //                        WM_InvalidateWindow(hWinset);
;;;2699                           hItem = WM_GetDialogItem(hWinset, ID_TEXT_156);
;;;2700                           TEXT_SetBkColor(hItem,GUI_INVALID_COLOR);//ÈÄâÈ°πËÉåÊôØËâ≤ËÆæ‰∏∫ÈÄèÊòé
;;;2701                           TEXT_SetTextColor(hItem, GUI_WHITE);
;;;2702   						if(dot_flag == 0){
;;;2703   							set_max_pc = atoi(set_limit)*1000;					
;;;2704   						}else if(dot_flag != 0){
;;;2705   							memset(buf, '\0', sizeof(buf));
;;;2706   							strncpy(buf,set_limit,dot_flag + 3);
;;;2707   							set_max_pc = atof(buf)*1000;
;;;2708   						}
;;;2709                           if(set_max_pc > 10000)
;;;2710                           {
;;;2711                               set_max_pc = 10000;
;;;2712                           }
;;;2713   //						dis_max_c = (float)set_max_c/1000;
;;;2714   //                        if(set_max_pc > 60000)
;;;2715   //                        {
;;;2716   //                            set_max_pc = 60000;
;;;2717   //                            TEXT_SetText(hItem,"60.000");
;;;2718   //                        }
;;;2719                           sprintf(buf,"%.3f",(float)set_max_pc/1000);
;;;2720                           TEXT_SetText(hItem,buf);
;;;2721   						
;;;2722   						 hItem = WM_GetDialogItem(hWinset, ID_TEXT_157);
;;;2723                           TEXT_SetBkColor(hItem,GUI_INVALID_COLOR);//ÈÄâÈ°πËÉåÊôØËâ≤ËÆæ‰∏∫ÈÄèÊòé
;;;2724                           TEXT_SetTextColor(hItem, GUI_WHITE);
;;;2725                           if(set_min_pc >= set_max_pc)
;;;2726                           {
;;;2727                               set_min_pc = 0;
;;;2728                               TEXT_SetText(hItem,"0.000");
;;;2729                           }
;;;2730                           
;;;2731                           sprintf(buf,"%.3f",(float)set_min_pc/1000);
;;;2732                           TEXT_SetText(hItem,buf);
;;;2733   						
;;;2734   						
;;;2735                           
;;;2736                           hItem = WM_GetDialogItem(hWinset, ID_TEXT_32);
;;;2737                           TEXT_SetBkColor(hItem,0x00BFFFFF);//ÈÄâÈ°πËÉåÊôØËâ≤ËÆæ‰∏∫Á±≥Ëâ≤
;;;2738                           TEXT_SetTextColor(hItem, GUI_BLACK);
;;;2739   
;;;2740                           Flash_Write32BitDatas(FLASH_USER_START_ADDR,40, InFlashSave);
;;;2741                           set_sw = set_9;
;;;2742                           bit = 0;
;;;2743                           dot_flag = 0;
;;;2744                           break; 
;;;2745                       }
;;;2746   					
;;;2747   					case set_85:
;;;2748                       {
;;;2749                           WM_HWIN hItem;
;;;2750   //                        WM_InvalidateWindow(hWinset);
;;;2751                           hItem = WM_GetDialogItem(hWinset, ID_TEXT_156);
;;;2752                           TEXT_SetBkColor(hItem,GUI_INVALID_COLOR);//ÈÄâÈ°πËÉåÊôØËâ≤ËÆæ‰∏∫ÈÄèÊòé
;;;2753                           TEXT_SetTextColor(hItem, GUI_WHITE);
;;;2754   //                        if(set_max_pc > 60000)
;;;2755   //                        {
;;;2756   //                            set_max_pc = 60000;
;;;2757   //                            TEXT_SetText(hItem,"60.000");
;;;2758   //                        }
;;;2759                           sprintf(buf,"%.3f",(float)set_max_pc/1000);
;;;2760                           TEXT_SetText(hItem,buf);
;;;2761   						
;;;2762   						 hItem = WM_GetDialogItem(hWinset, ID_TEXT_157);
;;;2763                           TEXT_SetBkColor(hItem,GUI_INVALID_COLOR);//ÈÄâÈ°πËÉåÊôØËâ≤ËÆæ‰∏∫ÈÄèÊòé
;;;2764                           TEXT_SetTextColor(hItem, GUI_WHITE);
;;;2765   						if(dot_flag == 0){
;;;2766   							set_min_pc = atoi(set_limit)*1000;					
;;;2767   						}else if(dot_flag != 0){
;;;2768   							memset(buf, '\0', sizeof(buf));
;;;2769   							strncpy(buf,set_limit,dot_flag + 3);
;;;2770   							set_min_pc = atof(buf)*1000;
;;;2771   						}
;;;2772                           if(set_min_pc > 10000)
;;;2773                           {
;;;2774                               set_min_pc = 10000;
;;;2775                           }
;;;2776                           if(set_min_pc >= set_max_pc)
;;;2777                           {
;;;2778                               set_min_pc = 0;
;;;2779   //                            TEXT_SetText(hItem,"0.000");
;;;2780                           }
;;;2781                           
;;;2782                           sprintf(buf,"%.3f",(float)set_min_pc/1000);
;;;2783                           TEXT_SetText(hItem,buf);
;;;2784   						
;;;2785                           hItem = WM_GetDialogItem(hWinset, ID_TEXT_32);
;;;2786                           TEXT_SetBkColor(hItem,0x00BFFFFF);//ÈÄâÈ°πËÉåÊôØËâ≤ËÆæ‰∏∫Á±≥Ëâ≤
;;;2787                           TEXT_SetTextColor(hItem, GUI_BLACK);
;;;2788   
;;;2789                           Flash_Write32BitDatas(FLASH_USER_START_ADDR,40, InFlashSave);
;;;2790                           set_sw = set_9;
;;;2791                           bit = 0;
;;;2792                           dot_flag = 0;
;;;2793                           break; 
;;;2794                       }
;;;2795                       
;;;2796                       case set_73:
;;;2797                       {
;;;2798                           if(test_mode > 1)
;;;2799                           {
;;;2800                               test_mode = 1;
;;;2801                           }
;;;2802                           if(test_mode == 1)
;;;2803                           {
;;;2804                               WM_HWIN hItem;
;;;2805                               hItem = WM_GetDialogItem(hWinset, ID_TEXT_134);
;;;2806                               TEXT_SetTextColor(hItem, GUI_WHITE);//ËÆæÁΩÆÂ≠ó‰ΩìÈ¢úËâ≤
;;;2807   							if(lang == 0)
;;;2808   							{
;;;2809   								TEXT_SetFont(hItem,&GUI_Fontset_font);//ËÆæÂÆöÊñáÊú¨Â≠ó‰Ωì
;;;2810   								GUI_UC_SetEncodeUTF8();							
;;;2811   								TEXT_SetText(hItem,"Âø´ÈÄü");
;;;2812   							}else{
;;;2813   								TEXT_SetFont(hItem,&GUI_Font20_ASCII);//ËÆæÂÆöÊñáÊú¨Â≠ó‰Ωì
;;;2814   								GUI_UC_SetEncodeUTF8();							
;;;2815   								TEXT_SetText(hItem,"FAST");
;;;2816   							}
;;;2817                               test_mode = 0;
;;;2818                               Wrtite_S();
;;;2819                           }else if(test_mode == 0){
;;;2820                               WM_HWIN hItem;
;;;2821                               hItem = WM_GetDialogItem(hWinset, ID_TEXT_134);
;;;2822                               TEXT_SetTextColor(hItem, GUI_WHITE);//ËÆæÁΩÆÂ≠ó‰ΩìÈ¢úËâ≤
;;;2823                               if(lang == 0)
;;;2824   							{
;;;2825   								TEXT_SetFont(hItem,&GUI_Fontset_font);//ËÆæÂÆöÊñáÊú¨Â≠ó‰Ωì
;;;2826   								GUI_UC_SetEncodeUTF8();							
;;;2827   								TEXT_SetText(hItem,"Á≤æÂáÜ");
;;;2828   							}else{
;;;2829   								TEXT_SetFont(hItem,&GUI_Font20_ASCII);//ËÆæÂÆöÊñáÊú¨Â≠ó‰Ωì
;;;2830   								GUI_UC_SetEncodeUTF8();							
;;;2831   								TEXT_SetText(hItem,"ACCURATE");
;;;2832   							}
;;;2833                               test_mode = 1;
;;;2834                               Wrtite_S();
;;;2835                           }
;;;2836                       }break;
;;;2837   					
;;;2838   					case set_90:
;;;2839                       {
;;;2840                           if(lang == 1)
;;;2841                           {
;;;2842                               WM_HWIN hItem;
;;;2843                               hItem = WM_GetDialogItem(hWinset, ID_TEXT_166);
;;;2844                               TEXT_SetTextColor(hItem, GUI_WHITE);//ËÆæÁΩÆÂ≠ó‰ΩìÈ¢úËâ≤
;;;2845                               TEXT_SetFont(hItem,&GUI_Fontset_font);//ËÆæÂÆöÊñáÊú¨Â≠ó‰Ωì
;;;2846                               GUI_UC_SetEncodeUTF8();
;;;2847                               TEXT_SetText(hItem,"‰∏≠Êñá");
;;;2848                               lang = 0;
;;;2849                               Wrtite_S();
;;;2850                           }else{
;;;2851                               WM_HWIN hItem;
;;;2852                               hItem = WM_GetDialogItem(hWinset, ID_TEXT_166);
;;;2853                               TEXT_SetTextColor(hItem, GUI_WHITE);//ËÆæÁΩÆÂ≠ó‰ΩìÈ¢úËâ≤
;;;2854                               TEXT_SetFont(hItem,&GUI_Font20_ASCII);//ËÆæÂÆöÊñáÊú¨Â≠ó‰Ωì
;;;2855                               GUI_UC_SetEncodeUTF8();
;;;2856                               TEXT_SetText(hItem,"ENGLISH");
;;;2857                               lang = 1;
;;;2858                               Wrtite_S();
;;;2859                           }
;;;2860                       }break;
;;;2861   					
;;;2862                       case set_42:
;;;2863                       {
;;;2864                               WM_HWIN hItem;
;;;2865   //                            WM_InvalidateWindow(hWinset);
;;;2866                               hItem = WM_GetDialogItem(hWinset, ID_TEXT_90);
;;;2867                               TEXT_SetBkColor(hItem,GUI_INVALID_COLOR);//ÈÄâÈ°πËÉåÊôØËâ≤ËÆæ‰∏∫ÈÄèÊòé
;;;2868                               TEXT_SetTextColor(hItem, GUI_WHITE);
;;;2869                  
;;;2870                               hItem = WM_GetDialogItem(hWinset, ID_TEXT_91);
;;;2871                               TEXT_SetBkColor(hItem,0x00BFFFFF);//ÈÄâÈ°πËÉåÊôØËâ≤ËÆæ‰∏∫Á±≥Ëâ≤
;;;2872                               TEXT_SetTextColor(hItem, GUI_BLACK);
;;;2873                           
;;;2874                               hItem = WM_GetDialogItem(hWinset, ID_TEXT_134);
;;;2875                               TEXT_SetText(hItem,"");
;;;2876   						
;;;2877   							hItem = WM_GetDialogItem(hWinset, ID_TEXT_166);
;;;2878                               TEXT_SetText(hItem,"");
;;;2879                               if(b_type > 5)
00009e  4ddf              LDR      r5,|L4.1052|
0000a0  f640039e          MOV      r3,#0x89e             ;2866
0000a4  f04f0a01          MOV      r10,#1                ;2800
0000a8  292e              CMP      r1,#0x2e              ;2194
0000aa  f00281a1          BEQ.W    |L4.9200|
0000ae  dc52              BGT      |L4.342|
0000b0  292b              CMP      r1,#0x2b              ;2194
0000b2  f001854f          BEQ.W    |L4.6996|
0000b6  dc27              BGT      |L4.264|
0000b8  2910              CMP      r1,#0x10              ;2194
0000ba  d07d              BEQ      |L4.440|
0000bc  2929              CMP      r1,#0x29              ;2194
0000be  d07c              BEQ      |L4.442|
0000c0  292a              CMP      r1,#0x2a              ;2194
                  |L4.194|
0000c2  d15c              BNE      |L4.382|
;;;2880                               {
;;;2881                                   b_type = 1;
;;;2882                               }
;;;2883                               
;;;2884                               switch(b_type)
;;;2885                               {
;;;2886                                   case Lion:
;;;2887                                   {
;;;2888   									if(lang == 0)
;;;2889                                       {
;;;2890                                           hItem = WM_GetDialogItem(hWinset, ID_TEXT_92);
;;;2891                                           TEXT_SetTextColor(hItem, GUI_WHITE);//ËÆæÁΩÆÂ≠ó‰ΩìÈ¢úËâ≤
;;;2892                                           TEXT_SetFont(hItem,&GUI_Fontset_font);//ËÆæÂÆöÊñáÊú¨Â≠ó‰Ωì
;;;2893                                           GUI_UC_SetEncodeUTF8();
;;;2894                                           TEXT_SetText(hItem,"ÈïçÊ∞¢ÁîµÊ±†");
;;;2895                                       
;;;2896                                           hItem = WM_GetDialogItem(hWinset, ID_TEXT_93);
;;;2897                                           TEXT_SetTextColor(hItem, GUI_WHITE);//ËÆæÁΩÆÂ≠ó‰ΩìÈ¢úËâ≤
;;;2898                                           TEXT_SetFont(hItem,&GUI_Fontset_font);//ËÆæÂÆöÊñáÊú¨Â≠ó‰Ωì
;;;2899                                           TEXT_SetBkColor(hItem,GUI_BLACK);
;;;2900                                           GUI_UC_SetEncodeUTF8();
;;;2901                                           TEXT_SetText(hItem,"ÈïçÈïâÁîµÊ±†");
;;;2902                                           
;;;2903                                           hItem = WM_GetDialogItem(hWinset, ID_TEXT_94);
;;;2904                                           TEXT_SetTextColor(hItem, GUI_WHITE);//ËÆæÁΩÆÂ≠ó‰ΩìÈ¢úËâ≤
;;;2905                                           TEXT_SetFont(hItem,&GUI_Fontset_font);//ËÆæÂÆöÊñáÊú¨Â≠ó‰Ωì
;;;2906                                           GUI_UC_SetEncodeUTF8();
;;;2907                                           TEXT_SetText(hItem,"Â∞èÂûãÈìÖÈÖ∏ÁîµÊ±†");
;;;2908                                           
;;;2909                                           hItem = WM_GetDialogItem(hWinset, ID_TEXT_95);
;;;2910                                           TEXT_SetTextColor(hItem, GUI_WHITE);//ËÆæÁΩÆÂ≠ó‰ΩìÈ¢úËâ≤
;;;2911                                           TEXT_SetFont(hItem,&GUI_Fontset_font);//ËÆæÂÆöÊñáÊú¨Â≠ó‰Ωì
;;;2912                                           GUI_UC_SetEncodeUTF8();
;;;2913                                           TEXT_SetText(hItem,"ÈîÇÈî∞ÁîµÊ±†");
;;;2914                                       }else{
;;;2915                                           hItem = WM_GetDialogItem(hWinset, ID_TEXT_92);
;;;2916                                           TEXT_SetTextColor(hItem, GUI_WHITE);//ËÆæÁΩÆÂ≠ó‰ΩìÈ¢úËâ≤
;;;2917                                           TEXT_SetFont(hItem,&GUI_Font20_ASCII);//ËÆæÂÆöÊñáÊú¨Â≠ó‰Ωì
;;;2918                                           GUI_UC_SetEncodeUTF8();
;;;2919                                           TEXT_SetText(hItem,"NiMH");
;;;2920                                       
;;;2921                                           hItem = WM_GetDialogItem(hWinset, ID_TEXT_93);
;;;2922                                           TEXT_SetTextColor(hItem, GUI_WHITE);//ËÆæÁΩÆÂ≠ó‰ΩìÈ¢úËâ≤
;;;2923                                           TEXT_SetFont(hItem,&GUI_Font20_ASCII);//ËÆæÂÆöÊñáÊú¨Â≠ó‰Ωì
;;;2924                                           TEXT_SetBkColor(hItem,GUI_BLACK);
;;;2925                                           GUI_UC_SetEncodeUTF8();
;;;2926                                           TEXT_SetText(hItem,"NiCd");
;;;2927                                           
;;;2928                                           hItem = WM_GetDialogItem(hWinset, ID_TEXT_94);
;;;2929                                           TEXT_SetTextColor(hItem, GUI_WHITE);//ËÆæÁΩÆÂ≠ó‰ΩìÈ¢úËâ≤
;;;2930                                           TEXT_SetFont(hItem,&GUI_Font20_ASCII);//ËÆæÂÆöÊñáÊú¨Â≠ó‰Ωì
;;;2931                                           GUI_UC_SetEncodeUTF8();
;;;2932                                           TEXT_SetText(hItem,"SLA");
;;;2933                                           
;;;2934                                           hItem = WM_GetDialogItem(hWinset, ID_TEXT_95);
;;;2935                                           TEXT_SetTextColor(hItem, GUI_WHITE);//ËÆæÁΩÆÂ≠ó‰ΩìÈ¢úËâ≤
;;;2936                                           TEXT_SetFont(hItem,&GUI_Font20_ASCII);//ËÆæÂÆöÊñáÊú¨Â≠ó‰Ωì
;;;2937                                           GUI_UC_SetEncodeUTF8();
;;;2938                                           TEXT_SetText(hItem,"LiMH");
;;;2939                                       }
;;;2940                                       break;
;;;2941                                   }
;;;2942                                   case NiMH:
;;;2943                                   {
;;;2944                                       if(lang == 0)
;;;2945                                       {   
;;;2946                                           hItem = WM_GetDialogItem(hWinset, ID_TEXT_92);
;;;2947                                           TEXT_SetTextColor(hItem, GUI_WHITE);//ËÆæÁΩÆÂ≠ó‰ΩìÈ¢úËâ≤
;;;2948                                           TEXT_SetFont(hItem,&GUI_Fontset_font);//ËÆæÂÆöÊñáÊú¨Â≠ó‰Ωì
;;;2949                                           GUI_UC_SetEncodeUTF8();
;;;2950                                           TEXT_SetText(hItem,"ÈîÇÁîµÊ±†");
;;;2951                                       
;;;2952                                           hItem = WM_GetDialogItem(hWinset, ID_TEXT_93);
;;;2953                                           TEXT_SetTextColor(hItem, GUI_WHITE);//ËÆæÁΩÆÂ≠ó‰ΩìÈ¢úËâ≤
;;;2954                                           TEXT_SetFont(hItem,&GUI_Fontset_font);//ËÆæÂÆöÊñáÊú¨Â≠ó‰Ωì
;;;2955                                           TEXT_SetBkColor(hItem,GUI_BLACK);
;;;2956                                           GUI_UC_SetEncodeUTF8();
;;;2957                                           TEXT_SetText(hItem,"ÈïçÈïâÁîµÊ±†");
;;;2958                                           
;;;2959                                           hItem = WM_GetDialogItem(hWinset, ID_TEXT_94);
;;;2960                                           TEXT_SetTextColor(hItem, GUI_WHITE);//ËÆæÁΩÆÂ≠ó‰ΩìÈ¢úËâ≤
;;;2961                                           TEXT_SetFont(hItem,&GUI_Fontset_font);//ËÆæÂÆöÊñáÊú¨Â≠ó‰Ωì
;;;2962                                           GUI_UC_SetEncodeUTF8();
;;;2963                                           TEXT_SetText(hItem,"Â∞èÂûãÈìÖÈÖ∏ÁîµÊ±†");
;;;2964                                           
;;;2965                                           hItem = WM_GetDialogItem(hWinset, ID_TEXT_95);
;;;2966                                           TEXT_SetTextColor(hItem, GUI_WHITE);//ËÆæÁΩÆÂ≠ó‰ΩìÈ¢úËâ≤
;;;2967                                           TEXT_SetFont(hItem,&GUI_Fontset_font);//ËÆæÂÆöÊñáÊú¨Â≠ó‰Ωì
;;;2968                                           GUI_UC_SetEncodeUTF8();
;;;2969                                           TEXT_SetText(hItem,"ÈîÇÈî∞ÁîµÊ±†");
;;;2970                                       }else{
;;;2971                                           hItem = WM_GetDialogItem(hWinset, ID_TEXT_92);
;;;2972                                           TEXT_SetTextColor(hItem, GUI_WHITE);//ËÆæÁΩÆÂ≠ó‰ΩìÈ¢úËâ≤
;;;2973                                           TEXT_SetFont(hItem,&GUI_Font20_ASCII);//ËÆæÂÆöÊñáÊú¨Â≠ó‰Ωì
;;;2974                                           GUI_UC_SetEncodeUTF8();
;;;2975                                           TEXT_SetText(hItem,"Lion");
;;;2976                                       
;;;2977                                           hItem = WM_GetDialogItem(hWinset, ID_TEXT_93);
;;;2978                                           TEXT_SetTextColor(hItem, GUI_WHITE);//ËÆæÁΩÆÂ≠ó‰ΩìÈ¢úËâ≤
;;;2979                                           TEXT_SetFont(hItem,&GUI_Font20_ASCII);//ËÆæÂÆöÊñáÊú¨Â≠ó‰Ωì
;;;2980                                           TEXT_SetBkColor(hItem,GUI_BLACK);
;;;2981                                           GUI_UC_SetEncodeUTF8();
;;;2982                                           TEXT_SetText(hItem,"NiCd");
;;;2983                                           
;;;2984                                           hItem = WM_GetDialogItem(hWinset, ID_TEXT_94);
;;;2985                                           TEXT_SetTextColor(hItem, GUI_WHITE);//ËÆæÁΩÆÂ≠ó‰ΩìÈ¢úËâ≤
;;;2986                                           TEXT_SetFont(hItem,&GUI_Font20_ASCII);//ËÆæÂÆöÊñáÊú¨Â≠ó‰Ωì
;;;2987                                           GUI_UC_SetEncodeUTF8();
;;;2988                                           TEXT_SetText(hItem,"SLA");
;;;2989                                           
;;;2990                                           hItem = WM_GetDialogItem(hWinset, ID_TEXT_95);
;;;2991                                           TEXT_SetTextColor(hItem, GUI_WHITE);//ËÆæÁΩÆÂ≠ó‰ΩìÈ¢úËâ≤
;;;2992                                           TEXT_SetFont(hItem,&GUI_Font20_ASCII);//ËÆæÂÆöÊñáÊú¨Â≠ó‰Ωì
;;;2993                                           GUI_UC_SetEncodeUTF8();
;;;2994                                           TEXT_SetText(hItem,"LiMH");
;;;2995                                       }
;;;2996                                       break;
;;;2997                                   }
;;;2998                                   case NiCd:
;;;2999                                   {
;;;3000                                       if(lang == 0)
;;;3001                                       {
;;;3002                                           hItem = WM_GetDialogItem(hWinset, ID_TEXT_92);
;;;3003                                           TEXT_SetTextColor(hItem, GUI_WHITE);//ËÆæÁΩÆÂ≠ó‰ΩìÈ¢úËâ≤
;;;3004                                           TEXT_SetFont(hItem,&GUI_Fontset_font);//ËÆæÂÆöÊñáÊú¨Â≠ó‰Ωì
;;;3005                                           GUI_UC_SetEncodeUTF8();
;;;3006                                           TEXT_SetText(hItem,"ÈîÇÁîµÊ±†");
;;;3007                                       
;;;3008                                           hItem = WM_GetDialogItem(hWinset, ID_TEXT_93);
;;;3009                                           TEXT_SetTextColor(hItem, GUI_WHITE);//ËÆæÁΩÆÂ≠ó‰ΩìÈ¢úËâ≤
;;;3010                                           TEXT_SetFont(hItem,&GUI_Fontset_font);//ËÆæÂÆöÊñáÊú¨Â≠ó‰Ωì
;;;3011                                           TEXT_SetBkColor(hItem,GUI_BLACK);
;;;3012                                           GUI_UC_SetEncodeUTF8();
;;;3013                                           TEXT_SetText(hItem,"ÈïçÊ∞¢ÁîµÊ±†");
;;;3014                                           
;;;3015                                           hItem = WM_GetDialogItem(hWinset, ID_TEXT_94);
;;;3016                                           TEXT_SetTextColor(hItem, GUI_WHITE);//ËÆæÁΩÆÂ≠ó‰ΩìÈ¢úËâ≤
;;;3017                                           TEXT_SetFont(hItem,&GUI_Fontset_font);//ËÆæÂÆöÊñáÊú¨Â≠ó‰Ωì
;;;3018                                           GUI_UC_SetEncodeUTF8();
;;;3019                                           TEXT_SetText(hItem,"Â∞èÂûãÈìÖÈÖ∏ÁîµÊ±†");
;;;3020                                           
;;;3021                                           hItem = WM_GetDialogItem(hWinset, ID_TEXT_95);
;;;3022                                           TEXT_SetTextColor(hItem, GUI_WHITE);//ËÆæÁΩÆÂ≠ó‰ΩìÈ¢úËâ≤
;;;3023                                           TEXT_SetFont(hItem,&GUI_Fontset_font);//ËÆæÂÆöÊñáÊú¨Â≠ó‰Ωì
;;;3024                                           GUI_UC_SetEncodeUTF8();
;;;3025                                           TEXT_SetText(hItem,"ÈîÇÈî∞ÁîµÊ±†");
;;;3026                                       }else{
;;;3027                                           hItem = WM_GetDialogItem(hWinset, ID_TEXT_92);
;;;3028                                           TEXT_SetTextColor(hItem, GUI_WHITE);//ËÆæÁΩÆÂ≠ó‰ΩìÈ¢úËâ≤
;;;3029                                           TEXT_SetFont(hItem,&GUI_Font20_ASCII);//ËÆæÂÆöÊñáÊú¨Â≠ó‰Ωì
;;;3030                                           GUI_UC_SetEncodeUTF8();
;;;3031                                           TEXT_SetText(hItem,"Lion");
;;;3032                                       
;;;3033                                           hItem = WM_GetDialogItem(hWinset, ID_TEXT_93);
;;;3034                                           TEXT_SetTextColor(hItem, GUI_WHITE);//ËÆæÁΩÆÂ≠ó‰ΩìÈ¢úËâ≤
;;;3035                                           TEXT_SetFont(hItem,&GUI_Font20_ASCII);//ËÆæÂÆöÊñáÊú¨Â≠ó‰Ωì
;;;3036                                           TEXT_SetBkColor(hItem,GUI_BLACK);
;;;3037                                           GUI_UC_SetEncodeUTF8();
;;;3038                                           TEXT_SetText(hItem,"NiMH");
;;;3039                                           
;;;3040                                           hItem = WM_GetDialogItem(hWinset, ID_TEXT_94);
;;;3041                                           TEXT_SetTextColor(hItem, GUI_WHITE);//ËÆæÁΩÆÂ≠ó‰ΩìÈ¢úËâ≤
;;;3042                                           TEXT_SetFont(hItem,&GUI_Font20_ASCII);//ËÆæÂÆöÊñáÊú¨Â≠ó‰Ωì
;;;3043                                           GUI_UC_SetEncodeUTF8();
;;;3044                                           TEXT_SetText(hItem,"SLA");
;;;3045                                           
;;;3046                                           hItem = WM_GetDialogItem(hWinset, ID_TEXT_95);
;;;3047                                           TEXT_SetTextColor(hItem, GUI_WHITE);//ËÆæÁΩÆÂ≠ó‰ΩìÈ¢úËâ≤
;;;3048                                           TEXT_SetFont(hItem,&GUI_Font20_ASCII);//ËÆæÂÆöÊñáÊú¨Â≠ó‰Ωì
;;;3049                                           GUI_UC_SetEncodeUTF8();
;;;3050                                           TEXT_SetText(hItem,"LiMH");
;;;3051                                       }
;;;3052                                       break;
;;;3053                                   }
;;;3054                                   case SLA:
;;;3055                                   {
;;;3056                                       if(lang == 0)
;;;3057                                       {
;;;3058                                           hItem = WM_GetDialogItem(hWinset, ID_TEXT_92);
;;;3059                                           TEXT_SetTextColor(hItem, GUI_WHITE);//ËÆæÁΩÆÂ≠ó‰ΩìÈ¢úËâ≤
;;;3060                                           TEXT_SetFont(hItem,&GUI_Fontset_font);//ËÆæÂÆöÊñáÊú¨Â≠ó‰Ωì
;;;3061                                           GUI_UC_SetEncodeUTF8();
;;;3062                                           TEXT_SetText(hItem,"ÈîÇÁîµÊ±†");
;;;3063                                       
;;;3064                                           hItem = WM_GetDialogItem(hWinset, ID_TEXT_93);
;;;3065                                           TEXT_SetTextColor(hItem, GUI_WHITE);//ËÆæÁΩÆÂ≠ó‰ΩìÈ¢úËâ≤
;;;3066                                           TEXT_SetFont(hItem,&GUI_Fontset_font);//ËÆæÂÆöÊñáÊú¨Â≠ó‰Ωì
;;;3067                                           TEXT_SetBkColor(hItem,GUI_BLACK);
;;;3068                                           GUI_UC_SetEncodeUTF8();
;;;3069                                           TEXT_SetText(hItem,"ÈïçÊ∞¢ÁîµÊ±†");
;;;3070                                           
;;;3071                                           hItem = WM_GetDialogItem(hWinset, ID_TEXT_94);
;;;3072                                           TEXT_SetTextColor(hItem, GUI_WHITE);//ËÆæÁΩÆÂ≠ó‰ΩìÈ¢úËâ≤
;;;3073                                           TEXT_SetFont(hItem,&GUI_Fontset_font);//ËÆæÂÆöÊñáÊú¨Â≠ó‰Ωì
;;;3074                                           GUI_UC_SetEncodeUTF8();
;;;3075                                           TEXT_SetText(hItem,"ÈïçÈïâÁîµÊ±†");
;;;3076                                           
;;;3077                                           hItem = WM_GetDialogItem(hWinset, ID_TEXT_95);
;;;3078                                           TEXT_SetTextColor(hItem, GUI_WHITE);//ËÆæÁΩÆÂ≠ó‰ΩìÈ¢úËâ≤
;;;3079                                           TEXT_SetFont(hItem,&GUI_Fontset_font);//ËÆæÂÆöÊñáÊú¨Â≠ó‰Ωì
;;;3080                                           GUI_UC_SetEncodeUTF8();
;;;3081                                           TEXT_SetText(hItem,"ÈîÇÈî∞ÁîµÊ±†");
;;;3082                                       }else{
;;;3083                                           hItem = WM_GetDialogItem(hWinset, ID_TEXT_92);
;;;3084                                           TEXT_SetTextColor(hItem, GUI_WHITE);//ËÆæÁΩÆÂ≠ó‰ΩìÈ¢úËâ≤
;;;3085                                           TEXT_SetFont(hItem,&GUI_Font20_ASCII);//ËÆæÂÆöÊñáÊú¨Â≠ó‰Ωì
;;;3086                                           GUI_UC_SetEncodeUTF8();
;;;3087                                           TEXT_SetText(hItem,"Lion");
;;;3088                                       
;;;3089                                           hItem = WM_GetDialogItem(hWinset, ID_TEXT_93);
;;;3090                                           TEXT_SetTextColor(hItem, GUI_WHITE);//ËÆæÁΩÆÂ≠ó‰ΩìÈ¢úËâ≤
;;;3091                                           TEXT_SetFont(hItem,&GUI_Font20_ASCII);//ËÆæÂÆöÊñáÊú¨Â≠ó‰Ωì
;;;3092                                           TEXT_SetBkColor(hItem,GUI_BLACK);
;;;3093                                           GUI_UC_SetEncodeUTF8();
;;;3094                                           TEXT_SetText(hItem,"NiMH");
;;;3095                                           
;;;3096                                           hItem = WM_GetDialogItem(hWinset, ID_TEXT_94);
;;;3097                                           TEXT_SetTextColor(hItem, GUI_WHITE);//ËÆæÁΩÆÂ≠ó‰ΩìÈ¢úËâ≤
;;;3098                                           TEXT_SetFont(hItem,&GUI_Font20_ASCII);//ËÆæÂÆöÊñáÊú¨Â≠ó‰Ωì
;;;3099                                           GUI_UC_SetEncodeUTF8();
;;;3100                                           TEXT_SetText(hItem,"NiCd");
;;;3101                                           
;;;3102                                           hItem = WM_GetDialogItem(hWinset, ID_TEXT_95);
;;;3103                                           TEXT_SetTextColor(hItem, GUI_WHITE);//ËÆæÁΩÆÂ≠ó‰ΩìÈ¢úËâ≤
;;;3104                                           TEXT_SetFont(hItem,&GUI_Font20_ASCII);//ËÆæÂÆöÊñáÊú¨Â≠ó‰Ωì
;;;3105                                           GUI_UC_SetEncodeUTF8();
;;;3106                                           TEXT_SetText(hItem,"LiMH");
;;;3107                                       }
;;;3108                                       break;
;;;3109                                   }
;;;3110                                   case LiMH:
;;;3111                                   {
;;;3112                                       if(lang == 0)
;;;3113                                       {
;;;3114                                           hItem = WM_GetDialogItem(hWinset, ID_TEXT_92);
;;;3115                                           TEXT_SetTextColor(hItem, GUI_WHITE);//ËÆæÁΩÆÂ≠ó‰ΩìÈ¢úËâ≤
;;;3116                                           TEXT_SetFont(hItem,&GUI_Fontset_font);//ËÆæÂÆöÊñáÊú¨Â≠ó‰Ωì
;;;3117                                           GUI_UC_SetEncodeUTF8();
;;;3118                                           TEXT_SetText(hItem,"ÈîÇÁîµÊ±†");
;;;3119                                       
;;;3120                                           hItem = WM_GetDialogItem(hWinset, ID_TEXT_93);
;;;3121                                           TEXT_SetTextColor(hItem, GUI_WHITE);//ËÆæÁΩÆÂ≠ó‰ΩìÈ¢úËâ≤
;;;3122                                           TEXT_SetFont(hItem,&GUI_Fontset_font);//ËÆæÂÆöÊñáÊú¨Â≠ó‰Ωì
;;;3123                                           TEXT_SetBkColor(hItem,GUI_BLACK);
;;;3124                                           GUI_UC_SetEncodeUTF8();
;;;3125                                           TEXT_SetText(hItem,"ÈïçÊ∞¢ÁîµÊ±†");
;;;3126                                           
;;;3127                                           hItem = WM_GetDialogItem(hWinset, ID_TEXT_94);
;;;3128                                           TEXT_SetTextColor(hItem, GUI_WHITE);//ËÆæÁΩÆÂ≠ó‰ΩìÈ¢úËâ≤
;;;3129                                           TEXT_SetFont(hItem,&GUI_Fontset_font);//ËÆæÂÆöÊñáÊú¨Â≠ó‰Ωì
;;;3130                                           GUI_UC_SetEncodeUTF8();
;;;3131                                           TEXT_SetText(hItem,"ÈïçÈïâÁîµÊ±†");
;;;3132                                           
;;;3133                                           hItem = WM_GetDialogItem(hWinset, ID_TEXT_95);
;;;3134                                           TEXT_SetTextColor(hItem, GUI_WHITE);//ËÆæÁΩÆÂ≠ó‰ΩìÈ¢úËâ≤
;;;3135                                           TEXT_SetFont(hItem,&GUI_Fontset_font);//ËÆæÂÆöÊñáÊú¨Â≠ó‰Ωì
;;;3136                                           GUI_UC_SetEncodeUTF8();
;;;3137                                           TEXT_SetText(hItem,"Â∞èÂûãÈìÖÈÖ∏ÁîµÊ±†");
;;;3138                                       }else{
;;;3139                                           hItem = WM_GetDialogItem(hWinset, ID_TEXT_92);
;;;3140                                           TEXT_SetTextColor(hItem, GUI_WHITE);//ËÆæÁΩÆÂ≠ó‰ΩìÈ¢úËâ≤
;;;3141                                           TEXT_SetFont(hItem,&GUI_Font20_ASCII);//ËÆæÂÆöÊñáÊú¨Â≠ó‰Ωì
;;;3142                                           GUI_UC_SetEncodeUTF8();
;;;3143                                           TEXT_SetText(hItem,"Lion");
;;;3144                                       
;;;3145                                           hItem = WM_GetDialogItem(hWinset, ID_TEXT_93);
;;;3146                                           TEXT_SetTextColor(hItem, GUI_WHITE);//ËÆæÁΩÆÂ≠ó‰ΩìÈ¢úËâ≤
;;;3147                                           TEXT_SetFont(hItem,&GUI_Font20_ASCII);//ËÆæÂÆöÊñáÊú¨Â≠ó‰Ωì
;;;3148                                           TEXT_SetBkColor(hItem,GUI_BLACK);
;;;3149                                           GUI_UC_SetEncodeUTF8();
;;;3150                                           TEXT_SetText(hItem,"NiMH");
;;;3151                                           
;;;3152                                           hItem = WM_GetDialogItem(hWinset, ID_TEXT_94);
;;;3153                                           TEXT_SetTextColor(hItem, GUI_WHITE);//ËÆæÁΩÆÂ≠ó‰ΩìÈ¢úËâ≤
;;;3154                                           TEXT_SetFont(hItem,&GUI_Font20_ASCII);//ËÆæÂÆöÊñáÊú¨Â≠ó‰Ωì
;;;3155                                           GUI_UC_SetEncodeUTF8();
;;;3156                                           TEXT_SetText(hItem,"NiCd");
;;;3157                                           
;;;3158                                           hItem = WM_GetDialogItem(hWinset, ID_TEXT_95);
;;;3159                                           TEXT_SetTextColor(hItem, GUI_WHITE);//ËÆæÁΩÆÂ≠ó‰ΩìÈ¢úËâ≤
;;;3160                                           TEXT_SetFont(hItem,&GUI_Font20_ASCII);//ËÆæÂÆöÊñáÊú¨Â≠ó‰Ωì
;;;3161                                           GUI_UC_SetEncodeUTF8();
;;;3162                                           TEXT_SetText(hItem,"SLA");
;;;3163                                       }
;;;3164                                       break;
;;;3165                                   }
;;;3166                               }
;;;3167                               
;;;3168   
;;;3169                               set_sw = set_43;
;;;3170                               break;                        
;;;3171                       }
;;;3172   					
;;;3173                       case set_43:
;;;3174                       {
;;;3175                               WM_HWIN hItem;
;;;3176   //                            WM_InvalidateWindow(hWinset);
;;;3177                               
;;;3178                  
;;;3179                               hItem = WM_GetDialogItem(hWinset, ID_TEXT_90);
0000c4  4604              MOV      r4,r0
0000c6  4619              MOV      r1,r3
0000c8  4610              MOV      r0,r2
0000ca  f7fffffe          BL       WM_GetDialogItem
0000ce  4606              MOV      r6,r0
;;;3180                               TEXT_SetBkColor(hItem,0x00BFFFFF);//ÈÄâÈ°πËÉåÊôØËâ≤ËÆæ‰∏∫Á±≥Ëâ≤
0000d0  49d3              LDR      r1,|L4.1056|
0000d2  4630              MOV      r0,r6
0000d4  f7fffffe          BL       TEXT_SetBkColor
;;;3181                               TEXT_SetTextColor(hItem, GUI_BLACK);
0000d8  2100              MOVS     r1,#0
0000da  4630              MOV      r0,r6
0000dc  f7fffffe          BL       TEXT_SetTextColor
;;;3182                           
;;;3183                               hItem = WM_GetDialogItem(hWinset, ID_TEXT_134);
0000e0  f6401123          MOV      r1,#0x923
0000e4  6860              LDR      r0,[r4,#4]  ; hWinset
0000e6  f7fffffe          BL       WM_GetDialogItem
0000ea  4606              MOV      r6,r0
;;;3184   							if(lang == 0)
0000ec  7860              LDRB     r0,[r4,#1]  ; lang
0000ee  2800              CMP      r0,#0
0000f0  f00183d7          BEQ.W    |L4.6306|
;;;3185   							{
;;;3186   								if(test_mode == 1)
;;;3187   								{
;;;3188   									TEXT_SetFont(hItem,&GUI_Fontset_font);//ËÆæÂÆöÊñáÊú¨Â≠ó‰Ωì
;;;3189   									TEXT_SetText(hItem,"Á≤æÂáÜ");
;;;3190   								}else if(test_mode == 0){
;;;3191   									TEXT_SetFont(hItem,&GUI_Fontset_font);//ËÆæÂÆöÊñáÊú¨Â≠ó‰Ωì
;;;3192   									TEXT_SetText(hItem,"Âø´ÈÄü");
;;;3193   								}
;;;3194   							}else{
;;;3195   								if(test_mode == 1)
0000f4  7820              LDRB     r0,[r4,#0]  ; test_mode
0000f6  2801              CMP      r0,#1
0000f8  f00183ed          BEQ.W    |L4.6358|
;;;3196   								{
;;;3197   									TEXT_SetFont(hItem,&GUI_Font20_ASCII);//ËÆæÂÆöÊñáÊú¨Â≠ó‰Ωì
;;;3198   									TEXT_SetText(hItem,"ACCURATE");
;;;3199   								}else if(test_mode == 0){
0000fc  7820              LDRB     r0,[r4,#0]  ; test_mode
0000fe  2800              CMP      r0,#0
000100  f00183f3          BEQ.W    |L4.6378|
000104  f001bbfa          B.W      |L4.6396|
                  |L4.264|
000108  292c              CMP      r1,#0x2c              ;2194
00010a  f00186a0          BEQ.W    |L4.7758|
00010e  292d              CMP      r1,#0x2d              ;2194
000110  d1d7              BNE      |L4.194|
;;;3200   									TEXT_SetFont(hItem,&GUI_Font20_ASCII);//ËÆæÂÆöÊñáÊú¨Â≠ó‰Ωì
;;;3201   									TEXT_SetText(hItem,"FAST");
;;;3202   								}
;;;3203   							}
;;;3204   							
;;;3205   							hItem = WM_GetDialogItem(hWinset, ID_TEXT_166);
;;;3206                               if(lang == 0)
;;;3207   							{
;;;3208   								WM_HWIN hItem;
;;;3209   								hItem = WM_GetDialogItem(hWinset, ID_TEXT_166);
;;;3210   								TEXT_SetTextColor(hItem, GUI_WHITE);//ËÆæÁΩÆÂ≠ó‰ΩìÈ¢úËâ≤
;;;3211   								TEXT_SetFont(hItem,&GUI_Fontset_font);//ËÆæÂÆöÊñáÊú¨Â≠ó‰Ωì
;;;3212   								GUI_UC_SetEncodeUTF8();
;;;3213   								TEXT_SetText(hItem,"‰∏≠Êñá");
;;;3214   							}else{
;;;3215   								WM_HWIN hItem;
;;;3216   								hItem = WM_GetDialogItem(hWinset, ID_TEXT_166);
;;;3217   								TEXT_SetTextColor(hItem, GUI_WHITE);//ËÆæÁΩÆÂ≠ó‰ΩìÈ¢úËâ≤
;;;3218   								TEXT_SetFont(hItem,&GUI_Font20_ASCII);//ËÆæÂÆöÊñáÊú¨Â≠ó‰Ωì
;;;3219   								GUI_UC_SetEncodeUTF8();
;;;3220   								TEXT_SetText(hItem,"ENGLISH");
;;;3221   							}
;;;3222                                                      
;;;3223                               switch(buffer)
;;;3224                               {
;;;3225                                   case Lion:
;;;3226                                   {
;;;3227                                       hItem = WM_GetDialogItem(hWinset, ID_TEXT_91);
;;;3228                                       TEXT_SetBkColor(hItem,GUI_INVALID_COLOR);//ÈÄâÈ°πËÉåÊôØËâ≤ËÆæ‰∏∫ÈÄèÊòé
;;;3229                                       TEXT_SetTextColor(hItem, GUI_WHITE);
;;;3230                                       if(lang == 0)
;;;3231                                       {
;;;3232                                           TEXT_SetFont(hItem,&GUI_Fontset_font);
;;;3233                                           TEXT_SetText(hItem,"ÈîÇÁîµÊ±†");
;;;3234                                       }else{
;;;3235                                           TEXT_SetFont(hItem,&GUI_Font20_ASCII);
;;;3236                                           TEXT_SetText(hItem,"Lion");
;;;3237                                       }
;;;3238                                       b_type = Lion;
;;;3239                                       break;
;;;3240                                   }
;;;3241                                   case NiMH:
;;;3242                                   {
;;;3243                                       hItem = WM_GetDialogItem(hWinset, ID_TEXT_91);
;;;3244                                       TEXT_SetBkColor(hItem,GUI_INVALID_COLOR);//ÈÄâÈ°πËÉåÊôØËâ≤ËÆæ‰∏∫ÈÄèÊòé
;;;3245                                       TEXT_SetTextColor(hItem, GUI_WHITE);
;;;3246                                       if(lang == 0)
;;;3247                                       {
;;;3248                                           TEXT_SetFont(hItem,&GUI_Fontset_font);
;;;3249                                           TEXT_SetText(hItem,"ÈïçÊ∞¢ÁîµÊ±†");
;;;3250                                       }else{
;;;3251                                           TEXT_SetFont(hItem,&GUI_Font20_ASCII);
;;;3252                                           TEXT_SetText(hItem,"NiMH");
;;;3253                                       }
;;;3254                                       b_type = NiMH;
;;;3255                                       break;
;;;3256                                   }
;;;3257                                   case NiCd:
;;;3258                                   {
;;;3259                                       hItem = WM_GetDialogItem(hWinset, ID_TEXT_91);
;;;3260                                       TEXT_SetBkColor(hItem,GUI_INVALID_COLOR);//ÈÄâÈ°πËÉåÊôØËâ≤ËÆæ‰∏∫ÈÄèÊòé
;;;3261                                       TEXT_SetTextColor(hItem, GUI_WHITE);
;;;3262                                       if(lang == 0)
;;;3263                                       {
;;;3264                                           TEXT_SetFont(hItem,&GUI_Fontset_font);
;;;3265                                           TEXT_SetText(hItem,"ÈïçÈïâÁîµÊ±†");
;;;3266                                       }else{
;;;3267                                           TEXT_SetFont(hItem,&GUI_Font20_ASCII);
;;;3268                                           TEXT_SetText(hItem,"NiCd");
;;;3269                                       }
;;;3270                                       b_type = NiCd;
;;;3271                                       break;
;;;3272                                   }
;;;3273                                   case SLA:
;;;3274                                   {
;;;3275                                       hItem = WM_GetDialogItem(hWinset, ID_TEXT_91);
;;;3276                                       TEXT_SetBkColor(hItem,GUI_INVALID_COLOR);//ÈÄâÈ°πËÉåÊôØËâ≤ËÆæ‰∏∫ÈÄèÊòé
;;;3277                                       TEXT_SetTextColor(hItem, GUI_WHITE);
;;;3278                                       if(lang == 0)
;;;3279                                       {
;;;3280                                           TEXT_SetFont(hItem,&GUI_Fontset_font);
;;;3281                                           TEXT_SetText(hItem,"Â∞èÂûãÈìÖÈÖ∏ÁîµÊ±†");
;;;3282                                       }else{
;;;3283                                           TEXT_SetFont(hItem,&GUI_Font20_ASCII);
;;;3284                                           TEXT_SetText(hItem,"SLA");
;;;3285                                       }
;;;3286                                       b_type = SLA;
;;;3287                                       break;
;;;3288                                   }
;;;3289                                   case LiMH:
;;;3290                                   {
;;;3291                                       hItem = WM_GetDialogItem(hWinset, ID_TEXT_91);
;;;3292                                       TEXT_SetBkColor(hItem,GUI_INVALID_COLOR);//ÈÄâÈ°πËÉåÊôØËâ≤ËÆæ‰∏∫ÈÄèÊòé
;;;3293                                       TEXT_SetTextColor(hItem, GUI_WHITE);
;;;3294                                       if(lang == 0)
;;;3295                                       {
;;;3296                                           TEXT_SetFont(hItem,&GUI_Fontset_font);
;;;3297                                           TEXT_SetText(hItem,"ÈîÇÈî∞ÁîµÊ±†");
;;;3298                                       }else{
;;;3299                                           TEXT_SetFont(hItem,&GUI_Font20_ASCII);
;;;3300                                           TEXT_SetText(hItem,"LiMH");
;;;3301                                       }
;;;3302                                       b_type = LiMH;
;;;3303                                       break;
;;;3304                                   }
;;;3305                               }
;;;3306   
;;;3307                               hItem = WM_GetDialogItem(hWinset, ID_TEXT_92);
;;;3308                               TEXT_SetText(hItem,"");
;;;3309                           
;;;3310                               hItem = WM_GetDialogItem(hWinset, ID_TEXT_93);
;;;3311                               TEXT_SetText(hItem,"");
;;;3312                               
;;;3313                               hItem = WM_GetDialogItem(hWinset, ID_TEXT_94);
;;;3314                               TEXT_SetText(hItem,"");
;;;3315                               
;;;3316                               hItem = WM_GetDialogItem(hWinset, ID_TEXT_95);
;;;3317                               TEXT_SetText(hItem,"");
;;;3318                               
;;;3319                               Write_btype();
;;;3320                               set_sw = set_42;
;;;3321                               break;                        
;;;3322                       }
;;;3323                       case set_44:
;;;3324                       {
;;;3325                               WM_HWIN hItem;
;;;3326   //                            WM_InvalidateWindow(hWinset);
;;;3327                  
;;;3328                               hItem = WM_GetDialogItem(hWinset, ID_TEXT_90);
;;;3329                               TEXT_SetBkColor(hItem,0x00BFFFFF);//ÈÄâÈ°πËÉåÊôØËâ≤ËÆæ‰∏∫Á±≥Ëâ≤
;;;3330                               TEXT_SetTextColor(hItem, GUI_BLACK);
;;;3331                           
;;;3332                               hItem = WM_GetDialogItem(hWinset, ID_TEXT_134);
;;;3333                               if(lang == 0)
;;;3334   							{
;;;3335   								if(test_mode == 1)
;;;3336   								{
;;;3337   									TEXT_SetFont(hItem,&GUI_Fontset_font);//ËÆæÂÆöÊñáÊú¨Â≠ó‰Ωì
;;;3338   									TEXT_SetText(hItem,"Á≤æÂáÜ");
;;;3339   								}else if(test_mode == 0){
;;;3340   									TEXT_SetFont(hItem,&GUI_Fontset_font);//ËÆæÂÆöÊñáÊú¨Â≠ó‰Ωì
;;;3341   									TEXT_SetText(hItem,"Âø´ÈÄü");
;;;3342   								}
;;;3343   							}else{
;;;3344   								if(test_mode == 1)
;;;3345   								{
;;;3346   									TEXT_SetFont(hItem,&GUI_Font20_ASCII);//ËÆæÂÆöÊñáÊú¨Â≠ó‰Ωì
;;;3347   									TEXT_SetText(hItem,"ACCURATE");
;;;3348   								}else if(test_mode == 0){
;;;3349   									TEXT_SetFont(hItem,&GUI_Font20_ASCII);//ËÆæÂÆöÊñáÊú¨Â≠ó‰Ωì
;;;3350   									TEXT_SetText(hItem,"FAST");
;;;3351   								}
;;;3352   							}
;;;3353   							
;;;3354   							hItem = WM_GetDialogItem(hWinset, ID_TEXT_166);
;;;3355                               if(lang == 0)
;;;3356   							{
;;;3357   								WM_HWIN hItem;
;;;3358   								hItem = WM_GetDialogItem(hWinset, ID_TEXT_166);
;;;3359   								TEXT_SetTextColor(hItem, GUI_WHITE);//ËÆæÁΩÆÂ≠ó‰ΩìÈ¢úËâ≤
;;;3360   								TEXT_SetFont(hItem,&GUI_Fontset_font);//ËÆæÂÆöÊñáÊú¨Â≠ó‰Ωì
;;;3361   								GUI_UC_SetEncodeUTF8();
;;;3362   								TEXT_SetText(hItem,"‰∏≠Êñá");
;;;3363   							}else{
;;;3364   								WM_HWIN hItem;
;;;3365   								hItem = WM_GetDialogItem(hWinset, ID_TEXT_166);
;;;3366   								TEXT_SetTextColor(hItem, GUI_WHITE);//ËÆæÁΩÆÂ≠ó‰ΩìÈ¢úËâ≤
;;;3367   								TEXT_SetFont(hItem,&GUI_Font20_ASCII);//ËÆæÂÆöÊñáÊú¨Â≠ó‰Ωì
;;;3368   								GUI_UC_SetEncodeUTF8();
;;;3369   								TEXT_SetText(hItem,"ENGLISH");
;;;3370   							}
;;;3371                               switch(buffer)
;;;3372                               {
;;;3373                                   case Lion:
;;;3374                                   {
;;;3375                                       hItem = WM_GetDialogItem(hWinset, ID_TEXT_91);
;;;3376                                       TEXT_SetBkColor(hItem,GUI_INVALID_COLOR);//ÈÄâÈ°πËÉåÊôØËâ≤ËÆæ‰∏∫ÈÄèÊòé
;;;3377                                       TEXT_SetTextColor(hItem, GUI_WHITE);
;;;3378                                       if(lang == 0)
;;;3379                                       {
;;;3380                                           TEXT_SetFont(hItem,&GUI_Fontset_font);
;;;3381                                           TEXT_SetText(hItem,"ÈîÇÁîµÊ±†");
;;;3382                                       }else{
;;;3383                                           TEXT_SetFont(hItem,&GUI_Font20_ASCII);
;;;3384                                           TEXT_SetText(hItem,"Lion");
;;;3385                                       }
;;;3386                                       b_type = Lion;
;;;3387                                       break;
;;;3388                                   }
;;;3389                                   case NiMH:
;;;3390                                   {
;;;3391                                       hItem = WM_GetDialogItem(hWinset, ID_TEXT_91);
;;;3392                                       TEXT_SetBkColor(hItem,GUI_INVALID_COLOR);//ÈÄâÈ°πËÉåÊôØËâ≤ËÆæ‰∏∫ÈÄèÊòé
;;;3393                                       TEXT_SetTextColor(hItem, GUI_WHITE);
;;;3394                                       if(lang == 0)
;;;3395                                       {
;;;3396                                           TEXT_SetFont(hItem,&GUI_Fontset_font);
;;;3397                                           TEXT_SetText(hItem,"ÈïçÊ∞¢ÁîµÊ±†");
;;;3398                                       }else{
;;;3399                                           TEXT_SetFont(hItem,&GUI_Font20_ASCII);
;;;3400                                           TEXT_SetText(hItem,"NiMH");
;;;3401                                       }
;;;3402                                       b_type = NiMH;
;;;3403                                       break;
;;;3404                                   }
;;;3405                                   case NiCd:
;;;3406                                   {
;;;3407                                       hItem = WM_GetDialogItem(hWinset, ID_TEXT_91);
;;;3408                                       TEXT_SetBkColor(hItem,GUI_INVALID_COLOR);//ÈÄâÈ°πËÉåÊôØËâ≤ËÆæ‰∏∫ÈÄèÊòé
;;;3409                                       TEXT_SetTextColor(hItem, GUI_WHITE);
;;;3410                                       if(lang == 0)
;;;3411                                       {
;;;3412                                           TEXT_SetFont(hItem,&GUI_Fontset_font);
;;;3413                                           TEXT_SetText(hItem,"ÈïçÈïâÁîµÊ±†");
;;;3414                                       }else{
;;;3415                                           TEXT_SetFont(hItem,&GUI_Font20_ASCII);
;;;3416                                           TEXT_SetText(hItem,"NiCd");
;;;3417                                       }
;;;3418                                       b_type = NiCd;
;;;3419                                       break;
;;;3420                                   }
;;;3421                                   case SLA:
;;;3422                                   {
;;;3423                                       hItem = WM_GetDialogItem(hWinset, ID_TEXT_91);
;;;3424                                       TEXT_SetBkColor(hItem,GUI_INVALID_COLOR);//ÈÄâÈ°πËÉåÊôØËâ≤ËÆæ‰∏∫ÈÄèÊòé
;;;3425                                       TEXT_SetTextColor(hItem, GUI_WHITE);
;;;3426                                       if(lang == 0)
;;;3427                                       {
;;;3428                                           TEXT_SetFont(hItem,&GUI_Fontset_font);
;;;3429                                           TEXT_SetText(hItem,"Â∞èÂûãÈìÖÈÖ∏ÁîµÊ±†");
;;;3430                                       }else{
;;;3431                                           TEXT_SetFont(hItem,&GUI_Font20_ASCII);
;;;3432                                           TEXT_SetText(hItem,"SLA");
;;;3433                                       }
;;;3434                                       b_type = SLA;
;;;3435                                       break;
;;;3436                                   }
;;;3437                                   case LiMH:
;;;3438                                   {
;;;3439                                       hItem = WM_GetDialogItem(hWinset, ID_TEXT_91);
;;;3440                                       TEXT_SetBkColor(hItem,GUI_INVALID_COLOR);//ÈÄâÈ°πËÉåÊôØËâ≤ËÆæ‰∏∫ÈÄèÊòé
;;;3441                                       TEXT_SetTextColor(hItem, GUI_WHITE);
;;;3442                                       if(lang == 0)
;;;3443                                       {
;;;3444                                           TEXT_SetFont(hItem,&GUI_Fontset_font);
;;;3445                                           TEXT_SetText(hItem,"ÈîÇÈî∞ÁîµÊ±†");
;;;3446                                       }else{
;;;3447                                           TEXT_SetFont(hItem,&GUI_Font20_ASCII);
;;;3448                                           TEXT_SetText(hItem,"LiMH");
;;;3449                                       }
;;;3450                                       b_type = LiMH;
;;;3451                                       break;
;;;3452                                   }
;;;3453                               }
;;;3454                           
;;;3455                               hItem = WM_GetDialogItem(hWinset, ID_TEXT_92);
;;;3456                               TEXT_SetText(hItem,"");
;;;3457                               TEXT_SetBkColor(hItem,GUI_INVALID_COLOR);//ÈÄâÈ°πËÉåÊôØËâ≤ËÆæ‰∏∫ÈÄèÊòé
;;;3458                           
;;;3459                               hItem = WM_GetDialogItem(hWinset, ID_TEXT_93);
;;;3460                               TEXT_SetText(hItem,"");
;;;3461                               
;;;3462                               hItem = WM_GetDialogItem(hWinset, ID_TEXT_94);
;;;3463                               TEXT_SetText(hItem,"");
;;;3464                               
;;;3465                               hItem = WM_GetDialogItem(hWinset, ID_TEXT_95);
;;;3466                               TEXT_SetText(hItem,"");
;;;3467   
;;;3468                               Write_btype();
;;;3469                               set_sw = set_42;
;;;3470                               break;                        
;;;3471                       }
;;;3472                       case set_45:
;;;3473                       {
;;;3474                               WM_HWIN hItem;
;;;3475   //                            WM_InvalidateWindow(hWinset);
;;;3476                  
;;;3477                               hItem = WM_GetDialogItem(hWinset, ID_TEXT_90);
;;;3478                               TEXT_SetBkColor(hItem,0x00BFFFFF);//ÈÄâÈ°πËÉåÊôØËâ≤ËÆæ‰∏∫Á±≥Ëâ≤
;;;3479                               TEXT_SetTextColor(hItem, GUI_BLACK);
;;;3480                           
;;;3481                               hItem = WM_GetDialogItem(hWinset, ID_TEXT_134);
;;;3482                               if(lang == 0)
;;;3483   							{
;;;3484   								if(test_mode == 1)
;;;3485   								{
;;;3486   									TEXT_SetFont(hItem,&GUI_Fontset_font);//ËÆæÂÆöÊñáÊú¨Â≠ó‰Ωì
;;;3487   									TEXT_SetText(hItem,"Á≤æÂáÜ");
;;;3488   								}else if(test_mode == 0){
;;;3489   									TEXT_SetFont(hItem,&GUI_Fontset_font);//ËÆæÂÆöÊñáÊú¨Â≠ó‰Ωì
;;;3490   									TEXT_SetText(hItem,"Âø´ÈÄü");
;;;3491   								}
;;;3492   							}else{
;;;3493   								if(test_mode == 1)
;;;3494   								{
;;;3495   									TEXT_SetFont(hItem,&GUI_Font20_ASCII);//ËÆæÂÆöÊñáÊú¨Â≠ó‰Ωì
;;;3496   									TEXT_SetText(hItem,"ACCURATE");
;;;3497   								}else if(test_mode == 0){
;;;3498   									TEXT_SetFont(hItem,&GUI_Font20_ASCII);//ËÆæÂÆöÊñáÊú¨Â≠ó‰Ωì
;;;3499   									TEXT_SetText(hItem,"FAST");
;;;3500   								}
;;;3501   							}
;;;3502                           
;;;3503   							hItem = WM_GetDialogItem(hWinset, ID_TEXT_166);
;;;3504                               if(lang == 0)
;;;3505   							{
;;;3506   								WM_HWIN hItem;
;;;3507   								hItem = WM_GetDialogItem(hWinset, ID_TEXT_166);
;;;3508   								TEXT_SetTextColor(hItem, GUI_WHITE);//ËÆæÁΩÆÂ≠ó‰ΩìÈ¢úËâ≤
;;;3509   								TEXT_SetFont(hItem,&GUI_Fontset_font);//ËÆæÂÆöÊñáÊú¨Â≠ó‰Ωì
;;;3510   								GUI_UC_SetEncodeUTF8();
;;;3511   								TEXT_SetText(hItem,"‰∏≠Êñá");
;;;3512   							}else{
;;;3513   								WM_HWIN hItem;
;;;3514   								hItem = WM_GetDialogItem(hWinset, ID_TEXT_166);
;;;3515   								TEXT_SetTextColor(hItem, GUI_WHITE);//ËÆæÁΩÆÂ≠ó‰ΩìÈ¢úËâ≤
;;;3516   								TEXT_SetFont(hItem,&GUI_Font20_ASCII);//ËÆæÂÆöÊñáÊú¨Â≠ó‰Ωì
;;;3517   								GUI_UC_SetEncodeUTF8();
;;;3518   								TEXT_SetText(hItem,"ENGLISH");
;;;3519   							}
;;;3520                               switch(buffer)
;;;3521                               {
;;;3522                                   case Lion:
;;;3523                                   {
;;;3524                                       hItem = WM_GetDialogItem(hWinset, ID_TEXT_91);
;;;3525                                       TEXT_SetBkColor(hItem,GUI_INVALID_COLOR);//ÈÄâÈ°πËÉåÊôØËâ≤ËÆæ‰∏∫ÈÄèÊòé
;;;3526                                       TEXT_SetTextColor(hItem, GUI_WHITE);
;;;3527                                       if(lang == 0)
;;;3528                                       {
;;;3529                                           TEXT_SetFont(hItem,&GUI_Fontset_font);
;;;3530                                           TEXT_SetText(hItem,"ÈîÇÁîµÊ±†");
;;;3531                                       }else{
;;;3532                                           TEXT_SetFont(hItem,&GUI_Font20_ASCII);
;;;3533                                           TEXT_SetText(hItem,"Lion");
;;;3534                                       }
;;;3535                                       b_type = Lion;
;;;3536                                       break;
;;;3537                                   }
;;;3538                                   case NiMH:
;;;3539                                   {
;;;3540                                       hItem = WM_GetDialogItem(hWinset, ID_TEXT_91);
;;;3541                                       TEXT_SetBkColor(hItem,GUI_INVALID_COLOR);//ÈÄâÈ°πËÉåÊôØËâ≤ËÆæ‰∏∫ÈÄèÊòé
;;;3542                                       TEXT_SetTextColor(hItem, GUI_WHITE);
;;;3543                                       if(lang == 0)
;;;3544                                       {
;;;3545                                           TEXT_SetFont(hItem,&GUI_Fontset_font);
;;;3546                                           TEXT_SetText(hItem,"ÈïçÊ∞¢ÁîµÊ±†");
;;;3547                                       }else{
;;;3548                                           TEXT_SetFont(hItem,&GUI_Font20_ASCII);
;;;3549                                           TEXT_SetText(hItem,"NiMH");
;;;3550                                       }
;;;3551                                       b_type = NiMH;
;;;3552                                       break;
;;;3553                                   }
;;;3554                                   case NiCd:
;;;3555                                   {
;;;3556                                       hItem = WM_GetDialogItem(hWinset, ID_TEXT_91);
;;;3557                                       TEXT_SetBkColor(hItem,GUI_INVALID_COLOR);//ÈÄâÈ°πËÉåÊôØËâ≤ËÆæ‰∏∫ÈÄèÊòé
;;;3558                                       TEXT_SetTextColor(hItem, GUI_WHITE);
;;;3559                                       if(lang == 0)
;;;3560                                       {
;;;3561                                           TEXT_SetFont(hItem,&GUI_Fontset_font);
;;;3562                                           TEXT_SetText(hItem,"ÈïçÈïâÁîµÊ±†");
;;;3563                                       }else{
;;;3564                                           TEXT_SetFont(hItem,&GUI_Font20_ASCII);
;;;3565                                           TEXT_SetText(hItem,"NiCd");
;;;3566                                       }
;;;3567                                       b_type = NiCd;
;;;3568                                       break;
;;;3569                                   }
;;;3570                                   case SLA:
;;;3571                                   {
;;;3572                                       hItem = WM_GetDialogItem(hWinset, ID_TEXT_91);
;;;3573                                       TEXT_SetBkColor(hItem,GUI_INVALID_COLOR);//ÈÄâÈ°πËÉåÊôØËâ≤ËÆæ‰∏∫ÈÄèÊòé
;;;3574                                       TEXT_SetTextColor(hItem, GUI_WHITE);
;;;3575                                       if(lang == 0)
;;;3576                                       {
;;;3577                                           TEXT_SetFont(hItem,&GUI_Fontset_font);
;;;3578                                           TEXT_SetText(hItem,"Â∞èÂûãÈìÖÈÖ∏ÁîµÊ±†");
;;;3579                                       }else{
;;;3580                                           TEXT_SetFont(hItem,&GUI_Font20_ASCII);
;;;3581                                           TEXT_SetText(hItem,"SLA");
;;;3582                                       }
;;;3583                                       b_type = SLA;
;;;3584                                       break;
;;;3585                                   }
;;;3586                                   case LiMH:
;;;3587                                   {
;;;3588                                       hItem = WM_GetDialogItem(hWinset, ID_TEXT_91);
;;;3589                                       TEXT_SetBkColor(hItem,GUI_INVALID_COLOR);//ÈÄâÈ°πËÉåÊôØËâ≤ËÆæ‰∏∫ÈÄèÊòé
;;;3590                                       TEXT_SetTextColor(hItem, GUI_WHITE);
;;;3591                                       if(lang == 0)
;;;3592                                       {
;;;3593                                           TEXT_SetFont(hItem,&GUI_Fontset_font);
;;;3594                                           TEXT_SetText(hItem,"ÈîÇÈî∞ÁîµÊ±†");
;;;3595                                       }else{
;;;3596                                           TEXT_SetFont(hItem,&GUI_Font20_ASCII);
;;;3597                                           TEXT_SetText(hItem,"LiMH");
;;;3598                                       }
;;;3599                                       b_type = LiMH;
;;;3600                                       break;
;;;3601                                   }
;;;3602                               }
;;;3603                           
;;;3604                               hItem = WM_GetDialogItem(hWinset, ID_TEXT_92);
;;;3605                               TEXT_SetText(hItem,"");
;;;3606                           
;;;3607                               hItem = WM_GetDialogItem(hWinset, ID_TEXT_93);
;;;3608                               TEXT_SetText(hItem,"");
;;;3609                               TEXT_SetBkColor(hItem,GUI_INVALID_COLOR);//ÈÄâÈ°πËÉåÊôØËâ≤ËÆæ‰∏∫ÈÄèÊòé
;;;3610                               
;;;3611                               hItem = WM_GetDialogItem(hWinset, ID_TEXT_94);
;;;3612                               TEXT_SetText(hItem,"");
;;;3613                               
;;;3614                               hItem = WM_GetDialogItem(hWinset, ID_TEXT_95);
;;;3615                               TEXT_SetText(hItem,"");
;;;3616   
;;;3617                               Write_btype();
;;;3618                               set_sw = set_42;
;;;3619                               break;                        
;;;3620                       }
;;;3621                       case set_46:
;;;3622                       {
;;;3623                               WM_HWIN hItem;
;;;3624   //                            WM_InvalidateWindow(hWinset);
;;;3625                  
;;;3626                               hItem = WM_GetDialogItem(hWinset, ID_TEXT_90);
000112  4604              MOV      r4,r0
000114  4619              MOV      r1,r3
000116  4610              MOV      r0,r2
000118  f7fffffe          BL       WM_GetDialogItem
00011c  4606              MOV      r6,r0
;;;3627                               TEXT_SetBkColor(hItem,0x00BFFFFF);//ÈÄâÈ°πËÉåÊôØËâ≤ËÆæ‰∏∫Á±≥Ëâ≤
00011e  49c0              LDR      r1,|L4.1056|
000120  4630              MOV      r0,r6
000122  f7fffffe          BL       TEXT_SetBkColor
;;;3628                               TEXT_SetTextColor(hItem, GUI_BLACK);
000126  2100              MOVS     r1,#0
000128  4630              MOV      r0,r6
00012a  f7fffffe          BL       TEXT_SetTextColor
;;;3629                           
;;;3630                               hItem = WM_GetDialogItem(hWinset, ID_TEXT_134);
00012e  f6401123          MOV      r1,#0x923
000132  6860              LDR      r0,[r4,#4]  ; hWinset
000134  f7fffffe          BL       WM_GetDialogItem
000138  4606              MOV      r6,r0
;;;3631                               if(lang == 0)
00013a  7860              LDRB     r0,[r4,#1]  ; lang
00013c  2800              CMP      r0,#0
00013e  f00187f6          BEQ.W    |L4.8494|
;;;3632   							{
;;;3633   								if(test_mode == 1)
;;;3634   								{
;;;3635   									TEXT_SetFont(hItem,&GUI_Fontset_font);//ËÆæÂÆöÊñáÊú¨Â≠ó‰Ωì
;;;3636   									TEXT_SetText(hItem,"Á≤æÂáÜ");
;;;3637   								}else if(test_mode == 0){
;;;3638   									TEXT_SetFont(hItem,&GUI_Fontset_font);//ËÆæÂÆöÊñáÊú¨Â≠ó‰Ωì
;;;3639   									TEXT_SetText(hItem,"Âø´ÈÄü");
;;;3640   								}
;;;3641   							}else{
;;;3642   								if(test_mode == 1)
000142  7820              LDRB     r0,[r4,#0]  ; test_mode
000144  2801              CMP      r0,#1
000146  f002800b          BEQ.W    |L4.8544|
;;;3643   								{
;;;3644   									TEXT_SetFont(hItem,&GUI_Font20_ASCII);//ËÆæÂÆöÊñáÊú¨Â≠ó‰Ωì
;;;3645   									TEXT_SetText(hItem,"ACCURATE");
;;;3646   								}else if(test_mode == 0){
00014a  7820              LDRB     r0,[r4,#0]  ; test_mode
00014c  2800              CMP      r0,#0
00014e  f0028011          BEQ.W    |L4.8564|
000152  f002b818          B.W      |L4.8582|
                  |L4.342|
000156  4db3              LDR      r5,|L4.1060|
000158  f04f0b08          MOV      r11,#8                ;2741
00015c  f2427610          MOV      r6,#0x2710            ;2709
000160  2953              CMP      r1,#0x53              ;2194
000162  d07d              BEQ      |L4.608|
000164  dc7d              BGT      |L4.610|
000166  2948              CMP      r1,#0x48              ;2194
000168  d07c              BEQ      |L4.612|
00016a  f6401b36          MOV      r11,#0x936            ;2401
00016e  2951              CMP      r1,#0x51              ;2194
000170  d079              BEQ      |L4.614|
000172  2952              CMP      r1,#0x52              ;2194
000174  d1a5              BNE      |L4.194|
000176  f6401135          MOV      r1,#0x935             ;2422
00017a  e001              B        |L4.384|
                  |L4.380|
00017c  e3f3              B        |L4.2406|
                  |L4.382|
00017e  e092              B        |L4.678|
                  |L4.384|
000180  4606              MOV      r6,r0                 ;2422
000182  4610              MOV      r0,r2                 ;2422
000184  f7fffffe          BL       WM_GetDialogItem
000188  9001              STR      r0,[sp,#4]            ;2422
00018a  46ca              MOV      r10,r9                ;2423
00018c  4651              MOV      r1,r10                ;2423
00018e  9801              LDR      r0,[sp,#4]            ;2423
000190  f7fffffe          BL       TEXT_SetBkColor
000194  46b9              MOV      r9,r7                 ;2424
000196  4649              MOV      r1,r9                 ;2424
000198  9801              LDR      r0,[sp,#4]            ;2424
00019a  f7fffffe          BL       TEXT_SetTextColor
00019e  4fa2              LDR      r7,|L4.1064|
0001a0  7838              LDRB     r0,[r7,#0]            ;2425  ; dot_flag
0001a2  2800              CMP      r0,#0                 ;2425
0001a4  d06d              BEQ      |L4.642|
0001a6  7838              LDRB     r0,[r7,#0]            ;2427  ; dot_flag
0001a8  b1b0              CBZ      r0,|L4.472|
0001aa  9404              STR      r4,[sp,#0x10]         ;2428
0001ac  9405              STR      r4,[sp,#0x14]         ;2428
0001ae  783a              LDRB     r2,[r7,#0]            ;2429  ; dot_flag
0001b0  4999              LDR      r1,|L4.1048|
0001b2  1cd2              ADDS     r2,r2,#3              ;2429
0001b4  a804              ADD      r0,sp,#0x10           ;2429
0001b6  e001              B        |L4.444|
                  |L4.440|
0001b8  e3fd              B        |L4.2486|
                  |L4.442|
0001ba  e3fd              B        |L4.2488|
                  |L4.444|
0001bc  f7fffffe          BL       strncpy
0001c0  a804              ADD      r0,sp,#0x10           ;2430
0001c2  f7fffffe          BL       __hardfp_atof
0001c6  ec532b18          VMOV     r2,r3,d8              ;2430
0001ca  ec510b10          VMOV     r0,r1,d0              ;2430
0001ce  f7fffffe          BL       __aeabi_dmul
0001d2  f7fffffe          BL       __aeabi_d2iz
0001d6  6068              STR      r0,[r5,#4]            ;2430  ; InFlashSave
                  |L4.472|
0001d8  ed950a00          VLDR     s0,[r5,#0]            ;2432
0001dc  eef80ac0          VCVT.F32.S32 s1,s0                 ;2432
0001e0  ed9f8a87          VLDR     s16,|L4.1024|
0001e4  ee800a88          VDIV.F32 s0,s1,s16             ;2432
0001e8  ee100a10          VMOV     r0,s0                 ;2432
0001ec  f7fffffe          BL       __aeabi_f2d
0001f0  ec410b10          VMOV     d0,r0,r1              ;2432
0001f4  a18d              ADR      r1,|L4.1068|
0001f6  ec532b10          VMOV     r2,r3,d0              ;2432
0001fa  a804              ADD      r0,sp,#0x10           ;2432
0001fc  f7fffffe          BL       __2sprintf
000200  a904              ADD      r1,sp,#0x10           ;2433
000202  9801              LDR      r0,[sp,#4]            ;2433
000204  f7fffffe          BL       TEXT_SetText
000208  4659              MOV      r1,r11                ;2435
00020a  6870              LDR      r0,[r6,#4]            ;2435  ; hWinset
00020c  f7fffffe          BL       WM_GetDialogItem
000210  4683              MOV      r11,r0                ;2435
000212  4651              MOV      r1,r10                ;2436
000214  4658              MOV      r0,r11                ;2436
000216  f7fffffe          BL       TEXT_SetBkColor
00021a  4649              MOV      r1,r9                 ;2437
00021c  4658              MOV      r0,r11                ;2437
00021e  f7fffffe          BL       TEXT_SetTextColor
000222  ed950a01          VLDR     s0,[r5,#4]            ;2439
000226  eef80ac0          VCVT.F32.S32 s1,s0                 ;2439
00022a  ee800a88          VDIV.F32 s0,s1,s16             ;2439
00022e  ee100a10          VMOV     r0,s0                 ;2439
000232  f7fffffe          BL       __aeabi_f2d
000236  ec410b10          VMOV     d0,r0,r1              ;2439
00023a  a17c              ADR      r1,|L4.1068|
00023c  ec532b10          VMOV     r2,r3,d0              ;2439
000240  a804              ADD      r0,sp,#0x10           ;2439
000242  f7fffffe          BL       __2sprintf
000246  a904              ADD      r1,sp,#0x10           ;2440
000248  4658              MOV      r0,r11                ;2440
00024a  f7fffffe          BL       TEXT_SetText
00024e  f640012f          MOV      r1,#0x82f             ;2443
000252  6870              LDR      r0,[r6,#4]            ;2443  ; hWinset
000254  f7fffffe          BL       WM_GetDialogItem
000258  4605              MOV      r5,r0                 ;2443
00025a  4971              LDR      r1,|L4.1056|
00025c  4628              MOV      r0,r5                 ;2444
00025e  e011              B        |L4.644|
                  |L4.608|
000260  e3fc              B        |L4.2652|
                  |L4.610|
000262  e025              B        |L4.688|
                  |L4.612|
000264  e3fb              B        |L4.2654|
                  |L4.614|
000266  e20b              B        |L4.1664|
000268  e37e              B        |L4.2408|
00026a  e305              B        |L4.2168|
00026c  e17e              B        |L4.1388|
00026e  e0f3              B        |L4.1112|
000270  e3f6              B        |L4.2656|
000272  e3c5              B        |L4.2560|
000274  e349              B        |L4.2314|
000276  e2c4              B        |L4.2050|
000278  e295              B        |L4.1958|
00027a  e090              B        |L4.926|
00027c  e071              B        |L4.866|
00027e  e054              B        |L4.810|
000280  e037              B        |L4.754|
                  |L4.642|
000282  e288              B        |L4.1942|
                  |L4.644|
000284  f7fffffe          BL       TEXT_SetBkColor
000288  2100              MOVS     r1,#0                 ;2445
00028a  4628              MOV      r0,r5                 ;2445
00028c  f7fffffe          BL       TEXT_SetTextColor
000290  4a64              LDR      r2,|L4.1060|
000292  2128              MOVS     r1,#0x28              ;2447
000294  4867              LDR      r0,|L4.1076|
000296  f7fffffe          BL       Flash_Write32BitDatas
00029a  495a              LDR      r1,|L4.1028|
00029c  2004              MOVS     r0,#4                 ;2448
00029e  7008              STRB     r0,[r1,#0]            ;2448
0002a0  f8884000          STRB     r4,[r8,#0]            ;2449
0002a4  703c              STRB     r4,[r7,#0]            ;2450
                  |L4.678|
;;;3647   									TEXT_SetFont(hItem,&GUI_Font20_ASCII);//ËÆæÂÆöÊñáÊú¨Â≠ó‰Ωì
;;;3648   									TEXT_SetText(hItem,"FAST");
;;;3649   								}
;;;3650   							}
;;;3651                           
;;;3652   							hItem = WM_GetDialogItem(hWinset, ID_TEXT_166);
;;;3653                               if(lang == 0)
;;;3654   							{
;;;3655   								WM_HWIN hItem;
;;;3656   								hItem = WM_GetDialogItem(hWinset, ID_TEXT_166);
;;;3657   								TEXT_SetTextColor(hItem, GUI_WHITE);//ËÆæÁΩÆÂ≠ó‰ΩìÈ¢úËâ≤
;;;3658   								TEXT_SetFont(hItem,&GUI_Fontset_font);//ËÆæÂÆöÊñáÊú¨Â≠ó‰Ωì
;;;3659   								GUI_UC_SetEncodeUTF8();
;;;3660   								TEXT_SetText(hItem,"‰∏≠Êñá");
;;;3661   							}else{
;;;3662   								WM_HWIN hItem;
;;;3663   								hItem = WM_GetDialogItem(hWinset, ID_TEXT_166);
;;;3664   								TEXT_SetTextColor(hItem, GUI_WHITE);//ËÆæÁΩÆÂ≠ó‰ΩìÈ¢úËâ≤
;;;3665   								TEXT_SetFont(hItem,&GUI_Font20_ASCII);//ËÆæÂÆöÊñáÊú¨Â≠ó‰Ωì
;;;3666   								GUI_UC_SetEncodeUTF8();
;;;3667   								TEXT_SetText(hItem,"ENGLISH");
;;;3668   							}
;;;3669   							
;;;3670                               switch(buffer)
;;;3671                               {
;;;3672                                   case Lion:
;;;3673                                   {
;;;3674                                       hItem = WM_GetDialogItem(hWinset, ID_TEXT_91);
;;;3675                                       TEXT_SetBkColor(hItem,GUI_INVALID_COLOR);//ÈÄâÈ°πËÉåÊôØËâ≤ËÆæ‰∏∫ÈÄèÊòé
;;;3676                                       TEXT_SetTextColor(hItem, GUI_WHITE);
;;;3677                                       if(lang == 0)
;;;3678                                       {
;;;3679                                           TEXT_SetFont(hItem,&GUI_Fontset_font);
;;;3680                                           TEXT_SetText(hItem,"ÈîÇÁîµÊ±†");
;;;3681                                       }else{
;;;3682                                           TEXT_SetFont(hItem,&GUI_Font20_ASCII);
;;;3683                                           TEXT_SetText(hItem,"Lion");
;;;3684                                       }
;;;3685                                       b_type = Lion;
;;;3686                                       break;
;;;3687                                   }
;;;3688                                   case NiMH:
;;;3689                                   {
;;;3690                                       hItem = WM_GetDialogItem(hWinset, ID_TEXT_91);
;;;3691                                       TEXT_SetBkColor(hItem,GUI_INVALID_COLOR);//ÈÄâÈ°πËÉåÊôØËâ≤ËÆæ‰∏∫ÈÄèÊòé
;;;3692                                       TEXT_SetTextColor(hItem, GUI_WHITE);
;;;3693                                       if(lang == 0)
;;;3694                                       {
;;;3695                                           TEXT_SetFont(hItem,&GUI_Fontset_font);
;;;3696                                           TEXT_SetText(hItem,"ÈïçÊ∞¢ÁîµÊ±†");
;;;3697                                       }else{
;;;3698                                           TEXT_SetFont(hItem,&GUI_Font20_ASCII);
;;;3699                                           TEXT_SetText(hItem,"NiMH");
;;;3700                                       }
;;;3701                                       b_type = NiMH;
;;;3702                                       break;
;;;3703                                   }
;;;3704                                   case NiCd:
;;;3705                                   {
;;;3706                                       hItem = WM_GetDialogItem(hWinset, ID_TEXT_91);
;;;3707                                       TEXT_SetBkColor(hItem,GUI_INVALID_COLOR);//ÈÄâÈ°πËÉåÊôØËâ≤ËÆæ‰∏∫ÈÄèÊòé
;;;3708                                       TEXT_SetTextColor(hItem, GUI_WHITE);
;;;3709                                       if(lang == 0)
;;;3710                                       {
;;;3711                                           TEXT_SetFont(hItem,&GUI_Fontset_font);
;;;3712                                           TEXT_SetText(hItem,"ÈïçÈïâÁîµÊ±†");
;;;3713                                       }else{
;;;3714                                           TEXT_SetFont(hItem,&GUI_Font20_ASCII);
;;;3715                                           TEXT_SetText(hItem,"NiCd");
;;;3716                                       }
;;;3717                                       b_type = NiCd;
;;;3718                                       break;
;;;3719                                   }
;;;3720                                   case SLA:
;;;3721                                   {
;;;3722                                       hItem = WM_GetDialogItem(hWinset, ID_TEXT_91);
;;;3723                                       TEXT_SetBkColor(hItem,GUI_INVALID_COLOR);//ÈÄâÈ°πËÉåÊôØËâ≤ËÆæ‰∏∫ÈÄèÊòé
;;;3724                                       TEXT_SetTextColor(hItem, GUI_WHITE);
;;;3725                                       if(lang == 0)
;;;3726                                       {
;;;3727                                           TEXT_SetFont(hItem,&GUI_Fontset_font);
;;;3728                                           TEXT_SetText(hItem,"Â∞èÂûãÈìÖÈÖ∏ÁîµÊ±†");
;;;3729                                       }else{
;;;3730                                           TEXT_SetFont(hItem,&GUI_Font20_ASCII);
;;;3731                                           TEXT_SetText(hItem,"SLA");
;;;3732                                       }
;;;3733                                       b_type = SLA;
;;;3734                                       break;
;;;3735                                   }
;;;3736                                   case LiMH:
;;;3737                                   {
;;;3738                                       hItem = WM_GetDialogItem(hWinset, ID_TEXT_91);
;;;3739                                       TEXT_SetBkColor(hItem,GUI_INVALID_COLOR);//ÈÄâÈ°πËÉåÊôØËâ≤ËÆæ‰∏∫ÈÄèÊòé
;;;3740                                       TEXT_SetTextColor(hItem, GUI_WHITE);
;;;3741                                       if(lang == 0)
;;;3742                                       {
;;;3743                                           TEXT_SetFont(hItem,&GUI_Fontset_font);
;;;3744                                           TEXT_SetText(hItem,"ÈîÇÈî∞ÁîµÊ±†");
;;;3745                                       }else{
;;;3746                                           TEXT_SetFont(hItem,&GUI_Font20_ASCII);
;;;3747                                           TEXT_SetText(hItem,"LiMH");
;;;3748                                       }
;;;3749                                       b_type = LiMH;
;;;3750                                       break;
;;;3751                                   }
;;;3752                               }
;;;3753                           
;;;3754                               hItem = WM_GetDialogItem(hWinset, ID_TEXT_92);
;;;3755                               TEXT_SetText(hItem,"");
;;;3756                           
;;;3757                               hItem = WM_GetDialogItem(hWinset, ID_TEXT_93);
;;;3758                               TEXT_SetText(hItem,"");
;;;3759                               
;;;3760                               hItem = WM_GetDialogItem(hWinset, ID_TEXT_94);
;;;3761                               TEXT_SetText(hItem,"");
;;;3762                               TEXT_SetBkColor(hItem,GUI_INVALID_COLOR);//ÈÄâÈ°πËÉåÊôØËâ≤ËÆæ‰∏∫ÈÄèÊòé
;;;3763                               
;;;3764                               hItem = WM_GetDialogItem(hWinset, ID_TEXT_95);
;;;3765                               TEXT_SetText(hItem,"");
;;;3766   
;;;3767                               Write_btype();
;;;3768                               set_sw = set_42;
;;;3769                               break;                        
;;;3770                       }
;;;3771                       case set_47:
;;;3772                       {
;;;3773                               WM_HWIN hItem;
;;;3774   //                            WM_InvalidateWindow(hWinset);
;;;3775                  
;;;3776                               hItem = WM_GetDialogItem(hWinset, ID_TEXT_90);
;;;3777                               TEXT_SetBkColor(hItem,0x00BFFFFF);//ÈÄâÈ°πËÉåÊôØËâ≤ËÆæ‰∏∫Á±≥Ëâ≤
;;;3778                               TEXT_SetTextColor(hItem, GUI_BLACK);
;;;3779                           
;;;3780                               hItem = WM_GetDialogItem(hWinset, ID_TEXT_134);
;;;3781                               if(lang == 0)
;;;3782   							{
;;;3783   								if(test_mode == 1)
;;;3784   								{
;;;3785   									TEXT_SetFont(hItem,&GUI_Fontset_font);//ËÆæÂÆöÊñáÊú¨Â≠ó‰Ωì
;;;3786   									TEXT_SetText(hItem,"Á≤æÂáÜ");
;;;3787   								}else if(test_mode == 0){
;;;3788   									TEXT_SetFont(hItem,&GUI_Fontset_font);//ËÆæÂÆöÊñáÊú¨Â≠ó‰Ωì
;;;3789   									TEXT_SetText(hItem,"Âø´ÈÄü");
;;;3790   								}
;;;3791   							}else{
;;;3792   								if(test_mode == 1)
;;;3793   								{
;;;3794   									TEXT_SetFont(hItem,&GUI_Font20_ASCII);//ËÆæÂÆöÊñáÊú¨Â≠ó‰Ωì
;;;3795   									TEXT_SetText(hItem,"ACCURATE");
;;;3796   								}else if(test_mode == 0){
;;;3797   									TEXT_SetFont(hItem,&GUI_Font20_ASCII);//ËÆæÂÆöÊñáÊú¨Â≠ó‰Ωì
;;;3798   									TEXT_SetText(hItem,"FAST");
;;;3799   								}
;;;3800   							}
;;;3801                           
;;;3802                               switch(buffer)
;;;3803                               {
;;;3804                                   case Lion:
;;;3805                                   {
;;;3806                                       hItem = WM_GetDialogItem(hWinset, ID_TEXT_91);
;;;3807                                       TEXT_SetBkColor(hItem,GUI_INVALID_COLOR);//ÈÄâÈ°πËÉåÊôØËâ≤ËÆæ‰∏∫ÈÄèÊòé
;;;3808                                       TEXT_SetTextColor(hItem, GUI_WHITE);
;;;3809                                       if(lang == 0)
;;;3810                                       {
;;;3811                                           TEXT_SetFont(hItem,&GUI_Fontset_font);
;;;3812                                           TEXT_SetText(hItem,"ÈîÇÁîµÊ±†");
;;;3813                                       }else{
;;;3814                                           TEXT_SetFont(hItem,&GUI_Font20_ASCII);
;;;3815                                           TEXT_SetText(hItem,"Lion");
;;;3816                                       }
;;;3817                                       b_type = Lion;
;;;3818                                       break;
;;;3819                                   }
;;;3820                                   case NiMH:
;;;3821                                   {
;;;3822                                       hItem = WM_GetDialogItem(hWinset, ID_TEXT_91);
;;;3823                                       TEXT_SetBkColor(hItem,GUI_INVALID_COLOR);//ÈÄâÈ°πËÉåÊôØËâ≤ËÆæ‰∏∫ÈÄèÊòé
;;;3824                                       TEXT_SetTextColor(hItem, GUI_WHITE);
;;;3825                                       if(lang == 0)
;;;3826                                       {
;;;3827                                           TEXT_SetFont(hItem,&GUI_Fontset_font);
;;;3828                                           TEXT_SetText(hItem,"ÈïçÊ∞¢ÁîµÊ±†");
;;;3829                                       }else{
;;;3830                                           TEXT_SetFont(hItem,&GUI_Font20_ASCII);
;;;3831                                           TEXT_SetText(hItem,"NiMH");
;;;3832                                       }
;;;3833                                       b_type = NiMH;
;;;3834                                       break;
;;;3835                                   }
;;;3836                                   case NiCd:
;;;3837                                   {
;;;3838                                       hItem = WM_GetDialogItem(hWinset, ID_TEXT_91);
;;;3839                                       TEXT_SetBkColor(hItem,GUI_INVALID_COLOR);//ÈÄâÈ°πËÉåÊôØËâ≤ËÆæ‰∏∫ÈÄèÊòé
;;;3840                                       TEXT_SetTextColor(hItem, GUI_WHITE);
;;;3841                                       if(lang == 0)
;;;3842                                       {
;;;3843                                           TEXT_SetFont(hItem,&GUI_Fontset_font);
;;;3844                                           TEXT_SetText(hItem,"ÈïçÈïâÁîµÊ±†");
;;;3845                                       }else{
;;;3846                                           TEXT_SetFont(hItem,&GUI_Font20_ASCII);
;;;3847                                           TEXT_SetText(hItem,"NiCd");
;;;3848                                       }
;;;3849                                       b_type = NiCd;
;;;3850                                       break;
;;;3851                                   }
;;;3852                                   case SLA:
;;;3853                                   {
;;;3854                                       hItem = WM_GetDialogItem(hWinset, ID_TEXT_91);
;;;3855                                       TEXT_SetBkColor(hItem,GUI_INVALID_COLOR);//ÈÄâÈ°πËÉåÊôØËâ≤ËÆæ‰∏∫ÈÄèÊòé
;;;3856                                       TEXT_SetTextColor(hItem, GUI_WHITE);
;;;3857                                       if(lang == 0)
;;;3858                                       {
;;;3859                                           TEXT_SetFont(hItem,&GUI_Fontset_font);
;;;3860                                           TEXT_SetText(hItem,"Â∞èÂûãÈìÖÈÖ∏ÁîµÊ±†");
;;;3861                                       }else{
;;;3862                                           TEXT_SetFont(hItem,&GUI_Font20_ASCII);
;;;3863                                           TEXT_SetText(hItem,"SLA");
;;;3864                                       }
;;;3865                                       b_type = SLA;
;;;3866                                       break;
;;;3867                                   }
;;;3868                                   case LiMH:
;;;3869                                   {
;;;3870                                       hItem = WM_GetDialogItem(hWinset, ID_TEXT_91);
;;;3871                                       TEXT_SetBkColor(hItem,GUI_INVALID_COLOR);//ÈÄâÈ°πËÉåÊôØËâ≤ËÆæ‰∏∫ÈÄèÊòé
;;;3872                                       TEXT_SetTextColor(hItem, GUI_WHITE);
;;;3873                                       if(lang == 0)
;;;3874                                       {
;;;3875                                           TEXT_SetFont(hItem,&GUI_Fontset_font);
;;;3876                                           TEXT_SetText(hItem,"ÈîÇÈî∞ÁîµÊ±†");
;;;3877                                       }else{
;;;3878                                           TEXT_SetFont(hItem,&GUI_Font20_ASCII);
;;;3879                                           TEXT_SetText(hItem,"LiMH");
;;;3880                                       }
;;;3881                                       b_type = LiMH;
;;;3882                                       break;
;;;3883                                   }
;;;3884                               }
;;;3885                           
;;;3886                               hItem = WM_GetDialogItem(hWinset, ID_TEXT_92);
;;;3887                               TEXT_SetText(hItem,"");
;;;3888                           
;;;3889                               hItem = WM_GetDialogItem(hWinset, ID_TEXT_93);
;;;3890                               TEXT_SetText(hItem,"");
;;;3891                               
;;;3892                               hItem = WM_GetDialogItem(hWinset, ID_TEXT_94);
;;;3893                               TEXT_SetText(hItem,"");
;;;3894                               
;;;3895                               hItem = WM_GetDialogItem(hWinset, ID_TEXT_95);
;;;3896                               TEXT_SetText(hItem,"");
;;;3897                               TEXT_SetBkColor(hItem,GUI_INVALID_COLOR);//ÈÄâÈ°πËÉåÊôØËâ≤ËÆæ‰∏∫ÈÄèÊòé
;;;3898   
;;;3899                               Write_btype();
;;;3900                               set_sw = set_42;
;;;3901                               break;                        
;;;3902                       }
;;;3903                       
;;;3904                       default:break;
;;;3905   //                    return Beep_Flag;
;;;3906                   }
;;;3907               }
0002a6  b007              ADD      sp,sp,#0x1c
0002a8  ecbd8b06          VPOP     {d8-d10}
0002ac  e8bd8ff0          POP      {r4-r11,pc}
                  |L4.688|
0002b0  2954              CMP      r1,#0x54              ;2194
0002b2  d072              BEQ      |L4.922|
0002b4  2959              CMP      r1,#0x59              ;2194
0002b6  d1f6              BNE      |L4.678|
0002b8  4605              MOV      r5,r0                 ;2840
0002ba  7840              LDRB     r0,[r0,#1]            ;2840  ; lang
0002bc  2801              CMP      r0,#1                 ;2840
0002be  d06d              BEQ      |L4.924|
0002c0  f6401141          MOV      r1,#0x941             ;2852
0002c4  4610              MOV      r0,r2                 ;2852
0002c6  f7fffffe          BL       WM_GetDialogItem
0002ca  4604              MOV      r4,r0                 ;2852
0002cc  4639              MOV      r1,r7                 ;2853
0002ce  4620              MOV      r0,r4                 ;2853
0002d0  f7fffffe          BL       TEXT_SetTextColor
0002d4  4958              LDR      r1,|L4.1080|
0002d6  4620              MOV      r0,r4                 ;2854
0002d8  f7fffffe          BL       TEXT_SetFont
0002dc  f7fffffe          BL       GUI_UC_SetEncodeUTF8
0002e0  a156              ADR      r1,|L4.1084|
0002e2  4620              MOV      r0,r4                 ;2856
0002e4  f7fffffe          BL       TEXT_SetText
0002e8  f885a001          STRB     r10,[r5,#1]           ;2857
0002ec  f7fffffe          BL       Wrtite_S
0002f0  e7d9              B        |L4.678|
                  |L4.754|
0002f2  4d54              LDR      r5,|L4.1092|
0002f4  7828              LDRB     r0,[r5,#0]            ;2197  ; para_set1
0002f6  f6400132          MOV      r1,#0x832             ;2202
0002fa  b158              CBZ      r0,|L4.788|
0002fc  28ff              CMP      r0,#0xff              ;2197
0002fe  d1d2              BNE      |L4.678|
000300  4610              MOV      r0,r2                 ;2202
000302  f7fffffe          BL       WM_GetDialogItem
000306  a150              ADR      r1,|L4.1096|
000308  f7fffffe          BL       TEXT_SetText
00030c  702c              STRB     r4,[r5,#0]            ;2204
00030e  f7fffffe          BL       Wrtite_S
000312  e7c8              B        |L4.678|
                  |L4.788|
000314  4610              MOV      r0,r2                 ;2212
000316  f7fffffe          BL       WM_GetDialogItem
00031a  a14c              ADR      r1,|L4.1100|
00031c  f7fffffe          BL       TEXT_SetText
000320  f885a000          STRB     r10,[r5,#0]           ;2214
000324  f7fffffe          BL       Wrtite_S
000328  e7bd              B        |L4.678|
                  |L4.810|
00032a  4d49              LDR      r5,|L4.1104|
00032c  7828              LDRB     r0,[r5,#0]            ;2223  ; para_set2
00032e  f6400133          MOV      r1,#0x833             ;2228
000332  b158              CBZ      r0,|L4.844|
000334  28ff              CMP      r0,#0xff              ;2223
000336  d1b6              BNE      |L4.678|
000338  4610              MOV      r0,r2                 ;2228
00033a  f7fffffe          BL       WM_GetDialogItem
00033e  a142              ADR      r1,|L4.1096|
000340  f7fffffe          BL       TEXT_SetText
000344  702c              STRB     r4,[r5,#0]            ;2230
000346  f7fffffe          BL       Write_oct
00034a  e7ac              B        |L4.678|
                  |L4.844|
00034c  4610              MOV      r0,r2                 ;2238
00034e  f7fffffe          BL       WM_GetDialogItem
000352  a13e              ADR      r1,|L4.1100|
000354  f7fffffe          BL       TEXT_SetText
000358  f885a000          STRB     r10,[r5,#0]           ;2240
00035c  f7fffffe          BL       Write_oct
000360  e7a1              B        |L4.678|
                  |L4.866|
000362  4d3c              LDR      r5,|L4.1108|
000364  7828              LDRB     r0,[r5,#0]            ;2249  ; para_set4
000366  f6400134          MOV      r1,#0x834             ;2254
00036a  b158              CBZ      r0,|L4.900|
00036c  28ff              CMP      r0,#0xff              ;2249
00036e  d19a              BNE      |L4.678|
000370  4610              MOV      r0,r2                 ;2254
000372  f7fffffe          BL       WM_GetDialogItem
000376  a134              ADR      r1,|L4.1096|
000378  f7fffffe          BL       TEXT_SetText
00037c  702c              STRB     r4,[r5,#0]            ;2256
00037e  f7fffffe          BL       Write_alarm
                  |L4.898|
000382  e790              B        |L4.678|
                  |L4.900|
000384  4610              MOV      r0,r2                 ;2264
000386  f7fffffe          BL       WM_GetDialogItem
00038a  a130              ADR      r1,|L4.1100|
00038c  f7fffffe          BL       TEXT_SetText
000390  f885a000          STRB     r10,[r5,#0]           ;2266
000394  f7fffffe          BL       Write_alarm
000398  e785              B        |L4.678|
                  |L4.922|
00039a  e3f5              B        |L4.2952|
                  |L4.924|
00039c  e3f5              B        |L4.2954|
                  |L4.926|
00039e  4606              MOV      r6,r0                 ;2278
0003a0  f640012e          MOV      r1,#0x82e             ;2278
0003a4  4610              MOV      r0,r2                 ;2278
0003a6  f7fffffe          BL       WM_GetDialogItem
0003aa  4680              MOV      r8,r0                 ;2278
0003ac  4649              MOV      r1,r9                 ;2279
0003ae  4640              MOV      r0,r8                 ;2279
0003b0  f7fffffe          BL       TEXT_SetBkColor
0003b4  4639              MOV      r1,r7                 ;2280
0003b6  4640              MOV      r0,r8                 ;2280
0003b8  f7fffffe          BL       TEXT_SetTextColor
0003bc  f44f6106          MOV      r1,#0x860             ;2282
0003c0  6870              LDR      r0,[r6,#4]            ;2282  ; hWinset
0003c2  f7fffffe          BL       WM_GetDialogItem
0003c6  4606              MOV      r6,r0                 ;2282
0003c8  4915              LDR      r1,|L4.1056|
0003ca  4630              MOV      r0,r6                 ;2283
0003cc  f7fffffe          BL       TEXT_SetBkColor
0003d0  2100              MOVS     r1,#0                 ;2284
0003d2  4630              MOV      r0,r6                 ;2284
0003d4  f7fffffe          BL       TEXT_SetTextColor
0003d8  9406              STR      r4,[sp,#0x18]         ;2286
0003da  e006              B        |L4.1002|
                  |L4.988|
0003dc  f89d0018          LDRB     r0,[sp,#0x18]         ;2287
0003e0  542c              STRB     r4,[r5,r0]            ;2287
0003e2  f89d0018          LDRB     r0,[sp,#0x18]         ;2286
0003e6  1c40              ADDS     r0,r0,#1              ;2286
0003e8  9006              STR      r0,[sp,#0x18]         ;2286
                  |L4.1002|
0003ea  f89d0018          LDRB     r0,[sp,#0x18]         ;2286
0003ee  2806              CMP      r0,#6                 ;2286
0003f0  d3f4              BCC      |L4.988|
0003f2  4904              LDR      r1,|L4.1028|
0003f4  200b              MOVS     r0,#0xb               ;2289
0003f6  7008              STRB     r0,[r1,#0]            ;2289
0003f8  e755              B        |L4.678|
0003fa  0000              DCW      0x0000
                  |L4.1020|
                          DCD      Run_Control
                  |L4.1024|
000400  447a0000          DCFS     0x447a0000 ; 1000
                  |L4.1028|
                          DCD      set_sw
                  |L4.1032|
000408  00000000          DCFD     0x408f400000000000 ; 1000
00040c  408f4000
                  |L4.1040|
                          DCD      bit
                  |L4.1044|
                          DCD      ||.data||
                  |L4.1048|
                          DCD      set_limit
                  |L4.1052|
                          DCD      b_type
                  |L4.1056|
                          DCD      0x00bfffff
                  |L4.1060|
                          DCD      ||.bss||
                  |L4.1064|
                          DCD      dot_flag
                  |L4.1068|
00042c  252e3366          DCB      "%.3f",0
000430  00      
000431  00                DCB      0
000432  00                DCB      0
000433  00                DCB      0
                  |L4.1076|
                          DCD      0x080e0000
                  |L4.1080|
                          DCD      GUI_Font20_ASCII
                  |L4.1084|
00043c  454e474c          DCB      "ENGLISH",0
000440  49534800
                  |L4.1092|
                          DCD      para_set1
                  |L4.1096|
000448  4f464600          DCB      "OFF",0
                  |L4.1100|
00044c  4f4e00            DCB      "ON",0
00044f  00                DCB      0
                  |L4.1104|
                          DCD      para_set2
                  |L4.1108|
                          DCD      para_set4
                  |L4.1112|
000458  4605              MOV      r5,r0                 ;2297
00045a  f44f6106          MOV      r1,#0x860             ;2297
00045e  4610              MOV      r0,r2                 ;2297
000460  f7fffffe          BL       WM_GetDialogItem
000464  9001              STR      r0,[sp,#4]            ;2297
000466  46ca              MOV      r10,r9                ;2298
000468  4651              MOV      r1,r10                ;2298
00046a  9801              LDR      r0,[sp,#4]            ;2298
00046c  f7fffffe          BL       TEXT_SetBkColor
000470  46b9              MOV      r9,r7                 ;2299
000472  4649              MOV      r1,r9                 ;2299
000474  9801              LDR      r0,[sp,#4]            ;2299
000476  f7fffffe          BL       TEXT_SetTextColor
00047a  4ff9              LDR      r7,|L4.2144|
00047c  7838              LDRB     r0,[r7,#0]            ;2300  ; dot_flag
00047e  b3e8              CBZ      r0,|L4.1276|
000480  7838              LDRB     r0,[r7,#0]            ;2302  ; dot_flag
000482  b198              CBZ      r0,|L4.1196|
000484  9404              STR      r4,[sp,#0x10]         ;2303
000486  9405              STR      r4,[sp,#0x14]         ;2303
000488  783a              LDRB     r2,[r7,#0]            ;2304  ; dot_flag
00048a  49f6              LDR      r1,|L4.2148|
00048c  1c92              ADDS     r2,r2,#2              ;2304
00048e  a804              ADD      r0,sp,#0x10           ;2304
000490  f7fffffe          BL       strncpy
000494  a804              ADD      r0,sp,#0x10           ;2305
000496  f7fffffe          BL       __hardfp_atof
00049a  ec532b18          VMOV     r2,r3,d8              ;2305
00049e  ec510b10          VMOV     r0,r1,d0              ;2305
0004a2  f7fffffe          BL       __aeabi_dmul
0004a6  f7fffffe          BL       __aeabi_d2uiz
0004aa  63b0              STR      r0,[r6,#0x38]         ;2305  ; Run_Control
                  |L4.1196|
0004ac  6bb1              LDR      r1,[r6,#0x38]         ;2307  ; Run_Control
0004ae  f24f2030          MOV      r0,#0xf230            ;2307
0004b2  4281              CMP      r1,r0                 ;2307
0004b4  d900              BLS      |L4.1208|
0004b6  63b0              STR      r0,[r6,#0x38]         ;2309  ; Run_Control
                  |L4.1208|
0004b8  6bb0              LDR      r0,[r6,#0x38]         ;2311  ; Run_Control
0004ba  ed1f1a2f          VLDR     s2,|L4.1024|
0004be  ee000a10          VMOV     s0,r0                 ;2311
0004c2  eef80a40          VCVT.F32.U32 s1,s0                 ;2311
0004c6  ee800a81          VDIV.F32 s0,s1,s2              ;2311
0004ca  ee100a10          VMOV     r0,s0                 ;2317
0004ce  f7fffffe          BL       __aeabi_f2d
0004d2  ec410b10          VMOV     d0,r0,r1              ;2317
0004d6  ec532b10          VMOV     r2,r3,d0              ;2317
0004da  f2af01b0          ADR      r1,|L4.1068|
0004de  a804              ADD      r0,sp,#0x10           ;2317
0004e0  f7fffffe          BL       __2sprintf
0004e4  a904              ADD      r1,sp,#0x10           ;2318
0004e6  9801              LDR      r0,[sp,#4]            ;2318
0004e8  f7fffffe          BL       TEXT_SetText
0004ec  f6400161          MOV      r1,#0x861             ;2320
0004f0  6868              LDR      r0,[r5,#4]            ;2320  ; hWinset
0004f2  f7fffffe          BL       WM_GetDialogItem
0004f6  4606              MOV      r6,r0                 ;2320
0004f8  4651              MOV      r1,r10                ;2321
0004fa  e000              B        |L4.1278|
                  |L4.1276|
0004fc  e02e              B        |L4.1372|
                  |L4.1278|
0004fe  4630              MOV      r0,r6                 ;2321
000500  f7fffffe          BL       TEXT_SetBkColor
000504  4649              MOV      r1,r9                 ;2322
000506  4630              MOV      r0,r6                 ;2322
000508  f7fffffe          BL       TEXT_SetTextColor
00050c  ee190a10          VMOV     r0,s18                ;2324
000510  f7fffffe          BL       __aeabi_f2d
000514  ec410b10          VMOV     d0,r0,r1              ;2324
000518  ec532b10          VMOV     r2,r3,d0              ;2324
00051c  f2af01f4          ADR      r1,|L4.1068|
000520  a804              ADD      r0,sp,#0x10           ;2324
000522  f7fffffe          BL       __2sprintf
000526  a904              ADD      r1,sp,#0x10           ;2325
000528  4630              MOV      r0,r6                 ;2325
00052a  f7fffffe          BL       TEXT_SetText
00052e  f640012e          MOV      r1,#0x82e             ;2327
000532  6868              LDR      r0,[r5,#4]            ;2327  ; hWinset
000534  f7fffffe          BL       WM_GetDialogItem
000538  4605              MOV      r5,r0                 ;2327
00053a  49cb              LDR      r1,|L4.2152|
00053c  4628              MOV      r0,r5                 ;2328
00053e  f7fffffe          BL       TEXT_SetBkColor
000542  2100              MOVS     r1,#0                 ;2329
000544  4628              MOV      r0,r5                 ;2329
000546  f7fffffe          BL       TEXT_SetTextColor
00054a  f7fffffe          BL       Write_Limits
00054e  48c7              LDR      r0,|L4.2156|
000550  f880b000          STRB     r11,[r0,#0]           ;2331
000554  f8884000          STRB     r4,[r8,#0]            ;2332
000558  703c              STRB     r4,[r7,#0]            ;2333
                  |L4.1370|
00055a  e6a4              B        |L4.678|
                  |L4.1372|
00055c  48c1              LDR      r0,|L4.2148|
00055e  f7fffffe          BL       atoi
000562  f44f717a          MOV      r1,#0x3e8             ;2301
000566  4348              MULS     r0,r1,r0              ;2301
000568  63b0              STR      r0,[r6,#0x38]         ;2301  ; Run_Control
00056a  e79f              B        |L4.1196|
                  |L4.1388|
00056c  4605              MOV      r5,r0                 ;2341
00056e  f44f6106          MOV      r1,#0x860             ;2341
000572  4610              MOV      r0,r2                 ;2341
000574  f7fffffe          BL       WM_GetDialogItem
000578  9001              STR      r0,[sp,#4]            ;2341
00057a  46ca              MOV      r10,r9                ;2342
00057c  4651              MOV      r1,r10                ;2342
00057e  9801              LDR      r0,[sp,#4]            ;2342
000580  f7fffffe          BL       TEXT_SetBkColor
000584  46b9              MOV      r9,r7                 ;2343
000586  4649              MOV      r1,r9                 ;2343
000588  9801              LDR      r0,[sp,#4]            ;2343
00058a  f7fffffe          BL       TEXT_SetTextColor
00058e  4fb4              LDR      r7,|L4.2144|
000590  7838              LDRB     r0,[r7,#0]            ;2349  ; dot_flag
000592  b3e8              CBZ      r0,|L4.1552|
000594  7838              LDRB     r0,[r7,#0]            ;2351  ; dot_flag
000596  b198              CBZ      r0,|L4.1472|
000598  9404              STR      r4,[sp,#0x10]         ;2352
00059a  9405              STR      r4,[sp,#0x14]         ;2352
00059c  783a              LDRB     r2,[r7,#0]            ;2353  ; dot_flag
00059e  49b1              LDR      r1,|L4.2148|
0005a0  1c92              ADDS     r2,r2,#2              ;2353
0005a2  a804              ADD      r0,sp,#0x10           ;2353
0005a4  f7fffffe          BL       strncpy
0005a8  a804              ADD      r0,sp,#0x10           ;2354
0005aa  f7fffffe          BL       __hardfp_atof
0005ae  ec532b18          VMOV     r2,r3,d8              ;2354
0005b2  ec510b10          VMOV     r0,r1,d0              ;2354
0005b6  f7fffffe          BL       __aeabi_dmul
0005ba  f7fffffe          BL       __aeabi_d2uiz
0005be  63f0              STR      r0,[r6,#0x3c]         ;2354  ; Run_Control
                  |L4.1472|
0005c0  6bf1              LDR      r1,[r6,#0x3c]         ;2356  ; Run_Control
0005c2  f24f2030          MOV      r0,#0xf230            ;2356
0005c6  4281              CMP      r1,r0                 ;2356
0005c8  d900              BLS      |L4.1484|
0005ca  63f0              STR      r0,[r6,#0x3c]         ;2358  ; Run_Control
                  |L4.1484|
0005cc  6bf0              LDR      r0,[r6,#0x3c]         ;2360  ; Run_Control
0005ce  ee000a10          VMOV     s0,r0                 ;2360
0005d2  eef80a40          VCVT.F32.U32 s1,s0                 ;2360
0005d6  ed1f0a76          VLDR     s0,|L4.1024|
0005da  ee808a80          VDIV.F32 s16,s1,s0             ;2360
0005de  ee1a0a10          VMOV     r0,s20                ;2361
0005e2  f7fffffe          BL       __aeabi_f2d
0005e6  ec410b10          VMOV     d0,r0,r1              ;2361
0005ea  ec532b10          VMOV     r2,r3,d0              ;2361
0005ee  f2af11c4          ADR      r1,|L4.1068|
0005f2  a804              ADD      r0,sp,#0x10           ;2361
0005f4  f7fffffe          BL       __2sprintf
0005f8  a904              ADD      r1,sp,#0x10           ;2362
0005fa  9801              LDR      r0,[sp,#4]            ;2362
0005fc  f7fffffe          BL       TEXT_SetText
000600  f6400161          MOV      r1,#0x861             ;2364
000604  6868              LDR      r0,[r5,#4]            ;2364  ; hWinset
000606  f7fffffe          BL       WM_GetDialogItem
00060a  4606              MOV      r6,r0                 ;2364
00060c  4651              MOV      r1,r10                ;2365
00060e  e000              B        |L4.1554|
                  |L4.1552|
000610  e02e              B        |L4.1648|
                  |L4.1554|
000612  4630              MOV      r0,r6                 ;2365
000614  f7fffffe          BL       TEXT_SetBkColor
000618  4649              MOV      r1,r9                 ;2366
00061a  4630              MOV      r0,r6                 ;2366
00061c  f7fffffe          BL       TEXT_SetTextColor
000620  ee180a10          VMOV     r0,s16                ;2368
000624  f7fffffe          BL       __aeabi_f2d
000628  ec410b10          VMOV     d0,r0,r1              ;2368
00062c  ec532b10          VMOV     r2,r3,d0              ;2368
000630  f2af2108          ADR      r1,|L4.1068|
000634  a804              ADD      r0,sp,#0x10           ;2368
000636  f7fffffe          BL       __2sprintf
00063a  a904              ADD      r1,sp,#0x10           ;2369
00063c  4630              MOV      r0,r6                 ;2369
00063e  f7fffffe          BL       TEXT_SetText
000642  f640012e          MOV      r1,#0x82e             ;2372
000646  6868              LDR      r0,[r5,#4]            ;2372  ; hWinset
000648  f7fffffe          BL       WM_GetDialogItem
00064c  4605              MOV      r5,r0                 ;2372
00064e  4986              LDR      r1,|L4.2152|
000650  4628              MOV      r0,r5                 ;2373
000652  f7fffffe          BL       TEXT_SetBkColor
000656  2100              MOVS     r1,#0                 ;2374
000658  4628              MOV      r0,r5                 ;2374
00065a  f7fffffe          BL       TEXT_SetTextColor
00065e  f7fffffe          BL       Write_Limits
000662  4882              LDR      r0,|L4.2156|
000664  f880b000          STRB     r11,[r0,#0]           ;2377
000668  f8884000          STRB     r4,[r8,#0]            ;2378
00066c  703c              STRB     r4,[r7,#0]            ;2379
                  |L4.1646|
00066e  e61a              B        |L4.678|
                  |L4.1648|
000670  487c              LDR      r0,|L4.2148|
000672  f7fffffe          BL       atoi
000676  f44f717a          MOV      r1,#0x3e8             ;2350
00067a  4348              MULS     r0,r1,r0              ;2350
00067c  63f0              STR      r0,[r6,#0x3c]         ;2350  ; Run_Control
00067e  e79f              B        |L4.1472|
                  |L4.1664|
000680  4606              MOV      r6,r0                 ;2388
000682  f6401135          MOV      r1,#0x935             ;2388
000686  4610              MOV      r0,r2                 ;2388
000688  f7fffffe          BL       WM_GetDialogItem
00068c  9001              STR      r0,[sp,#4]            ;2388
00068e  46ca              MOV      r10,r9                ;2389
000690  4651              MOV      r1,r10                ;2389
000692  9801              LDR      r0,[sp,#4]            ;2389
000694  f7fffffe          BL       TEXT_SetBkColor
000698  46b9              MOV      r9,r7                 ;2390
00069a  4649              MOV      r1,r9                 ;2390
00069c  9801              LDR      r0,[sp,#4]            ;2390
00069e  f7fffffe          BL       TEXT_SetTextColor
0006a2  4f6f              LDR      r7,|L4.2144|
0006a4  7838              LDRB     r0,[r7,#0]            ;2391  ; dot_flag
0006a6  b3e0              CBZ      r0,|L4.1826|
0006a8  7838              LDRB     r0,[r7,#0]            ;2393  ; dot_flag
0006aa  b198              CBZ      r0,|L4.1748|
0006ac  9404              STR      r4,[sp,#0x10]         ;2394
0006ae  9405              STR      r4,[sp,#0x14]         ;2394
0006b0  783a              LDRB     r2,[r7,#0]            ;2395  ; dot_flag
0006b2  496c              LDR      r1,|L4.2148|
0006b4  1cd2              ADDS     r2,r2,#3              ;2395
0006b6  a804              ADD      r0,sp,#0x10           ;2395
0006b8  f7fffffe          BL       strncpy
0006bc  a804              ADD      r0,sp,#0x10           ;2396
0006be  f7fffffe          BL       __hardfp_atof
0006c2  ec532b18          VMOV     r2,r3,d8              ;2396
0006c6  ec510b10          VMOV     r0,r1,d0              ;2396
0006ca  f7fffffe          BL       __aeabi_dmul
0006ce  f7fffffe          BL       __aeabi_d2iz
0006d2  6028              STR      r0,[r5,#0]            ;2396  ; InFlashSave
                  |L4.1748|
0006d4  ed950a00          VLDR     s0,[r5,#0]            ;2398
0006d8  eef80ac0          VCVT.F32.S32 s1,s0                 ;2398
0006dc  ed1f8ab8          VLDR     s16,|L4.1024|
0006e0  ee800a88          VDIV.F32 s0,s1,s16             ;2398
0006e4  ee100a10          VMOV     r0,s0                 ;2398
0006e8  f7fffffe          BL       __aeabi_f2d
0006ec  ec410b10          VMOV     d0,r0,r1              ;2398
0006f0  ec532b10          VMOV     r2,r3,d0              ;2398
0006f4  f2af21cc          ADR      r1,|L4.1068|
0006f8  a804              ADD      r0,sp,#0x10           ;2398
0006fa  f7fffffe          BL       __2sprintf
0006fe  a904              ADD      r1,sp,#0x10           ;2399
000700  9801              LDR      r0,[sp,#4]            ;2399
000702  f7fffffe          BL       TEXT_SetText
000706  4659              MOV      r1,r11                ;2401
000708  6870              LDR      r0,[r6,#4]            ;2401  ; hWinset
00070a  f7fffffe          BL       WM_GetDialogItem
00070e  4683              MOV      r11,r0                ;2401
000710  4651              MOV      r1,r10                ;2402
000712  4658              MOV      r0,r11                ;2402
000714  f7fffffe          BL       TEXT_SetBkColor
000718  4649              MOV      r1,r9                 ;2403
00071a  4658              MOV      r0,r11                ;2403
00071c  f7fffffe          BL       TEXT_SetTextColor
000720  e000              B        |L4.1828|
                  |L4.1826|
000722  e030              B        |L4.1926|
                  |L4.1828|
000724  ed950a01          VLDR     s0,[r5,#4]            ;2405
000728  eef80ac0          VCVT.F32.S32 s1,s0                 ;2405
00072c  ee800a88          VDIV.F32 s0,s1,s16             ;2405
000730  ee100a10          VMOV     r0,s0                 ;2405
000734  f7fffffe          BL       __aeabi_f2d
000738  ec410b10          VMOV     d0,r0,r1              ;2405
00073c  ec532b10          VMOV     r2,r3,d0              ;2405
000740  f2af3118          ADR      r1,|L4.1068|
000744  a804              ADD      r0,sp,#0x10           ;2405
000746  f7fffffe          BL       __2sprintf
00074a  a904              ADD      r1,sp,#0x10           ;2406
00074c  4658              MOV      r0,r11                ;2406
00074e  f7fffffe          BL       TEXT_SetText
000752  f640012f          MOV      r1,#0x82f             ;2408
000756  6870              LDR      r0,[r6,#4]            ;2408  ; hWinset
000758  f7fffffe          BL       WM_GetDialogItem
00075c  4605              MOV      r5,r0                 ;2408
00075e  4942              LDR      r1,|L4.2152|
000760  4628              MOV      r0,r5                 ;2409
000762  f7fffffe          BL       TEXT_SetBkColor
000766  2100              MOVS     r1,#0                 ;2410
000768  4628              MOV      r0,r5                 ;2410
00076a  f7fffffe          BL       TEXT_SetTextColor
00076e  4a40              LDR      r2,|L4.2160|
000770  2128              MOVS     r1,#0x28              ;2411
000772  4840              LDR      r0,|L4.2164|
000774  f7fffffe          BL       Flash_Write32BitDatas
000778  493c              LDR      r1,|L4.2156|
00077a  2004              MOVS     r0,#4                 ;2412
00077c  7008              STRB     r0,[r1,#0]            ;2412
00077e  f8884000          STRB     r4,[r8,#0]            ;2413
000782  703c              STRB     r4,[r7,#0]            ;2414
                  |L4.1924|
000784  e58f              B        |L4.678|
                  |L4.1926|
000786  4837              LDR      r0,|L4.2148|
000788  f7fffffe          BL       atoi
00078c  f44f717a          MOV      r1,#0x3e8             ;2392
000790  4348              MULS     r0,r1,r0              ;2392
000792  6028              STR      r0,[r5,#0]            ;2392  ; InFlashSave
000794  e79e              B        |L4.1748|
                  |L4.1942|
000796  4833              LDR      r0,|L4.2148|
000798  f7fffffe          BL       atoi
00079c  f44f717a          MOV      r1,#0x3e8             ;2426
0007a0  4348              MULS     r0,r1,r0              ;2426
0007a2  6068              STR      r0,[r5,#4]            ;2426  ; InFlashSave
0007a4  e518              B        |L4.472|
                  |L4.1958|
0007a6  4606              MOV      r6,r0                 ;2458
0007a8  f640012f          MOV      r1,#0x82f             ;2458
0007ac  4610              MOV      r0,r2                 ;2458
0007ae  f7fffffe          BL       WM_GetDialogItem
0007b2  4680              MOV      r8,r0                 ;2458
0007b4  4649              MOV      r1,r9                 ;2459
0007b6  4640              MOV      r0,r8                 ;2459
0007b8  f7fffffe          BL       TEXT_SetBkColor
0007bc  4639              MOV      r1,r7                 ;2460
0007be  4640              MOV      r0,r8                 ;2460
0007c0  f7fffffe          BL       TEXT_SetTextColor
0007c4  f6401135          MOV      r1,#0x935             ;2462
0007c8  6870              LDR      r0,[r6,#4]            ;2462  ; hWinset
0007ca  f7fffffe          BL       WM_GetDialogItem
0007ce  4606              MOV      r6,r0                 ;2462
0007d0  4925              LDR      r1,|L4.2152|
0007d2  4630              MOV      r0,r6                 ;2463
0007d4  f7fffffe          BL       TEXT_SetBkColor
0007d8  2100              MOVS     r1,#0                 ;2464
0007da  4630              MOV      r0,r6                 ;2464
0007dc  f7fffffe          BL       TEXT_SetTextColor
0007e0  9406              STR      r4,[sp,#0x18]         ;2466
0007e2  e006              B        |L4.2034|
                  |L4.2020|
0007e4  f89d0018          LDRB     r0,[sp,#0x18]         ;2467
0007e8  542c              STRB     r4,[r5,r0]            ;2467
0007ea  f89d0018          LDRB     r0,[sp,#0x18]         ;2466
0007ee  1c40              ADDS     r0,r0,#1              ;2466
0007f0  9006              STR      r0,[sp,#0x18]         ;2466
                  |L4.2034|
0007f2  f89d0018          LDRB     r0,[sp,#0x18]         ;2466
0007f6  2806              CMP      r0,#6                 ;2466
0007f8  d3f4              BCC      |L4.2020|
0007fa  491c              LDR      r1,|L4.2156|
0007fc  2051              MOVS     r0,#0x51              ;2469
0007fe  7008              STRB     r0,[r1,#0]            ;2469
                  |L4.2048|
000800  e551              B        |L4.678|
                  |L4.2050|
000802  4606              MOV      r6,r0                 ;2477
000804  f44f6103          MOV      r1,#0x830             ;2477
000808  4610              MOV      r0,r2                 ;2477
00080a  f7fffffe          BL       WM_GetDialogItem
00080e  4680              MOV      r8,r0                 ;2477
000810  4649              MOV      r1,r9                 ;2478
000812  4640              MOV      r0,r8                 ;2478
000814  f7fffffe          BL       TEXT_SetBkColor
000818  4639              MOV      r1,r7                 ;2479
00081a  4640              MOV      r0,r8                 ;2479
00081c  f7fffffe          BL       TEXT_SetTextColor
000820  f6400162          MOV      r1,#0x862             ;2481
000824  6870              LDR      r0,[r6,#4]            ;2481  ; hWinset
000826  f7fffffe          BL       WM_GetDialogItem
00082a  4606              MOV      r6,r0                 ;2481
00082c  490e              LDR      r1,|L4.2152|
00082e  4630              MOV      r0,r6                 ;2482
000830  f7fffffe          BL       TEXT_SetBkColor
000834  2100              MOVS     r1,#0                 ;2483
000836  4630              MOV      r0,r6                 ;2483
000838  f7fffffe          BL       TEXT_SetTextColor
00083c  9406              STR      r4,[sp,#0x18]         ;2485
00083e  e006              B        |L4.2126|
                  |L4.2112|
000840  f89d0018          LDRB     r0,[sp,#0x18]         ;2486
000844  542c              STRB     r4,[r5,r0]            ;2486
000846  f89d0018          LDRB     r0,[sp,#0x18]         ;2485
00084a  1c40              ADDS     r0,r0,#1              ;2485
00084c  9006              STR      r0,[sp,#0x18]         ;2485
                  |L4.2126|
00084e  f89d0018          LDRB     r0,[sp,#0x18]         ;2485
000852  2806              CMP      r0,#6                 ;2485
000854  d3f4              BCC      |L4.2112|
000856  4905              LDR      r1,|L4.2156|
000858  200d              MOVS     r0,#0xd               ;2488
00085a  7008              STRB     r0,[r1,#0]            ;2488
                  |L4.2140|
00085c  e523              B        |L4.678|
00085e  0000              DCW      0x0000
                  |L4.2144|
                          DCD      dot_flag
                  |L4.2148|
                          DCD      set_limit
                  |L4.2152|
                          DCD      0x00bfffff
                  |L4.2156|
                          DCD      set_sw
                  |L4.2160|
                          DCD      ||.bss||
                  |L4.2164|
                          DCD      0x080e0000
                  |L4.2168|
000878  4605              MOV      r5,r0                 ;2495
00087a  f6400162          MOV      r1,#0x862             ;2495
00087e  4610              MOV      r0,r2                 ;2495
000880  f7fffffe          BL       WM_GetDialogItem
000884  4682              MOV      r10,r0                ;2495
000886  4649              MOV      r1,r9                 ;2496
000888  4650              MOV      r0,r10                ;2496
00088a  f7fffffe          BL       TEXT_SetBkColor
00088e  4639              MOV      r1,r7                 ;2497
000890  4650              MOV      r0,r10                ;2497
000892  f7fffffe          BL       TEXT_SetTextColor
000896  4ffe              LDR      r7,|L4.3216|
000898  7838              LDRB     r0,[r7,#0]            ;2498  ; dot_flag
00089a  b380              CBZ      r0,|L4.2302|
00089c  7838              LDRB     r0,[r7,#0]            ;2500  ; dot_flag
00089e  b170              CBZ      r0,|L4.2238|
0008a0  9404              STR      r4,[sp,#0x10]         ;2501
0008a2  9405              STR      r4,[sp,#0x14]         ;2501
0008a4  783a              LDRB     r2,[r7,#0]            ;2502  ; dot_flag
0008a6  49fb              LDR      r1,|L4.3220|
0008a8  a804              ADD      r0,sp,#0x10           ;2502
0008aa  f7fffffe          BL       strncpy
0008ae  a804              ADD      r0,sp,#0x10           ;2503
0008b0  f7fffffe          BL       __hardfp_atof
0008b4  ec510b10          VMOV     r0,r1,d0              ;2503
0008b8  f7fffffe          BL       __aeabi_d2uiz
0008bc  6430              STR      r0,[r6,#0x40]         ;2503  ; Run_Control
                  |L4.2238|
0008be  6c32              LDR      r2,[r6,#0x40]         ;2505  ; Run_Control
0008c0  a1f5              ADR      r1,|L4.3224|
0008c2  a804              ADD      r0,sp,#0x10           ;2505
0008c4  f7fffffe          BL       __2sprintf
0008c8  a904              ADD      r1,sp,#0x10           ;2506
0008ca  4650              MOV      r0,r10                ;2506
0008cc  f7fffffe          BL       TEXT_SetText
0008d0  f44f6103          MOV      r1,#0x830             ;2508
0008d4  6868              LDR      r0,[r5,#4]            ;2508  ; hWinset
0008d6  f7fffffe          BL       WM_GetDialogItem
0008da  4605              MOV      r5,r0                 ;2508
0008dc  49ef              LDR      r1,|L4.3228|
0008de  4628              MOV      r0,r5                 ;2509
0008e0  f7fffffe          BL       TEXT_SetBkColor
0008e4  2100              MOVS     r1,#0                 ;2510
0008e6  4628              MOV      r0,r5                 ;2510
0008e8  f7fffffe          BL       TEXT_SetTextColor
0008ec  f7fffffe          BL       Write_Limits
0008f0  49eb              LDR      r1,|L4.3232|
0008f2  2005              MOVS     r0,#5                 ;2513
0008f4  7008              STRB     r0,[r1,#0]            ;2513
0008f6  f8884000          STRB     r4,[r8,#0]            ;2514
0008fa  703c              STRB     r4,[r7,#0]            ;2515
                  |L4.2300|
0008fc  e4d3              B        |L4.678|
                  |L4.2302|
0008fe  e7ff              B        |L4.2304|
                  |L4.2304|
000900  48e4              LDR      r0,|L4.3220|
000902  f7fffffe          BL       atoi
000906  6430              STR      r0,[r6,#0x40]         ;2499  ; Run_Control
000908  e7d9              B        |L4.2238|
                  |L4.2314|
00090a  4606              MOV      r6,r0                 ;2522
00090c  f6400131          MOV      r1,#0x831             ;2522
000910  4610              MOV      r0,r2                 ;2522
000912  f7fffffe          BL       WM_GetDialogItem
000916  4680              MOV      r8,r0                 ;2522
000918  4649              MOV      r1,r9                 ;2523
00091a  4640              MOV      r0,r8                 ;2523
00091c  f7fffffe          BL       TEXT_SetBkColor
000920  4639              MOV      r1,r7                 ;2524
000922  4640              MOV      r0,r8                 ;2524
000924  f7fffffe          BL       TEXT_SetTextColor
000928  f6400163          MOV      r1,#0x863             ;2526
00092c  6870              LDR      r0,[r6,#4]            ;2526  ; hWinset
00092e  f7fffffe          BL       WM_GetDialogItem
000932  4606              MOV      r6,r0                 ;2526
000934  49d9              LDR      r1,|L4.3228|
000936  4630              MOV      r0,r6                 ;2527
000938  f7fffffe          BL       TEXT_SetBkColor
00093c  2100              MOVS     r1,#0                 ;2528
00093e  4630              MOV      r0,r6                 ;2528
000940  f7fffffe          BL       TEXT_SetTextColor
000944  9406              STR      r4,[sp,#0x18]         ;2530
000946  e006              B        |L4.2390|
                  |L4.2376|
000948  f89d0018          LDRB     r0,[sp,#0x18]         ;2531
00094c  542c              STRB     r4,[r5,r0]            ;2531
00094e  f89d0018          LDRB     r0,[sp,#0x18]         ;2530
000952  1c40              ADDS     r0,r0,#1              ;2530
000954  9006              STR      r0,[sp,#0x18]         ;2530
                  |L4.2390|
000956  f89d0018          LDRB     r0,[sp,#0x18]         ;2530
00095a  2806              CMP      r0,#6                 ;2530
00095c  d3f4              BCC      |L4.2376|
00095e  49d0              LDR      r1,|L4.3232|
000960  200e              MOVS     r0,#0xe               ;2533
000962  7008              STRB     r0,[r1,#0]            ;2533
000964  e49f              B        |L4.678|
                  |L4.2406|
000966  e07c              B        |L4.2658|
                  |L4.2408|
000968  4605              MOV      r5,r0                 ;2540
00096a  f6400163          MOV      r1,#0x863             ;2540
00096e  4610              MOV      r0,r2                 ;2540
000970  f7fffffe          BL       WM_GetDialogItem
000974  4682              MOV      r10,r0                ;2540
000976  4649              MOV      r1,r9                 ;2541
000978  4650              MOV      r0,r10                ;2541
00097a  f7fffffe          BL       TEXT_SetBkColor
00097e  4639              MOV      r1,r7                 ;2542
000980  4650              MOV      r0,r10                ;2542
000982  f7fffffe          BL       TEXT_SetTextColor
000986  4fc2              LDR      r7,|L4.3216|
000988  7838              LDRB     r0,[r7,#0]            ;2543  ; dot_flag
00098a  b398              CBZ      r0,|L4.2548|
00098c  7838              LDRB     r0,[r7,#0]            ;2545  ; dot_flag
00098e  b170              CBZ      r0,|L4.2478|
000990  9404              STR      r4,[sp,#0x10]         ;2546
000992  9405              STR      r4,[sp,#0x14]         ;2546
000994  783a              LDRB     r2,[r7,#0]            ;2547  ; dot_flag
000996  49bf              LDR      r1,|L4.3220|
000998  a804              ADD      r0,sp,#0x10           ;2547
00099a  f7fffffe          BL       strncpy
00099e  a804              ADD      r0,sp,#0x10           ;2548
0009a0  f7fffffe          BL       __hardfp_atof
0009a4  ec510b10          VMOV     r0,r1,d0              ;2548
0009a8  f7fffffe          BL       __aeabi_d2uiz
0009ac  6470              STR      r0,[r6,#0x44]         ;2548  ; Run_Control
                  |L4.2478|
0009ae  6c72              LDR      r2,[r6,#0x44]         ;2550  ; Run_Control
0009b0  a1b9              ADR      r1,|L4.3224|
0009b2  a804              ADD      r0,sp,#0x10           ;2550
0009b4  e001              B        |L4.2490|
                  |L4.2486|
0009b6  e0e9              B        |L4.2956|
                  |L4.2488|
0009b8  e356              B        |L4.4200|
                  |L4.2490|
0009ba  f7fffffe          BL       __2sprintf
0009be  a904              ADD      r1,sp,#0x10           ;2551
0009c0  4650              MOV      r0,r10                ;2551
0009c2  f7fffffe          BL       TEXT_SetText
0009c6  f6400131          MOV      r1,#0x831             ;2553
0009ca  6868              LDR      r0,[r5,#4]            ;2553  ; hWinset
0009cc  f7fffffe          BL       WM_GetDialogItem
0009d0  4605              MOV      r5,r0                 ;2553
0009d2  49b2              LDR      r1,|L4.3228|
0009d4  4628              MOV      r0,r5                 ;2554
0009d6  f7fffffe          BL       TEXT_SetBkColor
0009da  2100              MOVS     r1,#0                 ;2555
0009dc  4628              MOV      r0,r5                 ;2555
0009de  f7fffffe          BL       TEXT_SetTextColor
0009e2  f7fffffe          BL       Write_Limits
0009e6  49ae              LDR      r1,|L4.3232|
0009e8  2006              MOVS     r0,#6                 ;2558
0009ea  7008              STRB     r0,[r1,#0]            ;2558
0009ec  f8884000          STRB     r4,[r8,#0]            ;2559
0009f0  703c              STRB     r4,[r7,#0]            ;2560
0009f2  e458              B        |L4.678|
                  |L4.2548|
0009f4  e7ff              B        |L4.2550|
                  |L4.2550|
0009f6  48a7              LDR      r0,|L4.3220|
0009f8  f7fffffe          BL       atoi
0009fc  6470              STR      r0,[r6,#0x44]         ;2544  ; Run_Control
0009fe  e7d6              B        |L4.2478|
                  |L4.2560|
000a00  4606              MOV      r6,r0                 ;2567
000a02  f640013b          MOV      r1,#0x83b             ;2567
000a06  4610              MOV      r0,r2                 ;2567
000a08  f7fffffe          BL       WM_GetDialogItem
000a0c  4680              MOV      r8,r0                 ;2567
000a0e  4649              MOV      r1,r9                 ;2568
000a10  4640              MOV      r0,r8                 ;2568
000a12  f7fffffe          BL       TEXT_SetBkColor
000a16  4639              MOV      r1,r7                 ;2569
000a18  4640              MOV      r0,r8                 ;2569
000a1a  f7fffffe          BL       TEXT_SetTextColor
000a1e  f6400164          MOV      r1,#0x864             ;2571
000a22  6870              LDR      r0,[r6,#4]            ;2571  ; hWinset
000a24  f7fffffe          BL       WM_GetDialogItem
000a28  4606              MOV      r6,r0                 ;2571
000a2a  499c              LDR      r1,|L4.3228|
000a2c  4630              MOV      r0,r6                 ;2572
000a2e  f7fffffe          BL       TEXT_SetBkColor
000a32  2100              MOVS     r1,#0                 ;2573
000a34  4630              MOV      r0,r6                 ;2573
000a36  f7fffffe          BL       TEXT_SetTextColor
000a3a  9406              STR      r4,[sp,#0x18]         ;2575
000a3c  e006              B        |L4.2636|
                  |L4.2622|
000a3e  f89d0018          LDRB     r0,[sp,#0x18]         ;2576
000a42  542c              STRB     r4,[r5,r0]            ;2576
000a44  f89d0018          LDRB     r0,[sp,#0x18]         ;2575
000a48  1c40              ADDS     r0,r0,#1              ;2575
000a4a  9006              STR      r0,[sp,#0x18]         ;2575
                  |L4.2636|
000a4c  f89d0018          LDRB     r0,[sp,#0x18]         ;2575
000a50  2806              CMP      r0,#6                 ;2575
000a52  d3f4              BCC      |L4.2622|
000a54  4992              LDR      r1,|L4.3232|
000a56  200f              MOVS     r0,#0xf               ;2578
000a58  7008              STRB     r0,[r1,#0]            ;2578
000a5a  e424              B        |L4.678|
                  |L4.2652|
000a5c  e162              B        |L4.3364|
                  |L4.2654|
000a5e  e293              B        |L4.3976|
                  |L4.2656|
000a60  e132              B        |L4.3272|
                  |L4.2658|
000a62  4605              MOV      r5,r0                 ;2585
000a64  f6400164          MOV      r1,#0x864             ;2585
000a68  4610              MOV      r0,r2                 ;2585
000a6a  f7fffffe          BL       WM_GetDialogItem
000a6e  4683              MOV      r11,r0                ;2585
000a70  46ca              MOV      r10,r9                ;2586
000a72  4651              MOV      r1,r10                ;2586
000a74  4658              MOV      r0,r11                ;2586
000a76  f7fffffe          BL       TEXT_SetBkColor
000a7a  46b9              MOV      r9,r7                 ;2587
000a7c  4649              MOV      r1,r9                 ;2587
000a7e  4658              MOV      r0,r11                ;2587
000a80  f7fffffe          BL       TEXT_SetTextColor
000a84  4f82              LDR      r7,|L4.3216|
000a86  7838              LDRB     r0,[r7,#0]            ;2588  ; dot_flag
000a88  b3f0              CBZ      r0,|L4.2824|
000a8a  7838              LDRB     r0,[r7,#0]            ;2590  ; dot_flag
000a8c  b198              CBZ      r0,|L4.2742|
000a8e  9404              STR      r4,[sp,#0x10]         ;2591
000a90  9405              STR      r4,[sp,#0x14]         ;2591
000a92  783a              LDRB     r2,[r7,#0]            ;2592  ; dot_flag
000a94  497f              LDR      r1,|L4.3220|
000a96  1cd2              ADDS     r2,r2,#3              ;2592
000a98  a804              ADD      r0,sp,#0x10           ;2592
000a9a  f7fffffe          BL       strncpy
000a9e  a804              ADD      r0,sp,#0x10           ;2593
000aa0  f7fffffe          BL       __hardfp_atof
000aa4  ec532b18          VMOV     r2,r3,d8              ;2593
000aa8  ec510b10          VMOV     r0,r1,d0              ;2593
000aac  f7fffffe          BL       __aeabi_dmul
000ab0  f7fffffe          BL       __aeabi_d2uiz
000ab4  64b0              STR      r0,[r6,#0x48]         ;2593  ; Run_Control
                  |L4.2742|
000ab6  6cb1              LDR      r1,[r6,#0x48]         ;2595  ; Run_Control
000ab8  f2475030          MOV      r0,#0x7530            ;2595
000abc  4281              CMP      r1,r0                 ;2595
000abe  d900              BLS      |L4.2754|
000ac0  64b0              STR      r0,[r6,#0x48]         ;2597  ; Run_Control
                  |L4.2754|
000ac2  6cb0              LDR      r0,[r6,#0x48]         ;2599  ; Run_Control
000ac4  ee000a10          VMOV     s0,r0                 ;2599
000ac8  eef80a40          VCVT.F32.U32 s1,s0                 ;2599
000acc  ed9f1a75          VLDR     s2,|L4.3236|
000ad0  ee800a81          VDIV.F32 s0,s1,s2              ;2599
000ad4  ee100a10          VMOV     r0,s0                 ;2600
000ad8  f7fffffe          BL       __aeabi_f2d
000adc  ec410b10          VMOV     d0,r0,r1              ;2600
000ae0  ec532b10          VMOV     r2,r3,d0              ;2600
000ae4  f2af61bc          ADR      r1,|L4.1068|
000ae8  a804              ADD      r0,sp,#0x10           ;2600
000aea  f7fffffe          BL       __2sprintf
000aee  a904              ADD      r1,sp,#0x10           ;2601
000af0  4658              MOV      r0,r11                ;2601
000af2  f7fffffe          BL       TEXT_SetText
000af6  f6400165          MOV      r1,#0x865             ;2603
000afa  6868              LDR      r0,[r5,#4]            ;2603  ; hWinset
000afc  f7fffffe          BL       WM_GetDialogItem
000b00  4683              MOV      r11,r0                ;2603
000b02  4651              MOV      r1,r10                ;2604
000b04  4658              MOV      r0,r11                ;2604
000b06  e000              B        |L4.2826|
                  |L4.2824|
000b08  e036              B        |L4.2936|
                  |L4.2826|
000b0a  f7fffffe          BL       TEXT_SetBkColor
000b0e  4649              MOV      r1,r9                 ;2605
000b10  4658              MOV      r0,r11                ;2605
000b12  f7fffffe          BL       TEXT_SetTextColor
000b16  6cf0              LDR      r0,[r6,#0x4c]         ;2606  ; Run_Control
000b18  6cb1              LDR      r1,[r6,#0x48]         ;2606  ; Run_Control
000b1a  4288              CMP      r0,r1                 ;2606
000b1c  d304              BCC      |L4.2856|
000b1e  64f4              STR      r4,[r6,#0x4c]         ;2608  ; Run_Control
000b20  a161              ADR      r1,|L4.3240|
000b22  4658              MOV      r0,r11                ;2609
000b24  f7fffffe          BL       TEXT_SetText
                  |L4.2856|
000b28  ee190a90          VMOV     r0,s19                ;2612
000b2c  f7fffffe          BL       __aeabi_f2d
000b30  ec410b10          VMOV     d0,r0,r1              ;2612
000b34  ec532b10          VMOV     r2,r3,d0              ;2612
000b38  f2af7110          ADR      r1,|L4.1068|
000b3c  a804              ADD      r0,sp,#0x10           ;2612
000b3e  f7fffffe          BL       __2sprintf
000b42  a904              ADD      r1,sp,#0x10           ;2613
000b44  4658              MOV      r0,r11                ;2613
000b46  f7fffffe          BL       TEXT_SetText
000b4a  f640013b          MOV      r1,#0x83b             ;2617
000b4e  6868              LDR      r0,[r5,#4]            ;2617  ; hWinset
000b50  f7fffffe          BL       WM_GetDialogItem
000b54  4605              MOV      r5,r0                 ;2617
000b56  4951              LDR      r1,|L4.3228|
000b58  4628              MOV      r0,r5                 ;2618
000b5a  f7fffffe          BL       TEXT_SetBkColor
000b5e  2100              MOVS     r1,#0                 ;2619
000b60  4628              MOV      r0,r5                 ;2619
000b62  f7fffffe          BL       TEXT_SetTextColor
000b66  f7fffffe          BL       Write_Limits
000b6a  494d              LDR      r1,|L4.3232|
000b6c  2007              MOVS     r0,#7                 ;2622
000b6e  7008              STRB     r0,[r1,#0]            ;2622
000b70  f8884000          STRB     r4,[r8,#0]            ;2623
000b74  703c              STRB     r4,[r7,#0]            ;2624
000b76  e404              B        |L4.898|
                  |L4.2936|
000b78  4846              LDR      r0,|L4.3220|
000b7a  f7fffffe          BL       atoi
000b7e  f44f717a          MOV      r1,#0x3e8             ;2589
000b82  4348              MULS     r0,r1,r0              ;2589
000b84  64b0              STR      r0,[r6,#0x48]         ;2589  ; Run_Control
000b86  e796              B        |L4.2742|
                  |L4.2952|
000b88  e169              B        |L4.3678|
                  |L4.2954|
000b8a  e255              B        |L4.4152|
                  |L4.2956|
000b8c  4605              MOV      r5,r0                 ;2632
000b8e  f6400164          MOV      r1,#0x864             ;2632
000b92  4610              MOV      r0,r2                 ;2632
000b94  f7fffffe          BL       WM_GetDialogItem
000b98  4682              MOV      r10,r0                ;2632
000b9a  4649              MOV      r1,r9                 ;2633
000b9c  4650              MOV      r0,r10                ;2633
000b9e  f7fffffe          BL       TEXT_SetBkColor
000ba2  4639              MOV      r1,r7                 ;2634
000ba4  4650              MOV      r0,r10                ;2634
000ba6  f7fffffe          BL       TEXT_SetTextColor
000baa  ee1a0a90          VMOV     r0,s21                ;2640
000bae  f7fffffe          BL       __aeabi_f2d
000bb2  ec410b10          VMOV     d0,r0,r1              ;2640
000bb6  ec532b10          VMOV     r2,r3,d0              ;2640
000bba  f2af7190          ADR      r1,|L4.1068|
000bbe  a804              ADD      r0,sp,#0x10           ;2640
000bc0  f7fffffe          BL       __2sprintf
000bc4  a904              ADD      r1,sp,#0x10           ;2641
000bc6  4650              MOV      r0,r10                ;2641
000bc8  f7fffffe          BL       TEXT_SetText
000bcc  f6400165          MOV      r1,#0x865             ;2643
000bd0  6868              LDR      r0,[r5,#4]            ;2643  ; hWinset
000bd2  f7fffffe          BL       WM_GetDialogItem
000bd6  4682              MOV      r10,r0                ;2643
000bd8  4649              MOV      r1,r9                 ;2644
000bda  4650              MOV      r0,r10                ;2644
000bdc  f7fffffe          BL       TEXT_SetBkColor
000be0  4639              MOV      r1,r7                 ;2645
000be2  4650              MOV      r0,r10                ;2645
000be4  f7fffffe          BL       TEXT_SetTextColor
000be8  4f29              LDR      r7,|L4.3216|
000bea  7838              LDRB     r0,[r7,#0]            ;2646  ; dot_flag
000bec  b3f0              CBZ      r0,|L4.3180|
000bee  7838              LDRB     r0,[r7,#0]            ;2648  ; dot_flag
000bf0  b198              CBZ      r0,|L4.3098|
000bf2  9404              STR      r4,[sp,#0x10]         ;2649
000bf4  9405              STR      r4,[sp,#0x14]         ;2649
000bf6  783a              LDRB     r2,[r7,#0]            ;2650  ; dot_flag
000bf8  4926              LDR      r1,|L4.3220|
000bfa  1cd2              ADDS     r2,r2,#3              ;2650
000bfc  a804              ADD      r0,sp,#0x10           ;2650
000bfe  f7fffffe          BL       strncpy
000c02  a804              ADD      r0,sp,#0x10           ;2651
000c04  f7fffffe          BL       __hardfp_atof
000c08  ec532b18          VMOV     r2,r3,d8              ;2651
000c0c  ec510b10          VMOV     r0,r1,d0              ;2651
000c10  f7fffffe          BL       __aeabi_dmul
000c14  f7fffffe          BL       __aeabi_d2uiz
000c18  64f0              STR      r0,[r6,#0x4c]         ;2651  ; Run_Control
                  |L4.3098|
000c1a  6cb1              LDR      r1,[r6,#0x48]         ;2653  ; Run_Control
000c1c  f2475030          MOV      r0,#0x7530            ;2653
000c20  4281              CMP      r1,r0                 ;2653
000c22  d900              BLS      |L4.3110|
000c24  64b0              STR      r0,[r6,#0x48]         ;2655  ; Run_Control
                  |L4.3110|
000c26  6cf0              LDR      r0,[r6,#0x4c]         ;2657  ; Run_Control
000c28  6cb1              LDR      r1,[r6,#0x48]         ;2657  ; Run_Control
000c2a  4288              CMP      r0,r1                 ;2657
000c2c  d300              BCC      |L4.3120|
000c2e  64f4              STR      r4,[r6,#0x4c]         ;2659  ; Run_Control
                  |L4.3120|
000c30  6cf0              LDR      r0,[r6,#0x4c]         ;2661  ; Run_Control
000c32  ed9f1a1c          VLDR     s2,|L4.3236|
000c36  ee000a10          VMOV     s0,r0                 ;2661
000c3a  eef80a40          VCVT.F32.U32 s1,s0                 ;2661
000c3e  ee800a81          VDIV.F32 s0,s1,s2              ;2661
000c42  ee100a10          VMOV     r0,s0                 ;2662
000c46  f7fffffe          BL       __aeabi_f2d
000c4a  ec410b10          VMOV     d0,r0,r1              ;2662
000c4e  ec532b10          VMOV     r2,r3,d0              ;2662
000c52  f6af0128          ADR      r1,|L4.1068|
000c56  a804              ADD      r0,sp,#0x10           ;2662
000c58  f7fffffe          BL       __2sprintf
000c5c  a904              ADD      r1,sp,#0x10           ;2663
000c5e  4650              MOV      r0,r10                ;2663
000c60  f7fffffe          BL       TEXT_SetText
000c64  f640013b          MOV      r1,#0x83b             ;2665
000c68  6868              LDR      r0,[r5,#4]            ;2665  ; hWinset
000c6a  e000              B        |L4.3182|
                  |L4.3180|
000c6c  e024              B        |L4.3256|
                  |L4.3182|
000c6e  f7fffffe          BL       WM_GetDialogItem
000c72  4605              MOV      r5,r0                 ;2665
000c74  4909              LDR      r1,|L4.3228|
000c76  4628              MOV      r0,r5                 ;2666
000c78  f7fffffe          BL       TEXT_SetBkColor
000c7c  2100              MOVS     r1,#0                 ;2667
000c7e  4628              MOV      r0,r5                 ;2667
000c80  f7fffffe          BL       TEXT_SetTextColor
000c84  f7fffffe          BL       Write_Limits
000c88  4905              LDR      r1,|L4.3232|
000c8a  2007              MOVS     r0,#7                 ;2670
000c8c  7008              STRB     r0,[r1,#0]            ;2670
000c8e  e00f              B        |L4.3248|
                  |L4.3216|
                          DCD      dot_flag
                  |L4.3220|
                          DCD      set_limit
                  |L4.3224|
000c98  25346400          DCB      "%4d",0
                  |L4.3228|
                          DCD      0x00bfffff
                  |L4.3232|
                          DCD      set_sw
                  |L4.3236|
000ca4  447a0000          DCFS     0x447a0000 ; 1000
                  |L4.3240|
000ca8  302e3030          DCB      "0.000",0
000cac  3000    
000cae  00                DCB      0
000caf  00                DCB      0
                  |L4.3248|
000cb0  f8884000          STRB     r4,[r8,#0]            ;2671
000cb4  703c              STRB     r4,[r7,#0]            ;2672
000cb6  e450              B        |L4.1370|
                  |L4.3256|
000cb8  48fe              LDR      r0,|L4.4276|
000cba  f7fffffe          BL       atoi
000cbe  f44f717a          MOV      r1,#0x3e8             ;2647
000cc2  4348              MULS     r0,r1,r0              ;2647
000cc4  64f0              STR      r0,[r6,#0x4c]         ;2647  ; Run_Control
000cc6  e7a8              B        |L4.3098|
                  |L4.3272|
000cc8  4606              MOV      r6,r0                 ;2680
000cca  f640013c          MOV      r1,#0x83c             ;2680
000cce  4610              MOV      r0,r2                 ;2680
000cd0  f7fffffe          BL       WM_GetDialogItem
000cd4  4680              MOV      r8,r0                 ;2680
000cd6  4649              MOV      r1,r9                 ;2681
000cd8  4640              MOV      r0,r8                 ;2681
000cda  f7fffffe          BL       TEXT_SetBkColor
000cde  4639              MOV      r1,r7                 ;2682
000ce0  4640              MOV      r0,r8                 ;2682
000ce2  f7fffffe          BL       TEXT_SetTextColor
000ce6  f6401137          MOV      r1,#0x937             ;2684
000cea  6870              LDR      r0,[r6,#4]            ;2684  ; hWinset
000cec  f7fffffe          BL       WM_GetDialogItem
000cf0  4606              MOV      r6,r0                 ;2684
000cf2  49f1              LDR      r1,|L4.4280|
000cf4  4630              MOV      r0,r6                 ;2685
000cf6  f7fffffe          BL       TEXT_SetBkColor
000cfa  2100              MOVS     r1,#0                 ;2686
000cfc  4630              MOV      r0,r6                 ;2686
000cfe  f7fffffe          BL       TEXT_SetTextColor
000d02  9406              STR      r4,[sp,#0x18]         ;2688
000d04  e006              B        |L4.3348|
                  |L4.3334|
000d06  f89d0018          LDRB     r0,[sp,#0x18]         ;2689
000d0a  542c              STRB     r4,[r5,r0]            ;2689
000d0c  f89d0018          LDRB     r0,[sp,#0x18]         ;2688
000d10  1c40              ADDS     r0,r0,#1              ;2688
000d12  9006              STR      r0,[sp,#0x18]         ;2688
                  |L4.3348|
000d14  f89d0018          LDRB     r0,[sp,#0x18]         ;2688
000d18  2806              CMP      r0,#6                 ;2688
000d1a  d3f4              BCC      |L4.3334|
000d1c  49e7              LDR      r1,|L4.4284|
000d1e  2053              MOVS     r0,#0x53              ;2691
000d20  7008              STRB     r0,[r1,#0]            ;2691
000d22  e41a              B        |L4.1370|
                  |L4.3364|
000d24  4682              MOV      r10,r0                ;2699
000d26  f6401137          MOV      r1,#0x937             ;2699
000d2a  4610              MOV      r0,r2                 ;2699
000d2c  f7fffffe          BL       WM_GetDialogItem
000d30  9001              STR      r0,[sp,#4]            ;2699
000d32  f06f4170          MVN      r1,#0xf0000000        ;2700
000d36  9801              LDR      r0,[sp,#4]            ;2700
000d38  f7fffffe          BL       TEXT_SetBkColor
000d3c  46b9              MOV      r9,r7                 ;2701
000d3e  4649              MOV      r1,r9                 ;2701
000d40  9801              LDR      r0,[sp,#4]            ;2701
000d42  f7fffffe          BL       TEXT_SetTextColor
000d46  4fde              LDR      r7,|L4.4288|
000d48  7838              LDRB     r0,[r7,#0]            ;2702  ; dot_flag
000d4a  b3e8              CBZ      r0,|L4.3528|
000d4c  7838              LDRB     r0,[r7,#0]            ;2704  ; dot_flag
000d4e  b198              CBZ      r0,|L4.3448|
000d50  9404              STR      r4,[sp,#0x10]         ;2705
000d52  9405              STR      r4,[sp,#0x14]         ;2705
000d54  783a              LDRB     r2,[r7,#0]            ;2706  ; dot_flag
000d56  49d7              LDR      r1,|L4.4276|
000d58  1cd2              ADDS     r2,r2,#3              ;2706
000d5a  a804              ADD      r0,sp,#0x10           ;2706
000d5c  f7fffffe          BL       strncpy
000d60  a804              ADD      r0,sp,#0x10           ;2707
000d62  f7fffffe          BL       __hardfp_atof
000d66  ec532b18          VMOV     r2,r3,d8              ;2707
000d6a  ec510b10          VMOV     r0,r1,d0              ;2707
000d6e  f7fffffe          BL       __aeabi_dmul
000d72  f7fffffe          BL       __aeabi_d2iz
000d76  60a8              STR      r0,[r5,#8]            ;2707  ; InFlashSave
                  |L4.3448|
000d78  68a8              LDR      r0,[r5,#8]            ;2709  ; InFlashSave
000d7a  42b0              CMP      r0,r6                 ;2709
000d7c  dd00              BLE      |L4.3456|
000d7e  60ae              STR      r6,[r5,#8]            ;2711  ; InFlashSave
                  |L4.3456|
000d80  ed950a02          VLDR     s0,[r5,#8]            ;2719
000d84  ed1f8a39          VLDR     s16,|L4.3236|
000d88  eef80ac0          VCVT.F32.S32 s1,s0                 ;2719
000d8c  ee800a88          VDIV.F32 s0,s1,s16             ;2719
000d90  ee100a10          VMOV     r0,s0                 ;2719
000d94  f7fffffe          BL       __aeabi_f2d
000d98  ec410b10          VMOV     d0,r0,r1              ;2719
000d9c  ec532b10          VMOV     r2,r3,d0              ;2719
000da0  f6af1178          ADR      r1,|L4.1068|
000da4  a804              ADD      r0,sp,#0x10           ;2719
000da6  f7fffffe          BL       __2sprintf
000daa  a904              ADD      r1,sp,#0x10           ;2720
000dac  9801              LDR      r0,[sp,#4]            ;2720
000dae  f7fffffe          BL       TEXT_SetText
000db2  f6401138          MOV      r1,#0x938             ;2722
000db6  f8da0004          LDR      r0,[r10,#4]           ;2722  ; hWinset
000dba  f7fffffe          BL       WM_GetDialogItem
000dbe  4606              MOV      r6,r0                 ;2722
000dc0  f06f4170          MVN      r1,#0xf0000000        ;2723
000dc4  4630              MOV      r0,r6                 ;2723
000dc6  e000              B        |L4.3530|
                  |L4.3528|
000dc8  e041              B        |L4.3662|
                  |L4.3530|
000dca  f7fffffe          BL       TEXT_SetBkColor
000dce  4649              MOV      r1,r9                 ;2724
000dd0  4630              MOV      r0,r6                 ;2724
000dd2  f7fffffe          BL       TEXT_SetTextColor
000dd6  e9d51002          LDRD     r1,r0,[r5,#8]         ;2725
000dda  4288              CMP      r0,r1                 ;2725
000ddc  db05              BLT      |L4.3562|
000dde  60ec              STR      r4,[r5,#0xc]          ;2727  ; InFlashSave
000de0  f2af113c          ADR      r1,|L4.3240|
000de4  4630              MOV      r0,r6                 ;2728
000de6  f7fffffe          BL       TEXT_SetText
                  |L4.3562|
000dea  ed950a03          VLDR     s0,[r5,#0xc]          ;2731
000dee  eef80ac0          VCVT.F32.S32 s1,s0                 ;2731
000df2  ee800a88          VDIV.F32 s0,s1,s16             ;2731
000df6  ee100a10          VMOV     r0,s0                 ;2731
000dfa  f7fffffe          BL       __aeabi_f2d
000dfe  ec410b10          VMOV     d0,r0,r1              ;2731
000e02  ec532b10          VMOV     r2,r3,d0              ;2731
000e06  f6af11dc          ADR      r1,|L4.1068|
000e0a  a804              ADD      r0,sp,#0x10           ;2731
000e0c  f7fffffe          BL       __2sprintf
000e10  a904              ADD      r1,sp,#0x10           ;2732
000e12  4630              MOV      r0,r6                 ;2732
000e14  f7fffffe          BL       TEXT_SetText
000e18  f640013c          MOV      r1,#0x83c             ;2736
000e1c  f8da0004          LDR      r0,[r10,#4]           ;2736  ; hWinset
000e20  f7fffffe          BL       WM_GetDialogItem
000e24  4605              MOV      r5,r0                 ;2736
000e26  49a4              LDR      r1,|L4.4280|
000e28  4628              MOV      r0,r5                 ;2737
000e2a  f7fffffe          BL       TEXT_SetBkColor
000e2e  2100              MOVS     r1,#0                 ;2738
000e30  4628              MOV      r0,r5                 ;2738
000e32  f7fffffe          BL       TEXT_SetTextColor
000e36  4aa3              LDR      r2,|L4.4292|
000e38  2128              MOVS     r1,#0x28              ;2740
000e3a  48a3              LDR      r0,|L4.4296|
000e3c  f7fffffe          BL       Flash_Write32BitDatas
000e40  489e              LDR      r0,|L4.4284|
000e42  f880b000          STRB     r11,[r0,#0]           ;2741
000e46  f8884000          STRB     r4,[r8,#0]            ;2742
000e4a  703c              STRB     r4,[r7,#0]            ;2743
000e4c  e40f              B        |L4.1646|
                  |L4.3662|
000e4e  4899              LDR      r0,|L4.4276|
000e50  f7fffffe          BL       atoi
000e54  f44f717a          MOV      r1,#0x3e8             ;2703
000e58  4348              MULS     r0,r1,r0              ;2703
000e5a  60a8              STR      r0,[r5,#8]            ;2703  ; InFlashSave
000e5c  e78c              B        |L4.3448|
                  |L4.3678|
000e5e  4682              MOV      r10,r0                ;2751
000e60  f6401137          MOV      r1,#0x937             ;2751
000e64  4610              MOV      r0,r2                 ;2751
000e66  f7fffffe          BL       WM_GetDialogItem
000e6a  9001              STR      r0,[sp,#4]            ;2751
000e6c  4649              MOV      r1,r9                 ;2752
000e6e  9801              LDR      r0,[sp,#4]            ;2752
000e70  f7fffffe          BL       TEXT_SetBkColor
000e74  4639              MOV      r1,r7                 ;2753
000e76  9801              LDR      r0,[sp,#4]            ;2753
000e78  f7fffffe          BL       TEXT_SetTextColor
000e7c  ed950a02          VLDR     s0,[r5,#8]            ;2759
000e80  eef80ac0          VCVT.F32.S32 s1,s0                 ;2759
000e84  ed1f9a79          VLDR     s18,|L4.3236|
000e88  ee800a89          VDIV.F32 s0,s1,s18             ;2759
000e8c  ee100a10          VMOV     r0,s0                 ;2759
000e90  f7fffffe          BL       __aeabi_f2d
000e94  ec410b10          VMOV     d0,r0,r1              ;2759
000e98  ec532b10          VMOV     r2,r3,d0              ;2759
000e9c  f6af2174          ADR      r1,|L4.1068|
000ea0  a804              ADD      r0,sp,#0x10           ;2759
000ea2  f7fffffe          BL       __2sprintf
000ea6  a904              ADD      r1,sp,#0x10           ;2760
000ea8  9801              LDR      r0,[sp,#4]            ;2760
000eaa  f7fffffe          BL       TEXT_SetText
000eae  f6401138          MOV      r1,#0x938             ;2762
000eb2  f8da0004          LDR      r0,[r10,#4]           ;2762  ; hWinset
000eb6  f7fffffe          BL       WM_GetDialogItem
000eba  9001              STR      r0,[sp,#4]            ;2762
000ebc  4649              MOV      r1,r9                 ;2763
000ebe  9801              LDR      r0,[sp,#4]            ;2763
000ec0  f7fffffe          BL       TEXT_SetBkColor
000ec4  4639              MOV      r1,r7                 ;2764
000ec6  9801              LDR      r0,[sp,#4]            ;2764
000ec8  f7fffffe          BL       TEXT_SetTextColor
000ecc  4f7c              LDR      r7,|L4.4288|
000ece  7838              LDRB     r0,[r7,#0]            ;2765  ; dot_flag
000ed0  b3f0              CBZ      r0,|L4.3920|
000ed2  7838              LDRB     r0,[r7,#0]            ;2767  ; dot_flag
000ed4  b198              CBZ      r0,|L4.3838|
000ed6  9404              STR      r4,[sp,#0x10]         ;2768
000ed8  9405              STR      r4,[sp,#0x14]         ;2768
000eda  783a              LDRB     r2,[r7,#0]            ;2769  ; dot_flag
000edc  4975              LDR      r1,|L4.4276|
000ede  1cd2              ADDS     r2,r2,#3              ;2769
000ee0  a804              ADD      r0,sp,#0x10           ;2769
000ee2  f7fffffe          BL       strncpy
000ee6  a804              ADD      r0,sp,#0x10           ;2770
000ee8  f7fffffe          BL       __hardfp_atof
000eec  ec532b18          VMOV     r2,r3,d8              ;2770
000ef0  ec510b10          VMOV     r0,r1,d0              ;2770
000ef4  f7fffffe          BL       __aeabi_dmul
000ef8  f7fffffe          BL       __aeabi_d2iz
000efc  60e8              STR      r0,[r5,#0xc]          ;2770  ; InFlashSave
                  |L4.3838|
000efe  68e8              LDR      r0,[r5,#0xc]          ;2772  ; InFlashSave
000f00  42b0              CMP      r0,r6                 ;2772
000f02  dd00              BLE      |L4.3846|
000f04  60ee              STR      r6,[r5,#0xc]          ;2774  ; InFlashSave
                  |L4.3846|
000f06  e9d51002          LDRD     r1,r0,[r5,#8]         ;2776
000f0a  4288              CMP      r0,r1                 ;2776
000f0c  db00              BLT      |L4.3856|
000f0e  60ec              STR      r4,[r5,#0xc]          ;2778  ; InFlashSave
                  |L4.3856|
000f10  ed950a03          VLDR     s0,[r5,#0xc]          ;2782
000f14  eef80ac0          VCVT.F32.S32 s1,s0                 ;2782
000f18  ee800a89          VDIV.F32 s0,s1,s18             ;2782
000f1c  ee100a10          VMOV     r0,s0                 ;2782
000f20  f7fffffe          BL       __aeabi_f2d
000f24  ec410b10          VMOV     d0,r0,r1              ;2782
000f28  ec532b10          VMOV     r2,r3,d0              ;2782
000f2c  f6af3104          ADR      r1,|L4.1068|
000f30  a804              ADD      r0,sp,#0x10           ;2782
000f32  f7fffffe          BL       __2sprintf
000f36  a904              ADD      r1,sp,#0x10           ;2783
000f38  9801              LDR      r0,[sp,#4]            ;2783
000f3a  f7fffffe          BL       TEXT_SetText
000f3e  f640013c          MOV      r1,#0x83c             ;2785
000f42  f8da0004          LDR      r0,[r10,#4]           ;2785  ; hWinset
000f46  f7fffffe          BL       WM_GetDialogItem
000f4a  4605              MOV      r5,r0                 ;2785
000f4c  495a              LDR      r1,|L4.4280|
000f4e  e000              B        |L4.3922|
                  |L4.3920|
000f50  e012              B        |L4.3960|
                  |L4.3922|
000f52  4628              MOV      r0,r5                 ;2786
000f54  f7fffffe          BL       TEXT_SetBkColor
000f58  2100              MOVS     r1,#0                 ;2787
000f5a  4628              MOV      r0,r5                 ;2787
000f5c  f7fffffe          BL       TEXT_SetTextColor
000f60  4a58              LDR      r2,|L4.4292|
000f62  2128              MOVS     r1,#0x28              ;2789
000f64  4858              LDR      r0,|L4.4296|
000f66  f7fffffe          BL       Flash_Write32BitDatas
000f6a  4854              LDR      r0,|L4.4284|
000f6c  f880b000          STRB     r11,[r0,#0]           ;2790
000f70  f8884000          STRB     r4,[r8,#0]            ;2791
000f74  703c              STRB     r4,[r7,#0]            ;2792
                  |L4.3958|
000f76  e405              B        |L4.1924|
                  |L4.3960|
000f78  484e              LDR      r0,|L4.4276|
000f7a  f7fffffe          BL       atoi
000f7e  f44f717a          MOV      r1,#0x3e8             ;2766
000f82  4348              MULS     r0,r1,r0              ;2766
000f84  60e8              STR      r0,[r5,#0xc]          ;2766  ; InFlashSave
000f86  e7ba              B        |L4.3838|
                  |L4.3976|
000f88  7801              LDRB     r1,[r0,#0]            ;2798  ; test_mode
000f8a  2901              CMP      r1,#1                 ;2798
000f8c  d901              BLS      |L4.3986|
000f8e  f880a000          STRB     r10,[r0,#0]           ;2800
                  |L4.3986|
000f92  4605              MOV      r5,r0                 ;2802
000f94  7800              LDRB     r0,[r0,#0]            ;2802  ; test_mode
000f96  2801              CMP      r0,#1                 ;2802
000f98  d01d              BEQ      |L4.4054|
000f9a  7828              LDRB     r0,[r5,#0]            ;2819  ; test_mode
000f9c  2800              CMP      r0,#0                 ;2819
000f9e  d1ea              BNE      |L4.3958|
000fa0  f6401123          MOV      r1,#0x923             ;2821
000fa4  4610              MOV      r0,r2                 ;2821
000fa6  f7fffffe          BL       WM_GetDialogItem
000faa  4604              MOV      r4,r0                 ;2821
000fac  4639              MOV      r1,r7                 ;2822
000fae  4620              MOV      r0,r4                 ;2822
000fb0  f7fffffe          BL       TEXT_SetTextColor
000fb4  7869              LDRB     r1,[r5,#1]            ;2823  ; lang
000fb6  b399              CBZ      r1,|L4.4128|
000fb8  4944              LDR      r1,|L4.4300|
000fba  4620              MOV      r0,r4                 ;2829
000fbc  f7fffffe          BL       TEXT_SetFont
000fc0  f7fffffe          BL       GUI_UC_SetEncodeUTF8
000fc4  a142              ADR      r1,|L4.4304|
000fc6  4620              MOV      r0,r4                 ;2831
000fc8  f7fffffe          BL       TEXT_SetText
                  |L4.4044|
000fcc  f885a000          STRB     r10,[r5,#0]           ;2833
000fd0  f7fffffe          BL       Wrtite_S
000fd4  e414              B        |L4.2048|
                  |L4.4054|
000fd6  f6401123          MOV      r1,#0x923             ;2805
000fda  4610              MOV      r0,r2                 ;2805
000fdc  f7fffffe          BL       WM_GetDialogItem
000fe0  4606              MOV      r6,r0                 ;2805
000fe2  4639              MOV      r1,r7                 ;2806
000fe4  4630              MOV      r0,r6                 ;2806
000fe6  f7fffffe          BL       TEXT_SetTextColor
000fea  7869              LDRB     r1,[r5,#1]            ;2807  ; lang
000fec  b169              CBZ      r1,|L4.4106|
000fee  4937              LDR      r1,|L4.4300|
000ff0  4630              MOV      r0,r6                 ;2813
000ff2  f7fffffe          BL       TEXT_SetFont
000ff6  f7fffffe          BL       GUI_UC_SetEncodeUTF8
000ffa  a138              ADR      r1,|L4.4316|
000ffc  4630              MOV      r0,r6                 ;2815
000ffe  f7fffffe          BL       TEXT_SetText
                  |L4.4098|
001002  702c              STRB     r4,[r5,#0]            ;2817
001004  f7fffffe          BL       Wrtite_S
                  |L4.4104|
001008  e428              B        |L4.2140|
                  |L4.4106|
00100a  4936              LDR      r1,|L4.4324|
00100c  4630              MOV      r0,r6                 ;2809
00100e  f7fffffe          BL       TEXT_SetFont
001012  f7fffffe          BL       GUI_UC_SetEncodeUTF8
001016  a134              ADR      r1,|L4.4328|
001018  4630              MOV      r0,r6                 ;2811
00101a  f7fffffe          BL       TEXT_SetText
00101e  e7f0              B        |L4.4098|
                  |L4.4128|
001020  e7ff              B        |L4.4130|
                  |L4.4130|
001022  4930              LDR      r1,|L4.4324|
001024  4620              MOV      r0,r4                 ;2825
001026  f7fffffe          BL       TEXT_SetFont
00102a  f7fffffe          BL       GUI_UC_SetEncodeUTF8
00102e  a130              ADR      r1,|L4.4336|
001030  4620              MOV      r0,r4                 ;2827
001032  f7fffffe          BL       TEXT_SetText
001036  e7c9              B        |L4.4044|
                  |L4.4152|
001038  f6401141          MOV      r1,#0x941             ;2843
00103c  4610              MOV      r0,r2                 ;2843
00103e  f7fffffe          BL       WM_GetDialogItem
001042  4606              MOV      r6,r0                 ;2843
001044  4639              MOV      r1,r7                 ;2844
001046  4630              MOV      r0,r6                 ;2844
001048  f7fffffe          BL       TEXT_SetTextColor
00104c  4925              LDR      r1,|L4.4324|
00104e  4630              MOV      r0,r6                 ;2845
001050  f7fffffe          BL       TEXT_SetFont
001054  f7fffffe          BL       GUI_UC_SetEncodeUTF8
001058  a127              ADR      r1,|L4.4344|
00105a  4630              MOV      r0,r6                 ;2847
00105c  f7fffffe          BL       TEXT_SetText
001060  706c              STRB     r4,[r5,#1]            ;2848
001062  f7fffffe          BL       Wrtite_S
001066  e449              B        |L4.2300|
                  |L4.4200|
001068  4604              MOV      r4,r0                 ;2866
00106a  4619              MOV      r1,r3                 ;2866
00106c  4610              MOV      r0,r2                 ;2866
00106e  f7fffffe          BL       WM_GetDialogItem
001072  4606              MOV      r6,r0                 ;2866
001074  4649              MOV      r1,r9                 ;2867
001076  4630              MOV      r0,r6                 ;2867
001078  f7fffffe          BL       TEXT_SetBkColor
00107c  4639              MOV      r1,r7                 ;2868
00107e  4630              MOV      r0,r6                 ;2868
001080  f7fffffe          BL       TEXT_SetTextColor
001084  f640019f          MOV      r1,#0x89f             ;2870
001088  6860              LDR      r0,[r4,#4]            ;2870  ; hWinset
00108a  f7fffffe          BL       WM_GetDialogItem
00108e  4606              MOV      r6,r0                 ;2870
001090  4909              LDR      r1,|L4.4280|
001092  4630              MOV      r0,r6                 ;2871
001094  f7fffffe          BL       TEXT_SetBkColor
001098  2100              MOVS     r1,#0                 ;2872
00109a  4630              MOV      r0,r6                 ;2872
00109c  f7fffffe          BL       TEXT_SetTextColor
0010a0  f6401123          MOV      r1,#0x923             ;2874
0010a4  6860              LDR      r0,[r4,#4]            ;2874  ; hWinset
0010a6  f7fffffe          BL       WM_GetDialogItem
0010aa  a10b              ADR      r1,|L4.4312|
0010ac  f7fffffe          BL       TEXT_SetText
0010b0  e026              B        |L4.4352|
0010b2  0000              DCW      0x0000
                  |L4.4276|
                          DCD      set_limit
                  |L4.4280|
                          DCD      0x00bfffff
                  |L4.4284|
                          DCD      set_sw
                  |L4.4288|
                          DCD      dot_flag
                  |L4.4292|
                          DCD      ||.bss||
                  |L4.4296|
                          DCD      0x080e0000
                  |L4.4300|
                          DCD      GUI_Font20_ASCII
                  |L4.4304|
0010d0  41434355          DCB      "ACCURATE"
0010d4  52415445
                  |L4.4312|
0010d8  00                DCB      0
0010d9  00                DCB      0
0010da  00                DCB      0
0010db  00                DCB      0
                  |L4.4316|
0010dc  46415354          DCB      "FAST",0
0010e0  00      
0010e1  00                DCB      0
0010e2  00                DCB      0
0010e3  00                DCB      0
                  |L4.4324|
                          DCD      GUI_Fontset_font
                  |L4.4328|
0010e8  e5bfabe9          DCB      229,191,171,233,128,159,0
0010ec  809f00  
0010ef  00                DCB      0
                  |L4.4336|
0010f0  e7b2bee5          DCB      231,178,190,229,135,134,0
0010f4  878600  
0010f7  00                DCB      0
                  |L4.4344|
0010f8  e4b8ade6          DCB      228,184,173,230,150,135,0
0010fc  968700  
0010ff  00                DCB      0
                  |L4.4352|
001100  f6401141          MOV      r1,#0x941             ;2877
001104  6860              LDR      r0,[r4,#4]            ;2877  ; hWinset
001106  f7fffffe          BL       WM_GetDialogItem
00110a  f2af0134          ADR      r1,|L4.4312|
00110e  f7fffffe          BL       TEXT_SetText
001112  7828              LDRB     r0,[r5,#0]            ;2879  ; b_type
001114  2805              CMP      r0,#5                 ;2879
001116  d901              BLS      |L4.4380|
001118  f885a000          STRB     r10,[r5,#0]           ;2881
                  |L4.4380|
00111c  7828              LDRB     r0,[r5,#0]            ;2884  ; b_type
00111e  2806              CMP      r0,#6                 ;2884
001120  d25c              BCS      |L4.4572|
001122  e8dff000          TBB      [pc,r0]               ;2884
001126  5b03              DCB      0x5b,0x03
001128  b1f4f3f2          DCB      0xb1,0xf4,0xf3,0xf2
00112c  7860              LDRB     r0,[r4,#1]            ;2888  ; lang
00112e  b3e8              CBZ      r0,|L4.4524|
001130  f44f6110          MOV      r1,#0x900             ;2915
001134  6860              LDR      r0,[r4,#4]            ;2915  ; hWinset
001136  f7fffffe          BL       WM_GetDialogItem
00113a  4605              MOV      r5,r0                 ;2915
00113c  4639              MOV      r1,r7                 ;2916
00113e  4628              MOV      r0,r5                 ;2916
001140  f7fffffe          BL       TEXT_SetTextColor
001144  49fe              LDR      r1,|L4.5440|
001146  4628              MOV      r0,r5                 ;2917
001148  f7fffffe          BL       TEXT_SetFont
00114c  f7fffffe          BL       GUI_UC_SetEncodeUTF8
001150  a1fc              ADR      r1,|L4.5444|
001152  4628              MOV      r0,r5                 ;2919
001154  f7fffffe          BL       TEXT_SetText
001158  f6401101          MOV      r1,#0x901             ;2921
00115c  6860              LDR      r0,[r4,#4]            ;2921  ; hWinset
00115e  f7fffffe          BL       WM_GetDialogItem
001162  4605              MOV      r5,r0                 ;2921
001164  4639              MOV      r1,r7                 ;2922
001166  4628              MOV      r0,r5                 ;2922
001168  f7fffffe          BL       TEXT_SetTextColor
00116c  49f4              LDR      r1,|L4.5440|
00116e  4628              MOV      r0,r5                 ;2923
001170  f7fffffe          BL       TEXT_SetFont
001174  2100              MOVS     r1,#0                 ;2924
001176  4628              MOV      r0,r5                 ;2924
001178  f7fffffe          BL       TEXT_SetBkColor
00117c  f7fffffe          BL       GUI_UC_SetEncodeUTF8
001180  a1f2              ADR      r1,|L4.5452|
001182  4628              MOV      r0,r5                 ;2926
001184  f7fffffe          BL       TEXT_SetText
001188  f6401102          MOV      r1,#0x902             ;2928
00118c  6860              LDR      r0,[r4,#4]            ;2928  ; hWinset
00118e  f7fffffe          BL       WM_GetDialogItem
001192  4605              MOV      r5,r0                 ;2928
001194  4639              MOV      r1,r7                 ;2929
001196  4628              MOV      r0,r5                 ;2929
001198  f7fffffe          BL       TEXT_SetTextColor
00119c  49e8              LDR      r1,|L4.5440|
00119e  4628              MOV      r0,r5                 ;2930
0011a0  f7fffffe          BL       TEXT_SetFont
0011a4  f7fffffe          BL       GUI_UC_SetEncodeUTF8
0011a8  a1ea              ADR      r1,|L4.5460|
0011aa  e000              B        |L4.4526|
                  |L4.4524|
0011ac  e017              B        |L4.4574|
                  |L4.4526|
0011ae  4628              MOV      r0,r5                 ;2932
0011b0  f7fffffe          BL       TEXT_SetText
0011b4  f6401103          MOV      r1,#0x903             ;2934
0011b8  6860              LDR      r0,[r4,#4]            ;2934  ; hWinset
0011ba  f7fffffe          BL       WM_GetDialogItem
0011be  4604              MOV      r4,r0                 ;2934
0011c0  4639              MOV      r1,r7                 ;2935
0011c2  4620              MOV      r0,r4                 ;2935
0011c4  f7fffffe          BL       TEXT_SetTextColor
0011c8  49dd              LDR      r1,|L4.5440|
0011ca  4620              MOV      r0,r4                 ;2936
0011cc  f7fffffe          BL       TEXT_SetFont
0011d0  f7fffffe          BL       GUI_UC_SetEncodeUTF8
0011d4  a1e0              ADR      r1,|L4.5464|
0011d6  4620              MOV      r0,r4                 ;2938
0011d8  f7fffffe          BL       TEXT_SetText
                  |L4.4572|
0011dc  e304              B        |L4.6120|
                  |L4.4574|
0011de  f44f6110          MOV      r1,#0x900             ;2890
0011e2  6860              LDR      r0,[r4,#4]            ;2890  ; hWinset
0011e4  f7fffffe          BL       WM_GetDialogItem
0011e8  4605              MOV      r5,r0                 ;2890
0011ea  4639              MOV      r1,r7                 ;2891
0011ec  4628              MOV      r0,r5                 ;2891
0011ee  f7fffffe          BL       TEXT_SetTextColor
0011f2  49db              LDR      r1,|L4.5472|
0011f4  4628              MOV      r0,r5                 ;2892
0011f6  f7fffffe          BL       TEXT_SetFont
0011fa  f7fffffe          BL       GUI_UC_SetEncodeUTF8
0011fe  a1d9              ADR      r1,|L4.5476|
001200  4628              MOV      r0,r5                 ;2894
001202  f7fffffe          BL       TEXT_SetText
001206  f6401101          MOV      r1,#0x901             ;2896
00120a  6860              LDR      r0,[r4,#4]            ;2896  ; hWinset
00120c  f7fffffe          BL       WM_GetDialogItem
001210  4605              MOV      r5,r0                 ;2896
001212  4639              MOV      r1,r7                 ;2897
001214  4628              MOV      r0,r5                 ;2897
001216  f7fffffe          BL       TEXT_SetTextColor
00121a  49d1              LDR      r1,|L4.5472|
00121c  4628              MOV      r0,r5                 ;2898
00121e  f7fffffe          BL       TEXT_SetFont
001222  2100              MOVS     r1,#0                 ;2899
001224  4628              MOV      r0,r5                 ;2899
001226  f7fffffe          BL       TEXT_SetBkColor
00122a  f7fffffe          BL       GUI_UC_SetEncodeUTF8
00122e  a1d1              ADR      r1,|L4.5492|
001230  4628              MOV      r0,r5                 ;2901
001232  f7fffffe          BL       TEXT_SetText
001236  f6401102          MOV      r1,#0x902             ;2903
00123a  6860              LDR      r0,[r4,#4]            ;2903  ; hWinset
00123c  f7fffffe          BL       WM_GetDialogItem
001240  4605              MOV      r5,r0                 ;2903
001242  4639              MOV      r1,r7                 ;2904
001244  4628              MOV      r0,r5                 ;2904
001246  f7fffffe          BL       TEXT_SetTextColor
00124a  49c5              LDR      r1,|L4.5472|
00124c  4628              MOV      r0,r5                 ;2905
00124e  f7fffffe          BL       TEXT_SetFont
001252  f7fffffe          BL       GUI_UC_SetEncodeUTF8
001256  a1cb              ADR      r1,|L4.5508|
001258  4628              MOV      r0,r5                 ;2907
00125a  f7fffffe          BL       TEXT_SetText
00125e  f6401103          MOV      r1,#0x903             ;2909
001262  6860              LDR      r0,[r4,#4]            ;2909  ; hWinset
001264  f7fffffe          BL       WM_GetDialogItem
001268  4604              MOV      r4,r0                 ;2909
00126a  4639              MOV      r1,r7                 ;2910
00126c  4620              MOV      r0,r4                 ;2910
00126e  f7fffffe          BL       TEXT_SetTextColor
001272  49bb              LDR      r1,|L4.5472|
001274  4620              MOV      r0,r4                 ;2911
001276  f7fffffe          BL       TEXT_SetFont
00127a  f7fffffe          BL       GUI_UC_SetEncodeUTF8
00127e  a1c6              ADR      r1,|L4.5528|
001280  4620              MOV      r0,r4                 ;2913
001282  f7fffffe          BL       TEXT_SetText
001286  e2af              B        |L4.6120|
001288  7860              LDRB     r0,[r4,#1]            ;2944  ; lang
00128a  b3e8              CBZ      r0,|L4.4872|
00128c  f44f6110          MOV      r1,#0x900             ;2971
001290  6860              LDR      r0,[r4,#4]            ;2971  ; hWinset
001292  f7fffffe          BL       WM_GetDialogItem
001296  4605              MOV      r5,r0                 ;2971
001298  4639              MOV      r1,r7                 ;2972
00129a  4628              MOV      r0,r5                 ;2972
00129c  f7fffffe          BL       TEXT_SetTextColor
0012a0  49a7              LDR      r1,|L4.5440|
0012a2  4628              MOV      r0,r5                 ;2973
0012a4  f7fffffe          BL       TEXT_SetFont
0012a8  f7fffffe          BL       GUI_UC_SetEncodeUTF8
0012ac  a1be              ADR      r1,|L4.5544|
0012ae  4628              MOV      r0,r5                 ;2975
0012b0  f7fffffe          BL       TEXT_SetText
0012b4  f6401101          MOV      r1,#0x901             ;2977
0012b8  6860              LDR      r0,[r4,#4]            ;2977  ; hWinset
0012ba  f7fffffe          BL       WM_GetDialogItem
0012be  4605              MOV      r5,r0                 ;2977
0012c0  4639              MOV      r1,r7                 ;2978
0012c2  4628              MOV      r0,r5                 ;2978
0012c4  f7fffffe          BL       TEXT_SetTextColor
0012c8  499d              LDR      r1,|L4.5440|
0012ca  4628              MOV      r0,r5                 ;2979
0012cc  f7fffffe          BL       TEXT_SetFont
0012d0  2100              MOVS     r1,#0                 ;2980
0012d2  4628              MOV      r0,r5                 ;2980
0012d4  f7fffffe          BL       TEXT_SetBkColor
0012d8  f7fffffe          BL       GUI_UC_SetEncodeUTF8
0012dc  a19b              ADR      r1,|L4.5452|
0012de  4628              MOV      r0,r5                 ;2982
0012e0  f7fffffe          BL       TEXT_SetText
0012e4  f6401102          MOV      r1,#0x902             ;2984
0012e8  6860              LDR      r0,[r4,#4]            ;2984  ; hWinset
0012ea  f7fffffe          BL       WM_GetDialogItem
0012ee  4605              MOV      r5,r0                 ;2984
0012f0  4639              MOV      r1,r7                 ;2985
0012f2  4628              MOV      r0,r5                 ;2985
0012f4  f7fffffe          BL       TEXT_SetTextColor
0012f8  4991              LDR      r1,|L4.5440|
0012fa  4628              MOV      r0,r5                 ;2986
0012fc  f7fffffe          BL       TEXT_SetFont
001300  f7fffffe          BL       GUI_UC_SetEncodeUTF8
001304  a193              ADR      r1,|L4.5460|
001306  e003              B        |L4.4880|
                  |L4.4872|
001308  e01a              B        |L4.4928|
00130a  e211              B        |L4.5936|
00130c  e15a              B        |L4.5572|
00130e  e06c              B        |L4.5098|
                  |L4.4880|
001310  4628              MOV      r0,r5                 ;2988
001312  f7fffffe          BL       TEXT_SetText
001316  f6401103          MOV      r1,#0x903             ;2990
00131a  6860              LDR      r0,[r4,#4]            ;2990  ; hWinset
00131c  f7fffffe          BL       WM_GetDialogItem
001320  4604              MOV      r4,r0                 ;2990
001322  4639              MOV      r1,r7                 ;2991
001324  4620              MOV      r0,r4                 ;2991
001326  f7fffffe          BL       TEXT_SetTextColor
00132a  4985              LDR      r1,|L4.5440|
00132c  4620              MOV      r0,r4                 ;2992
00132e  f7fffffe          BL       TEXT_SetFont
001332  f7fffffe          BL       GUI_UC_SetEncodeUTF8
001336  a188              ADR      r1,|L4.5464|
001338  4620              MOV      r0,r4                 ;2994
00133a  f7fffffe          BL       TEXT_SetText
00133e  e253              B        |L4.6120|
                  |L4.4928|
001340  f44f6110          MOV      r1,#0x900             ;2946
001344  6860              LDR      r0,[r4,#4]            ;2946  ; hWinset
001346  f7fffffe          BL       WM_GetDialogItem
00134a  4605              MOV      r5,r0                 ;2946
00134c  4639              MOV      r1,r7                 ;2947
00134e  4628              MOV      r0,r5                 ;2947
001350  f7fffffe          BL       TEXT_SetTextColor
001354  4982              LDR      r1,|L4.5472|
001356  4628              MOV      r0,r5                 ;2948
001358  f7fffffe          BL       TEXT_SetFont
00135c  f7fffffe          BL       GUI_UC_SetEncodeUTF8
001360  a193              ADR      r1,|L4.5552|
001362  4628              MOV      r0,r5                 ;2950
001364  f7fffffe          BL       TEXT_SetText
001368  f6401101          MOV      r1,#0x901             ;2952
00136c  6860              LDR      r0,[r4,#4]            ;2952  ; hWinset
00136e  f7fffffe          BL       WM_GetDialogItem
001372  4605              MOV      r5,r0                 ;2952
001374  4639              MOV      r1,r7                 ;2953
001376  4628              MOV      r0,r5                 ;2953
001378  f7fffffe          BL       TEXT_SetTextColor
00137c  4978              LDR      r1,|L4.5472|
00137e  4628              MOV      r0,r5                 ;2954
001380  f7fffffe          BL       TEXT_SetFont
001384  2100              MOVS     r1,#0                 ;2955
001386  4628              MOV      r0,r5                 ;2955
001388  f7fffffe          BL       TEXT_SetBkColor
00138c  f7fffffe          BL       GUI_UC_SetEncodeUTF8
001390  a178              ADR      r1,|L4.5492|
001392  4628              MOV      r0,r5                 ;2957
001394  f7fffffe          BL       TEXT_SetText
001398  f6401102          MOV      r1,#0x902             ;2959
00139c  6860              LDR      r0,[r4,#4]            ;2959  ; hWinset
00139e  f7fffffe          BL       WM_GetDialogItem
0013a2  4605              MOV      r5,r0                 ;2959
0013a4  4639              MOV      r1,r7                 ;2960
0013a6  4628              MOV      r0,r5                 ;2960
0013a8  f7fffffe          BL       TEXT_SetTextColor
0013ac  496c              LDR      r1,|L4.5472|
0013ae  4628              MOV      r0,r5                 ;2961
0013b0  f7fffffe          BL       TEXT_SetFont
0013b4  f7fffffe          BL       GUI_UC_SetEncodeUTF8
0013b8  a172              ADR      r1,|L4.5508|
0013ba  4628              MOV      r0,r5                 ;2963
0013bc  f7fffffe          BL       TEXT_SetText
0013c0  f6401103          MOV      r1,#0x903             ;2965
0013c4  6860              LDR      r0,[r4,#4]            ;2965  ; hWinset
0013c6  f7fffffe          BL       WM_GetDialogItem
0013ca  4604              MOV      r4,r0                 ;2965
0013cc  4639              MOV      r1,r7                 ;2966
0013ce  4620              MOV      r0,r4                 ;2966
0013d0  f7fffffe          BL       TEXT_SetTextColor
0013d4  4962              LDR      r1,|L4.5472|
0013d6  4620              MOV      r0,r4                 ;2967
0013d8  f7fffffe          BL       TEXT_SetFont
0013dc  f7fffffe          BL       GUI_UC_SetEncodeUTF8
0013e0  a16d              ADR      r1,|L4.5528|
0013e2  4620              MOV      r0,r4                 ;2969
0013e4  f7fffffe          BL       TEXT_SetText
0013e8  e1fe              B        |L4.6120|
                  |L4.5098|
0013ea  7860              LDRB     r0,[r4,#1]            ;3000  ; lang
0013ec  b3f0              CBZ      r0,|L4.5228|
0013ee  f44f6110          MOV      r1,#0x900             ;3027
0013f2  6860              LDR      r0,[r4,#4]            ;3027  ; hWinset
0013f4  f7fffffe          BL       WM_GetDialogItem
0013f8  4605              MOV      r5,r0                 ;3027
0013fa  4639              MOV      r1,r7                 ;3028
0013fc  4628              MOV      r0,r5                 ;3028
0013fe  f7fffffe          BL       TEXT_SetTextColor
001402  494f              LDR      r1,|L4.5440|
001404  4628              MOV      r0,r5                 ;3029
001406  f7fffffe          BL       TEXT_SetFont
00140a  f7fffffe          BL       GUI_UC_SetEncodeUTF8
00140e  a166              ADR      r1,|L4.5544|
001410  4628              MOV      r0,r5                 ;3031
001412  f7fffffe          BL       TEXT_SetText
001416  f6401101          MOV      r1,#0x901             ;3033
00141a  6860              LDR      r0,[r4,#4]            ;3033  ; hWinset
00141c  f7fffffe          BL       WM_GetDialogItem
001420  4605              MOV      r5,r0                 ;3033
001422  4639              MOV      r1,r7                 ;3034
001424  4628              MOV      r0,r5                 ;3034
001426  f7fffffe          BL       TEXT_SetTextColor
00142a  4945              LDR      r1,|L4.5440|
00142c  4628              MOV      r0,r5                 ;3035
00142e  f7fffffe          BL       TEXT_SetFont
001432  2100              MOVS     r1,#0                 ;3036
001434  4628              MOV      r0,r5                 ;3036
001436  f7fffffe          BL       TEXT_SetBkColor
00143a  f7fffffe          BL       GUI_UC_SetEncodeUTF8
00143e  a141              ADR      r1,|L4.5444|
001440  4628              MOV      r0,r5                 ;3038
001442  f7fffffe          BL       TEXT_SetText
001446  f6401102          MOV      r1,#0x902             ;3040
00144a  6860              LDR      r0,[r4,#4]            ;3040  ; hWinset
00144c  f7fffffe          BL       WM_GetDialogItem
001450  4605              MOV      r5,r0                 ;3040
001452  4639              MOV      r1,r7                 ;3041
001454  4628              MOV      r0,r5                 ;3041
001456  f7fffffe          BL       TEXT_SetTextColor
00145a  4939              LDR      r1,|L4.5440|
00145c  4628              MOV      r0,r5                 ;3042
00145e  f7fffffe          BL       TEXT_SetFont
001462  f7fffffe          BL       GUI_UC_SetEncodeUTF8
001466  a13b              ADR      r1,|L4.5460|
001468  4628              MOV      r0,r5                 ;3044
00146a  e000              B        |L4.5230|
                  |L4.5228|
00146c  e016              B        |L4.5276|
                  |L4.5230|
00146e  f7fffffe          BL       TEXT_SetText
001472  f6401103          MOV      r1,#0x903             ;3046
001476  6860              LDR      r0,[r4,#4]            ;3046  ; hWinset
001478  f7fffffe          BL       WM_GetDialogItem
00147c  4604              MOV      r4,r0                 ;3046
00147e  4639              MOV      r1,r7                 ;3047
001480  4620              MOV      r0,r4                 ;3047
001482  f7fffffe          BL       TEXT_SetTextColor
001486  492e              LDR      r1,|L4.5440|
001488  4620              MOV      r0,r4                 ;3048
00148a  f7fffffe          BL       TEXT_SetFont
00148e  f7fffffe          BL       GUI_UC_SetEncodeUTF8
001492  a131              ADR      r1,|L4.5464|
001494  4620              MOV      r0,r4                 ;3050
001496  f7fffffe          BL       TEXT_SetText
00149a  e1a5              B        |L4.6120|
                  |L4.5276|
00149c  f44f6110          MOV      r1,#0x900             ;3002
0014a0  6860              LDR      r0,[r4,#4]            ;3002  ; hWinset
0014a2  f7fffffe          BL       WM_GetDialogItem
0014a6  4605              MOV      r5,r0                 ;3002
0014a8  4639              MOV      r1,r7                 ;3003
0014aa  4628              MOV      r0,r5                 ;3003
0014ac  f7fffffe          BL       TEXT_SetTextColor
0014b0  492b              LDR      r1,|L4.5472|
0014b2  4628              MOV      r0,r5                 ;3004
0014b4  f7fffffe          BL       TEXT_SetFont
0014b8  f7fffffe          BL       GUI_UC_SetEncodeUTF8
0014bc  a13c              ADR      r1,|L4.5552|
0014be  4628              MOV      r0,r5                 ;3006
0014c0  f7fffffe          BL       TEXT_SetText
0014c4  f6401101          MOV      r1,#0x901             ;3008
0014c8  6860              LDR      r0,[r4,#4]            ;3008  ; hWinset
0014ca  f7fffffe          BL       WM_GetDialogItem
0014ce  4605              MOV      r5,r0                 ;3008
0014d0  4639              MOV      r1,r7                 ;3009
0014d2  4628              MOV      r0,r5                 ;3009
0014d4  f7fffffe          BL       TEXT_SetTextColor
0014d8  4921              LDR      r1,|L4.5472|
0014da  4628              MOV      r0,r5                 ;3010
0014dc  f7fffffe          BL       TEXT_SetFont
0014e0  2100              MOVS     r1,#0                 ;3011
0014e2  4628              MOV      r0,r5                 ;3011
0014e4  f7fffffe          BL       TEXT_SetBkColor
0014e8  f7fffffe          BL       GUI_UC_SetEncodeUTF8
0014ec  a11d              ADR      r1,|L4.5476|
0014ee  4628              MOV      r0,r5                 ;3013
0014f0  f7fffffe          BL       TEXT_SetText
0014f4  f6401102          MOV      r1,#0x902             ;3015
0014f8  6860              LDR      r0,[r4,#4]            ;3015  ; hWinset
0014fa  f7fffffe          BL       WM_GetDialogItem
0014fe  4605              MOV      r5,r0                 ;3015
001500  4639              MOV      r1,r7                 ;3016
001502  4628              MOV      r0,r5                 ;3016
001504  f7fffffe          BL       TEXT_SetTextColor
001508  4915              LDR      r1,|L4.5472|
00150a  4628              MOV      r0,r5                 ;3017
00150c  f7fffffe          BL       TEXT_SetFont
001510  f7fffffe          BL       GUI_UC_SetEncodeUTF8
001514  a11b              ADR      r1,|L4.5508|
001516  4628              MOV      r0,r5                 ;3019
001518  f7fffffe          BL       TEXT_SetText
00151c  f6401103          MOV      r1,#0x903             ;3021
001520  6860              LDR      r0,[r4,#4]            ;3021  ; hWinset
001522  f7fffffe          BL       WM_GetDialogItem
001526  4604              MOV      r4,r0                 ;3021
001528  4639              MOV      r1,r7                 ;3022
00152a  4620              MOV      r0,r4                 ;3022
00152c  f7fffffe          BL       TEXT_SetTextColor
001530  490b              LDR      r1,|L4.5472|
001532  4620              MOV      r0,r4                 ;3023
001534  f7fffffe          BL       TEXT_SetFont
001538  f7fffffe          BL       GUI_UC_SetEncodeUTF8
00153c  a116              ADR      r1,|L4.5528|
00153e  e03d              B        |L4.5564|
                  |L4.5440|
                          DCD      GUI_Font20_ASCII
                  |L4.5444|
001544  4e694d48          DCB      "NiMH"
                  |L4.5448|
001548  00                DCB      0
001549  00                DCB      0
00154a  00                DCB      0
00154b  00                DCB      0
                  |L4.5452|
00154c  4e694364          DCB      "NiCd",0
001550  00      
001551  00                DCB      0
001552  00                DCB      0
001553  00                DCB      0
                  |L4.5460|
001554  534c4100          DCB      "SLA",0
                  |L4.5464|
001558  4c694d48          DCB      "LiMH",0
00155c  00      
00155d  00                DCB      0
00155e  00                DCB      0
00155f  00                DCB      0
                  |L4.5472|
                          DCD      GUI_Fontset_font
                  |L4.5476|
001564  e9958de6          DCB      233,149,141,230,176,162,231,148,181,230,177,160,0
001568  b0a2e794
00156c  b5e6b1a0
001570  00      
001571  00                DCB      0
001572  00                DCB      0
001573  00                DCB      0
                  |L4.5492|
001574  e9958de9          DCB      233,149,141,233,149,137,231,148,181,230,177,160,0
001578  9589e794
00157c  b5e6b1a0
001580  00      
001581  00                DCB      0
001582  00                DCB      0
001583  00                DCB      0
                  |L4.5508|
001584  e5b08fe5          DCB      229,176,143,229,158,139,233,147,133,233,133,184,231,148,181
001588  9e8be993
00158c  85e985b8
001590  e794b5  
001593  e6b1a000          DCB      230,177,160,0
001597  00                DCB      0
                  |L4.5528|
001598  e99482e9          DCB      233,148,130,233,148,176,231,148,181,230,177,160,0
00159c  94b0e794
0015a0  b5e6b1a0
0015a4  00      
0015a5  00                DCB      0
0015a6  00                DCB      0
0015a7  00                DCB      0
                  |L4.5544|
0015a8  4c696f6e          DCB      "Lion",0
0015ac  00      
0015ad  00                DCB      0
0015ae  00                DCB      0
0015af  00                DCB      0
                  |L4.5552|
0015b0  e99482e7          DCB      233,148,130,231,148,181,230,177,160,0
0015b4  94b5e6b1
0015b8  a000    
0015ba  00                DCB      0
0015bb  00                DCB      0
                  |L4.5564|
0015bc  4620              MOV      r0,r4                 ;3025
0015be  f7fffffe          BL       TEXT_SetText
0015c2  e111              B        |L4.6120|
                  |L4.5572|
0015c4  7860              LDRB     r0,[r4,#1]            ;3056  ; lang
0015c6  b3e0              CBZ      r0,|L4.5698|
0015c8  f44f6110          MOV      r1,#0x900             ;3083
0015cc  6860              LDR      r0,[r4,#4]            ;3083  ; hWinset
0015ce  f7fffffe          BL       WM_GetDialogItem
0015d2  4605              MOV      r5,r0                 ;3083
0015d4  4639              MOV      r1,r7                 ;3084
0015d6  4628              MOV      r0,r5                 ;3084
0015d8  f7fffffe          BL       TEXT_SetTextColor
0015dc  49f7              LDR      r1,|L4.6588|
0015de  4628              MOV      r0,r5                 ;3085
0015e0  f7fffffe          BL       TEXT_SetFont
0015e4  f7fffffe          BL       GUI_UC_SetEncodeUTF8
0015e8  f2af0144          ADR      r1,|L4.5544|
0015ec  4628              MOV      r0,r5                 ;3087
0015ee  f7fffffe          BL       TEXT_SetText
0015f2  f6401101          MOV      r1,#0x901             ;3089
0015f6  6860              LDR      r0,[r4,#4]            ;3089  ; hWinset
0015f8  f7fffffe          BL       WM_GetDialogItem
0015fc  4605              MOV      r5,r0                 ;3089
0015fe  4639              MOV      r1,r7                 ;3090
001600  4628              MOV      r0,r5                 ;3090
001602  f7fffffe          BL       TEXT_SetTextColor
001606  49ed              LDR      r1,|L4.6588|
001608  4628              MOV      r0,r5                 ;3091
00160a  f7fffffe          BL       TEXT_SetFont
00160e  2100              MOVS     r1,#0                 ;3092
001610  4628              MOV      r0,r5                 ;3092
001612  f7fffffe          BL       TEXT_SetBkColor
001616  f7fffffe          BL       GUI_UC_SetEncodeUTF8
00161a  f2af01d8          ADR      r1,|L4.5444|
00161e  4628              MOV      r0,r5                 ;3094
001620  f7fffffe          BL       TEXT_SetText
001624  f6401102          MOV      r1,#0x902             ;3096
001628  6860              LDR      r0,[r4,#4]            ;3096  ; hWinset
00162a  f7fffffe          BL       WM_GetDialogItem
00162e  4605              MOV      r5,r0                 ;3096
001630  4639              MOV      r1,r7                 ;3097
001632  4628              MOV      r0,r5                 ;3097
001634  f7fffffe          BL       TEXT_SetTextColor
001638  49e0              LDR      r1,|L4.6588|
00163a  4628              MOV      r0,r5                 ;3098
00163c  f7fffffe          BL       TEXT_SetFont
001640  e000              B        |L4.5700|
                  |L4.5698|
001642  e01c              B        |L4.5758|
                  |L4.5700|
001644  f7fffffe          BL       GUI_UC_SetEncodeUTF8
001648  f2af1100          ADR      r1,|L4.5452|
00164c  4628              MOV      r0,r5                 ;3100
00164e  f7fffffe          BL       TEXT_SetText
001652  f6401103          MOV      r1,#0x903             ;3102
001656  6860              LDR      r0,[r4,#4]            ;3102  ; hWinset
001658  f7fffffe          BL       WM_GetDialogItem
00165c  4604              MOV      r4,r0                 ;3102
00165e  4639              MOV      r1,r7                 ;3103
001660  4620              MOV      r0,r4                 ;3103
001662  f7fffffe          BL       TEXT_SetTextColor
001666  49d5              LDR      r1,|L4.6588|
001668  4620              MOV      r0,r4                 ;3104
00166a  f7fffffe          BL       TEXT_SetFont
00166e  f7fffffe          BL       GUI_UC_SetEncodeUTF8
001672  f2af111c          ADR      r1,|L4.5464|
001676  4620              MOV      r0,r4                 ;3106
001678  f7fffffe          BL       TEXT_SetText
00167c  e0b4              B        |L4.6120|
                  |L4.5758|
00167e  f44f6110          MOV      r1,#0x900             ;3058
001682  6860              LDR      r0,[r4,#4]            ;3058  ; hWinset
001684  f7fffffe          BL       WM_GetDialogItem
001688  4605              MOV      r5,r0                 ;3058
00168a  4639              MOV      r1,r7                 ;3059
00168c  4628              MOV      r0,r5                 ;3059
00168e  f7fffffe          BL       TEXT_SetTextColor
001692  49cb              LDR      r1,|L4.6592|
001694  4628              MOV      r0,r5                 ;3060
001696  f7fffffe          BL       TEXT_SetFont
00169a  f7fffffe          BL       GUI_UC_SetEncodeUTF8
00169e  f2af01f0          ADR      r1,|L4.5552|
0016a2  4628              MOV      r0,r5                 ;3062
0016a4  f7fffffe          BL       TEXT_SetText
0016a8  f6401101          MOV      r1,#0x901             ;3064
0016ac  6860              LDR      r0,[r4,#4]            ;3064  ; hWinset
0016ae  f7fffffe          BL       WM_GetDialogItem
0016b2  4605              MOV      r5,r0                 ;3064
0016b4  4639              MOV      r1,r7                 ;3065
0016b6  4628              MOV      r0,r5                 ;3065
0016b8  f7fffffe          BL       TEXT_SetTextColor
0016bc  49c0              LDR      r1,|L4.6592|
0016be  4628              MOV      r0,r5                 ;3066
0016c0  f7fffffe          BL       TEXT_SetFont
0016c4  2100              MOVS     r1,#0                 ;3067
0016c6  4628              MOV      r0,r5                 ;3067
0016c8  f7fffffe          BL       TEXT_SetBkColor
0016cc  f7fffffe          BL       GUI_UC_SetEncodeUTF8
0016d0  f2af1170          ADR      r1,|L4.5476|
0016d4  4628              MOV      r0,r5                 ;3069
0016d6  f7fffffe          BL       TEXT_SetText
0016da  f6401102          MOV      r1,#0x902             ;3071
0016de  6860              LDR      r0,[r4,#4]            ;3071  ; hWinset
0016e0  f7fffffe          BL       WM_GetDialogItem
0016e4  4605              MOV      r5,r0                 ;3071
0016e6  4639              MOV      r1,r7                 ;3072
0016e8  4628              MOV      r0,r5                 ;3072
0016ea  f7fffffe          BL       TEXT_SetTextColor
0016ee  49b4              LDR      r1,|L4.6592|
0016f0  4628              MOV      r0,r5                 ;3073
0016f2  f7fffffe          BL       TEXT_SetFont
0016f6  f7fffffe          BL       GUI_UC_SetEncodeUTF8
0016fa  f2af1188          ADR      r1,|L4.5492|
0016fe  4628              MOV      r0,r5                 ;3075
001700  f7fffffe          BL       TEXT_SetText
001704  f6401103          MOV      r1,#0x903             ;3077
001708  6860              LDR      r0,[r4,#4]            ;3077  ; hWinset
00170a  f7fffffe          BL       WM_GetDialogItem
00170e  4604              MOV      r4,r0                 ;3077
001710  4639              MOV      r1,r7                 ;3078
001712  4620              MOV      r0,r4                 ;3078
001714  f7fffffe          BL       TEXT_SetTextColor
001718  49a9              LDR      r1,|L4.6592|
00171a  4620              MOV      r0,r4                 ;3079
00171c  f7fffffe          BL       TEXT_SetFont
001720  f7fffffe          BL       GUI_UC_SetEncodeUTF8
001724  f2af1190          ADR      r1,|L4.5528|
001728  4620              MOV      r0,r4                 ;3081
00172a  f7fffffe          BL       TEXT_SetText
00172e  e05b              B        |L4.6120|
                  |L4.5936|
001730  7860              LDRB     r0,[r4,#1]            ;3112  ; lang
001732  b3e0              CBZ      r0,|L4.6062|
001734  f44f6110          MOV      r1,#0x900             ;3139
001738  6860              LDR      r0,[r4,#4]            ;3139  ; hWinset
00173a  f7fffffe          BL       WM_GetDialogItem
00173e  4605              MOV      r5,r0                 ;3139
001740  4639              MOV      r1,r7                 ;3140
001742  4628              MOV      r0,r5                 ;3140
001744  f7fffffe          BL       TEXT_SetTextColor
001748  499c              LDR      r1,|L4.6588|
00174a  4628              MOV      r0,r5                 ;3141
00174c  f7fffffe          BL       TEXT_SetFont
001750  f7fffffe          BL       GUI_UC_SetEncodeUTF8
001754  f2af11b0          ADR      r1,|L4.5544|
001758  4628              MOV      r0,r5                 ;3143
00175a  f7fffffe          BL       TEXT_SetText
00175e  f6401101          MOV      r1,#0x901             ;3145
001762  6860              LDR      r0,[r4,#4]            ;3145  ; hWinset
001764  f7fffffe          BL       WM_GetDialogItem
001768  4605              MOV      r5,r0                 ;3145
00176a  4639              MOV      r1,r7                 ;3146
00176c  4628              MOV      r0,r5                 ;3146
00176e  f7fffffe          BL       TEXT_SetTextColor
001772  4992              LDR      r1,|L4.6588|
001774  4628              MOV      r0,r5                 ;3147
001776  f7fffffe          BL       TEXT_SetFont
00177a  2100              MOVS     r1,#0                 ;3148
00177c  4628              MOV      r0,r5                 ;3148
00177e  f7fffffe          BL       TEXT_SetBkColor
001782  f7fffffe          BL       GUI_UC_SetEncodeUTF8
001786  f2af2144          ADR      r1,|L4.5444|
00178a  4628              MOV      r0,r5                 ;3150
00178c  f7fffffe          BL       TEXT_SetText
001790  f6401102          MOV      r1,#0x902             ;3152
001794  6860              LDR      r0,[r4,#4]            ;3152  ; hWinset
001796  f7fffffe          BL       WM_GetDialogItem
00179a  4605              MOV      r5,r0                 ;3152
00179c  4639              MOV      r1,r7                 ;3153
00179e  4628              MOV      r0,r5                 ;3153
0017a0  f7fffffe          BL       TEXT_SetTextColor
0017a4  4985              LDR      r1,|L4.6588|
0017a6  4628              MOV      r0,r5                 ;3154
0017a8  f7fffffe          BL       TEXT_SetFont
0017ac  e000              B        |L4.6064|
                  |L4.6062|
0017ae  e01f              B        |L4.6128|
                  |L4.6064|
0017b0  f7fffffe          BL       GUI_UC_SetEncodeUTF8
0017b4  f2af216c          ADR      r1,|L4.5452|
0017b8  4628              MOV      r0,r5                 ;3156
0017ba  f7fffffe          BL       TEXT_SetText
0017be  f6401103          MOV      r1,#0x903             ;3158
0017c2  6860              LDR      r0,[r4,#4]            ;3158  ; hWinset
0017c4  f7fffffe          BL       WM_GetDialogItem
0017c8  4604              MOV      r4,r0                 ;3158
0017ca  4639              MOV      r1,r7                 ;3159
0017cc  4620              MOV      r0,r4                 ;3159
0017ce  f7fffffe          BL       TEXT_SetTextColor
0017d2  497a              LDR      r1,|L4.6588|
0017d4  4620              MOV      r0,r4                 ;3160
0017d6  f7fffffe          BL       TEXT_SetFont
0017da  f7fffffe          BL       GUI_UC_SetEncodeUTF8
0017de  f2af218c          ADR      r1,|L4.5460|
0017e2  4620              MOV      r0,r4                 ;3162
0017e4  f7fffffe          BL       TEXT_SetText
                  |L4.6120|
0017e8  4976              LDR      r1,|L4.6596|
0017ea  202a              MOVS     r0,#0x2a              ;3169
0017ec  7008              STRB     r0,[r1,#0]            ;3169
                  |L4.6126|
0017ee  e40b              B        |L4.4104|
                  |L4.6128|
0017f0  f44f6110          MOV      r1,#0x900             ;3114
0017f4  6860              LDR      r0,[r4,#4]            ;3114  ; hWinset
0017f6  f7fffffe          BL       WM_GetDialogItem
0017fa  4605              MOV      r5,r0                 ;3114
0017fc  4639              MOV      r1,r7                 ;3115
0017fe  4628              MOV      r0,r5                 ;3115
001800  f7fffffe          BL       TEXT_SetTextColor
001804  496e              LDR      r1,|L4.6592|
001806  4628              MOV      r0,r5                 ;3116
001808  f7fffffe          BL       TEXT_SetFont
00180c  f7fffffe          BL       GUI_UC_SetEncodeUTF8
001810  f2af2164          ADR      r1,|L4.5552|
001814  4628              MOV      r0,r5                 ;3118
001816  f7fffffe          BL       TEXT_SetText
00181a  f6401101          MOV      r1,#0x901             ;3120
00181e  6860              LDR      r0,[r4,#4]            ;3120  ; hWinset
001820  f7fffffe          BL       WM_GetDialogItem
001824  4605              MOV      r5,r0                 ;3120
001826  4639              MOV      r1,r7                 ;3121
001828  4628              MOV      r0,r5                 ;3121
00182a  f7fffffe          BL       TEXT_SetTextColor
00182e  4964              LDR      r1,|L4.6592|
001830  4628              MOV      r0,r5                 ;3122
001832  f7fffffe          BL       TEXT_SetFont
001836  2100              MOVS     r1,#0                 ;3123
001838  4628              MOV      r0,r5                 ;3123
00183a  f7fffffe          BL       TEXT_SetBkColor
00183e  f7fffffe          BL       GUI_UC_SetEncodeUTF8
001842  f2af21e0          ADR      r1,|L4.5476|
001846  4628              MOV      r0,r5                 ;3125
001848  f7fffffe          BL       TEXT_SetText
00184c  f6401102          MOV      r1,#0x902             ;3127
001850  6860              LDR      r0,[r4,#4]            ;3127  ; hWinset
001852  f7fffffe          BL       WM_GetDialogItem
001856  4605              MOV      r5,r0                 ;3127
001858  4639              MOV      r1,r7                 ;3128
00185a  4628              MOV      r0,r5                 ;3128
00185c  f7fffffe          BL       TEXT_SetTextColor
001860  4957              LDR      r1,|L4.6592|
001862  4628              MOV      r0,r5                 ;3129
001864  f7fffffe          BL       TEXT_SetFont
001868  f7fffffe          BL       GUI_UC_SetEncodeUTF8
00186c  f2af21fc          ADR      r1,|L4.5492|
001870  4628              MOV      r0,r5                 ;3131
001872  f7fffffe          BL       TEXT_SetText
001876  f6401103          MOV      r1,#0x903             ;3133
00187a  6860              LDR      r0,[r4,#4]            ;3133  ; hWinset
00187c  f7fffffe          BL       WM_GetDialogItem
001880  4604              MOV      r4,r0                 ;3133
001882  4639              MOV      r1,r7                 ;3134
001884  4620              MOV      r0,r4                 ;3134
001886  f7fffffe          BL       TEXT_SetTextColor
00188a  494d              LDR      r1,|L4.6592|
00188c  4620              MOV      r0,r4                 ;3135
00188e  f7fffffe          BL       TEXT_SetFont
001892  f7fffffe          BL       GUI_UC_SetEncodeUTF8
001896  f2af3114          ADR      r1,|L4.5508|
00189a  4620              MOV      r0,r4                 ;3137
00189c  f7fffffe          BL       TEXT_SetText
0018a0  e7a2              B        |L4.6120|
                  |L4.6306|
0018a2  7820              LDRB     r0,[r4,#0]            ;3186  ; test_mode
0018a4  2801              CMP      r0,#1                 ;3186
0018a6  d002              BEQ      |L4.6318|
0018a8  7820              LDRB     r0,[r4,#0]            ;3190  ; test_mode
0018aa  b150              CBZ      r0,|L4.6338|
0018ac  e026              B        |L4.6396|
                  |L4.6318|
0018ae  4944              LDR      r1,|L4.6592|
0018b0  4630              MOV      r0,r6                 ;3188
0018b2  f7fffffe          BL       TEXT_SetFont
0018b6  f2af71c8          ADR      r1,|L4.4336|
0018ba  4630              MOV      r0,r6                 ;3189
0018bc  f7fffffe          BL       TEXT_SetText
0018c0  e01c              B        |L4.6396|
                  |L4.6338|
0018c2  493f              LDR      r1,|L4.6592|
0018c4  4630              MOV      r0,r6                 ;3191
0018c6  f7fffffe          BL       TEXT_SetFont
0018ca  f2af71e4          ADR      r1,|L4.4328|
0018ce  4630              MOV      r0,r6                 ;3192
0018d0  f7fffffe          BL       TEXT_SetText
0018d4  e012              B        |L4.6396|
                  |L4.6358|
0018d6  4939              LDR      r1,|L4.6588|
0018d8  4630              MOV      r0,r6                 ;3197
0018da  f7fffffe          BL       TEXT_SetFont
0018de  f6af0110          ADR      r1,|L4.4304|
0018e2  4630              MOV      r0,r6                 ;3198
0018e4  f7fffffe          BL       TEXT_SetText
0018e8  e008              B        |L4.6396|
                  |L4.6378|
0018ea  4934              LDR      r1,|L4.6588|
0018ec  4630              MOV      r0,r6                 ;3200
0018ee  f7fffffe          BL       TEXT_SetFont
0018f2  f6af0118          ADR      r1,|L4.4316|
0018f6  4630              MOV      r0,r6                 ;3201
0018f8  f7fffffe          BL       TEXT_SetText
                  |L4.6396|
0018fc  f6401641          MOV      r6,#0x941             ;3205
001900  4631              MOV      r1,r6                 ;3205
001902  6860              LDR      r0,[r4,#4]            ;3205  ; hWinset
001904  f7fffffe          BL       WM_GetDialogItem
001908  7860              LDRB     r0,[r4,#1]            ;3206  ; lang
00190a  b1d8              CBZ      r0,|L4.6468|
00190c  4631              MOV      r1,r6                 ;3216
00190e  6860              LDR      r0,[r4,#4]            ;3216  ; hWinset
001910  f7fffffe          BL       WM_GetDialogItem
001914  4606              MOV      r6,r0                 ;3216
001916  4639              MOV      r1,r7                 ;3217
001918  4630              MOV      r0,r6                 ;3217
00191a  f7fffffe          BL       TEXT_SetTextColor
00191e  4927              LDR      r1,|L4.6588|
001920  4630              MOV      r0,r6                 ;3218
001922  f7fffffe          BL       TEXT_SetFont
001926  f7fffffe          BL       GUI_UC_SetEncodeUTF8
00192a  4927              LDR      r1,|L4.6600|
00192c  4630              MOV      r0,r6                 ;3220
00192e  f7fffffe          BL       TEXT_SetText
                  |L4.6450|
001932  4826              LDR      r0,|L4.6604|
001934  7800              LDRB     r0,[r0,#0]            ;3223  ; buffer
001936  2806              CMP      r0,#6                 ;3223
001938  d234              BCS      |L4.6564|
00193a  e8dff000          TBB      [pc,r0]               ;3223
00193e  d618              DCB      0xd6,0x18
001940  496f95bb          DCB      0x49,0x6f,0x95,0xbb
                  |L4.6468|
001944  4631              MOV      r1,r6                 ;3209
001946  6860              LDR      r0,[r4,#4]            ;3209  ; hWinset
001948  f7fffffe          BL       WM_GetDialogItem
00194c  4606              MOV      r6,r0                 ;3209
00194e  4639              MOV      r1,r7                 ;3210
001950  4630              MOV      r0,r6                 ;3210
001952  f7fffffe          BL       TEXT_SetTextColor
001956  491a              LDR      r1,|L4.6592|
001958  4630              MOV      r0,r6                 ;3211
00195a  f7fffffe          BL       TEXT_SetFont
00195e  f7fffffe          BL       GUI_UC_SetEncodeUTF8
001962  f6af016c          ADR      r1,|L4.4344|
001966  4630              MOV      r0,r6                 ;3213
001968  f7fffffe          BL       TEXT_SetText
00196c  e7e1              B        |L4.6450|
00196e  f640019f          MOV      r1,#0x89f             ;3227
001972  6860              LDR      r0,[r4,#4]            ;3227  ; hWinset
001974  f7fffffe          BL       WM_GetDialogItem
001978  4606              MOV      r6,r0                 ;3227
00197a  4649              MOV      r1,r9                 ;3228
00197c  4630              MOV      r0,r6                 ;3228
00197e  f7fffffe          BL       TEXT_SetBkColor
001982  4639              MOV      r1,r7                 ;3229
001984  4630              MOV      r0,r6                 ;3229
001986  f7fffffe          BL       TEXT_SetTextColor
00198a  7860              LDRB     r0,[r4,#1]            ;3230  ; lang
00198c  b158              CBZ      r0,|L4.6566|
00198e  490b              LDR      r1,|L4.6588|
001990  4630              MOV      r0,r6                 ;3235
001992  f7fffffe          BL       TEXT_SetFont
001996  f2af31f0          ADR      r1,|L4.5544|
00199a  4630              MOV      r0,r6                 ;3236
00199c  f7fffffe          BL       TEXT_SetText
                  |L4.6560|
0019a0  f885a000          STRB     r10,[r5,#0]           ;3238
                  |L4.6564|
0019a4  e0a1              B        |L4.6890|
                  |L4.6566|
0019a6  4906              LDR      r1,|L4.6592|
0019a8  4630              MOV      r0,r6                 ;3232
0019aa  f7fffffe          BL       TEXT_SetFont
0019ae  f2af4100          ADR      r1,|L4.5552|
0019b2  4630              MOV      r0,r6                 ;3233
0019b4  f7fffffe          BL       TEXT_SetText
0019b8  e7f2              B        |L4.6560|
0019ba  0000              DCW      0x0000
                  |L4.6588|
                          DCD      GUI_Font20_ASCII
                  |L4.6592|
                          DCD      GUI_Fontset_font
                  |L4.6596|
                          DCD      set_sw
                  |L4.6600|
                          DCD      ||i.PARA_SET||+0x43c
                  |L4.6604|
                          DCD      buffer
0019d0  f640019f          MOV      r1,#0x89f             ;3243
0019d4  6860              LDR      r0,[r4,#4]            ;3243  ; hWinset
0019d6  f7fffffe          BL       WM_GetDialogItem
0019da  4606              MOV      r6,r0                 ;3243
0019dc  4649              MOV      r1,r9                 ;3244
0019de  4630              MOV      r0,r6                 ;3244
0019e0  f7fffffe          BL       TEXT_SetBkColor
0019e4  4639              MOV      r1,r7                 ;3245
0019e6  4630              MOV      r0,r6                 ;3245
0019e8  f7fffffe          BL       TEXT_SetTextColor
0019ec  7861              LDRB     r1,[r4,#1]            ;3246  ; lang
0019ee  b159              CBZ      r1,|L4.6664|
0019f0  49fe              LDR      r1,|L4.7660|
0019f2  4630              MOV      r0,r6                 ;3251
0019f4  f7fffffe          BL       TEXT_SetFont
0019f8  f2af41b8          ADR      r1,|L4.5444|
0019fc  4630              MOV      r0,r6                 ;3252
0019fe  f7fffffe          BL       TEXT_SetText
                  |L4.6658|
001a02  2002              MOVS     r0,#2                 ;3254
001a04  7028              STRB     r0,[r5,#0]            ;3254
001a06  e070              B        |L4.6890|
                  |L4.6664|
001a08  49f9              LDR      r1,|L4.7664|
001a0a  4630              MOV      r0,r6                 ;3248
001a0c  f7fffffe          BL       TEXT_SetFont
001a10  f2af41b0          ADR      r1,|L4.5476|
001a14  4630              MOV      r0,r6                 ;3249
001a16  f7fffffe          BL       TEXT_SetText
001a1a  e7f2              B        |L4.6658|
001a1c  f640019f          MOV      r1,#0x89f             ;3259
001a20  6860              LDR      r0,[r4,#4]            ;3259  ; hWinset
001a22  f7fffffe          BL       WM_GetDialogItem
001a26  4606              MOV      r6,r0                 ;3259
001a28  4649              MOV      r1,r9                 ;3260
001a2a  4630              MOV      r0,r6                 ;3260
001a2c  f7fffffe          BL       TEXT_SetBkColor
001a30  4639              MOV      r1,r7                 ;3261
001a32  4630              MOV      r0,r6                 ;3261
001a34  f7fffffe          BL       TEXT_SetTextColor
001a38  7860              LDRB     r0,[r4,#1]            ;3262  ; lang
001a3a  b158              CBZ      r0,|L4.6740|
001a3c  49eb              LDR      r1,|L4.7660|
001a3e  4630              MOV      r0,r6                 ;3267
001a40  f7fffffe          BL       TEXT_SetFont
001a44  f2af41fc          ADR      r1,|L4.5452|
001a48  4630              MOV      r0,r6                 ;3268
001a4a  f7fffffe          BL       TEXT_SetText
                  |L4.6734|
001a4e  f885b000          STRB     r11,[r5,#0]           ;3270
001a52  e04a              B        |L4.6890|
                  |L4.6740|
001a54  49e6              LDR      r1,|L4.7664|
001a56  4630              MOV      r0,r6                 ;3264
001a58  f7fffffe          BL       TEXT_SetFont
001a5c  f2af41ec          ADR      r1,|L4.5492|
001a60  4630              MOV      r0,r6                 ;3265
001a62  f7fffffe          BL       TEXT_SetText
001a66  e7f2              B        |L4.6734|
001a68  f640019f          MOV      r1,#0x89f             ;3275
001a6c  6860              LDR      r0,[r4,#4]            ;3275  ; hWinset
001a6e  f7fffffe          BL       WM_GetDialogItem
001a72  4606              MOV      r6,r0                 ;3275
001a74  4649              MOV      r1,r9                 ;3276
001a76  4630              MOV      r0,r6                 ;3276
001a78  f7fffffe          BL       TEXT_SetBkColor
001a7c  4639              MOV      r1,r7                 ;3277
001a7e  4630              MOV      r0,r6                 ;3277
001a80  f7fffffe          BL       TEXT_SetTextColor
001a84  7861              LDRB     r1,[r4,#1]            ;3278  ; lang
001a86  b159              CBZ      r1,|L4.6816|
001a88  49d8              LDR      r1,|L4.7660|
001a8a  4630              MOV      r0,r6                 ;3283
001a8c  f7fffffe          BL       TEXT_SetFont
001a90  f2af5140          ADR      r1,|L4.5460|
001a94  4630              MOV      r0,r6                 ;3284
001a96  f7fffffe          BL       TEXT_SetText
                  |L4.6810|
001a9a  2004              MOVS     r0,#4                 ;3286
001a9c  7028              STRB     r0,[r5,#0]            ;3286
001a9e  e024              B        |L4.6890|
                  |L4.6816|
001aa0  49d3              LDR      r1,|L4.7664|
001aa2  4630              MOV      r0,r6                 ;3280
001aa4  f7fffffe          BL       TEXT_SetFont
001aa8  f2af5128          ADR      r1,|L4.5508|
001aac  4630              MOV      r0,r6                 ;3281
001aae  f7fffffe          BL       TEXT_SetText
001ab2  e7f2              B        |L4.6810|
001ab4  f640019f          MOV      r1,#0x89f             ;3291
001ab8  6860              LDR      r0,[r4,#4]            ;3291  ; hWinset
001aba  f7fffffe          BL       WM_GetDialogItem
001abe  4606              MOV      r6,r0                 ;3291
001ac0  4649              MOV      r1,r9                 ;3292
001ac2  4630              MOV      r0,r6                 ;3292
001ac4  f7fffffe          BL       TEXT_SetBkColor
001ac8  4639              MOV      r1,r7                 ;3293
001aca  4630              MOV      r0,r6                 ;3293
001acc  f7fffffe          BL       TEXT_SetTextColor
001ad0  7861              LDRB     r1,[r4,#1]            ;3294  ; lang
001ad2  b3a1              CBZ      r1,|L4.6974|
001ad4  49c5              LDR      r1,|L4.7660|
001ad6  4630              MOV      r0,r6                 ;3299
001ad8  f7fffffe          BL       TEXT_SetFont
001adc  f2af5188          ADR      r1,|L4.5464|
001ae0  4630              MOV      r0,r6                 ;3300
001ae2  f7fffffe          BL       TEXT_SetText
                  |L4.6886|
001ae6  2005              MOVS     r0,#5                 ;3302
001ae8  7028              STRB     r0,[r5,#0]            ;3302
                  |L4.6890|
001aea  f44f6110          MOV      r1,#0x900             ;3307
001aee  6860              LDR      r0,[r4,#4]            ;3307  ; hWinset
001af0  f7fffffe          BL       WM_GetDialogItem
001af4  f2af51b0          ADR      r1,|L4.5448|
001af8  f7fffffe          BL       TEXT_SetText
001afc  f6401101          MOV      r1,#0x901             ;3310
001b00  6860              LDR      r0,[r4,#4]            ;3310  ; hWinset
001b02  f7fffffe          BL       WM_GetDialogItem
001b06  f2af51c0          ADR      r1,|L4.5448|
001b0a  f7fffffe          BL       TEXT_SetText
001b0e  f6401102          MOV      r1,#0x902             ;3313
001b12  6860              LDR      r0,[r4,#4]            ;3313  ; hWinset
001b14  f7fffffe          BL       WM_GetDialogItem
001b18  f2af51d4          ADR      r1,|L4.5448|
001b1c  f7fffffe          BL       TEXT_SetText
001b20  f6401103          MOV      r1,#0x903             ;3316
001b24  6860              LDR      r0,[r4,#4]            ;3316  ; hWinset
001b26  f7fffffe          BL       WM_GetDialogItem
001b2a  f2af51e4          ADR      r1,|L4.5448|
001b2e  f7fffffe          BL       TEXT_SetText
001b32  f7fffffe          BL       Write_btype
001b36  49af              LDR      r1,|L4.7668|
001b38  2029              MOVS     r0,#0x29              ;3320
001b3a  7008              STRB     r0,[r1,#0]            ;3320
                  |L4.6972|
001b3c  e657              B        |L4.6126|
                  |L4.6974|
001b3e  e7ff              B        |L4.6976|
                  |L4.6976|
001b40  49ab              LDR      r1,|L4.7664|
001b42  4630              MOV      r0,r6                 ;3296
001b44  f7fffffe          BL       TEXT_SetFont
001b48  f2af51b4          ADR      r1,|L4.5528|
001b4c  4630              MOV      r0,r6                 ;3297
001b4e  f7fffffe          BL       TEXT_SetText
001b52  e7c8              B        |L4.6886|
                  |L4.6996|
001b54  4604              MOV      r4,r0                 ;3328
001b56  4619              MOV      r1,r3                 ;3328
001b58  4610              MOV      r0,r2                 ;3328
001b5a  f7fffffe          BL       WM_GetDialogItem
001b5e  4606              MOV      r6,r0                 ;3328
001b60  49a5              LDR      r1,|L4.7672|
001b62  4630              MOV      r0,r6                 ;3329
001b64  f7fffffe          BL       TEXT_SetBkColor
001b68  2100              MOVS     r1,#0                 ;3330
001b6a  4630              MOV      r0,r6                 ;3330
001b6c  f7fffffe          BL       TEXT_SetTextColor
001b70  f6401123          MOV      r1,#0x923             ;3332
001b74  6860              LDR      r0,[r4,#4]            ;3332  ; hWinset
001b76  f7fffffe          BL       WM_GetDialogItem
001b7a  4606              MOV      r6,r0                 ;3332
001b7c  7860              LDRB     r0,[r4,#1]            ;3333  ; lang
001b7e  b128              CBZ      r0,|L4.7052|
001b80  7820              LDRB     r0,[r4,#0]            ;3344  ; test_mode
001b82  2801              CMP      r0,#1                 ;3344
001b84  d01c              BEQ      |L4.7104|
001b86  7820              LDRB     r0,[r4,#0]            ;3348  ; test_mode
001b88  b320              CBZ      r0,|L4.7124|
001b8a  e02c              B        |L4.7142|
                  |L4.7052|
001b8c  7820              LDRB     r0,[r4,#0]            ;3335  ; test_mode
001b8e  2801              CMP      r0,#1                 ;3335
001b90  d002              BEQ      |L4.7064|
001b92  7820              LDRB     r0,[r4,#0]            ;3339  ; test_mode
001b94  b150              CBZ      r0,|L4.7084|
001b96  e026              B        |L4.7142|
                  |L4.7064|
001b98  4995              LDR      r1,|L4.7664|
001b9a  4630              MOV      r0,r6                 ;3337
001b9c  f7fffffe          BL       TEXT_SetFont
001ba0  f6af21b4          ADR      r1,|L4.4336|
001ba4  4630              MOV      r0,r6                 ;3338
001ba6  f7fffffe          BL       TEXT_SetText
001baa  e01c              B        |L4.7142|
                  |L4.7084|
001bac  4990              LDR      r1,|L4.7664|
001bae  4630              MOV      r0,r6                 ;3340
001bb0  f7fffffe          BL       TEXT_SetFont
001bb4  f6af21d0          ADR      r1,|L4.4328|
001bb8  4630              MOV      r0,r6                 ;3341
001bba  f7fffffe          BL       TEXT_SetText
001bbe  e012              B        |L4.7142|
                  |L4.7104|
001bc0  498a              LDR      r1,|L4.7660|
001bc2  4630              MOV      r0,r6                 ;3346
001bc4  f7fffffe          BL       TEXT_SetFont
001bc8  f6af21fc          ADR      r1,|L4.4304|
001bcc  4630              MOV      r0,r6                 ;3347
001bce  f7fffffe          BL       TEXT_SetText
001bd2  e008              B        |L4.7142|
                  |L4.7124|
001bd4  4985              LDR      r1,|L4.7660|
001bd6  4630              MOV      r0,r6                 ;3349
001bd8  f7fffffe          BL       TEXT_SetFont
001bdc  f6af3104          ADR      r1,|L4.4316|
001be0  4630              MOV      r0,r6                 ;3350
001be2  f7fffffe          BL       TEXT_SetText
                  |L4.7142|
001be6  f6401641          MOV      r6,#0x941             ;3354
001bea  4631              MOV      r1,r6                 ;3354
001bec  6860              LDR      r0,[r4,#4]            ;3354  ; hWinset
001bee  f7fffffe          BL       WM_GetDialogItem
001bf2  7860              LDRB     r0,[r4,#1]            ;3355  ; lang
001bf4  b1d8              CBZ      r0,|L4.7214|
001bf6  4631              MOV      r1,r6                 ;3365
001bf8  6860              LDR      r0,[r4,#4]            ;3365  ; hWinset
001bfa  f7fffffe          BL       WM_GetDialogItem
001bfe  4606              MOV      r6,r0                 ;3365
001c00  4639              MOV      r1,r7                 ;3366
001c02  4630              MOV      r0,r6                 ;3366
001c04  f7fffffe          BL       TEXT_SetTextColor
001c08  4978              LDR      r1,|L4.7660|
001c0a  4630              MOV      r0,r6                 ;3367
001c0c  f7fffffe          BL       TEXT_SetFont
001c10  f7fffffe          BL       GUI_UC_SetEncodeUTF8
001c14  4979              LDR      r1,|L4.7676|
001c16  4630              MOV      r0,r6                 ;3369
001c18  f7fffffe          BL       TEXT_SetText
                  |L4.7196|
001c1c  4878              LDR      r0,|L4.7680|
001c1e  7800              LDRB     r0,[r0,#0]            ;3371  ; buffer
001c20  2806              CMP      r0,#6                 ;3371
001c22  d234              BCS      |L4.7310|
001c24  e8dff000          TBB      [pc,r0]               ;3371
001c28  cb183e64          DCB      0xcb,0x18,0x3e,0x64
001c2c  8ab0              DCB      0x8a,0xb0
                  |L4.7214|
001c2e  4631              MOV      r1,r6                 ;3358
001c30  6860              LDR      r0,[r4,#4]            ;3358  ; hWinset
001c32  f7fffffe          BL       WM_GetDialogItem
001c36  4606              MOV      r6,r0                 ;3358
001c38  4639              MOV      r1,r7                 ;3359
001c3a  4630              MOV      r0,r6                 ;3359
001c3c  f7fffffe          BL       TEXT_SetTextColor
001c40  496b              LDR      r1,|L4.7664|
001c42  4630              MOV      r0,r6                 ;3360
001c44  f7fffffe          BL       TEXT_SetFont
001c48  f7fffffe          BL       GUI_UC_SetEncodeUTF8
001c4c  f6af3158          ADR      r1,|L4.4344|
001c50  4630              MOV      r0,r6                 ;3362
001c52  f7fffffe          BL       TEXT_SetText
001c56  e7e1              B        |L4.7196|
001c58  f640019f          MOV      r1,#0x89f             ;3375
001c5c  6860              LDR      r0,[r4,#4]            ;3375  ; hWinset
001c5e  f7fffffe          BL       WM_GetDialogItem
001c62  4606              MOV      r6,r0                 ;3375
001c64  4649              MOV      r1,r9                 ;3376
001c66  4630              MOV      r0,r6                 ;3376
001c68  f7fffffe          BL       TEXT_SetBkColor
001c6c  4639              MOV      r1,r7                 ;3377
001c6e  4630              MOV      r0,r6                 ;3377
001c70  f7fffffe          BL       TEXT_SetTextColor
001c74  7860              LDRB     r0,[r4,#1]            ;3378  ; lang
001c76  b158              CBZ      r0,|L4.7312|
001c78  495c              LDR      r1,|L4.7660|
001c7a  4630              MOV      r0,r6                 ;3383
001c7c  f7fffffe          BL       TEXT_SetFont
001c80  f2af61dc          ADR      r1,|L4.5544|
001c84  4630              MOV      r0,r6                 ;3384
001c86  f7fffffe          BL       TEXT_SetText
                  |L4.7306|
001c8a  f885a000          STRB     r10,[r5,#0]           ;3386
                  |L4.7310|
001c8e  e096              B        |L4.7614|
                  |L4.7312|
001c90  4957              LDR      r1,|L4.7664|
001c92  4630              MOV      r0,r6                 ;3380
001c94  f7fffffe          BL       TEXT_SetFont
001c98  f2af61ec          ADR      r1,|L4.5552|
001c9c  4630              MOV      r0,r6                 ;3381
001c9e  f7fffffe          BL       TEXT_SetText
001ca2  e7f2              B        |L4.7306|
001ca4  f640019f          MOV      r1,#0x89f             ;3391
001ca8  6860              LDR      r0,[r4,#4]            ;3391  ; hWinset
001caa  f7fffffe          BL       WM_GetDialogItem
001cae  4606              MOV      r6,r0                 ;3391
001cb0  4649              MOV      r1,r9                 ;3392
001cb2  4630              MOV      r0,r6                 ;3392
001cb4  f7fffffe          BL       TEXT_SetBkColor
001cb8  4639              MOV      r1,r7                 ;3393
001cba  4630              MOV      r0,r6                 ;3393
001cbc  f7fffffe          BL       TEXT_SetTextColor
001cc0  7861              LDRB     r1,[r4,#1]            ;3394  ; lang
001cc2  b159              CBZ      r1,|L4.7388|
001cc4  4949              LDR      r1,|L4.7660|
001cc6  4630              MOV      r0,r6                 ;3399
001cc8  f7fffffe          BL       TEXT_SetFont
001ccc  f2af718c          ADR      r1,|L4.5444|
001cd0  4630              MOV      r0,r6                 ;3400
001cd2  f7fffffe          BL       TEXT_SetText
                  |L4.7382|
001cd6  2002              MOVS     r0,#2                 ;3402
001cd8  7028              STRB     r0,[r5,#0]            ;3402
001cda  e070              B        |L4.7614|
                  |L4.7388|
001cdc  4944              LDR      r1,|L4.7664|
001cde  4630              MOV      r0,r6                 ;3396
001ce0  f7fffffe          BL       TEXT_SetFont
001ce4  f2af7184          ADR      r1,|L4.5476|
001ce8  4630              MOV      r0,r6                 ;3397
001cea  f7fffffe          BL       TEXT_SetText
001cee  e7f2              B        |L4.7382|
001cf0  f640019f          MOV      r1,#0x89f             ;3407
001cf4  6860              LDR      r0,[r4,#4]            ;3407  ; hWinset
001cf6  f7fffffe          BL       WM_GetDialogItem
001cfa  4606              MOV      r6,r0                 ;3407
001cfc  4649              MOV      r1,r9                 ;3408
001cfe  4630              MOV      r0,r6                 ;3408
001d00  f7fffffe          BL       TEXT_SetBkColor
001d04  4639              MOV      r1,r7                 ;3409
001d06  4630              MOV      r0,r6                 ;3409
001d08  f7fffffe          BL       TEXT_SetTextColor
001d0c  7860              LDRB     r0,[r4,#1]            ;3410  ; lang
001d0e  b158              CBZ      r0,|L4.7464|
001d10  4936              LDR      r1,|L4.7660|
001d12  4630              MOV      r0,r6                 ;3415
001d14  f7fffffe          BL       TEXT_SetFont
001d18  f2af71d0          ADR      r1,|L4.5452|
001d1c  4630              MOV      r0,r6                 ;3416
001d1e  f7fffffe          BL       TEXT_SetText
                  |L4.7458|
001d22  f885b000          STRB     r11,[r5,#0]           ;3418
001d26  e04a              B        |L4.7614|
                  |L4.7464|
001d28  4931              LDR      r1,|L4.7664|
001d2a  4630              MOV      r0,r6                 ;3412
001d2c  f7fffffe          BL       TEXT_SetFont
001d30  f2af71c0          ADR      r1,|L4.5492|
001d34  4630              MOV      r0,r6                 ;3413
001d36  f7fffffe          BL       TEXT_SetText
001d3a  e7f2              B        |L4.7458|
001d3c  f640019f          MOV      r1,#0x89f             ;3423
001d40  6860              LDR      r0,[r4,#4]            ;3423  ; hWinset
001d42  f7fffffe          BL       WM_GetDialogItem
001d46  4606              MOV      r6,r0                 ;3423
001d48  4649              MOV      r1,r9                 ;3424
001d4a  4630              MOV      r0,r6                 ;3424
001d4c  f7fffffe          BL       TEXT_SetBkColor
001d50  4639              MOV      r1,r7                 ;3425
001d52  4630              MOV      r0,r6                 ;3425
001d54  f7fffffe          BL       TEXT_SetTextColor
001d58  7861              LDRB     r1,[r4,#1]            ;3426  ; lang
001d5a  b159              CBZ      r1,|L4.7540|
001d5c  4923              LDR      r1,|L4.7660|
001d5e  4630              MOV      r0,r6                 ;3431
001d60  f7fffffe          BL       TEXT_SetFont
001d64  f6af0114          ADR      r1,|L4.5460|
001d68  4630              MOV      r0,r6                 ;3432
001d6a  f7fffffe          BL       TEXT_SetText
                  |L4.7534|
001d6e  2004              MOVS     r0,#4                 ;3434
001d70  7028              STRB     r0,[r5,#0]            ;3434
001d72  e024              B        |L4.7614|
                  |L4.7540|
001d74  491e              LDR      r1,|L4.7664|
001d76  4630              MOV      r0,r6                 ;3428
001d78  f7fffffe          BL       TEXT_SetFont
001d7c  f2af71fc          ADR      r1,|L4.5508|
001d80  4630              MOV      r0,r6                 ;3429
001d82  f7fffffe          BL       TEXT_SetText
001d86  e7f2              B        |L4.7534|
001d88  f640019f          MOV      r1,#0x89f             ;3439
001d8c  6860              LDR      r0,[r4,#4]            ;3439  ; hWinset
001d8e  f7fffffe          BL       WM_GetDialogItem
001d92  4606              MOV      r6,r0                 ;3439
001d94  4649              MOV      r1,r9                 ;3440
001d96  4630              MOV      r0,r6                 ;3440
001d98  f7fffffe          BL       TEXT_SetBkColor
001d9c  4639              MOV      r1,r7                 ;3441
001d9e  4630              MOV      r0,r6                 ;3441
001da0  f7fffffe          BL       TEXT_SetTextColor
001da4  7861              LDRB     r1,[r4,#1]            ;3442  ; lang
001da6  b369              CBZ      r1,|L4.7684|
001da8  4910              LDR      r1,|L4.7660|
001daa  4630              MOV      r0,r6                 ;3447
001dac  f7fffffe          BL       TEXT_SetFont
001db0  f6af015c          ADR      r1,|L4.5464|
001db4  4630              MOV      r0,r6                 ;3448
001db6  f7fffffe          BL       TEXT_SetText
                  |L4.7610|
001dba  2005              MOVS     r0,#5                 ;3450
001dbc  7028              STRB     r0,[r5,#0]            ;3450
                  |L4.7614|
001dbe  f44f6110          MOV      r1,#0x900             ;3455
001dc2  6860              LDR      r0,[r4,#4]            ;3455  ; hWinset
001dc4  f7fffffe          BL       WM_GetDialogItem
001dc8  4605              MOV      r5,r0                 ;3455
001dca  f6af0184          ADR      r1,|L4.5448|
001dce  4628              MOV      r0,r5                 ;3456
001dd0  f7fffffe          BL       TEXT_SetText
001dd4  4649              MOV      r1,r9                 ;3457
001dd6  4628              MOV      r0,r5                 ;3457
001dd8  f7fffffe          BL       TEXT_SetBkColor
001ddc  f6401101          MOV      r1,#0x901             ;3459
001de0  6860              LDR      r0,[r4,#4]            ;3459  ; hWinset
001de2  f7fffffe          BL       WM_GetDialogItem
001de6  f6af01a0          ADR      r1,|L4.5448|
001dea  e00c              B        |L4.7686|
                  |L4.7660|
                          DCD      GUI_Font20_ASCII
                  |L4.7664|
                          DCD      GUI_Fontset_font
                  |L4.7668|
                          DCD      set_sw
                  |L4.7672|
                          DCD      0x00bfffff
                  |L4.7676|
                          DCD      ||i.PARA_SET||+0x43c
                  |L4.7680|
                          DCD      buffer
                  |L4.7684|
001e04  e019              B        |L4.7738|
                  |L4.7686|
001e06  f7fffffe          BL       TEXT_SetText
001e0a  f6401102          MOV      r1,#0x902             ;3462
001e0e  6860              LDR      r0,[r4,#4]            ;3462  ; hWinset
001e10  f7fffffe          BL       WM_GetDialogItem
001e14  f6af01d0          ADR      r1,|L4.5448|
001e18  f7fffffe          BL       TEXT_SetText
001e1c  f6401103          MOV      r1,#0x903             ;3465
001e20  6860              LDR      r0,[r4,#4]            ;3465  ; hWinset
001e22  f7fffffe          BL       WM_GetDialogItem
001e26  f6af01e0          ADR      r1,|L4.5448|
001e2a  f7fffffe          BL       TEXT_SetText
001e2e  f7fffffe          BL       Write_btype
001e32  49ff              LDR      r1,|L4.8752|
001e34  2029              MOVS     r0,#0x29              ;3469
001e36  7008              STRB     r0,[r1,#0]            ;3469
                  |L4.7736|
001e38  e4d9              B        |L4.6126|
                  |L4.7738|
001e3a  49fe              LDR      r1,|L4.8756|
001e3c  4630              MOV      r0,r6                 ;3444
001e3e  f7fffffe          BL       TEXT_SetFont
001e42  f6af01ac          ADR      r1,|L4.5528|
001e46  4630              MOV      r0,r6                 ;3445
001e48  f7fffffe          BL       TEXT_SetText
001e4c  e7b5              B        |L4.7610|
                  |L4.7758|
001e4e  4604              MOV      r4,r0                 ;3477
001e50  4619              MOV      r1,r3                 ;3477
001e52  4610              MOV      r0,r2                 ;3477
001e54  f7fffffe          BL       WM_GetDialogItem
001e58  4606              MOV      r6,r0                 ;3477
001e5a  49f7              LDR      r1,|L4.8760|
001e5c  4630              MOV      r0,r6                 ;3478
001e5e  f7fffffe          BL       TEXT_SetBkColor
001e62  2100              MOVS     r1,#0                 ;3479
001e64  4630              MOV      r0,r6                 ;3479
001e66  f7fffffe          BL       TEXT_SetTextColor
001e6a  f6401123          MOV      r1,#0x923             ;3481
001e6e  6860              LDR      r0,[r4,#4]            ;3481  ; hWinset
001e70  f7fffffe          BL       WM_GetDialogItem
001e74  4606              MOV      r6,r0                 ;3481
001e76  7860              LDRB     r0,[r4,#1]            ;3482  ; lang
001e78  b128              CBZ      r0,|L4.7814|
001e7a  7820              LDRB     r0,[r4,#0]            ;3493  ; test_mode
001e7c  2801              CMP      r0,#1                 ;3493
001e7e  d01c              BEQ      |L4.7866|
001e80  7820              LDRB     r0,[r4,#0]            ;3497  ; test_mode
001e82  b320              CBZ      r0,|L4.7886|
001e84  e02c              B        |L4.7904|
                  |L4.7814|
001e86  7820              LDRB     r0,[r4,#0]            ;3484  ; test_mode
001e88  2801              CMP      r0,#1                 ;3484
001e8a  d002              BEQ      |L4.7826|
001e8c  7820              LDRB     r0,[r4,#0]            ;3488  ; test_mode
001e8e  b150              CBZ      r0,|L4.7846|
001e90  e026              B        |L4.7904|
                  |L4.7826|
001e92  49e8              LDR      r1,|L4.8756|
001e94  4630              MOV      r0,r6                 ;3486
001e96  f7fffffe          BL       TEXT_SetFont
001e9a  f6af51ac          ADR      r1,|L4.4336|
001e9e  4630              MOV      r0,r6                 ;3487
001ea0  f7fffffe          BL       TEXT_SetText
001ea4  e01c              B        |L4.7904|
                  |L4.7846|
001ea6  49e3              LDR      r1,|L4.8756|
001ea8  4630              MOV      r0,r6                 ;3489
001eaa  f7fffffe          BL       TEXT_SetFont
001eae  f6af51c8          ADR      r1,|L4.4328|
001eb2  4630              MOV      r0,r6                 ;3490
001eb4  f7fffffe          BL       TEXT_SetText
001eb8  e012              B        |L4.7904|
                  |L4.7866|
001eba  49e0              LDR      r1,|L4.8764|
001ebc  4630              MOV      r0,r6                 ;3495
001ebe  f7fffffe          BL       TEXT_SetFont
001ec2  f6af51f4          ADR      r1,|L4.4304|
001ec6  4630              MOV      r0,r6                 ;3496
001ec8  f7fffffe          BL       TEXT_SetText
001ecc  e008              B        |L4.7904|
                  |L4.7886|
001ece  49db              LDR      r1,|L4.8764|
001ed0  4630              MOV      r0,r6                 ;3498
001ed2  f7fffffe          BL       TEXT_SetFont
001ed6  f6af51fc          ADR      r1,|L4.4316|
001eda  4630              MOV      r0,r6                 ;3499
001edc  f7fffffe          BL       TEXT_SetText
                  |L4.7904|
001ee0  f6401641          MOV      r6,#0x941             ;3503
001ee4  4631              MOV      r1,r6                 ;3503
001ee6  6860              LDR      r0,[r4,#4]            ;3503  ; hWinset
001ee8  f7fffffe          BL       WM_GetDialogItem
001eec  7860              LDRB     r0,[r4,#1]            ;3504  ; lang
001eee  b1d8              CBZ      r0,|L4.7976|
001ef0  4631              MOV      r1,r6                 ;3514
001ef2  6860              LDR      r0,[r4,#4]            ;3514  ; hWinset
001ef4  f7fffffe          BL       WM_GetDialogItem
001ef8  4606              MOV      r6,r0                 ;3514
001efa  4639              MOV      r1,r7                 ;3515
001efc  4630              MOV      r0,r6                 ;3515
001efe  f7fffffe          BL       TEXT_SetTextColor
001f02  49ce              LDR      r1,|L4.8764|
001f04  4630              MOV      r0,r6                 ;3516
001f06  f7fffffe          BL       TEXT_SetFont
001f0a  f7fffffe          BL       GUI_UC_SetEncodeUTF8
001f0e  49cc              LDR      r1,|L4.8768|
001f10  4630              MOV      r0,r6                 ;3518
001f12  f7fffffe          BL       TEXT_SetText
                  |L4.7958|
001f16  48cb              LDR      r0,|L4.8772|
001f18  7800              LDRB     r0,[r0,#0]            ;3520  ; buffer
001f1a  2806              CMP      r0,#6                 ;3520
001f1c  d234              BCS      |L4.8072|
001f1e  e8dff000          TBB      [pc,r0]               ;3520
001f22  cb18              DCB      0xcb,0x18
001f24  3e648ab0          DCB      0x3e,0x64,0x8a,0xb0
                  |L4.7976|
001f28  4631              MOV      r1,r6                 ;3507
001f2a  6860              LDR      r0,[r4,#4]            ;3507  ; hWinset
001f2c  f7fffffe          BL       WM_GetDialogItem
001f30  4606              MOV      r6,r0                 ;3507
001f32  4639              MOV      r1,r7                 ;3508
001f34  4630              MOV      r0,r6                 ;3508
001f36  f7fffffe          BL       TEXT_SetTextColor
001f3a  49be              LDR      r1,|L4.8756|
001f3c  4630              MOV      r0,r6                 ;3509
001f3e  f7fffffe          BL       TEXT_SetFont
001f42  f7fffffe          BL       GUI_UC_SetEncodeUTF8
001f46  f6af6150          ADR      r1,|L4.4344|
001f4a  4630              MOV      r0,r6                 ;3511
001f4c  f7fffffe          BL       TEXT_SetText
001f50  e7e1              B        |L4.7958|
001f52  f640019f          MOV      r1,#0x89f             ;3524
001f56  6860              LDR      r0,[r4,#4]            ;3524  ; hWinset
001f58  f7fffffe          BL       WM_GetDialogItem
001f5c  4606              MOV      r6,r0                 ;3524
001f5e  4649              MOV      r1,r9                 ;3525
001f60  4630              MOV      r0,r6                 ;3525
001f62  f7fffffe          BL       TEXT_SetBkColor
001f66  4639              MOV      r1,r7                 ;3526
001f68  4630              MOV      r0,r6                 ;3526
001f6a  f7fffffe          BL       TEXT_SetTextColor
001f6e  7860              LDRB     r0,[r4,#1]            ;3527  ; lang
001f70  b158              CBZ      r0,|L4.8074|
001f72  49b2              LDR      r1,|L4.8764|
001f74  4630              MOV      r0,r6                 ;3532
001f76  f7fffffe          BL       TEXT_SetFont
001f7a  f6af11d4          ADR      r1,|L4.5544|
001f7e  4630              MOV      r0,r6                 ;3533
001f80  f7fffffe          BL       TEXT_SetText
                  |L4.8068|
001f84  f885a000          STRB     r10,[r5,#0]           ;3535
                  |L4.8072|
001f88  e096              B        |L4.8376|
                  |L4.8074|
001f8a  49aa              LDR      r1,|L4.8756|
001f8c  4630              MOV      r0,r6                 ;3529
001f8e  f7fffffe          BL       TEXT_SetFont
001f92  f6af11e4          ADR      r1,|L4.5552|
001f96  4630              MOV      r0,r6                 ;3530
001f98  f7fffffe          BL       TEXT_SetText
001f9c  e7f2              B        |L4.8068|
001f9e  f640019f          MOV      r1,#0x89f             ;3540
001fa2  6860              LDR      r0,[r4,#4]            ;3540  ; hWinset
001fa4  f7fffffe          BL       WM_GetDialogItem
001fa8  4606              MOV      r6,r0                 ;3540
001faa  4649              MOV      r1,r9                 ;3541
001fac  4630              MOV      r0,r6                 ;3541
001fae  f7fffffe          BL       TEXT_SetBkColor
001fb2  4639              MOV      r1,r7                 ;3542
001fb4  4630              MOV      r0,r6                 ;3542
001fb6  f7fffffe          BL       TEXT_SetTextColor
001fba  7861              LDRB     r1,[r4,#1]            ;3543  ; lang
001fbc  b159              CBZ      r1,|L4.8150|
001fbe  499f              LDR      r1,|L4.8764|
001fc0  4630              MOV      r0,r6                 ;3548
001fc2  f7fffffe          BL       TEXT_SetFont
001fc6  f6af2184          ADR      r1,|L4.5444|
001fca  4630              MOV      r0,r6                 ;3549
001fcc  f7fffffe          BL       TEXT_SetText
                  |L4.8144|
001fd0  2002              MOVS     r0,#2                 ;3551
001fd2  7028              STRB     r0,[r5,#0]            ;3551
001fd4  e070              B        |L4.8376|
                  |L4.8150|
001fd6  4997              LDR      r1,|L4.8756|
001fd8  4630              MOV      r0,r6                 ;3545
001fda  f7fffffe          BL       TEXT_SetFont
001fde  f6af217c          ADR      r1,|L4.5476|
001fe2  4630              MOV      r0,r6                 ;3546
001fe4  f7fffffe          BL       TEXT_SetText
001fe8  e7f2              B        |L4.8144|
001fea  f640019f          MOV      r1,#0x89f             ;3556
001fee  6860              LDR      r0,[r4,#4]            ;3556  ; hWinset
001ff0  f7fffffe          BL       WM_GetDialogItem
001ff4  4606              MOV      r6,r0                 ;3556
001ff6  4649              MOV      r1,r9                 ;3557
001ff8  4630              MOV      r0,r6                 ;3557
001ffa  f7fffffe          BL       TEXT_SetBkColor
001ffe  4639              MOV      r1,r7                 ;3558
002000  4630              MOV      r0,r6                 ;3558
002002  f7fffffe          BL       TEXT_SetTextColor
002006  7860              LDRB     r0,[r4,#1]            ;3559  ; lang
002008  b158              CBZ      r0,|L4.8226|
00200a  498c              LDR      r1,|L4.8764|
00200c  4630              MOV      r0,r6                 ;3564
00200e  f7fffffe          BL       TEXT_SetFont
002012  f6af21c8          ADR      r1,|L4.5452|
002016  4630              MOV      r0,r6                 ;3565
002018  f7fffffe          BL       TEXT_SetText
                  |L4.8220|
00201c  f885b000          STRB     r11,[r5,#0]           ;3567
002020  e04a              B        |L4.8376|
                  |L4.8226|
002022  4984              LDR      r1,|L4.8756|
002024  4630              MOV      r0,r6                 ;3561
002026  f7fffffe          BL       TEXT_SetFont
00202a  f6af21b8          ADR      r1,|L4.5492|
00202e  4630              MOV      r0,r6                 ;3562
002030  f7fffffe          BL       TEXT_SetText
002034  e7f2              B        |L4.8220|
002036  f640019f          MOV      r1,#0x89f             ;3572
00203a  6860              LDR      r0,[r4,#4]            ;3572  ; hWinset
00203c  f7fffffe          BL       WM_GetDialogItem
002040  4606              MOV      r6,r0                 ;3572
002042  4649              MOV      r1,r9                 ;3573
002044  4630              MOV      r0,r6                 ;3573
002046  f7fffffe          BL       TEXT_SetBkColor
00204a  4639              MOV      r1,r7                 ;3574
00204c  4630              MOV      r0,r6                 ;3574
00204e  f7fffffe          BL       TEXT_SetTextColor
002052  7861              LDRB     r1,[r4,#1]            ;3575  ; lang
002054  b159              CBZ      r1,|L4.8302|
002056  4979              LDR      r1,|L4.8764|
002058  4630              MOV      r0,r6                 ;3580
00205a  f7fffffe          BL       TEXT_SetFont
00205e  f6af310c          ADR      r1,|L4.5460|
002062  4630              MOV      r0,r6                 ;3581
002064  f7fffffe          BL       TEXT_SetText
                  |L4.8296|
002068  2004              MOVS     r0,#4                 ;3583
00206a  7028              STRB     r0,[r5,#0]            ;3583
00206c  e024              B        |L4.8376|
                  |L4.8302|
00206e  4971              LDR      r1,|L4.8756|
002070  4630              MOV      r0,r6                 ;3577
002072  f7fffffe          BL       TEXT_SetFont
002076  f6af21f4          ADR      r1,|L4.5508|
00207a  4630              MOV      r0,r6                 ;3578
00207c  f7fffffe          BL       TEXT_SetText
002080  e7f2              B        |L4.8296|
002082  f640019f          MOV      r1,#0x89f             ;3588
002086  6860              LDR      r0,[r4,#4]            ;3588  ; hWinset
002088  f7fffffe          BL       WM_GetDialogItem
00208c  4606              MOV      r6,r0                 ;3588
00208e  4649              MOV      r1,r9                 ;3589
002090  4630              MOV      r0,r6                 ;3589
002092  f7fffffe          BL       TEXT_SetBkColor
002096  4639              MOV      r1,r7                 ;3590
002098  4630              MOV      r0,r6                 ;3590
00209a  f7fffffe          BL       TEXT_SetTextColor
00209e  7861              LDRB     r1,[r4,#1]            ;3591  ; lang
0020a0  b3d1              CBZ      r1,|L4.8472|
0020a2  4966              LDR      r1,|L4.8764|
0020a4  4630              MOV      r0,r6                 ;3596
0020a6  f7fffffe          BL       TEXT_SetFont
0020aa  f6af3154          ADR      r1,|L4.5464|
0020ae  4630              MOV      r0,r6                 ;3597
0020b0  f7fffffe          BL       TEXT_SetText
                  |L4.8372|
0020b4  2005              MOVS     r0,#5                 ;3599
0020b6  7028              STRB     r0,[r5,#0]            ;3599
                  |L4.8376|
0020b8  f44f6110          MOV      r1,#0x900             ;3604
0020bc  6860              LDR      r0,[r4,#4]            ;3604  ; hWinset
0020be  f7fffffe          BL       WM_GetDialogItem
0020c2  f6af317c          ADR      r1,|L4.5448|
0020c6  f7fffffe          BL       TEXT_SetText
0020ca  f6401101          MOV      r1,#0x901             ;3607
0020ce  6860              LDR      r0,[r4,#4]            ;3607  ; hWinset
0020d0  f7fffffe          BL       WM_GetDialogItem
0020d4  4605              MOV      r5,r0                 ;3607
0020d6  f6af3190          ADR      r1,|L4.5448|
0020da  4628              MOV      r0,r5                 ;3608
0020dc  f7fffffe          BL       TEXT_SetText
0020e0  4649              MOV      r1,r9                 ;3609
0020e2  4628              MOV      r0,r5                 ;3609
0020e4  f7fffffe          BL       TEXT_SetBkColor
0020e8  f6401102          MOV      r1,#0x902             ;3611
0020ec  6860              LDR      r0,[r4,#4]            ;3611  ; hWinset
0020ee  f7fffffe          BL       WM_GetDialogItem
0020f2  f6af31ac          ADR      r1,|L4.5448|
0020f6  f7fffffe          BL       TEXT_SetText
0020fa  f6401103          MOV      r1,#0x903             ;3614
0020fe  6860              LDR      r0,[r4,#4]            ;3614  ; hWinset
002100  f7fffffe          BL       WM_GetDialogItem
002104  f6af31c0          ADR      r1,|L4.5448|
002108  f7fffffe          BL       TEXT_SetText
00210c  f7fffffe          BL       Write_btype
002110  4947              LDR      r1,|L4.8752|
002112  2029              MOVS     r0,#0x29              ;3618
002114  7008              STRB     r0,[r1,#0]            ;3618
                  |L4.8470|
002116  e511              B        |L4.6972|
                  |L4.8472|
002118  e7ff              B        |L4.8474|
                  |L4.8474|
00211a  4946              LDR      r1,|L4.8756|
00211c  4630              MOV      r0,r6                 ;3593
00211e  f7fffffe          BL       TEXT_SetFont
002122  f6af318c          ADR      r1,|L4.5528|
002126  4630              MOV      r0,r6                 ;3594
002128  f7fffffe          BL       TEXT_SetText
00212c  e7c2              B        |L4.8372|
                  |L4.8494|
00212e  7820              LDRB     r0,[r4,#0]            ;3633  ; test_mode
002130  2801              CMP      r0,#1                 ;3633
002132  d002              BEQ      |L4.8506|
002134  7820              LDRB     r0,[r4,#0]            ;3637  ; test_mode
002136  b148              CBZ      r0,|L4.8524|
002138  e025              B        |L4.8582|
                  |L4.8506|
00213a  493e              LDR      r1,|L4.8756|
00213c  4630              MOV      r0,r6                 ;3635
00213e  f7fffffe          BL       TEXT_SetFont
002142  4941              LDR      r1,|L4.8776|
002144  4630              MOV      r0,r6                 ;3636
002146  f7fffffe          BL       TEXT_SetText
00214a  e01c              B        |L4.8582|
                  |L4.8524|
00214c  4939              LDR      r1,|L4.8756|
00214e  4630              MOV      r0,r6                 ;3638
002150  f7fffffe          BL       TEXT_SetFont
002154  493c              LDR      r1,|L4.8776|
002156  4630              MOV      r0,r6                 ;3639
002158  3908              SUBS     r1,r1,#8              ;3639
00215a  f7fffffe          BL       TEXT_SetText
00215e  e012              B        |L4.8582|
                  |L4.8544|
002160  4936              LDR      r1,|L4.8764|
002162  4630              MOV      r0,r6                 ;3644
002164  f7fffffe          BL       TEXT_SetFont
002168  4937              LDR      r1,|L4.8776|
00216a  4630              MOV      r0,r6                 ;3645
00216c  3920              SUBS     r1,r1,#0x20           ;3645
00216e  f7fffffe          BL       TEXT_SetText
002172  e008              B        |L4.8582|
                  |L4.8564|
002174  4931              LDR      r1,|L4.8764|
002176  4630              MOV      r0,r6                 ;3647
002178  f7fffffe          BL       TEXT_SetFont
00217c  4932              LDR      r1,|L4.8776|
00217e  4630              MOV      r0,r6                 ;3648
002180  3914              SUBS     r1,r1,#0x14           ;3648
002182  f7fffffe          BL       TEXT_SetText
                  |L4.8582|
002186  f6401641          MOV      r6,#0x941             ;3652
00218a  4631              MOV      r1,r6                 ;3652
00218c  6860              LDR      r0,[r4,#4]            ;3652  ; hWinset
00218e  f7fffffe          BL       WM_GetDialogItem
002192  7860              LDRB     r0,[r4,#1]            ;3653  ; lang
002194  b1d8              CBZ      r0,|L4.8654|
002196  4631              MOV      r1,r6                 ;3663
002198  6860              LDR      r0,[r4,#4]            ;3663  ; hWinset
00219a  f7fffffe          BL       WM_GetDialogItem
00219e  4606              MOV      r6,r0                 ;3663
0021a0  4639              MOV      r1,r7                 ;3664
0021a2  4630              MOV      r0,r6                 ;3664
0021a4  f7fffffe          BL       TEXT_SetTextColor
0021a8  4924              LDR      r1,|L4.8764|
0021aa  4630              MOV      r0,r6                 ;3665
0021ac  f7fffffe          BL       TEXT_SetFont
0021b0  f7fffffe          BL       GUI_UC_SetEncodeUTF8
0021b4  4922              LDR      r1,|L4.8768|
0021b6  4630              MOV      r0,r6                 ;3667
0021b8  f7fffffe          BL       TEXT_SetText
                  |L4.8636|
0021bc  4821              LDR      r0,|L4.8772|
0021be  7800              LDRB     r0,[r0,#0]            ;3670  ; buffer
0021c0  2806              CMP      r0,#6                 ;3670
0021c2  d234              BCS      |L4.8750|
0021c4  e8dff000          TBB      [pc,r0]               ;3670
0021c8  d9184c72          DCB      0xd9,0x18,0x4c,0x72
0021cc  98be              DCB      0x98,0xbe
                  |L4.8654|
0021ce  4631              MOV      r1,r6                 ;3656
0021d0  6860              LDR      r0,[r4,#4]            ;3656  ; hWinset
0021d2  f7fffffe          BL       WM_GetDialogItem
0021d6  4606              MOV      r6,r0                 ;3656
0021d8  4639              MOV      r1,r7                 ;3657
0021da  4630              MOV      r0,r6                 ;3657
0021dc  f7fffffe          BL       TEXT_SetTextColor
0021e0  4914              LDR      r1,|L4.8756|
0021e2  4630              MOV      r0,r6                 ;3658
0021e4  f7fffffe          BL       TEXT_SetFont
0021e8  f7fffffe          BL       GUI_UC_SetEncodeUTF8
0021ec  4916              LDR      r1,|L4.8776|
0021ee  4630              MOV      r0,r6                 ;3660
0021f0  3108              ADDS     r1,r1,#8              ;3660
0021f2  f7fffffe          BL       TEXT_SetText
0021f6  e7e1              B        |L4.8636|
0021f8  f640019f          MOV      r1,#0x89f             ;3674
0021fc  6860              LDR      r0,[r4,#4]            ;3674  ; hWinset
0021fe  f7fffffe          BL       WM_GetDialogItem
002202  4606              MOV      r6,r0                 ;3674
002204  4649              MOV      r1,r9                 ;3675
002206  4630              MOV      r0,r6                 ;3675
002208  f7fffffe          BL       TEXT_SetBkColor
00220c  4639              MOV      r1,r7                 ;3676
00220e  4630              MOV      r0,r6                 ;3676
002210  f7fffffe          BL       TEXT_SetTextColor
002214  7860              LDRB     r0,[r4,#1]            ;3677  ; lang
002216  b1c8              CBZ      r0,|L4.8780|
002218  4908              LDR      r1,|L4.8764|
00221a  4630              MOV      r0,r6                 ;3682
00221c  f7fffffe          BL       TEXT_SetFont
002220  f6af417c          ADR      r1,|L4.5544|
002224  4630              MOV      r0,r6                 ;3683
002226  f7fffffe          BL       TEXT_SetText
                  |L4.8746|
00222a  f885a000          STRB     r10,[r5,#0]           ;3685
                  |L4.8750|
00222e  e0a4              B        |L4.9082|
                  |L4.8752|
                          DCD      set_sw
                  |L4.8756|
                          DCD      GUI_Fontset_font
                  |L4.8760|
                          DCD      0x00bfffff
                  |L4.8764|
                          DCD      GUI_Font20_ASCII
                  |L4.8768|
                          DCD      ||i.PARA_SET||+0x43c
                  |L4.8772|
                          DCD      buffer
                  |L4.8776|
                          DCD      ||i.PARA_SET||+0x10f0
                  |L4.8780|
00224c  49fe              LDR      r1,|L4.9800|
00224e  4630              MOV      r0,r6                 ;3679
002250  f7fffffe          BL       TEXT_SetFont
002254  f6af41a8          ADR      r1,|L4.5552|
002258  4630              MOV      r0,r6                 ;3680
00225a  f7fffffe          BL       TEXT_SetText
00225e  e7e4              B        |L4.8746|
002260  f640019f          MOV      r1,#0x89f             ;3690
002264  6860              LDR      r0,[r4,#4]            ;3690  ; hWinset
002266  f7fffffe          BL       WM_GetDialogItem
00226a  4606              MOV      r6,r0                 ;3690
00226c  4649              MOV      r1,r9                 ;3691
00226e  4630              MOV      r0,r6                 ;3691
002270  f7fffffe          BL       TEXT_SetBkColor
002274  4639              MOV      r1,r7                 ;3692
002276  4630              MOV      r0,r6                 ;3692
002278  f7fffffe          BL       TEXT_SetTextColor
00227c  7861              LDRB     r1,[r4,#1]            ;3693  ; lang
00227e  b159              CBZ      r1,|L4.8856|
002280  49f2              LDR      r1,|L4.9804|
002282  4630              MOV      r0,r6                 ;3698
002284  f7fffffe          BL       TEXT_SetFont
002288  f6af5148          ADR      r1,|L4.5444|
00228c  4630              MOV      r0,r6                 ;3699
00228e  f7fffffe          BL       TEXT_SetText
                  |L4.8850|
002292  2002              MOVS     r0,#2                 ;3701
002294  7028              STRB     r0,[r5,#0]            ;3701
002296  e070              B        |L4.9082|
                  |L4.8856|
002298  49eb              LDR      r1,|L4.9800|
00229a  4630              MOV      r0,r6                 ;3695
00229c  f7fffffe          BL       TEXT_SetFont
0022a0  f6af5140          ADR      r1,|L4.5476|
0022a4  4630              MOV      r0,r6                 ;3696
0022a6  f7fffffe          BL       TEXT_SetText
0022aa  e7f2              B        |L4.8850|
0022ac  f640019f          MOV      r1,#0x89f             ;3706
0022b0  6860              LDR      r0,[r4,#4]            ;3706  ; hWinset
0022b2  f7fffffe          BL       WM_GetDialogItem
0022b6  4606              MOV      r6,r0                 ;3706
0022b8  4649              MOV      r1,r9                 ;3707
0022ba  4630              MOV      r0,r6                 ;3707
0022bc  f7fffffe          BL       TEXT_SetBkColor
0022c0  4639              MOV      r1,r7                 ;3708
0022c2  4630              MOV      r0,r6                 ;3708
0022c4  f7fffffe          BL       TEXT_SetTextColor
0022c8  7860              LDRB     r0,[r4,#1]            ;3709  ; lang
0022ca  b158              CBZ      r0,|L4.8932|
0022cc  49df              LDR      r1,|L4.9804|
0022ce  4630              MOV      r0,r6                 ;3714
0022d0  f7fffffe          BL       TEXT_SetFont
0022d4  f6af518c          ADR      r1,|L4.5452|
0022d8  4630              MOV      r0,r6                 ;3715
0022da  f7fffffe          BL       TEXT_SetText
                  |L4.8926|
0022de  f885b000          STRB     r11,[r5,#0]           ;3717
0022e2  e04a              B        |L4.9082|
                  |L4.8932|
0022e4  49d8              LDR      r1,|L4.9800|
0022e6  4630              MOV      r0,r6                 ;3711
0022e8  f7fffffe          BL       TEXT_SetFont
0022ec  f6af517c          ADR      r1,|L4.5492|
0022f0  4630              MOV      r0,r6                 ;3712
0022f2  f7fffffe          BL       TEXT_SetText
0022f6  e7f2              B        |L4.8926|
0022f8  f640019f          MOV      r1,#0x89f             ;3722
0022fc  6860              LDR      r0,[r4,#4]            ;3722  ; hWinset
0022fe  f7fffffe          BL       WM_GetDialogItem
002302  4606              MOV      r6,r0                 ;3722
002304  4649              MOV      r1,r9                 ;3723
002306  4630              MOV      r0,r6                 ;3723
002308  f7fffffe          BL       TEXT_SetBkColor
00230c  4639              MOV      r1,r7                 ;3724
00230e  4630              MOV      r0,r6                 ;3724
002310  f7fffffe          BL       TEXT_SetTextColor
002314  7861              LDRB     r1,[r4,#1]            ;3725  ; lang
002316  b159              CBZ      r1,|L4.9008|
002318  49cc              LDR      r1,|L4.9804|
00231a  4630              MOV      r0,r6                 ;3730
00231c  f7fffffe          BL       TEXT_SetFont
002320  f6af51d0          ADR      r1,|L4.5460|
002324  4630              MOV      r0,r6                 ;3731
002326  f7fffffe          BL       TEXT_SetText
                  |L4.9002|
00232a  2004              MOVS     r0,#4                 ;3733
00232c  7028              STRB     r0,[r5,#0]            ;3733
00232e  e024              B        |L4.9082|
                  |L4.9008|
002330  49c5              LDR      r1,|L4.9800|
002332  4630              MOV      r0,r6                 ;3727
002334  f7fffffe          BL       TEXT_SetFont
002338  f6af51b8          ADR      r1,|L4.5508|
00233c  4630              MOV      r0,r6                 ;3728
00233e  f7fffffe          BL       TEXT_SetText
002342  e7f2              B        |L4.9002|
002344  f640019f          MOV      r1,#0x89f             ;3738
002348  6860              LDR      r0,[r4,#4]            ;3738  ; hWinset
00234a  f7fffffe          BL       WM_GetDialogItem
00234e  4606              MOV      r6,r0                 ;3738
002350  4649              MOV      r1,r9                 ;3739
002352  4630              MOV      r0,r6                 ;3739
002354  f7fffffe          BL       TEXT_SetBkColor
002358  4639              MOV      r1,r7                 ;3740
00235a  4630              MOV      r0,r6                 ;3740
00235c  f7fffffe          BL       TEXT_SetTextColor
002360  7861              LDRB     r1,[r4,#1]            ;3741  ; lang
002362  b3d1              CBZ      r1,|L4.9178|
002364  49b9              LDR      r1,|L4.9804|
002366  4630              MOV      r0,r6                 ;3746
002368  f7fffffe          BL       TEXT_SetFont
00236c  f6af6118          ADR      r1,|L4.5464|
002370  4630              MOV      r0,r6                 ;3747
002372  f7fffffe          BL       TEXT_SetText
                  |L4.9078|
002376  2005              MOVS     r0,#5                 ;3749
002378  7028              STRB     r0,[r5,#0]            ;3749
                  |L4.9082|
00237a  f44f6110          MOV      r1,#0x900             ;3754
00237e  6860              LDR      r0,[r4,#4]            ;3754  ; hWinset
002380  f7fffffe          BL       WM_GetDialogItem
002384  f6af6140          ADR      r1,|L4.5448|
002388  f7fffffe          BL       TEXT_SetText
00238c  f6401101          MOV      r1,#0x901             ;3757
002390  6860              LDR      r0,[r4,#4]            ;3757  ; hWinset
002392  f7fffffe          BL       WM_GetDialogItem
002396  f6af6150          ADR      r1,|L4.5448|
00239a  f7fffffe          BL       TEXT_SetText
00239e  f6401102          MOV      r1,#0x902             ;3760
0023a2  6860              LDR      r0,[r4,#4]            ;3760  ; hWinset
0023a4  f7fffffe          BL       WM_GetDialogItem
0023a8  4605              MOV      r5,r0                 ;3760
0023aa  f6af6164          ADR      r1,|L4.5448|
0023ae  4628              MOV      r0,r5                 ;3761
0023b0  f7fffffe          BL       TEXT_SetText
0023b4  4649              MOV      r1,r9                 ;3762
0023b6  4628              MOV      r0,r5                 ;3762
0023b8  f7fffffe          BL       TEXT_SetBkColor
0023bc  f6401103          MOV      r1,#0x903             ;3764
0023c0  6860              LDR      r0,[r4,#4]            ;3764  ; hWinset
0023c2  f7fffffe          BL       WM_GetDialogItem
0023c6  f6af6180          ADR      r1,|L4.5448|
0023ca  f7fffffe          BL       TEXT_SetText
0023ce  f7fffffe          BL       Write_btype
0023d2  499f              LDR      r1,|L4.9808|
0023d4  2029              MOVS     r0,#0x29              ;3768
0023d6  7008              STRB     r0,[r1,#0]            ;3768
0023d8  e52e              B        |L4.7736|
                  |L4.9178|
0023da  e7ff              B        |L4.9180|
                  |L4.9180|
0023dc  499a              LDR      r1,|L4.9800|
0023de  4630              MOV      r0,r6                 ;3743
0023e0  f7fffffe          BL       TEXT_SetFont
0023e4  f6af6150          ADR      r1,|L4.5528|
0023e8  4630              MOV      r0,r6                 ;3744
0023ea  f7fffffe          BL       TEXT_SetText
0023ee  e7c2              B        |L4.9078|
                  |L4.9200|
0023f0  4604              MOV      r4,r0                 ;3776
0023f2  4619              MOV      r1,r3                 ;3776
0023f4  4610              MOV      r0,r2                 ;3776
0023f6  f7fffffe          BL       WM_GetDialogItem
0023fa  4606              MOV      r6,r0                 ;3776
0023fc  4995              LDR      r1,|L4.9812|
0023fe  4630              MOV      r0,r6                 ;3777
002400  f7fffffe          BL       TEXT_SetBkColor
002404  2100              MOVS     r1,#0                 ;3778
002406  4630              MOV      r0,r6                 ;3778
002408  f7fffffe          BL       TEXT_SetTextColor
00240c  f6401123          MOV      r1,#0x923             ;3780
002410  6860              LDR      r0,[r4,#4]            ;3780  ; hWinset
002412  f7fffffe          BL       WM_GetDialogItem
002416  4606              MOV      r6,r0                 ;3780
002418  7860              LDRB     r0,[r4,#1]            ;3781  ; lang
00241a  b128              CBZ      r0,|L4.9256|
00241c  7820              LDRB     r0,[r4,#0]            ;3792  ; test_mode
00241e  2801              CMP      r0,#1                 ;3792
002420  d01b              BEQ      |L4.9306|
002422  7820              LDRB     r0,[r4,#0]            ;3796  ; test_mode
002424  b318              CBZ      r0,|L4.9326|
002426  e02b              B        |L4.9344|
                  |L4.9256|
002428  7820              LDRB     r0,[r4,#0]            ;3783  ; test_mode
00242a  2801              CMP      r0,#1                 ;3783
00242c  d002              BEQ      |L4.9268|
00242e  7820              LDRB     r0,[r4,#0]            ;3787  ; test_mode
002430  b148              CBZ      r0,|L4.9286|
002432  e025              B        |L4.9344|
                  |L4.9268|
002434  4984              LDR      r1,|L4.9800|
002436  4630              MOV      r0,r6                 ;3785
002438  f7fffffe          BL       TEXT_SetFont
00243c  4986              LDR      r1,|L4.9816|
00243e  4630              MOV      r0,r6                 ;3786
002440  f7fffffe          BL       TEXT_SetText
002444  e01c              B        |L4.9344|
                  |L4.9286|
002446  4980              LDR      r1,|L4.9800|
002448  4630              MOV      r0,r6                 ;3788
00244a  f7fffffe          BL       TEXT_SetFont
00244e  4982              LDR      r1,|L4.9816|
002450  4630              MOV      r0,r6                 ;3789
002452  3908              SUBS     r1,r1,#8              ;3789
002454  f7fffffe          BL       TEXT_SetText
002458  e012              B        |L4.9344|
                  |L4.9306|
00245a  497c              LDR      r1,|L4.9804|
00245c  4630              MOV      r0,r6                 ;3794
00245e  f7fffffe          BL       TEXT_SetFont
002462  497d              LDR      r1,|L4.9816|
002464  4630              MOV      r0,r6                 ;3795
002466  3920              SUBS     r1,r1,#0x20           ;3795
002468  f7fffffe          BL       TEXT_SetText
00246c  e008              B        |L4.9344|
                  |L4.9326|
00246e  4977              LDR      r1,|L4.9804|
002470  4630              MOV      r0,r6                 ;3797
002472  f7fffffe          BL       TEXT_SetFont
002476  4978              LDR      r1,|L4.9816|
002478  4630              MOV      r0,r6                 ;3798
00247a  3914              SUBS     r1,r1,#0x14           ;3798
00247c  f7fffffe          BL       TEXT_SetText
                  |L4.9344|
002480  4876              LDR      r0,|L4.9820|
002482  7800              LDRB     r0,[r0,#0]            ;3802  ; buffer
002484  2806              CMP      r0,#6                 ;3802
002486  d21f              BCS      |L4.9416|
002488  e8dff000          TBB      [pc,r0]               ;3802
00248c  b503294f          DCB      0xb5,0x03,0x29,0x4f
002490  749a              DCB      0x74,0x9a
002492  f640019f          MOV      r1,#0x89f             ;3806
002496  6860              LDR      r0,[r4,#4]            ;3806  ; hWinset
002498  f7fffffe          BL       WM_GetDialogItem
00249c  4606              MOV      r6,r0                 ;3806
00249e  4649              MOV      r1,r9                 ;3807
0024a0  4630              MOV      r0,r6                 ;3807
0024a2  f7fffffe          BL       TEXT_SetBkColor
0024a6  4639              MOV      r1,r7                 ;3808
0024a8  4630              MOV      r0,r6                 ;3808
0024aa  f7fffffe          BL       TEXT_SetTextColor
0024ae  7860              LDRB     r0,[r4,#1]            ;3809  ; lang
0024b0  b158              CBZ      r0,|L4.9418|
0024b2  4966              LDR      r1,|L4.9804|
0024b4  4630              MOV      r0,r6                 ;3814
0024b6  f7fffffe          BL       TEXT_SetFont
0024ba  f6af7114          ADR      r1,|L4.5544|
0024be  4630              MOV      r0,r6                 ;3815
0024c0  f7fffffe          BL       TEXT_SetText
                  |L4.9412|
0024c4  f885a000          STRB     r10,[r5,#0]           ;3817
                  |L4.9416|
0024c8  e095              B        |L4.9718|
                  |L4.9418|
0024ca  495f              LDR      r1,|L4.9800|
0024cc  4630              MOV      r0,r6                 ;3811
0024ce  f7fffffe          BL       TEXT_SetFont
0024d2  f6af7124          ADR      r1,|L4.5552|
0024d6  4630              MOV      r0,r6                 ;3812
0024d8  f7fffffe          BL       TEXT_SetText
0024dc  e7f2              B        |L4.9412|
0024de  f640019f          MOV      r1,#0x89f             ;3822
0024e2  6860              LDR      r0,[r4,#4]            ;3822  ; hWinset
0024e4  f7fffffe          BL       WM_GetDialogItem
0024e8  4606              MOV      r6,r0                 ;3822
0024ea  4649              MOV      r1,r9                 ;3823
0024ec  4630              MOV      r0,r6                 ;3823
0024ee  f7fffffe          BL       TEXT_SetBkColor
0024f2  4639              MOV      r1,r7                 ;3824
0024f4  4630              MOV      r0,r6                 ;3824
0024f6  f7fffffe          BL       TEXT_SetTextColor
0024fa  7861              LDRB     r1,[r4,#1]            ;3825  ; lang
0024fc  b159              CBZ      r1,|L4.9494|
0024fe  4953              LDR      r1,|L4.9804|
002500  4630              MOV      r0,r6                 ;3830
002502  f7fffffe          BL       TEXT_SetFont
002506  f6af71c4          ADR      r1,|L4.5444|
00250a  4630              MOV      r0,r6                 ;3831
00250c  f7fffffe          BL       TEXT_SetText
                  |L4.9488|
002510  2002              MOVS     r0,#2                 ;3833
002512  7028              STRB     r0,[r5,#0]            ;3833
002514  e06f              B        |L4.9718|
                  |L4.9494|
002516  494c              LDR      r1,|L4.9800|
002518  4630              MOV      r0,r6                 ;3827
00251a  f7fffffe          BL       TEXT_SetFont
00251e  f6af71bc          ADR      r1,|L4.5476|
002522  4630              MOV      r0,r6                 ;3828
002524  f7fffffe          BL       TEXT_SetText
002528  e7f2              B        |L4.9488|
00252a  f640019f          MOV      r1,#0x89f             ;3838
00252e  6860              LDR      r0,[r4,#4]            ;3838  ; hWinset
002530  f7fffffe          BL       WM_GetDialogItem
002534  4606              MOV      r6,r0                 ;3838
002536  4649              MOV      r1,r9                 ;3839
002538  4630              MOV      r0,r6                 ;3839
00253a  f7fffffe          BL       TEXT_SetBkColor
00253e  4639              MOV      r1,r7                 ;3840
002540  4630              MOV      r0,r6                 ;3840
002542  f7fffffe          BL       TEXT_SetTextColor
002546  7860              LDRB     r0,[r4,#1]            ;3841  ; lang
002548  b150              CBZ      r0,|L4.9568|
00254a  4940              LDR      r1,|L4.9804|
00254c  4630              MOV      r0,r6                 ;3846
00254e  f7fffffe          BL       TEXT_SetFont
002552  4943              LDR      r1,|L4.9824|
002554  4630              MOV      r0,r6                 ;3847
002556  f7fffffe          BL       TEXT_SetText
                  |L4.9562|
00255a  f885b000          STRB     r11,[r5,#0]           ;3849
00255e  e04a              B        |L4.9718|
                  |L4.9568|
002560  4939              LDR      r1,|L4.9800|
002562  4630              MOV      r0,r6                 ;3843
002564  f7fffffe          BL       TEXT_SetFont
002568  f6af71f8          ADR      r1,|L4.5492|
00256c  4630              MOV      r0,r6                 ;3844
00256e  f7fffffe          BL       TEXT_SetText
002572  e7f2              B        |L4.9562|
002574  f640019f          MOV      r1,#0x89f             ;3854
002578  6860              LDR      r0,[r4,#4]            ;3854  ; hWinset
00257a  f7fffffe          BL       WM_GetDialogItem
00257e  4606              MOV      r6,r0                 ;3854
002580  4649              MOV      r1,r9                 ;3855
002582  4630              MOV      r0,r6                 ;3855
002584  f7fffffe          BL       TEXT_SetBkColor
002588  4639              MOV      r1,r7                 ;3856
00258a  4630              MOV      r0,r6                 ;3856
00258c  f7fffffe          BL       TEXT_SetTextColor
002590  7861              LDRB     r1,[r4,#1]            ;3857  ; lang
002592  b159              CBZ      r1,|L4.9644|
002594  492d              LDR      r1,|L4.9804|
002596  4630              MOV      r0,r6                 ;3862
002598  f7fffffe          BL       TEXT_SetFont
00259c  4930              LDR      r1,|L4.9824|
00259e  4630              MOV      r0,r6                 ;3863
0025a0  3108              ADDS     r1,r1,#8              ;3863
0025a2  f7fffffe          BL       TEXT_SetText
                  |L4.9638|
0025a6  2004              MOVS     r0,#4                 ;3865
0025a8  7028              STRB     r0,[r5,#0]            ;3865
0025aa  e024              B        |L4.9718|
                  |L4.9644|
0025ac  4926              LDR      r1,|L4.9800|
0025ae  4630              MOV      r0,r6                 ;3859
0025b0  f7fffffe          BL       TEXT_SetFont
0025b4  492a              LDR      r1,|L4.9824|
0025b6  4630              MOV      r0,r6                 ;3860
0025b8  3138              ADDS     r1,r1,#0x38           ;3860
0025ba  f7fffffe          BL       TEXT_SetText
0025be  e7f2              B        |L4.9638|
0025c0  f640019f          MOV      r1,#0x89f             ;3870
0025c4  6860              LDR      r0,[r4,#4]            ;3870  ; hWinset
0025c6  f7fffffe          BL       WM_GetDialogItem
0025ca  4606              MOV      r6,r0                 ;3870
0025cc  4649              MOV      r1,r9                 ;3871
0025ce  4630              MOV      r0,r6                 ;3871
0025d0  f7fffffe          BL       TEXT_SetBkColor
0025d4  4639              MOV      r1,r7                 ;3872
0025d6  4630              MOV      r0,r6                 ;3872
0025d8  f7fffffe          BL       TEXT_SetTextColor
0025dc  7861              LDRB     r1,[r4,#1]            ;3873  ; lang
0025de  b389              CBZ      r1,|L4.9796|
0025e0  491a              LDR      r1,|L4.9804|
0025e2  4630              MOV      r0,r6                 ;3878
0025e4  f7fffffe          BL       TEXT_SetFont
0025e8  491d              LDR      r1,|L4.9824|
0025ea  4630              MOV      r0,r6                 ;3879
0025ec  310c              ADDS     r1,r1,#0xc            ;3879
0025ee  f7fffffe          BL       TEXT_SetText
                  |L4.9714|
0025f2  2005              MOVS     r0,#5                 ;3881
0025f4  7028              STRB     r0,[r5,#0]            ;3881
                  |L4.9718|
0025f6  f44f6110          MOV      r1,#0x900             ;3886
0025fa  6860              LDR      r0,[r4,#4]            ;3886  ; hWinset
0025fc  f7fffffe          BL       WM_GetDialogItem
002600  a118              ADR      r1,|L4.9828|
002602  f7fffffe          BL       TEXT_SetText
002606  f6401101          MOV      r1,#0x901             ;3889
00260a  6860              LDR      r0,[r4,#4]            ;3889  ; hWinset
00260c  f7fffffe          BL       WM_GetDialogItem
002610  a114              ADR      r1,|L4.9828|
002612  f7fffffe          BL       TEXT_SetText
002616  f6401102          MOV      r1,#0x902             ;3892
00261a  6860              LDR      r0,[r4,#4]            ;3892  ; hWinset
00261c  f7fffffe          BL       WM_GetDialogItem
002620  a110              ADR      r1,|L4.9828|
002622  f7fffffe          BL       TEXT_SetText
002626  f6401103          MOV      r1,#0x903             ;3895
00262a  6860              LDR      r0,[r4,#4]            ;3895  ; hWinset
00262c  f7fffffe          BL       WM_GetDialogItem
002630  4604              MOV      r4,r0                 ;3895
002632  a10c              ADR      r1,|L4.9828|
002634  4620              MOV      r0,r4                 ;3896
002636  f7fffffe          BL       TEXT_SetText
00263a  4649              MOV      r1,r9                 ;3897
00263c  4620              MOV      r0,r4                 ;3897
00263e  f7fffffe          BL       TEXT_SetBkColor
002642  e011              B        |L4.9832|
                  |L4.9796|
002644  e016              B        |L4.9844|
002646  0000              DCW      0x0000
                  |L4.9800|
                          DCD      GUI_Fontset_font
                  |L4.9804|
                          DCD      GUI_Font20_ASCII
                  |L4.9808|
                          DCD      set_sw
                  |L4.9812|
                          DCD      0x00bfffff
                  |L4.9816|
                          DCD      ||i.PARA_SET||+0x10f0
                  |L4.9820|
                          DCD      buffer
                  |L4.9824|
                          DCD      ||i.PARA_SET||+0x154c
                  |L4.9828|
002664  00                DCB      0
002665  00                DCB      0
002666  00                DCB      0
002667  00                DCB      0
                  |L4.9832|
002668  f7fffffe          BL       Write_btype
00266c  4906              LDR      r1,|L4.9864|
00266e  2029              MOVS     r0,#0x29              ;3900
002670  7008              STRB     r0,[r1,#0]            ;3900
002672  e550              B        |L4.8470|
                  |L4.9844|
002674  4905              LDR      r1,|L4.9868|
002676  4630              MOV      r0,r6                 ;3875
002678  f7fffffe          BL       TEXT_SetFont
00267c  4904              LDR      r1,|L4.9872|
00267e  4630              MOV      r0,r6                 ;3876
002680  f7fffffe          BL       TEXT_SetText
002684  e7b5              B        |L4.9714|
;;;3908   
                          ENDP

002686  0000              DCW      0x0000
                  |L4.9864|
                          DCD      set_sw
                  |L4.9868|
                          DCD      GUI_Fontset_font
                  |L4.9872|
                          DCD      ||i.PARA_SET||+0x1598

                          AREA ||i.ResetSET||, CODE, READONLY, ALIGN=2

                  ResetSET PROC
;;;777    
;;;778    WM_HWIN ResetSET(void) {
000000  b51c              PUSH     {r2-r4,lr}
;;;779      hWinset = GUI_CreateDialogBox(_aDialogCreate5, GUI_COUNTOF(_aDialogCreate5), _cbDialog, WM_HBKWIN, 0, 0);
000002  f7fffffe          BL       WM_GetDesktopWindow
000006  4603              MOV      r3,r0
000008  2000              MOVS     r0,#0
00000a  9000              STR      r0,[sp,#0]
00000c  9001              STR      r0,[sp,#4]
00000e  4a04              LDR      r2,|L5.32|
000010  2127              MOVS     r1,#0x27
000012  4804              LDR      r0,|L5.36|
000014  f7fffffe          BL       GUI_CreateDialogBox
000018  4903              LDR      r1,|L5.40|
00001a  6048              STR      r0,[r1,#4]  ; hWinset
;;;780      return hWinset;
;;;781    }
00001c  bd1c              POP      {r2-r4,pc}
;;;782    
                          ENDP

00001e  0000              DCW      0x0000
                  |L5.32|
                          DCD      _cbDialog
                  |L5.36|
                          DCD      ||.constdata||
                  |L5.40|
                          DCD      ||.data||

                          AREA ||i.SET_OP_DOWN||, CODE, READONLY, ALIGN=2

                          REQUIRE _printf_percent
                          REQUIRE _printf_widthprec
                          REQUIRE _printf_f
                          REQUIRE _printf_fp_dec
                  SET_OP_DOWN PROC
;;;788    
;;;789    void SET_OP_DOWN(void) {
000000  e92d4ff0          PUSH     {r4-r11,lr}
000004  ed2d8b02          VPUSH    {d8}
000008  b087              SUB      sp,sp,#0x1c
;;;790    				vu8 i;
;;;791                    char buf[5];
;;;792      
;;;793    
;;;794                    float dis_max_v = (float)set_max_v/1000;
00000a  4cf8              LDR      r4,|L6.1004|
00000c  6ba0              LDR      r0,[r4,#0x38]  ; Run_Control
00000e  ee000a10          VMOV     s0,r0
000012  eeb80a40          VCVT.F32.U32 s0,s0
000016  ed9f8af6          VLDR     s16,|L6.1008|
00001a  eec08a08          VDIV.F32 s17,s0,s16
;;;795                    float dis_min_v = (float)set_min_v/1000;
00001e  4620              MOV      r0,r4
000020  6bc0              LDR      r0,[r0,#0x3c]  ; Run_Control
;;;796                    vu16 dis_max_r = set_max_r;
000022  4620              MOV      r0,r4
000024  6c00              LDR      r0,[r0,#0x40]  ; Run_Control
000026  9003              STR      r0,[sp,#0xc]
;;;797                    vu16 dis_min_r = set_min_r;
000028  4620              MOV      r0,r4
00002a  6c40              LDR      r0,[r0,#0x44]  ; Run_Control
00002c  9002              STR      r0,[sp,#8]
;;;798                    float dis_max_c = (float)set_max_c/1000;
00002e  4620              MOV      r0,r4
000030  6c80              LDR      r0,[r0,#0x48]  ; Run_Control
;;;799                    float dis_min_c = (float)set_min_c/1000;
000032  4620              MOV      r0,r4
000034  6cc0              LDR      r0,[r0,#0x4c]  ; Run_Control
;;;800                    switch(set_sw){
000036  4def              LDR      r5,|L6.1012|
000038  782b              LDRB     r3,[r5,#0]  ; set_sw
;;;801                        case set_1:
;;;802                        {
;;;803                            WM_HWIN hItem;
;;;804     //                       WM_InvalidateWindow(hWinset);
;;;805                            hItem = WM_GetDialogItem(hWinset, ID_TEXT_21);
00003a  48ef              LDR      r0,|L6.1016|
;;;806                            TEXT_SetBkColor(hItem,GUI_INVALID_COLOR);//ÈÄâÈ°πËÉåÊôØËâ≤ËÆæ‰∏∫ÈÄèÊòé
;;;807                            TEXT_SetTextColor(hItem, GUI_WHITE);
;;;808    
;;;809                            hItem = WM_GetDialogItem(hWinset, ID_TEXT_22);
;;;810                            TEXT_SetBkColor(hItem,0x00BFFFFF);//ÈÄâÈ°πËÉåÊôØËâ≤ËÆæ‰∏∫Á±≥Ëâ≤
;;;811                            TEXT_SetTextColor(hItem, GUI_BLACK);
;;;812                            
;;;813                            set_sw = set_2; 
00003c  2601              MOVS     r6,#1
;;;814                            break;
;;;815                        }                        
;;;816                        case set_2:
;;;817                        {
;;;818                            WM_HWIN hItem;
;;;819    //                        WM_InvalidateWindow(hWinset);
;;;820                            hItem = WM_GetDialogItem(hWinset, ID_TEXT_22);
;;;821                            TEXT_SetBkColor(hItem,GUI_INVALID_COLOR);//ÈÄâÈ°πËÉåÊôØËâ≤ËÆæ‰∏∫ÈÄèÊòé
;;;822                            TEXT_SetTextColor(hItem, GUI_WHITE);
;;;823                   
;;;824                            hItem = WM_GetDialogItem(hWinset, ID_TEXT_23);
;;;825                            TEXT_SetBkColor(hItem,0x00BFFFFF);//ÈÄâÈ°πËÉåÊôØËâ≤ËÆæ‰∏∫Á±≥Ëâ≤
;;;826                            TEXT_SetTextColor(hItem, GUI_BLACK);
;;;827    
;;;828                            set_sw = set_3;
00003e  2702              MOVS     r7,#2
000040  6842              LDR      r2,[r0,#4]            ;800
;;;829                            break;
;;;830                        }
;;;831                        case set_3:
;;;832                        {
;;;833                            WM_HWIN hItem;
;;;834    //                        WM_InvalidateWindow(hWinset);
;;;835                            hItem = WM_GetDialogItem(hWinset, ID_TEXT_23);
;;;836                            TEXT_SetBkColor(hItem,GUI_INVALID_COLOR);//ÈÄâÈ°πËÉåÊôØËâ≤ËÆæ‰∏∫ÈÄèÊòé
;;;837                            TEXT_SetTextColor(hItem, GUI_WHITE);
;;;838                   
;;;839                            hItem = WM_GetDialogItem(hWinset, ID_TEXT_24);
;;;840                            TEXT_SetBkColor(hItem,0x00BFFFFF);//ÈÄâÈ°πËÉåÊôØËâ≤ËÆæ‰∏∫ÔºåÁ±≥Ëâ≤
;;;841                            TEXT_SetTextColor(hItem, GUI_BLACK);
;;;842    
;;;843                            set_sw = set_4;
000042  f04f0803          MOV      r8,#3
;;;844                            break;
;;;845                        }
;;;846                        case set_4:
;;;847                        {
;;;848                            WM_HWIN hItem;
;;;849    //                        WM_InvalidateWindow(hWinset);
;;;850                            hItem = WM_GetDialogItem(hWinset, ID_TEXT_24);
;;;851                            TEXT_SetBkColor(hItem,GUI_INVALID_COLOR);//ÈÄâÈ°πËÉåÊôØËâ≤ËÆæ‰∏∫ÈÄèÊòé
;;;852                            TEXT_SetTextColor(hItem, GUI_WHITE);
;;;853                   
;;;854                            hItem = WM_GetDialogItem(hWinset, ID_TEXT_25);
;;;855                            TEXT_SetBkColor(hItem,0x00BFFFFF);//ÈÄâÈ°πËÉåÊôØËâ≤ËÆæ‰∏∫Á±≥Ëâ≤
;;;856                            TEXT_SetTextColor(hItem, GUI_BLACK);
;;;857    
;;;858                            set_sw = set_5;
000046  f04f0904          MOV      r9,#4
;;;859                            break;
;;;860                        }
;;;861                        case set_5:
;;;862                        {
;;;863                            WM_HWIN hItem;
;;;864    //                        WM_InvalidateWindow(hWinset);
;;;865                            hItem = WM_GetDialogItem(hWinset, ID_TEXT_25);
;;;866                            TEXT_SetBkColor(hItem,GUI_INVALID_COLOR);//ÈÄâÈ°πËÉåÊôØËâ≤ËÆæ‰∏∫ÈÄèÊòé
;;;867                            TEXT_SetTextColor(hItem, GUI_WHITE);
;;;868                   
;;;869                            hItem = WM_GetDialogItem(hWinset, ID_TEXT_26);
;;;870                            TEXT_SetBkColor(hItem,0x00BFFFFF);//ÈÄâÈ°πËÉåÊôØËâ≤ËÆæ‰∏∫Á±≥Ëâ≤
;;;871                            TEXT_SetTextColor(hItem, GUI_BLACK);
;;;872    
;;;873                            set_sw = set_6;
00004a  f04f0a05          MOV      r10,#5
00004e  2b0f              CMP      r3,#0xf               ;800
000050  d07d              BEQ      |L6.334|
000052  dc0b              BGT      |L6.108|
000054  f6400b2b          MOV      r11,#0x82b            ;805
000058  2b0c              CMP      r3,#0xc               ;800
00005a  d241              BCS      |L6.224|
00005c  e8dff003          TBB      [pc,r3]               ;800
000060  45658cae          DCB      0x45,0x65,0x8c,0xae
000064  d0fcf5f4          DCB      0xd0,0xfc,0xf5,0xf4
000068  f34040f2          DCB      0xf3,0x40,0x40,0xf2
                  |L6.108|
;;;874                            break;
;;;875                        }
;;;876                        case set_6:
;;;877                        {
;;;878                            WM_HWIN hItem;
;;;879    //                        WM_InvalidateWindow(hWinset);
;;;880                            hItem = WM_GetDialogItem(hWinset, ID_TEXT_26);
;;;881                            TEXT_SetBkColor(hItem,GUI_INVALID_COLOR);//ÈÄâÈ°πËÉåÊôØËâ≤ËÆæ‰∏∫ÈÄèÊòé
;;;882                            TEXT_SetTextColor(hItem, GUI_WHITE);
;;;883                   
;;;884                            hItem = WM_GetDialogItem(hWinset, ID_TEXT_27);
;;;885                            TEXT_SetBkColor(hItem,0x00BFFFFF);//ÈÄâÈ°πËÉåÊôØËâ≤ËÆæ‰∏∫Á±≥Ëâ≤
;;;886                            TEXT_SetTextColor(hItem, GUI_BLACK);
;;;887    
;;;888                            set_sw = set_7;
;;;889                            break;
;;;890                        }
;;;891                        case set_7:
;;;892                        {
;;;893                            WM_HWIN hItem;
;;;894    //                        WM_InvalidateWindow(hWinset);
;;;895                            hItem = WM_GetDialogItem(hWinset, ID_TEXT_27);
;;;896                            TEXT_SetBkColor(hItem,GUI_INVALID_COLOR);//ÈÄâÈ°πËÉåÊôØËâ≤ËÆæ‰∏∫ÈÄèÊòé
;;;897                            TEXT_SetTextColor(hItem, GUI_WHITE);
;;;898                   
;;;899                            hItem = WM_GetDialogItem(hWinset, ID_TEXT_21);
;;;900                            TEXT_SetBkColor(hItem,0x00BFFFFF);//ÈÄâÈ°πËÉåÊôØËâ≤ËÆæ‰∏∫Á±≥Ëâ≤
;;;901                            TEXT_SetTextColor(hItem, GUI_BLACK);
;;;902    
;;;903                            set_sw = set_1;
;;;904                            break;
;;;905                        }
;;;906                        case set_8:
;;;907                        {
;;;908                            WM_HWIN hItem;
;;;909    //                        WM_InvalidateWindow(hWinset);
;;;910                            hItem = WM_GetDialogItem(hWinset, ID_TEXT_31);
;;;911                            TEXT_SetBkColor(hItem,GUI_INVALID_COLOR);//ÈÄâÈ°πËÉåÊôØËâ≤ËÆæ‰∏∫ÈÄèÊòé
;;;912                            TEXT_SetTextColor(hItem, GUI_WHITE);
;;;913                   
;;;914                            hItem = WM_GetDialogItem(hWinset, ID_TEXT_32);
;;;915                            TEXT_SetBkColor(hItem,0x00BFFFFF);//ÈÄâÈ°πËÉåÊôØËâ≤ËÆæ‰∏∫Á±≥Ëâ≤
;;;916                            TEXT_SetTextColor(hItem, GUI_BLACK);
;;;917    
;;;918                            set_sw = set_9;
;;;919                            break;
;;;920                        }
;;;921                        case set_9:
;;;922                        {
;;;923                            WM_HWIN hItem;
;;;924    //                        WM_InvalidateWindow(hWinset);
;;;925                            hItem = WM_GetDialogItem(hWinset, ID_TEXT_32);
;;;926                            TEXT_SetBkColor(hItem,GUI_INVALID_COLOR);//ÈÄâÈ°πËÉåÊôØËâ≤ËÆæ‰∏∫ÈÄèÊòé
;;;927                            TEXT_SetTextColor(hItem, GUI_WHITE);
;;;928                   
;;;929                            hItem = WM_GetDialogItem(hWinset, ID_TEXT_90);
;;;930                            TEXT_SetBkColor(hItem,0x00BFFFFF);//ÈÄâÈ°πËÉåÊôØËâ≤ËÆæ‰∏∫Á±≥Ëâ≤
;;;931                            TEXT_SetTextColor(hItem, GUI_BLACK);
;;;932    
;;;933                            set_sw = set_42;
;;;934                            break;
;;;935                        }
;;;936                        case set_42:
;;;937                        {
;;;938                            WM_HWIN hItem;
;;;939    //                        WM_InvalidateWindow(hWinset);
;;;940                            hItem = WM_GetDialogItem(hWinset, ID_TEXT_90);
;;;941                            TEXT_SetBkColor(hItem,GUI_INVALID_COLOR);//ÈÄâÈ°πËÉåÊôØËâ≤ËÆæ‰∏∫ÈÄèÊòé
;;;942                            TEXT_SetTextColor(hItem, GUI_WHITE);
;;;943                   
;;;944                            hItem = WM_GetDialogItem(hWinset, ID_TEXT_133);
;;;945                            TEXT_SetBkColor(hItem,0x00BFFFFF);//ÈÄâÈ°πËÉåÊôØËâ≤ËÆæ‰∏∫Á±≥Ëâ≤
;;;946                            TEXT_SetTextColor(hItem, GUI_BLACK);
;;;947    
;;;948                            set_sw = set_73;
;;;949                            break;
;;;950                        }
;;;951                        case set_73:
;;;952                        {
;;;953                            WM_HWIN hItem;
;;;954    //                        WM_InvalidateWindow(hWinset);
;;;955                            hItem = WM_GetDialogItem(hWinset, ID_TEXT_133);
;;;956                            TEXT_SetBkColor(hItem,GUI_INVALID_COLOR);//ÈÄâÈ°πËÉåÊôØËâ≤ËÆæ‰∏∫ÈÄèÊòé
;;;957                            TEXT_SetTextColor(hItem, GUI_WHITE);
;;;958                   
;;;959                            hItem = WM_GetDialogItem(hWinset, ID_TEXT_165);
;;;960                            TEXT_SetBkColor(hItem,0x00BFFFFF);//ÈÄâÈ°πËÉåÊôØËâ≤ËÆæ‰∏∫Á±≥Ëâ≤
;;;961                            TEXT_SetTextColor(hItem, GUI_BLACK);
;;;962    
;;;963                            set_sw = set_90;
;;;964                            break;
;;;965                        }
;;;966    					case set_90:
;;;967                        {
;;;968                            WM_HWIN hItem;
;;;969    //                        WM_InvalidateWindow(hWinset);
;;;970                            hItem = WM_GetDialogItem(hWinset, ID_TEXT_165);
;;;971                            TEXT_SetBkColor(hItem,GUI_INVALID_COLOR);//ÈÄâÈ°πËÉåÊôØËâ≤ËÆæ‰∏∫ÈÄèÊòé
;;;972                            TEXT_SetTextColor(hItem, GUI_WHITE);
;;;973                   
;;;974                            hItem = WM_GetDialogItem(hWinset, ID_TEXT_31);
;;;975                            TEXT_SetBkColor(hItem,0x00BFFFFF);//ÈÄâÈ°πËÉåÊôØËâ≤ËÆæ‰∏∫Á±≥Ëâ≤
;;;976                            TEXT_SetTextColor(hItem, GUI_BLACK);
;;;977    
;;;978                            set_sw = set_8;
;;;979                            break;
;;;980                        }
;;;981    					case set_12:
;;;982                        {
;;;983    						WM_HWIN hItem;
;;;984    //                        WM_InvalidateWindow(hWinset);
;;;985                            hItem = WM_GetDialogItem(hWinset, ID_TEXT_35);
;;;986                            TEXT_SetBkColor(hItem,GUI_INVALID_COLOR);//ÈÄâÈ°πËÉåÊôØËâ≤ËÆæ‰∏∫ÈÄèÊòé
;;;987                            TEXT_SetTextColor(hItem, GUI_WHITE);
;;;988    						if(set_max_v > 80000)
;;;989                            {
;;;990                                set_max_v = 80000;
;;;991                                TEXT_SetText(hItem,"80.00");                                                       
;;;992                            }
;;;993                            sprintf(buf,"%.3f",dis_max_v);
;;;994                            TEXT_SetText(hItem,buf);
;;;995                   
;;;996                            hItem = WM_GetDialogItem(hWinset, ID_TEXT_36);
;;;997                            TEXT_SetBkColor(hItem,0x00BFFFFF);//ÈÄâÈ°πËÉåÊôØËâ≤ËÆæ‰∏∫Á±≥Ëâ≤
;;;998                            TEXT_SetTextColor(hItem, GUI_BLACK);
;;;999    						
;;;1000   						for(i=0;i<6;i++){
;;;1001   							set_limit[i] = '\0';
;;;1002   						}
;;;1003   						bit = 0;
;;;1004                           dot_flag = 0;
;;;1005                           set_sw = set_13;
;;;1006                           break;
;;;1007   					}
;;;1008   					case set_82:
;;;1009                       {
;;;1010   						WM_HWIN hItem;						
;;;1011   						hItem = WM_GetDialogItem(hWinset, ID_TEXT_154);
;;;1012                           TEXT_SetBkColor(hItem,GUI_INVALID_COLOR);//ÈÄâÈ°πËÉåÊôØËâ≤ËÆæ‰∏∫ÈÄèÊòé
;;;1013                           TEXT_SetTextColor(hItem, GUI_WHITE);
;;;1014                          
;;;1015                           sprintf(buf,"%.3f",(float)set_max_lv/1000);
;;;1016                           TEXT_SetText(hItem,buf);
;;;1017                  
;;;1018                           hItem = WM_GetDialogItem(hWinset, ID_TEXT_155);
;;;1019                           TEXT_SetBkColor(hItem,0x00BFFFFF);//ÈÄâÈ°πËÉåÊôØËâ≤ËÆæ‰∏∫Á±≥Ëâ≤
;;;1020                           TEXT_SetTextColor(hItem, GUI_BLACK);
;;;1021   							
;;;1022   						for(i=0;i<6;i++){
;;;1023   							set_limit[i] = '\0';
;;;1024   						}
;;;1025   						bit = 0;
;;;1026                           dot_flag = 0;
;;;1027                           set_sw = set_83;
;;;1028                           break;
;;;1029   					}
;;;1030   					
;;;1031   					case set_16:
;;;1032                       {
;;;1033   						WM_HWIN hItem;						
;;;1034   						hItem = WM_GetDialogItem(hWinset, ID_TEXT_39);
;;;1035                           TEXT_SetBkColor(hItem,GUI_INVALID_COLOR);//ÈÄâÈ°πËÉåÊôØËâ≤ËÆæ‰∏∫ÈÄèÊòé
;;;1036                           TEXT_SetTextColor(hItem, GUI_WHITE);
;;;1037                          
;;;1038                           sprintf(buf,"%.3f",(float)set_max_c/1000);
;;;1039                           TEXT_SetText(hItem,buf);
;;;1040                  
;;;1041                           hItem = WM_GetDialogItem(hWinset, ID_TEXT_40);
;;;1042                           TEXT_SetBkColor(hItem,0x00BFFFFF);//ÈÄâÈ°πËÉåÊôØËâ≤ËÆæ‰∏∫Á±≥Ëâ≤
;;;1043                           TEXT_SetTextColor(hItem, GUI_BLACK);
;;;1044   							
;;;1045   						for(i=0;i<6;i++){
;;;1046   							set_limit[i] = '\0';
;;;1047   						}
;;;1048   						bit = 0;
;;;1049                           dot_flag = 0;
;;;1050                           set_sw = set_17;
;;;1051                           break;
;;;1052   					}
;;;1053   					
;;;1054   					case set_84:
;;;1055                       {
;;;1056   						WM_HWIN hItem;						
;;;1057   						hItem = WM_GetDialogItem(hWinset, ID_TEXT_156);
;;;1058                           TEXT_SetBkColor(hItem,GUI_INVALID_COLOR);//ÈÄâÈ°πËÉåÊôØËâ≤ËÆæ‰∏∫ÈÄèÊòé
;;;1059                           TEXT_SetTextColor(hItem, GUI_WHITE);
;;;1060                          
;;;1061                           sprintf(buf,"%.3f",(float)set_max_pc/1000);
;;;1062                           TEXT_SetText(hItem,buf);
;;;1063                  
;;;1064                           hItem = WM_GetDialogItem(hWinset, ID_TEXT_157);
;;;1065                           TEXT_SetBkColor(hItem,0x00BFFFFF);//ÈÄâÈ°πËÉåÊôØËâ≤ËÆæ‰∏∫Á±≥Ëâ≤
;;;1066                           TEXT_SetTextColor(hItem, GUI_BLACK);
;;;1067   							
;;;1068   						for(i=0;i<6;i++){
;;;1069   							set_limit[i] = '\0';
;;;1070   						}
;;;1071   						bit = 0;
;;;1072                           dot_flag = 0;
;;;1073                           set_sw = set_85;
;;;1074                           break;
;;;1075   					}
;;;1076   					
;;;1077                       case set_43:
;;;1078                       {
;;;1079                           WM_HWIN hItem;
;;;1080                           hItem = WM_GetDialogItem(hWinset, ID_TEXT_91);
;;;1081                           TEXT_SetBkColor(hItem,GUI_INVALID_COLOR);//ÈÄâÈ°πËÉåÊôØËâ≤ËÆæ‰∏∫ÈÄèÊòé
;;;1082                           TEXT_SetTextColor(hItem, GUI_WHITE);
;;;1083                           
;;;1084                           hItem = WM_GetDialogItem(hWinset, ID_TEXT_92);
;;;1085                           TEXT_SetBkColor(hItem,0x00BFFFFF);//ÈÄâÈ°πËÉåÊôØËâ≤ËÆæ‰∏∫Á±≥Ëâ≤
;;;1086                           TEXT_SetTextColor(hItem, GUI_BLACK);
;;;1087                           
;;;1088                           switch(b_type)
00006c  f8dfb38c          LDR      r11,|L6.1020|
;;;1089                           {
;;;1090                               case Lion:
;;;1091                               {
;;;1092                                   buffer = NiMH;
000070  4ce3              LDR      r4,|L6.1024|
000072  2b2e              CMP      r3,#0x2e              ;800
000074  d06c              BEQ      |L6.336|
000076  dc08              BGT      |L6.138|
000078  f1a30329          SUB      r3,r3,#0x29           ;800
00007c  2b05              CMP      r3,#5                 ;800
00007e  d22f              BCS      |L6.224|
000080  e8dff003          TBB      [pc,r3]               ;800
000084  e9e8e7e6          DCB      0xe9,0xe8,0xe7,0xe6
000088  e500              DCB      0xe5,0x00
                  |L6.138|
00008a  f44f6714          MOV      r7,#0x940             ;959
00008e  2b48              CMP      r3,#0x48              ;800
000090  d06f              BEQ      |L6.370|
000092  4edc              LDR      r6,|L6.1028|
000094  2b51              CMP      r3,#0x51              ;800
000096  d06d              BEQ      |L6.372|
000098  2b53              CMP      r3,#0x53              ;800
00009a  d06c              BEQ      |L6.374|
00009c  2b59              CMP      r3,#0x59              ;800
00009e  d11f              BNE      |L6.224|
0000a0  4604              MOV      r4,r0                 ;970
0000a2  4639              MOV      r1,r7                 ;970
0000a4  4610              MOV      r0,r2                 ;970
0000a6  f7fffffe          BL       WM_GetDialogItem
0000aa  4606              MOV      r6,r0                 ;970
0000ac  f06f4170          MVN      r1,#0xf0000000        ;971
0000b0  4630              MOV      r0,r6                 ;971
0000b2  f7fffffe          BL       TEXT_SetBkColor
0000b6  f06f417f          MVN      r1,#0xff000000        ;972
0000ba  4630              MOV      r0,r6                 ;972
0000bc  f7fffffe          BL       TEXT_SetTextColor
0000c0  f640013b          MOV      r1,#0x83b             ;974
0000c4  6860              LDR      r0,[r4,#4]            ;974  ; hWinset
0000c6  f7fffffe          BL       WM_GetDialogItem
0000ca  4604              MOV      r4,r0                 ;974
0000cc  49ce              LDR      r1,|L6.1032|
0000ce  4620              MOV      r0,r4                 ;975
0000d0  f7fffffe          BL       TEXT_SetBkColor
0000d4  2100              MOVS     r1,#0                 ;976
0000d6  4620              MOV      r0,r4                 ;976
0000d8  f7fffffe          BL       TEXT_SetTextColor
0000dc  2007              MOVS     r0,#7                 ;978
0000de  7028              STRB     r0,[r5,#0]            ;978
                  |L6.224|
;;;1093                                   break;
;;;1094                               }
;;;1095                               case NiMH:
;;;1096                               {
;;;1097                                   buffer = Lion;
;;;1098                                   break;
;;;1099                               }
;;;1100                               case NiCd:
;;;1101                               {
;;;1102                                   buffer = Lion;
;;;1103                                   break;
;;;1104                               }
;;;1105                               case SLA:
;;;1106                               {
;;;1107                                   buffer = Lion;
;;;1108                                   break;
;;;1109                               }
;;;1110                               case LiMH:
;;;1111                               {
;;;1112                                   buffer = Lion;
;;;1113                                   break;
;;;1114                               }
;;;1115                           }
;;;1116   
;;;1117                           set_sw = set_44;
;;;1118                           break;
;;;1119                       }
;;;1120                       case set_44:
;;;1121                       {
;;;1122                           WM_HWIN hItem;
;;;1123                           hItem = WM_GetDialogItem(hWinset, ID_TEXT_92);
;;;1124                           TEXT_SetBkColor(hItem,GUI_INVALID_COLOR);//ÈÄâÈ°πËÉåÊôØËâ≤ËÆæ‰∏∫ÈÄèÊòé
;;;1125                           TEXT_SetTextColor(hItem, GUI_WHITE);
;;;1126                  
;;;1127                           hItem = WM_GetDialogItem(hWinset, ID_TEXT_93);
;;;1128                           TEXT_SetBkColor(hItem,0x00BFFFFF);//ÈÄâÈ°πËÉåÊôØËâ≤ËÆæ‰∏∫Á±≥Ëâ≤
;;;1129                           TEXT_SetTextColor(hItem, GUI_BLACK);
;;;1130                           
;;;1131                           switch(b_type)
;;;1132                           {
;;;1133                               case Lion:
;;;1134                               {
;;;1135                                   buffer = NiCd;
;;;1136                                   break;
;;;1137                               }
;;;1138                               case NiMH:
;;;1139                               {
;;;1140                                   buffer = NiCd;
;;;1141                                   break;
;;;1142                               }
;;;1143                               case NiCd:
;;;1144                               {
;;;1145                                   buffer = NiMH;
;;;1146                                   break;
;;;1147                               }
;;;1148                               case SLA:
;;;1149                               {
;;;1150                                   buffer = NiMH;
;;;1151                                   break;
;;;1152                               }
;;;1153                               case LiMH:
;;;1154                               {
;;;1155                                   buffer = NiMH;
;;;1156                                   break;
;;;1157                               }
;;;1158                           }
;;;1159   
;;;1160                           set_sw = set_45;
;;;1161                           break;
;;;1162                       }
;;;1163                       case set_45:
;;;1164                       {
;;;1165                           WM_HWIN hItem;
;;;1166                           hItem = WM_GetDialogItem(hWinset, ID_TEXT_93);
;;;1167                           TEXT_SetBkColor(hItem,GUI_INVALID_COLOR);//ÈÄâÈ°πËÉåÊôØËâ≤ËÆæ‰∏∫ÈÄèÊòé
;;;1168                           TEXT_SetTextColor(hItem, GUI_WHITE);
;;;1169                  
;;;1170                           hItem = WM_GetDialogItem(hWinset, ID_TEXT_94);
;;;1171                           TEXT_SetBkColor(hItem,0x00BFFFFF);//ÈÄâÈ°πËÉåÊôØËâ≤ËÆæ‰∏∫Á±≥Ëâ≤
;;;1172                           TEXT_SetTextColor(hItem, GUI_BLACK);
;;;1173                           
;;;1174                           switch(b_type)
;;;1175                           {
;;;1176                               case Lion:
;;;1177                               {
;;;1178                                   buffer = SLA;
;;;1179                                   break;
;;;1180                               }
;;;1181                               case NiMH:
;;;1182                               {
;;;1183                                   buffer = SLA;
;;;1184                                   break;
;;;1185                               }
;;;1186                               case NiCd:
;;;1187                               {
;;;1188                                   buffer = SLA;
;;;1189                                   break;
;;;1190                               }
;;;1191                               case SLA:
;;;1192                               {
;;;1193                                   buffer = NiCd;
;;;1194                                   break;
;;;1195                               }
;;;1196                               case LiMH:
;;;1197                               {
;;;1198                                   buffer = NiCd;
;;;1199                                   break;
;;;1200                               }
;;;1201                           }
;;;1202   
;;;1203                           set_sw = set_46;
;;;1204                           break;
;;;1205                       }
;;;1206                       case set_46:
;;;1207                       {
;;;1208                           WM_HWIN hItem;
;;;1209                           hItem = WM_GetDialogItem(hWinset, ID_TEXT_94);
;;;1210                           TEXT_SetBkColor(hItem,GUI_INVALID_COLOR);//ÈÄâÈ°πËÉåÊôØËâ≤ËÆæ‰∏∫ÈÄèÊòé
;;;1211                           TEXT_SetTextColor(hItem, GUI_WHITE);
;;;1212                  
;;;1213                           hItem = WM_GetDialogItem(hWinset, ID_TEXT_95);
;;;1214                           TEXT_SetBkColor(hItem,0x00BFFFFF);//ÈÄâÈ°πËÉåÊôØËâ≤ËÆæ‰∏∫Á±≥Ëâ≤
;;;1215                           TEXT_SetTextColor(hItem, GUI_BLACK);
;;;1216                           
;;;1217                           switch(b_type)
;;;1218                           {
;;;1219                               case Lion:
;;;1220                               {
;;;1221                                   buffer = LiMH;
;;;1222                                   break;
;;;1223                               }
;;;1224                               case NiMH:
;;;1225                               {
;;;1226                                   buffer = LiMH;
;;;1227                                   break;
;;;1228                               }
;;;1229                               case NiCd:
;;;1230                               {
;;;1231                                   buffer = LiMH;
;;;1232                                   break;
;;;1233                               }
;;;1234                               case SLA:
;;;1235                               {
;;;1236                                   buffer = LiMH;
;;;1237                                   break;
;;;1238                               }
;;;1239                               case LiMH:
;;;1240                               {
;;;1241                                   buffer = SLA;
;;;1242                                   break;
;;;1243                               }
;;;1244                           }
;;;1245   
;;;1246                           set_sw = set_47;
;;;1247                           break;
;;;1248                       }
;;;1249                       case set_47:
;;;1250                       {
;;;1251                           WM_HWIN hItem;
;;;1252                           hItem = WM_GetDialogItem(hWinset, ID_TEXT_95);
;;;1253                           TEXT_SetBkColor(hItem,GUI_INVALID_COLOR);//ÈÄâÈ°πËÉåÊôØËâ≤ËÆæ‰∏∫ÈÄèÊòé
;;;1254                           TEXT_SetTextColor(hItem, GUI_WHITE);
;;;1255                           
;;;1256                           hItem = WM_GetDialogItem(hWinset, ID_TEXT_91);
;;;1257                           TEXT_SetBkColor(hItem,0x00BFFFFF);//ÈÄâÈ°πËÉåÊôØËâ≤ËÆæ‰∏∫Á±≥Ëâ≤
;;;1258                           TEXT_SetTextColor(hItem, GUI_BLACK);
;;;1259                           
;;;1260                           switch(b_type)
;;;1261                           {
;;;1262                               case Lion:
;;;1263                               {
;;;1264                                   buffer = Lion;
;;;1265                                   break;
;;;1266                               }
;;;1267                               case NiMH:
;;;1268                               {
;;;1269                                   buffer = NiMH;
;;;1270                                   break;
;;;1271                               }
;;;1272                               case NiCd:
;;;1273                               {
;;;1274                                   buffer = NiCd;
;;;1275                                   break;
;;;1276                               }
;;;1277                               case SLA:
;;;1278                               {
;;;1279                                   buffer = SLA;
;;;1280                                   break;
;;;1281                               }
;;;1282                               case LiMH:
;;;1283                               {
;;;1284                                   buffer = LiMH;
;;;1285                                   break;
;;;1286                               }
;;;1287                           }
;;;1288   
;;;1289                           set_sw = set_43;
;;;1290                           break;
;;;1291                       }
;;;1292                       default: break;
;;;1293                    }
;;;1294   //                return set_sw;
;;;1295   //                return b_type;
;;;1296   }
0000e0  b007              ADD      sp,sp,#0x1c
0000e2  ecbd8b02          VPOP     {d8}
0000e6  e8bd8ff0          POP      {r4-r11,pc}
0000ea  4604              MOV      r4,r0                 ;805
0000ec  4659              MOV      r1,r11                ;805
0000ee  4610              MOV      r0,r2                 ;805
0000f0  f7fffffe          BL       WM_GetDialogItem
0000f4  4607              MOV      r7,r0                 ;805
0000f6  f06f4170          MVN      r1,#0xf0000000        ;806
0000fa  4638              MOV      r0,r7                 ;806
0000fc  f7fffffe          BL       TEXT_SetBkColor
000100  f06f417f          MVN      r1,#0xff000000        ;807
000104  4638              MOV      r0,r7                 ;807
000106  f7fffffe          BL       TEXT_SetTextColor
00010a  f640012c          MOV      r1,#0x82c             ;809
00010e  6860              LDR      r0,[r4,#4]            ;809  ; hWinset
000110  f7fffffe          BL       WM_GetDialogItem
000114  4604              MOV      r4,r0                 ;809
000116  49bc              LDR      r1,|L6.1032|
000118  4620              MOV      r0,r4                 ;810
00011a  f7fffffe          BL       TEXT_SetBkColor
00011e  2100              MOVS     r1,#0                 ;811
000120  4620              MOV      r0,r4                 ;811
000122  f7fffffe          BL       TEXT_SetTextColor
000126  702e              STRB     r6,[r5,#0]            ;813
000128  e7da              B        |L6.224|
00012a  4604              MOV      r4,r0                 ;820
00012c  f640012c          MOV      r1,#0x82c             ;820
000130  4610              MOV      r0,r2                 ;820
000132  f7fffffe          BL       WM_GetDialogItem
000136  4606              MOV      r6,r0                 ;820
000138  f06f4170          MVN      r1,#0xf0000000        ;821
00013c  4630              MOV      r0,r6                 ;821
00013e  f7fffffe          BL       TEXT_SetBkColor
000142  f06f417f          MVN      r1,#0xff000000        ;822
000146  4630              MOV      r0,r6                 ;822
000148  f7fffffe          BL       TEXT_SetTextColor
00014c  e001              B        |L6.338|
                  |L6.334|
00014e  e1f6              B        |L6.1342|
                  |L6.336|
000150  e37b              B        |L6.2122|
                  |L6.338|
000152  f640012d          MOV      r1,#0x82d             ;824
000156  6860              LDR      r0,[r4,#4]            ;824  ; hWinset
000158  f7fffffe          BL       WM_GetDialogItem
00015c  4604              MOV      r4,r0                 ;824
00015e  49aa              LDR      r1,|L6.1032|
000160  4620              MOV      r0,r4                 ;825
000162  f7fffffe          BL       TEXT_SetBkColor
000166  2100              MOVS     r1,#0                 ;826
000168  4620              MOV      r0,r4                 ;826
00016a  f7fffffe          BL       TEXT_SetTextColor
00016e  702f              STRB     r7,[r5,#0]            ;828
000170  e7b6              B        |L6.224|
                  |L6.370|
000172  e11a              B        |L6.938|
                  |L6.372|
000174  e198              B        |L6.1192|
                  |L6.374|
000176  e22e              B        |L6.1494|
000178  4604              MOV      r4,r0                 ;835
00017a  f640012d          MOV      r1,#0x82d             ;835
00017e  4610              MOV      r0,r2                 ;835
000180  f7fffffe          BL       WM_GetDialogItem
000184  4606              MOV      r6,r0                 ;835
000186  f06f4170          MVN      r1,#0xf0000000        ;836
00018a  4630              MOV      r0,r6                 ;836
00018c  f7fffffe          BL       TEXT_SetBkColor
000190  f06f417f          MVN      r1,#0xff000000        ;837
000194  4630              MOV      r0,r6                 ;837
000196  f7fffffe          BL       TEXT_SetTextColor
00019a  f640012e          MOV      r1,#0x82e             ;839
00019e  6860              LDR      r0,[r4,#4]            ;839  ; hWinset
0001a0  f7fffffe          BL       WM_GetDialogItem
0001a4  4604              MOV      r4,r0                 ;839
0001a6  4998              LDR      r1,|L6.1032|
0001a8  4620              MOV      r0,r4                 ;840
0001aa  f7fffffe          BL       TEXT_SetBkColor
0001ae  2100              MOVS     r1,#0                 ;841
0001b0  4620              MOV      r0,r4                 ;841
0001b2  f7fffffe          BL       TEXT_SetTextColor
0001b6  f8858000          STRB     r8,[r5,#0]            ;843
0001ba  e791              B        |L6.224|
0001bc  4604              MOV      r4,r0                 ;850
0001be  f640012e          MOV      r1,#0x82e             ;850
0001c2  4610              MOV      r0,r2                 ;850
0001c4  f7fffffe          BL       WM_GetDialogItem
0001c8  4606              MOV      r6,r0                 ;850
0001ca  f06f4170          MVN      r1,#0xf0000000        ;851
0001ce  4630              MOV      r0,r6                 ;851
0001d0  f7fffffe          BL       TEXT_SetBkColor
0001d4  f06f417f          MVN      r1,#0xff000000        ;852
0001d8  4630              MOV      r0,r6                 ;852
0001da  f7fffffe          BL       TEXT_SetTextColor
0001de  f640012f          MOV      r1,#0x82f             ;854
0001e2  6860              LDR      r0,[r4,#4]            ;854  ; hWinset
0001e4  f7fffffe          BL       WM_GetDialogItem
0001e8  4604              MOV      r4,r0                 ;854
0001ea  4987              LDR      r1,|L6.1032|
0001ec  4620              MOV      r0,r4                 ;855
0001ee  f7fffffe          BL       TEXT_SetBkColor
0001f2  2100              MOVS     r1,#0                 ;856
0001f4  4620              MOV      r0,r4                 ;856
0001f6  f7fffffe          BL       TEXT_SetTextColor
0001fa  f8859000          STRB     r9,[r5,#0]            ;858
0001fe  e76f              B        |L6.224|
000200  4604              MOV      r4,r0                 ;865
000202  f640012f          MOV      r1,#0x82f             ;865
000206  4610              MOV      r0,r2                 ;865
000208  f7fffffe          BL       WM_GetDialogItem
00020c  4606              MOV      r6,r0                 ;865
00020e  f06f4170          MVN      r1,#0xf0000000        ;866
000212  4630              MOV      r0,r6                 ;866
000214  f7fffffe          BL       TEXT_SetBkColor
000218  f06f417f          MVN      r1,#0xff000000        ;867
00021c  4630              MOV      r0,r6                 ;867
00021e  f7fffffe          BL       TEXT_SetTextColor
000222  f44f6103          MOV      r1,#0x830             ;869
000226  6860              LDR      r0,[r4,#4]            ;869  ; hWinset
000228  f7fffffe          BL       WM_GetDialogItem
00022c  4604              MOV      r4,r0                 ;869
00022e  4976              LDR      r1,|L6.1032|
000230  4620              MOV      r0,r4                 ;870
000232  f7fffffe          BL       TEXT_SetBkColor
000236  2100              MOVS     r1,#0                 ;871
000238  4620              MOV      r0,r4                 ;871
00023a  f7fffffe          BL       TEXT_SetTextColor
00023e  f885a000          STRB     r10,[r5,#0]           ;873
000242  e74d              B        |L6.224|
000244  e0e2              B        |L6.1036|
000246  e06c              B        |L6.802|
000248  e049              B        |L6.734|
00024a  e027              B        |L6.668|
00024c  e004              B        |L6.600|
00024e  e2b1              B        |L6.1972|
000250  e277              B        |L6.1858|
000252  e240              B        |L6.1750|
000254  e20a              B        |L6.1644|
000256  e086              B        |L6.870|
                  |L6.600|
000258  4604              MOV      r4,r0                 ;880
00025a  f44f6103          MOV      r1,#0x830             ;880
00025e  4610              MOV      r0,r2                 ;880
000260  f7fffffe          BL       WM_GetDialogItem
000264  4606              MOV      r6,r0                 ;880
000266  f06f4170          MVN      r1,#0xf0000000        ;881
00026a  4630              MOV      r0,r6                 ;881
00026c  f7fffffe          BL       TEXT_SetBkColor
000270  f06f417f          MVN      r1,#0xff000000        ;882
000274  4630              MOV      r0,r6                 ;882
000276  f7fffffe          BL       TEXT_SetTextColor
00027a  f6400131          MOV      r1,#0x831             ;884
00027e  6860              LDR      r0,[r4,#4]            ;884  ; hWinset
000280  f7fffffe          BL       WM_GetDialogItem
000284  4604              MOV      r4,r0                 ;884
000286  4960              LDR      r1,|L6.1032|
000288  4620              MOV      r0,r4                 ;885
00028a  f7fffffe          BL       TEXT_SetBkColor
00028e  2100              MOVS     r1,#0                 ;886
000290  4620              MOV      r0,r4                 ;886
000292  f7fffffe          BL       TEXT_SetTextColor
000296  2006              MOVS     r0,#6                 ;888
000298  7028              STRB     r0,[r5,#0]            ;888
00029a  e721              B        |L6.224|
                  |L6.668|
00029c  4604              MOV      r4,r0                 ;895
00029e  f6400131          MOV      r1,#0x831             ;895
0002a2  4610              MOV      r0,r2                 ;895
0002a4  f7fffffe          BL       WM_GetDialogItem
0002a8  4606              MOV      r6,r0                 ;895
0002aa  f06f4170          MVN      r1,#0xf0000000        ;896
0002ae  4630              MOV      r0,r6                 ;896
0002b0  f7fffffe          BL       TEXT_SetBkColor
0002b4  f06f417f          MVN      r1,#0xff000000        ;897
0002b8  4630              MOV      r0,r6                 ;897
0002ba  f7fffffe          BL       TEXT_SetTextColor
0002be  4659              MOV      r1,r11                ;899
0002c0  6860              LDR      r0,[r4,#4]            ;899  ; hWinset
0002c2  f7fffffe          BL       WM_GetDialogItem
0002c6  4604              MOV      r4,r0                 ;899
0002c8  494f              LDR      r1,|L6.1032|
0002ca  4620              MOV      r0,r4                 ;900
0002cc  f7fffffe          BL       TEXT_SetBkColor
0002d0  2100              MOVS     r1,#0                 ;901
0002d2  4620              MOV      r0,r4                 ;901
0002d4  f7fffffe          BL       TEXT_SetTextColor
0002d8  2000              MOVS     r0,#0                 ;903
0002da  7028              STRB     r0,[r5,#0]            ;903
0002dc  e700              B        |L6.224|
                  |L6.734|
0002de  4604              MOV      r4,r0                 ;910
0002e0  f640013b          MOV      r1,#0x83b             ;910
0002e4  4610              MOV      r0,r2                 ;910
0002e6  f7fffffe          BL       WM_GetDialogItem
0002ea  4606              MOV      r6,r0                 ;910
0002ec  f06f4170          MVN      r1,#0xf0000000        ;911
0002f0  4630              MOV      r0,r6                 ;911
0002f2  f7fffffe          BL       TEXT_SetBkColor
0002f6  f06f417f          MVN      r1,#0xff000000        ;912
0002fa  4630              MOV      r0,r6                 ;912
0002fc  f7fffffe          BL       TEXT_SetTextColor
000300  f640013c          MOV      r1,#0x83c             ;914
000304  6860              LDR      r0,[r4,#4]            ;914  ; hWinset
000306  f7fffffe          BL       WM_GetDialogItem
00030a  4604              MOV      r4,r0                 ;914
00030c  493e              LDR      r1,|L6.1032|
00030e  4620              MOV      r0,r4                 ;915
000310  f7fffffe          BL       TEXT_SetBkColor
000314  2100              MOVS     r1,#0                 ;916
000316  4620              MOV      r0,r4                 ;916
000318  f7fffffe          BL       TEXT_SetTextColor
00031c  2008              MOVS     r0,#8                 ;918
00031e  7028              STRB     r0,[r5,#0]            ;918
000320  e6de              B        |L6.224|
                  |L6.802|
000322  4604              MOV      r4,r0                 ;925
000324  f640013c          MOV      r1,#0x83c             ;925
000328  4610              MOV      r0,r2                 ;925
00032a  f7fffffe          BL       WM_GetDialogItem
00032e  4606              MOV      r6,r0                 ;925
000330  f06f4170          MVN      r1,#0xf0000000        ;926
000334  4630              MOV      r0,r6                 ;926
000336  f7fffffe          BL       TEXT_SetBkColor
00033a  f06f417f          MVN      r1,#0xff000000        ;927
00033e  4630              MOV      r0,r6                 ;927
000340  f7fffffe          BL       TEXT_SetTextColor
000344  f640019e          MOV      r1,#0x89e             ;929
000348  6860              LDR      r0,[r4,#4]            ;929  ; hWinset
00034a  f7fffffe          BL       WM_GetDialogItem
00034e  4604              MOV      r4,r0                 ;929
000350  492d              LDR      r1,|L6.1032|
000352  4620              MOV      r0,r4                 ;930
000354  f7fffffe          BL       TEXT_SetBkColor
000358  2100              MOVS     r1,#0                 ;931
00035a  4620              MOV      r0,r4                 ;931
00035c  f7fffffe          BL       TEXT_SetTextColor
000360  2029              MOVS     r0,#0x29              ;933
000362  7028              STRB     r0,[r5,#0]            ;933
000364  e6bc              B        |L6.224|
                  |L6.870|
000366  4604              MOV      r4,r0                 ;940
000368  f640019e          MOV      r1,#0x89e             ;940
00036c  4610              MOV      r0,r2                 ;940
00036e  f7fffffe          BL       WM_GetDialogItem
000372  4606              MOV      r6,r0                 ;940
000374  f06f4170          MVN      r1,#0xf0000000        ;941
000378  4630              MOV      r0,r6                 ;941
00037a  f7fffffe          BL       TEXT_SetBkColor
00037e  f06f417f          MVN      r1,#0xff000000        ;942
000382  4630              MOV      r0,r6                 ;942
000384  f7fffffe          BL       TEXT_SetTextColor
000388  f6401122          MOV      r1,#0x922             ;944
00038c  6860              LDR      r0,[r4,#4]            ;944  ; hWinset
00038e  f7fffffe          BL       WM_GetDialogItem
000392  4604              MOV      r4,r0                 ;944
000394  491c              LDR      r1,|L6.1032|
000396  4620              MOV      r0,r4                 ;945
000398  f7fffffe          BL       TEXT_SetBkColor
00039c  2100              MOVS     r1,#0                 ;946
00039e  4620              MOV      r0,r4                 ;946
0003a0  f7fffffe          BL       TEXT_SetTextColor
0003a4  2048              MOVS     r0,#0x48              ;948
0003a6  7028              STRB     r0,[r5,#0]            ;948
0003a8  e69a              B        |L6.224|
                  |L6.938|
0003aa  4604              MOV      r4,r0                 ;955
0003ac  f6401122          MOV      r1,#0x922             ;955
0003b0  4610              MOV      r0,r2                 ;955
0003b2  f7fffffe          BL       WM_GetDialogItem
0003b6  4606              MOV      r6,r0                 ;955
0003b8  f06f4170          MVN      r1,#0xf0000000        ;956
0003bc  4630              MOV      r0,r6                 ;956
0003be  f7fffffe          BL       TEXT_SetBkColor
0003c2  f06f417f          MVN      r1,#0xff000000        ;957
0003c6  4630              MOV      r0,r6                 ;957
0003c8  f7fffffe          BL       TEXT_SetTextColor
0003cc  4639              MOV      r1,r7                 ;959
0003ce  6860              LDR      r0,[r4,#4]            ;959  ; hWinset
0003d0  f7fffffe          BL       WM_GetDialogItem
0003d4  4604              MOV      r4,r0                 ;959
0003d6  490c              LDR      r1,|L6.1032|
0003d8  4620              MOV      r0,r4                 ;960
0003da  f7fffffe          BL       TEXT_SetBkColor
0003de  2100              MOVS     r1,#0                 ;961
0003e0  4620              MOV      r0,r4                 ;961
0003e2  f7fffffe          BL       TEXT_SetTextColor
0003e6  2059              MOVS     r0,#0x59              ;963
0003e8  7028              STRB     r0,[r5,#0]            ;963
0003ea  e679              B        |L6.224|
                  |L6.1004|
                          DCD      Run_Control
                  |L6.1008|
0003f0  447a0000          DCFS     0x447a0000 ; 1000
                  |L6.1012|
                          DCD      set_sw
                  |L6.1016|
                          DCD      ||.data||
                  |L6.1020|
                          DCD      b_type
                  |L6.1024|
                          DCD      buffer
                  |L6.1028|
                          DCD      ||.bss||
                  |L6.1032|
                          DCD      0x00bfffff
                  |L6.1036|
00040c  4606              MOV      r6,r0                 ;985
00040e  f44f6106          MOV      r1,#0x860             ;985
000412  4610              MOV      r0,r2                 ;985
000414  f7fffffe          BL       WM_GetDialogItem
000418  4607              MOV      r7,r0                 ;985
00041a  f06f4170          MVN      r1,#0xf0000000        ;986
00041e  4638              MOV      r0,r7                 ;986
000420  f7fffffe          BL       TEXT_SetBkColor
000424  f06f417f          MVN      r1,#0xff000000        ;987
000428  4638              MOV      r0,r7                 ;987
00042a  f7fffffe          BL       TEXT_SetTextColor
00042e  6ba1              LDR      r1,[r4,#0x38]         ;988  ; Run_Control
000430  48f7              LDR      r0,|L6.2064|
000432  4281              CMP      r1,r0                 ;988
000434  d904              BLS      |L6.1088|
000436  63a0              STR      r0,[r4,#0x38]         ;990  ; Run_Control
000438  a1f6              ADR      r1,|L6.2068|
00043a  4638              MOV      r0,r7                 ;991
00043c  f7fffffe          BL       TEXT_SetText
                  |L6.1088|
000440  ee180a90          VMOV     r0,s17                ;993
000444  f7fffffe          BL       __aeabi_f2d
000448  ec410b10          VMOV     d0,r0,r1              ;993
00044c  a1f3              ADR      r1,|L6.2076|
00044e  ec532b10          VMOV     r2,r3,d0              ;993
000452  a804              ADD      r0,sp,#0x10           ;993
000454  f7fffffe          BL       __2sprintf
000458  a904              ADD      r1,sp,#0x10           ;994
00045a  4638              MOV      r0,r7                 ;994
00045c  f7fffffe          BL       TEXT_SetText
000460  f6400161          MOV      r1,#0x861             ;996
000464  6870              LDR      r0,[r6,#4]            ;996  ; hWinset
000466  f7fffffe          BL       WM_GetDialogItem
00046a  4604              MOV      r4,r0                 ;996
00046c  49ed              LDR      r1,|L6.2084|
00046e  4620              MOV      r0,r4                 ;997
000470  f7fffffe          BL       TEXT_SetBkColor
000474  2100              MOVS     r1,#0                 ;998
000476  4620              MOV      r0,r4                 ;998
000478  f7fffffe          BL       TEXT_SetTextColor
00047c  2000              MOVS     r0,#0                 ;1000
00047e  9006              STR      r0,[sp,#0x18]         ;1000
000480  4ae9              LDR      r2,|L6.2088|
000482  e006              B        |L6.1170|
                  |L6.1156|
000484  f89d1018          LDRB     r1,[sp,#0x18]         ;1001
000488  5450              STRB     r0,[r2,r1]            ;1001
00048a  f89d1018          LDRB     r1,[sp,#0x18]         ;1000
00048e  1c49              ADDS     r1,r1,#1              ;1000
000490  9106              STR      r1,[sp,#0x18]         ;1000
                  |L6.1170|
000492  f89d1018          LDRB     r1,[sp,#0x18]         ;1000
000496  2906              CMP      r1,#6                 ;1000
000498  d3f4              BCC      |L6.1156|
00049a  49e4              LDR      r1,|L6.2092|
00049c  7008              STRB     r0,[r1,#0]            ;1003
00049e  49e4              LDR      r1,|L6.2096|
0004a0  7008              STRB     r0,[r1,#0]            ;1004
0004a2  200c              MOVS     r0,#0xc               ;1005
0004a4  7028              STRB     r0,[r5,#0]            ;1005
0004a6  e61b              B        |L6.224|
                  |L6.1192|
0004a8  4604              MOV      r4,r0                 ;1011
0004aa  f6401135          MOV      r1,#0x935             ;1011
0004ae  4610              MOV      r0,r2                 ;1011
0004b0  f7fffffe          BL       WM_GetDialogItem
0004b4  4607              MOV      r7,r0                 ;1011
0004b6  f06f4170          MVN      r1,#0xf0000000        ;1012
0004ba  4638              MOV      r0,r7                 ;1012
0004bc  f7fffffe          BL       TEXT_SetBkColor
0004c0  f06f417f          MVN      r1,#0xff000000        ;1013
0004c4  4638              MOV      r0,r7                 ;1013
0004c6  f7fffffe          BL       TEXT_SetTextColor
0004ca  ed960a00          VLDR     s0,[r6,#0]            ;1015
0004ce  eef80ac0          VCVT.F32.S32 s1,s0                 ;1015
0004d2  ee800a88          VDIV.F32 s0,s1,s16             ;1015
0004d6  ee100a10          VMOV     r0,s0                 ;1015
0004da  f7fffffe          BL       __aeabi_f2d
0004de  ec410b10          VMOV     d0,r0,r1              ;1015
0004e2  a1ce              ADR      r1,|L6.2076|
0004e4  ec532b10          VMOV     r2,r3,d0              ;1015
0004e8  a804              ADD      r0,sp,#0x10           ;1015
0004ea  f7fffffe          BL       __2sprintf
0004ee  a904              ADD      r1,sp,#0x10           ;1016
0004f0  4638              MOV      r0,r7                 ;1016
0004f2  f7fffffe          BL       TEXT_SetText
0004f6  f6401136          MOV      r1,#0x936             ;1018
0004fa  6860              LDR      r0,[r4,#4]            ;1018  ; hWinset
0004fc  f7fffffe          BL       WM_GetDialogItem
000500  4604              MOV      r4,r0                 ;1018
000502  49c8              LDR      r1,|L6.2084|
000504  4620              MOV      r0,r4                 ;1019
000506  f7fffffe          BL       TEXT_SetBkColor
00050a  2100              MOVS     r1,#0                 ;1020
00050c  4620              MOV      r0,r4                 ;1020
00050e  f7fffffe          BL       TEXT_SetTextColor
000512  2000              MOVS     r0,#0                 ;1022
000514  9006              STR      r0,[sp,#0x18]         ;1022
000516  4ac4              LDR      r2,|L6.2088|
000518  e006              B        |L6.1320|
                  |L6.1306|
00051a  f89d1018          LDRB     r1,[sp,#0x18]         ;1023
00051e  5450              STRB     r0,[r2,r1]            ;1023
000520  f89d1018          LDRB     r1,[sp,#0x18]         ;1022
000524  1c49              ADDS     r1,r1,#1              ;1022
000526  9106              STR      r1,[sp,#0x18]         ;1022
                  |L6.1320|
000528  f89d1018          LDRB     r1,[sp,#0x18]         ;1022
00052c  2906              CMP      r1,#6                 ;1022
00052e  d3f4              BCC      |L6.1306|
000530  49be              LDR      r1,|L6.2092|
000532  7008              STRB     r0,[r1,#0]            ;1025
000534  49be              LDR      r1,|L6.2096|
000536  7008              STRB     r0,[r1,#0]            ;1026
000538  2052              MOVS     r0,#0x52              ;1027
00053a  7028              STRB     r0,[r5,#0]            ;1027
00053c  e5d0              B        |L6.224|
                  |L6.1342|
00053e  4606              MOV      r6,r0                 ;1034
000540  f6400164          MOV      r1,#0x864             ;1034
000544  4610              MOV      r0,r2                 ;1034
000546  f7fffffe          BL       WM_GetDialogItem
00054a  4607              MOV      r7,r0                 ;1034
00054c  f06f4170          MVN      r1,#0xf0000000        ;1035
000550  4638              MOV      r0,r7                 ;1035
000552  f7fffffe          BL       TEXT_SetBkColor
000556  f06f417f          MVN      r1,#0xff000000        ;1036
00055a  4638              MOV      r0,r7                 ;1036
00055c  f7fffffe          BL       TEXT_SetTextColor
000560  6ca1              LDR      r1,[r4,#0x48]         ;1038  ; Run_Control
000562  ee001a10          VMOV     s0,r1                 ;1038
000566  eef80a40          VCVT.F32.U32 s1,s0                 ;1038
00056a  ee800a88          VDIV.F32 s0,s1,s16             ;1038
00056e  ee100a10          VMOV     r0,s0                 ;1038
000572  f7fffffe          BL       __aeabi_f2d
000576  ec410b10          VMOV     d0,r0,r1              ;1038
00057a  a1a8              ADR      r1,|L6.2076|
00057c  ec532b10          VMOV     r2,r3,d0              ;1038
000580  a804              ADD      r0,sp,#0x10           ;1038
000582  f7fffffe          BL       __2sprintf
000586  a904              ADD      r1,sp,#0x10           ;1039
000588  4638              MOV      r0,r7                 ;1039
00058a  f7fffffe          BL       TEXT_SetText
00058e  f6400165          MOV      r1,#0x865             ;1041
000592  6870              LDR      r0,[r6,#4]            ;1041  ; hWinset
000594  f7fffffe          BL       WM_GetDialogItem
000598  4604              MOV      r4,r0                 ;1041
00059a  49a2              LDR      r1,|L6.2084|
00059c  4620              MOV      r0,r4                 ;1042
00059e  f7fffffe          BL       TEXT_SetBkColor
0005a2  2100              MOVS     r1,#0                 ;1043
0005a4  4620              MOV      r0,r4                 ;1043
0005a6  f7fffffe          BL       TEXT_SetTextColor
0005aa  2000              MOVS     r0,#0                 ;1045
0005ac  9006              STR      r0,[sp,#0x18]         ;1045
0005ae  4a9e              LDR      r2,|L6.2088|
0005b0  e006              B        |L6.1472|
                  |L6.1458|
0005b2  f89d1018          LDRB     r1,[sp,#0x18]         ;1046
0005b6  5450              STRB     r0,[r2,r1]            ;1046
0005b8  f89d1018          LDRB     r1,[sp,#0x18]         ;1045
0005bc  1c49              ADDS     r1,r1,#1              ;1045
0005be  9106              STR      r1,[sp,#0x18]         ;1045
                  |L6.1472|
0005c0  f89d1018          LDRB     r1,[sp,#0x18]         ;1045
0005c4  2906              CMP      r1,#6                 ;1045
0005c6  d3f4              BCC      |L6.1458|
0005c8  4998              LDR      r1,|L6.2092|
0005ca  7008              STRB     r0,[r1,#0]            ;1048
0005cc  4998              LDR      r1,|L6.2096|
0005ce  7008              STRB     r0,[r1,#0]            ;1049
0005d0  2010              MOVS     r0,#0x10              ;1050
0005d2  7028              STRB     r0,[r5,#0]            ;1050
0005d4  e584              B        |L6.224|
                  |L6.1494|
0005d6  4604              MOV      r4,r0                 ;1057
0005d8  f6401137          MOV      r1,#0x937             ;1057
0005dc  4610              MOV      r0,r2                 ;1057
0005de  f7fffffe          BL       WM_GetDialogItem
0005e2  4607              MOV      r7,r0                 ;1057
0005e4  f06f4170          MVN      r1,#0xf0000000        ;1058
0005e8  4638              MOV      r0,r7                 ;1058
0005ea  f7fffffe          BL       TEXT_SetBkColor
0005ee  f06f417f          MVN      r1,#0xff000000        ;1059
0005f2  4638              MOV      r0,r7                 ;1059
0005f4  f7fffffe          BL       TEXT_SetTextColor
0005f8  ed960a02          VLDR     s0,[r6,#8]            ;1061
0005fc  eef80ac0          VCVT.F32.S32 s1,s0                 ;1061
000600  ee800a88          VDIV.F32 s0,s1,s16             ;1061
000604  ee100a10          VMOV     r0,s0                 ;1061
000608  f7fffffe          BL       __aeabi_f2d
00060c  ec410b10          VMOV     d0,r0,r1              ;1061
000610  a182              ADR      r1,|L6.2076|
000612  ec532b10          VMOV     r2,r3,d0              ;1061
000616  a804              ADD      r0,sp,#0x10           ;1061
000618  f7fffffe          BL       __2sprintf
00061c  a904              ADD      r1,sp,#0x10           ;1062
00061e  4638              MOV      r0,r7                 ;1062
000620  f7fffffe          BL       TEXT_SetText
000624  f6401138          MOV      r1,#0x938             ;1064
000628  6860              LDR      r0,[r4,#4]            ;1064  ; hWinset
00062a  f7fffffe          BL       WM_GetDialogItem
00062e  4604              MOV      r4,r0                 ;1064
000630  497c              LDR      r1,|L6.2084|
000632  4620              MOV      r0,r4                 ;1065
000634  f7fffffe          BL       TEXT_SetBkColor
000638  2100              MOVS     r1,#0                 ;1066
00063a  4620              MOV      r0,r4                 ;1066
00063c  f7fffffe          BL       TEXT_SetTextColor
000640  2000              MOVS     r0,#0                 ;1068
000642  9006              STR      r0,[sp,#0x18]         ;1068
000644  4a78              LDR      r2,|L6.2088|
000646  e006              B        |L6.1622|
                  |L6.1608|
000648  f89d1018          LDRB     r1,[sp,#0x18]         ;1069
00064c  5450              STRB     r0,[r2,r1]            ;1069
00064e  f89d1018          LDRB     r1,[sp,#0x18]         ;1068
000652  1c49              ADDS     r1,r1,#1              ;1068
000654  9106              STR      r1,[sp,#0x18]         ;1068
                  |L6.1622|
000656  f89d1018          LDRB     r1,[sp,#0x18]         ;1068
00065a  2906              CMP      r1,#6                 ;1068
00065c  d3f4              BCC      |L6.1608|
00065e  4973              LDR      r1,|L6.2092|
000660  7008              STRB     r0,[r1,#0]            ;1071
000662  4973              LDR      r1,|L6.2096|
000664  7008              STRB     r0,[r1,#0]            ;1072
000666  2054              MOVS     r0,#0x54              ;1073
000668  7028              STRB     r0,[r5,#0]            ;1073
00066a  e539              B        |L6.224|
                  |L6.1644|
00066c  4680              MOV      r8,r0                 ;1080
00066e  f640019f          MOV      r1,#0x89f             ;1080
000672  4610              MOV      r0,r2                 ;1080
000674  f7fffffe          BL       WM_GetDialogItem
000678  4681              MOV      r9,r0                 ;1080
00067a  f06f4170          MVN      r1,#0xf0000000        ;1081
00067e  4648              MOV      r0,r9                 ;1081
000680  f7fffffe          BL       TEXT_SetBkColor
000684  f06f417f          MVN      r1,#0xff000000        ;1082
000688  4648              MOV      r0,r9                 ;1082
00068a  f7fffffe          BL       TEXT_SetTextColor
00068e  f44f6110          MOV      r1,#0x900             ;1084
000692  f8d80004          LDR      r0,[r8,#4]            ;1084  ; hWinset
000696  f7fffffe          BL       WM_GetDialogItem
00069a  4680              MOV      r8,r0                 ;1084
00069c  4961              LDR      r1,|L6.2084|
00069e  4640              MOV      r0,r8                 ;1085
0006a0  f7fffffe          BL       TEXT_SetBkColor
0006a4  2100              MOVS     r1,#0                 ;1086
0006a6  4640              MOV      r0,r8                 ;1086
0006a8  f7fffffe          BL       TEXT_SetTextColor
0006ac  f89b0000          LDRB     r0,[r11,#0]           ;1088  ; b_type
0006b0  2806              CMP      r0,#6                 ;1088
0006b2  d20d              BCS      |L6.1744|
0006b4  e8dff000          TBB      [pc,r0]               ;1088
0006b8  0c030507          DCB      0x0c,0x03,0x05,0x07
0006bc  090b              DCB      0x09,0x0b
0006be  7027              STRB     r7,[r4,#0]            ;1092
0006c0  e006              B        |L6.1744|
0006c2  7026              STRB     r6,[r4,#0]            ;1097
0006c4  e004              B        |L6.1744|
0006c6  7026              STRB     r6,[r4,#0]            ;1102
0006c8  e002              B        |L6.1744|
0006ca  7026              STRB     r6,[r4,#0]            ;1107
0006cc  e000              B        |L6.1744|
0006ce  7026              STRB     r6,[r4,#0]            ;1112
                  |L6.1744|
0006d0  202b              MOVS     r0,#0x2b              ;1117
0006d2  7028              STRB     r0,[r5,#0]            ;1117
0006d4  e504              B        |L6.224|
                  |L6.1750|
0006d6  4606              MOV      r6,r0                 ;1123
0006d8  f44f6110          MOV      r1,#0x900             ;1123
0006dc  4610              MOV      r0,r2                 ;1123
0006de  f7fffffe          BL       WM_GetDialogItem
0006e2  4681              MOV      r9,r0                 ;1123
0006e4  f06f4170          MVN      r1,#0xf0000000        ;1124
0006e8  4648              MOV      r0,r9                 ;1124
0006ea  f7fffffe          BL       TEXT_SetBkColor
0006ee  f06f417f          MVN      r1,#0xff000000        ;1125
0006f2  4648              MOV      r0,r9                 ;1125
0006f4  f7fffffe          BL       TEXT_SetTextColor
0006f8  f6401101          MOV      r1,#0x901             ;1127
0006fc  6870              LDR      r0,[r6,#4]            ;1127  ; hWinset
0006fe  f7fffffe          BL       WM_GetDialogItem
000702  4606              MOV      r6,r0                 ;1127
000704  4947              LDR      r1,|L6.2084|
000706  4630              MOV      r0,r6                 ;1128
000708  f7fffffe          BL       TEXT_SetBkColor
00070c  2100              MOVS     r1,#0                 ;1129
00070e  4630              MOV      r0,r6                 ;1129
000710  f7fffffe          BL       TEXT_SetTextColor
000714  f89b0000          LDRB     r0,[r11,#0]           ;1131  ; b_type
000718  2806              CMP      r0,#6                 ;1131
00071a  d20f              BCS      |L6.1852|
00071c  e8dff000          TBB      [pc,r0]               ;1131
000720  0e030609          DCB      0x0e,0x03,0x06,0x09
000724  0b0d              DCB      0x0b,0x0d
000726  f8848000          STRB     r8,[r4,#0]            ;1135
00072a  e007              B        |L6.1852|
00072c  f8848000          STRB     r8,[r4,#0]            ;1140
000730  e004              B        |L6.1852|
000732  7027              STRB     r7,[r4,#0]            ;1145
000734  e002              B        |L6.1852|
000736  7027              STRB     r7,[r4,#0]            ;1150
000738  e000              B        |L6.1852|
00073a  7027              STRB     r7,[r4,#0]            ;1155
                  |L6.1852|
00073c  202c              MOVS     r0,#0x2c              ;1160
00073e  7028              STRB     r0,[r5,#0]            ;1160
000740  e4ce              B        |L6.224|
                  |L6.1858|
000742  4606              MOV      r6,r0                 ;1166
000744  f6401101          MOV      r1,#0x901             ;1166
000748  4610              MOV      r0,r2                 ;1166
00074a  f7fffffe          BL       WM_GetDialogItem
00074e  4607              MOV      r7,r0                 ;1166
000750  f06f4170          MVN      r1,#0xf0000000        ;1167
000754  4638              MOV      r0,r7                 ;1167
000756  f7fffffe          BL       TEXT_SetBkColor
00075a  f06f417f          MVN      r1,#0xff000000        ;1168
00075e  4638              MOV      r0,r7                 ;1168
000760  f7fffffe          BL       TEXT_SetTextColor
000764  f6401102          MOV      r1,#0x902             ;1170
000768  6870              LDR      r0,[r6,#4]            ;1170  ; hWinset
00076a  f7fffffe          BL       WM_GetDialogItem
00076e  4606              MOV      r6,r0                 ;1170
000770  492c              LDR      r1,|L6.2084|
000772  4630              MOV      r0,r6                 ;1171
000774  f7fffffe          BL       TEXT_SetBkColor
000778  2100              MOVS     r1,#0                 ;1172
00077a  4630              MOV      r0,r6                 ;1172
00077c  f7fffffe          BL       TEXT_SetTextColor
000780  f89b0000          LDRB     r0,[r11,#0]           ;1174  ; b_type
000784  2806              CMP      r0,#6                 ;1174
000786  d212              BCS      |L6.1966|
000788  e8dff000          TBB      [pc,r0]               ;1174
00078c  11030609          DCB      0x11,0x03,0x06,0x09
000790  0c0f              DCB      0x0c,0x0f
000792  f8849000          STRB     r9,[r4,#0]            ;1178
000796  e00a              B        |L6.1966|
000798  f8849000          STRB     r9,[r4,#0]            ;1183
00079c  e007              B        |L6.1966|
00079e  f8849000          STRB     r9,[r4,#0]            ;1188
0007a2  e004              B        |L6.1966|
0007a4  f8848000          STRB     r8,[r4,#0]            ;1193
0007a8  e001              B        |L6.1966|
0007aa  f8848000          STRB     r8,[r4,#0]            ;1198
                  |L6.1966|
0007ae  202d              MOVS     r0,#0x2d              ;1203
0007b0  7028              STRB     r0,[r5,#0]            ;1203
0007b2  e495              B        |L6.224|
                  |L6.1972|
0007b4  4606              MOV      r6,r0                 ;1209
0007b6  f6401102          MOV      r1,#0x902             ;1209
0007ba  4610              MOV      r0,r2                 ;1209
0007bc  f7fffffe          BL       WM_GetDialogItem
0007c0  4607              MOV      r7,r0                 ;1209
0007c2  f06f4170          MVN      r1,#0xf0000000        ;1210
0007c6  4638              MOV      r0,r7                 ;1210
0007c8  f7fffffe          BL       TEXT_SetBkColor
0007cc  f06f417f          MVN      r1,#0xff000000        ;1211
0007d0  4638              MOV      r0,r7                 ;1211
0007d2  f7fffffe          BL       TEXT_SetTextColor
0007d6  f6401103          MOV      r1,#0x903             ;1213
0007da  6870              LDR      r0,[r6,#4]            ;1213  ; hWinset
0007dc  f7fffffe          BL       WM_GetDialogItem
0007e0  4606              MOV      r6,r0                 ;1213
0007e2  4910              LDR      r1,|L6.2084|
0007e4  4630              MOV      r0,r6                 ;1214
0007e6  f7fffffe          BL       TEXT_SetBkColor
0007ea  2100              MOVS     r1,#0                 ;1215
0007ec  4630              MOV      r0,r6                 ;1215
0007ee  f7fffffe          BL       TEXT_SetTextColor
0007f2  f89b0000          LDRB     r0,[r11,#0]           ;1217  ; b_type
0007f6  2806              CMP      r0,#6                 ;1217
0007f8  d224              BCS      |L6.2116|
0007fa  e8dff000          TBB      [pc,r0]               ;1217
0007fe  2303              DCB      0x23,0x03
000800  061b1e21          DCB      0x06,0x1b,0x1e,0x21
000804  f884a000          STRB     r10,[r4,#0]           ;1221
000808  e01c              B        |L6.2116|
00080a  f884a000          STRB     r10,[r4,#0]           ;1226
00080e  e019              B        |L6.2116|
                  |L6.2064|
                          DCD      0x00013880
                  |L6.2068|
000814  38302e30          DCB      "80.00",0
000818  3000    
00081a  00                DCB      0
00081b  00                DCB      0
                  |L6.2076|
00081c  252e3366          DCB      "%.3f",0
000820  00      
000821  00                DCB      0
000822  00                DCB      0
000823  00                DCB      0
                  |L6.2084|
                          DCD      0x00bfffff
                  |L6.2088|
                          DCD      set_limit
                  |L6.2092|
                          DCD      bit
                  |L6.2096|
                          DCD      dot_flag
000834  f884a000          STRB     r10,[r4,#0]           ;1231
000838  e004              B        |L6.2116|
00083a  f884a000          STRB     r10,[r4,#0]           ;1236
00083e  e001              B        |L6.2116|
000840  f8849000          STRB     r9,[r4,#0]            ;1241
                  |L6.2116|
000844  202e              MOVS     r0,#0x2e              ;1246
000846  7028              STRB     r0,[r5,#0]            ;1246
000848  e44a              B        |L6.224|
                  |L6.2122|
00084a  f6401103          MOV      r1,#0x903             ;1252
00084e  4610              MOV      r0,r2                 ;1252
000850  f7fffffe          BL       WM_GetDialogItem
000854  9001              STR      r0,[sp,#4]            ;1252
000856  f06f4170          MVN      r1,#0xf0000000        ;1253
00085a  9801              LDR      r0,[sp,#4]            ;1253
00085c  f7fffffe          BL       TEXT_SetBkColor
000860  f06f417f          MVN      r1,#0xff000000        ;1254
000864  9801              LDR      r0,[sp,#4]            ;1254
000866  f7fffffe          BL       TEXT_SetTextColor
00086a  4813              LDR      r0,|L6.2232|
00086c  f640019f          MOV      r1,#0x89f             ;1256
000870  6840              LDR      r0,[r0,#4]            ;1256  ; hWinset
000872  f7fffffe          BL       WM_GetDialogItem
000876  9001              STR      r0,[sp,#4]            ;1256
000878  4910              LDR      r1,|L6.2236|
00087a  9801              LDR      r0,[sp,#4]            ;1257
00087c  f7fffffe          BL       TEXT_SetBkColor
000880  2100              MOVS     r1,#0                 ;1258
000882  9801              LDR      r0,[sp,#4]            ;1258
000884  f7fffffe          BL       TEXT_SetTextColor
000888  f89b0000          LDRB     r0,[r11,#0]           ;1260  ; b_type
00088c  2806              CMP      r0,#6                 ;1260
00088e  d210              BCS      |L6.2226|
000890  e8dff000          TBB      [pc,r0]               ;1260
000894  0f030507          DCB      0x0f,0x03,0x05,0x07
000898  0a0d              DCB      0x0a,0x0d
00089a  7026              STRB     r6,[r4,#0]            ;1264
00089c  e009              B        |L6.2226|
00089e  7027              STRB     r7,[r4,#0]            ;1269
0008a0  e007              B        |L6.2226|
0008a2  f8848000          STRB     r8,[r4,#0]            ;1274
0008a6  e004              B        |L6.2226|
0008a8  f8849000          STRB     r9,[r4,#0]            ;1279
0008ac  e001              B        |L6.2226|
0008ae  f884a000          STRB     r10,[r4,#0]           ;1284
                  |L6.2226|
0008b2  202a              MOVS     r0,#0x2a              ;1289
0008b4  7028              STRB     r0,[r5,#0]            ;1289
0008b6  e413              B        |L6.224|
;;;1297   
                          ENDP

                  |L6.2232|
                          DCD      ||.data||
                  |L6.2236|
                          DCD      0x00bfffff

                          AREA ||i.SET_OP_LEFT||, CODE, READONLY, ALIGN=2

                  SET_OP_LEFT PROC
;;;1994   
;;;1995   void SET_OP_LEFT(void) {
000000  e92d5ff0          PUSH     {r4-r12,lr}
;;;1996                   switch(set_sw){
000004  4cc6              LDR      r4,|L7.800|
000006  7821              LDRB     r1,[r4,#0]  ; set_sw
;;;1997                       case set_1:
;;;1998                       {
;;;1999                           WM_HWIN hItem;
;;;2000   //                        WM_InvalidateWindow(hWinset);
;;;2001                           hItem = WM_GetDialogItem(hWinset, ID_TEXT_21);
000008  48c6              LDR      r0,|L7.804|
00000a  f640062b          MOV      r6,#0x82b
;;;2002                           TEXT_SetBkColor(hItem,GUI_INVALID_COLOR);//ÈÄâÈ°πËÉåÊôØËâ≤ËÆæ‰∏∫ÈÄèÊòé
;;;2003                           TEXT_SetTextColor(hItem, GUI_WHITE);
;;;2004   
;;;2005                           hItem = WM_GetDialogItem(hWinset, ID_TEXT_31);
;;;2006                           TEXT_SetBkColor(hItem,0x00BFFFFF);//ÈÄâÈ°πËÉåÊôØËâ≤ËÆæ‰∏∫Á±≥Ëâ≤
;;;2007                           TEXT_SetTextColor(hItem, GUI_BLACK);
;;;2008                           
;;;2009                           set_sw = set_8; 
;;;2010                           break;
;;;2011                       }                        
;;;2012                       case set_2:
;;;2013                       {
;;;2014                           WM_HWIN hItem;
;;;2015   //                        WM_InvalidateWindow(hWinset);
;;;2016                           hItem = WM_GetDialogItem(hWinset, ID_TEXT_22);
00000e  1c77              ADDS     r7,r6,#1
;;;2017                           TEXT_SetBkColor(hItem,GUI_INVALID_COLOR);//ÈÄâÈ°πËÉåÊôØËâ≤ËÆæ‰∏∫ÈÄèÊòé
;;;2018                           TEXT_SetTextColor(hItem, GUI_WHITE);
;;;2019                  
;;;2020                           hItem = WM_GetDialogItem(hWinset, ID_TEXT_32);
;;;2021                           TEXT_SetBkColor(hItem,0x00BFFFFF);//ÈÄâÈ°πËÉåÊôØËâ≤ËÆæ‰∏∫Á±≥Ëâ≤
;;;2022                           TEXT_SetTextColor(hItem, GUI_BLACK);
;;;2023   
;;;2024                           set_sw = set_9;
;;;2025                           break;
;;;2026                       }
;;;2027                       case set_3:
;;;2028                       {
;;;2029                           WM_HWIN hItem;
;;;2030   //                        WM_InvalidateWindow(hWinset);
;;;2031                           hItem = WM_GetDialogItem(hWinset, ID_TEXT_23);
;;;2032                           TEXT_SetBkColor(hItem,GUI_INVALID_COLOR);//ÈÄâÈ°πËÉåÊôØËâ≤ËÆæ‰∏∫ÈÄèÊòé
;;;2033                            TEXT_SetTextColor(hItem, GUI_WHITE);
;;;2034                  
;;;2035                           hItem = WM_GetDialogItem(hWinset, ID_TEXT_90);
;;;2036                           TEXT_SetBkColor(hItem,0x00BFFFFF);//ÈÄâÈ°πËÉåÊôØËâ≤ËÆæ‰∏∫Á±≥Ëâ≤
;;;2037                           TEXT_SetTextColor(hItem, GUI_BLACK);
;;;2038   
;;;2039                           set_sw = set_42;
000010  2529              MOVS     r5,#0x29
000012  6842              LDR      r2,[r0,#4]            ;1996
000014  f6400a3c          MOV      r10,#0x83c            ;2020
000018  f640082d          MOV      r8,#0x82d             ;2031
00001c  f6400b9e          MOV      r11,#0x89e            ;2035
;;;2040                           break;
;;;2041                       }
;;;2042                       case set_4:
;;;2043                       {
;;;2044                           WM_HWIN hItem;
;;;2045   //                        WM_InvalidateWindow(hWinset);
;;;2046                           hItem = WM_GetDialogItem(hWinset, ID_TEXT_24);
000020  f640092e          MOV      r9,#0x82e
000024  2905              CMP      r1,#5                 ;1996
000026  d076              BEQ      |L7.278|
000028  dc06              BGT      |L7.56|
00002a  2905              CMP      r1,#5                 ;1996
00002c  d22b              BCS      |L7.134|
00002e  e8dff001          TBB      [pc,r1]               ;1996
000032  5175              DCB      0x51,0x75
000034  95b6d700          DCB      0x95,0xb6,0xd7,0x00
                  |L7.56|
000038  2908              CMP      r1,#8                 ;1996
00003a  d06d              BEQ      |L7.280|
00003c  dc25              BGT      |L7.138|
00003e  2906              CMP      r1,#6                 ;1996
000040  d06b              BEQ      |L7.282|
000042  2907              CMP      r1,#7                 ;1996
000044  d11f              BNE      |L7.134|
;;;2047                           TEXT_SetBkColor(hItem,GUI_INVALID_COLOR);//ÈÄâÈ°πËÉåÊôØËâ≤ËÆæ‰∏∫ÈÄèÊòé
;;;2048                           TEXT_SetTextColor(hItem, GUI_WHITE);
;;;2049                  
;;;2050                           hItem = WM_GetDialogItem(hWinset, ID_TEXT_133);
;;;2051                           TEXT_SetBkColor(hItem,0x00BFFFFF);//ÈÄâÈ°πËÉåÊôØËâ≤ËÆæ‰∏∫Á±≥Ëâ≤
;;;2052                           TEXT_SetTextColor(hItem, GUI_BLACK);
;;;2053   
;;;2054                           set_sw = set_73;
;;;2055                           break;
;;;2056                       }
;;;2057                       case set_5:
;;;2058                       {
;;;2059                           WM_HWIN hItem;
;;;2060   //                        WM_InvalidateWindow(hWinset);
;;;2061                           hItem = WM_GetDialogItem(hWinset, ID_TEXT_25);
;;;2062                           TEXT_SetBkColor(hItem,GUI_INVALID_COLOR);//ÈÄâÈ°πËÉåÊôØËâ≤ËÆæ‰∏∫ÈÄèÊòé
;;;2063                           TEXT_SetTextColor(hItem, GUI_WHITE);
;;;2064                  
;;;2065                           hItem = WM_GetDialogItem(hWinset, ID_TEXT_90);
;;;2066                           TEXT_SetBkColor(hItem,0x00BFFFFF);//ÈÄâÈ°πËÉåÊôØËâ≤ËÆæ‰∏∫Á±≥Ëâ≤
;;;2067                           TEXT_SetTextColor(hItem, GUI_BLACK);
;;;2068   
;;;2069                           set_sw = set_42;
;;;2070                           break;
;;;2071                       }
;;;2072                       case set_6:
;;;2073                       {
;;;2074                           WM_HWIN hItem;
;;;2075   //                        WM_InvalidateWindow(hWinset);
;;;2076                           hItem = WM_GetDialogItem(hWinset, ID_TEXT_26);
;;;2077                           TEXT_SetBkColor(hItem,GUI_INVALID_COLOR);//ÈÄâÈ°πËÉåÊôØËâ≤ËÆæ‰∏∫ÈÄèÊòé
;;;2078                           TEXT_SetTextColor(hItem, GUI_WHITE);
;;;2079                  
;;;2080                           hItem = WM_GetDialogItem(hWinset, ID_TEXT_90);
;;;2081                           TEXT_SetBkColor(hItem,0x00BFFFFF);//ÈÄâÈ°πËÉåÊôØËâ≤ËÆæ‰∏∫Á±≥Ëâ≤
;;;2082                           TEXT_SetTextColor(hItem, GUI_BLACK);
;;;2083   
;;;2084                           set_sw = set_42;
;;;2085                           break;
;;;2086                       }
;;;2087                       case set_7:
;;;2088                       {
;;;2089                           WM_HWIN hItem;
;;;2090   //                        WM_InvalidateWindow(hWinset);
;;;2091                           hItem = WM_GetDialogItem(hWinset, ID_TEXT_27);
;;;2092                           TEXT_SetBkColor(hItem,GUI_INVALID_COLOR);//ÈÄâÈ°πËÉåÊôØËâ≤ËÆæ‰∏∫ÈÄèÊòé
;;;2093                           TEXT_SetTextColor(hItem, GUI_WHITE);
;;;2094                  
;;;2095                           hItem = WM_GetDialogItem(hWinset, ID_TEXT_90);
;;;2096                           TEXT_SetBkColor(hItem,0x00BFFFFF);//ÈÄâÈ°πËÉåÊôØËâ≤ËÆæ‰∏∫Á±≥Ëâ≤
;;;2097                           TEXT_SetTextColor(hItem, GUI_BLACK);
;;;2098   
;;;2099                           set_sw = set_42;
;;;2100                           break;
;;;2101                       }
;;;2102                       case set_8:
;;;2103                       {
;;;2104                           WM_HWIN hItem;
;;;2105   //                        WM_InvalidateWindow(hWinset);
;;;2106                           hItem = WM_GetDialogItem(hWinset, ID_TEXT_31);
000046  4605              MOV      r5,r0
000048  f640013b          MOV      r1,#0x83b
00004c  4610              MOV      r0,r2
00004e  f7fffffe          BL       WM_GetDialogItem
000052  4607              MOV      r7,r0
;;;2107                           TEXT_SetBkColor(hItem,GUI_INVALID_COLOR);//ÈÄâÈ°πËÉåÊôØËâ≤ËÆæ‰∏∫ÈÄèÊòé
000054  f06f4170          MVN      r1,#0xf0000000
000058  4638              MOV      r0,r7
00005a  f7fffffe          BL       TEXT_SetBkColor
;;;2108                           TEXT_SetTextColor(hItem, GUI_WHITE);
00005e  f06f417f          MVN      r1,#0xff000000
000062  4638              MOV      r0,r7
000064  f7fffffe          BL       TEXT_SetTextColor
;;;2109                  
;;;2110                           hItem = WM_GetDialogItem(hWinset, ID_TEXT_21);
000068  4631              MOV      r1,r6
00006a  6868              LDR      r0,[r5,#4]  ; hWinset
00006c  f7fffffe          BL       WM_GetDialogItem
000070  4605              MOV      r5,r0
;;;2111                           TEXT_SetBkColor(hItem,0x00BFFFFF);//ÈÄâÈ°πËÉåÊôØËâ≤ËÆæ‰∏∫Á±≥Ëâ≤
000072  49ad              LDR      r1,|L7.808|
000074  4628              MOV      r0,r5
000076  f7fffffe          BL       TEXT_SetBkColor
;;;2112                           TEXT_SetTextColor(hItem, GUI_BLACK);
00007a  2100              MOVS     r1,#0
00007c  4628              MOV      r0,r5
00007e  f7fffffe          BL       TEXT_SetTextColor
;;;2113   
;;;2114                           set_sw = set_1;
000082  2000              MOVS     r0,#0
000084  7020              STRB     r0,[r4,#0]
                  |L7.134|
;;;2115                           break;
;;;2116                       }
;;;2117                       case set_9:
;;;2118                       {
;;;2119                           WM_HWIN hItem;
;;;2120   //                        WM_InvalidateWindow(hWinset);
;;;2121                           hItem = WM_GetDialogItem(hWinset, ID_TEXT_32);
;;;2122                           TEXT_SetBkColor(hItem,GUI_INVALID_COLOR);//ÈÄâÈ°πËÉåÊôØËâ≤ËÆæ‰∏∫ÈÄèÊòé
;;;2123                           TEXT_SetTextColor(hItem, GUI_WHITE);
;;;2124                  
;;;2125                           hItem = WM_GetDialogItem(hWinset, ID_TEXT_22);
;;;2126                           TEXT_SetBkColor(hItem,0x00BFFFFF);//ÈÄâÈ°πËÉåÊôØËâ≤ËÆæ‰∏∫Á±≥Ëâ≤
;;;2127                           TEXT_SetTextColor(hItem, GUI_BLACK);
;;;2128   
;;;2129                           set_sw = set_2;
;;;2130                           break;
;;;2131                       }
;;;2132                       case set_42:
;;;2133                       {
;;;2134                           WM_HWIN hItem;
;;;2135   //                        WM_InvalidateWindow(hWinset);
;;;2136                           hItem = WM_GetDialogItem(hWinset, ID_TEXT_90);
;;;2137                           TEXT_SetBkColor(hItem,GUI_INVALID_COLOR);//ÈÄâÈ°πËÉåÊôØËâ≤ËÆæ‰∏∫ÈÄèÊòé
;;;2138                           TEXT_SetTextColor(hItem, GUI_WHITE);
;;;2139                  
;;;2140                           hItem = WM_GetDialogItem(hWinset, ID_TEXT_23);
;;;2141                           TEXT_SetBkColor(hItem,0x00BFFFFF);//ÈÄâÈ°πËÉåÊôØËâ≤ËÆæ‰∏∫Á±≥Ëâ≤
;;;2142                           TEXT_SetTextColor(hItem, GUI_BLACK);
;;;2143   
;;;2144                           set_sw = set_3;
;;;2145                           break;
;;;2146                       }
;;;2147                       case set_73:
;;;2148                       {
;;;2149                           WM_HWIN hItem;
;;;2150   //                        WM_InvalidateWindow(hWinset);
;;;2151                           hItem = WM_GetDialogItem(hWinset, ID_TEXT_133);
;;;2152                           TEXT_SetBkColor(hItem,GUI_INVALID_COLOR);//ÈÄâÈ°πËÉåÊôØËâ≤ËÆæ‰∏∫ÈÄèÊòé
;;;2153                           TEXT_SetTextColor(hItem, GUI_WHITE);
;;;2154                  
;;;2155                           hItem = WM_GetDialogItem(hWinset, ID_TEXT_24);
;;;2156                           TEXT_SetBkColor(hItem,0x00BFFFFF);//ÈÄâÈ°πËÉåÊôØËâ≤ËÆæ‰∏∫Á±≥Ëâ≤
;;;2157                           TEXT_SetTextColor(hItem, GUI_BLACK);
;;;2158   
;;;2159                           set_sw = set_4;
;;;2160                           break;
;;;2161                       }
;;;2162   //                     case set_11:
;;;2163   //                     {
;;;2164   //                         WM_HWIN hItem;
;;;2165   //                         WM_InvalidateWindow(hWinset);
;;;2166   //                         hItem = WM_GetDialogItem(hWinset, ID_TEXT_34);
;;;2167   //                         TEXT_SetBkColor(hItem,GUI_INVALID_COLOR);//ÈÄâÈ°πËÉåÊôØËâ≤ËÆæ‰∏∫ÈÄèÊòé
;;;2168   //                
;;;2169   //                         hItem = WM_GetDialogItem(hWinset, ID_TEXT_24);
;;;2170   //                         TEXT_SetBkColor(hItem,0x00BFFFFF);//ÈÄâÈ°πËÉåÊôØËâ≤ËÆæ‰∏∫Á±≥Ëâ≤
;;;2171   
;;;2172   //                         set_sw = set_4;
;;;2173   //                         break;
;;;2174   //                     }
;;;2175                       default: break;
;;;2176                   }
;;;2177   //                return set_sw;
;;;2178   }
000086  e8bd9ff0          POP      {r4-r12,pc}
                  |L7.138|
00008a  2929              CMP      r1,#0x29              ;1996
00008c  d07e              BEQ      |L7.396|
00008e  2948              CMP      r1,#0x48              ;1996
000090  d1f9              BNE      |L7.134|
000092  4605              MOV      r5,r0                 ;2151
000094  f6401122          MOV      r1,#0x922             ;2151
000098  4610              MOV      r0,r2                 ;2151
00009a  f7fffffe          BL       WM_GetDialogItem
00009e  4606              MOV      r6,r0                 ;2151
0000a0  f06f4170          MVN      r1,#0xf0000000        ;2152
0000a4  4630              MOV      r0,r6                 ;2152
0000a6  f7fffffe          BL       TEXT_SetBkColor
0000aa  f06f417f          MVN      r1,#0xff000000        ;2153
0000ae  4630              MOV      r0,r6                 ;2153
0000b0  f7fffffe          BL       TEXT_SetTextColor
0000b4  4649              MOV      r1,r9                 ;2155
0000b6  6868              LDR      r0,[r5,#4]            ;2155  ; hWinset
0000b8  f7fffffe          BL       WM_GetDialogItem
0000bc  4605              MOV      r5,r0                 ;2155
0000be  499a              LDR      r1,|L7.808|
0000c0  4628              MOV      r0,r5                 ;2156
0000c2  f7fffffe          BL       TEXT_SetBkColor
0000c6  2100              MOVS     r1,#0                 ;2157
0000c8  4628              MOV      r0,r5                 ;2157
0000ca  f7fffffe          BL       TEXT_SetTextColor
0000ce  2003              MOVS     r0,#3                 ;2159
0000d0  7020              STRB     r0,[r4,#0]            ;2159
0000d2  e7d8              B        |L7.134|
0000d4  4605              MOV      r5,r0                 ;2001
0000d6  4631              MOV      r1,r6                 ;2001
0000d8  4610              MOV      r0,r2                 ;2001
0000da  f7fffffe          BL       WM_GetDialogItem
0000de  4606              MOV      r6,r0                 ;2001
0000e0  f06f4170          MVN      r1,#0xf0000000        ;2002
0000e4  4630              MOV      r0,r6                 ;2002
0000e6  f7fffffe          BL       TEXT_SetBkColor
0000ea  f06f417f          MVN      r1,#0xff000000        ;2003
0000ee  4630              MOV      r0,r6                 ;2003
0000f0  f7fffffe          BL       TEXT_SetTextColor
0000f4  f640013b          MOV      r1,#0x83b             ;2005
0000f8  6868              LDR      r0,[r5,#4]            ;2005  ; hWinset
0000fa  f7fffffe          BL       WM_GetDialogItem
0000fe  4605              MOV      r5,r0                 ;2005
000100  4989              LDR      r1,|L7.808|
000102  4628              MOV      r0,r5                 ;2006
000104  f7fffffe          BL       TEXT_SetBkColor
000108  2100              MOVS     r1,#0                 ;2007
00010a  4628              MOV      r0,r5                 ;2007
00010c  f7fffffe          BL       TEXT_SetTextColor
000110  2007              MOVS     r0,#7                 ;2009
000112  7020              STRB     r0,[r4,#0]            ;2009
000114  e7b7              B        |L7.134|
                  |L7.278|
000116  e083              B        |L7.544|
                  |L7.280|
000118  e0c2              B        |L7.672|
                  |L7.282|
00011a  e0a1              B        |L7.608|
00011c  4605              MOV      r5,r0                 ;2016
00011e  4639              MOV      r1,r7                 ;2016
000120  4610              MOV      r0,r2                 ;2016
000122  f7fffffe          BL       WM_GetDialogItem
000126  4606              MOV      r6,r0                 ;2016
000128  f06f4170          MVN      r1,#0xf0000000        ;2017
00012c  4630              MOV      r0,r6                 ;2017
00012e  f7fffffe          BL       TEXT_SetBkColor
000132  f06f417f          MVN      r1,#0xff000000        ;2018
000136  4630              MOV      r0,r6                 ;2018
000138  f7fffffe          BL       TEXT_SetTextColor
00013c  4651              MOV      r1,r10                ;2020
00013e  6868              LDR      r0,[r5,#4]            ;2020  ; hWinset
000140  f7fffffe          BL       WM_GetDialogItem
000144  4605              MOV      r5,r0                 ;2020
000146  4978              LDR      r1,|L7.808|
000148  4628              MOV      r0,r5                 ;2021
00014a  f7fffffe          BL       TEXT_SetBkColor
00014e  2100              MOVS     r1,#0                 ;2022
000150  4628              MOV      r0,r5                 ;2022
000152  f7fffffe          BL       TEXT_SetTextColor
000156  2008              MOVS     r0,#8                 ;2024
000158  7020              STRB     r0,[r4,#0]            ;2024
00015a  e794              B        |L7.134|
00015c  4606              MOV      r6,r0                 ;2031
00015e  4641              MOV      r1,r8                 ;2031
000160  4610              MOV      r0,r2                 ;2031
000162  f7fffffe          BL       WM_GetDialogItem
000166  4607              MOV      r7,r0                 ;2031
000168  f06f4170          MVN      r1,#0xf0000000        ;2032
00016c  4638              MOV      r0,r7                 ;2032
00016e  f7fffffe          BL       TEXT_SetBkColor
000172  f06f417f          MVN      r1,#0xff000000        ;2033
000176  4638              MOV      r0,r7                 ;2033
000178  f7fffffe          BL       TEXT_SetTextColor
00017c  4659              MOV      r1,r11                ;2035
00017e  6870              LDR      r0,[r6,#4]            ;2035  ; hWinset
000180  f7fffffe          BL       WM_GetDialogItem
000184  4606              MOV      r6,r0                 ;2035
000186  4968              LDR      r1,|L7.808|
000188  4630              MOV      r0,r6                 ;2036
00018a  e000              B        |L7.398|
                  |L7.396|
00018c  e0a8              B        |L7.736|
                  |L7.398|
00018e  f7fffffe          BL       TEXT_SetBkColor
000192  2100              MOVS     r1,#0                 ;2037
000194  4630              MOV      r0,r6                 ;2037
000196  f7fffffe          BL       TEXT_SetTextColor
00019a  7025              STRB     r5,[r4,#0]            ;2039
00019c  e773              B        |L7.134|
00019e  4605              MOV      r5,r0                 ;2046
0001a0  4649              MOV      r1,r9                 ;2046
0001a2  4610              MOV      r0,r2                 ;2046
0001a4  f7fffffe          BL       WM_GetDialogItem
0001a8  4606              MOV      r6,r0                 ;2046
0001aa  f06f4170          MVN      r1,#0xf0000000        ;2047
0001ae  4630              MOV      r0,r6                 ;2047
0001b0  f7fffffe          BL       TEXT_SetBkColor
0001b4  f06f417f          MVN      r1,#0xff000000        ;2048
0001b8  4630              MOV      r0,r6                 ;2048
0001ba  f7fffffe          BL       TEXT_SetTextColor
0001be  f6401122          MOV      r1,#0x922             ;2050
0001c2  6868              LDR      r0,[r5,#4]            ;2050  ; hWinset
0001c4  f7fffffe          BL       WM_GetDialogItem
0001c8  4605              MOV      r5,r0                 ;2050
0001ca  4957              LDR      r1,|L7.808|
0001cc  4628              MOV      r0,r5                 ;2051
0001ce  f7fffffe          BL       TEXT_SetBkColor
0001d2  2100              MOVS     r1,#0                 ;2052
0001d4  4628              MOV      r0,r5                 ;2052
0001d6  f7fffffe          BL       TEXT_SetTextColor
0001da  2048              MOVS     r0,#0x48              ;2054
0001dc  7020              STRB     r0,[r4,#0]            ;2054
0001de  e752              B        |L7.134|
0001e0  4606              MOV      r6,r0                 ;2061
0001e2  f640012f          MOV      r1,#0x82f             ;2061
0001e6  4610              MOV      r0,r2                 ;2061
0001e8  f7fffffe          BL       WM_GetDialogItem
0001ec  4607              MOV      r7,r0                 ;2061
0001ee  f06f4170          MVN      r1,#0xf0000000        ;2062
0001f2  4638              MOV      r0,r7                 ;2062
0001f4  f7fffffe          BL       TEXT_SetBkColor
0001f8  f06f417f          MVN      r1,#0xff000000        ;2063
0001fc  4638              MOV      r0,r7                 ;2063
0001fe  f7fffffe          BL       TEXT_SetTextColor
000202  4659              MOV      r1,r11                ;2065
000204  6870              LDR      r0,[r6,#4]            ;2065  ; hWinset
000206  f7fffffe          BL       WM_GetDialogItem
00020a  4606              MOV      r6,r0                 ;2065
00020c  4946              LDR      r1,|L7.808|
00020e  4630              MOV      r0,r6                 ;2066
000210  f7fffffe          BL       TEXT_SetBkColor
000214  2100              MOVS     r1,#0                 ;2067
000216  4630              MOV      r0,r6                 ;2067
000218  f7fffffe          BL       TEXT_SetTextColor
00021c  7025              STRB     r5,[r4,#0]            ;2069
00021e  e732              B        |L7.134|
                  |L7.544|
000220  4606              MOV      r6,r0                 ;2076
000222  f44f6103          MOV      r1,#0x830             ;2076
000226  4610              MOV      r0,r2                 ;2076
000228  f7fffffe          BL       WM_GetDialogItem
00022c  4607              MOV      r7,r0                 ;2076
00022e  f06f4170          MVN      r1,#0xf0000000        ;2077
000232  4638              MOV      r0,r7                 ;2077
000234  f7fffffe          BL       TEXT_SetBkColor
000238  f06f417f          MVN      r1,#0xff000000        ;2078
00023c  4638              MOV      r0,r7                 ;2078
00023e  f7fffffe          BL       TEXT_SetTextColor
000242  4659              MOV      r1,r11                ;2080
000244  6870              LDR      r0,[r6,#4]            ;2080  ; hWinset
000246  f7fffffe          BL       WM_GetDialogItem
00024a  4606              MOV      r6,r0                 ;2080
00024c  4936              LDR      r1,|L7.808|
00024e  4630              MOV      r0,r6                 ;2081
000250  f7fffffe          BL       TEXT_SetBkColor
000254  2100              MOVS     r1,#0                 ;2082
000256  4630              MOV      r0,r6                 ;2082
000258  f7fffffe          BL       TEXT_SetTextColor
00025c  7025              STRB     r5,[r4,#0]            ;2084
00025e  e712              B        |L7.134|
                  |L7.608|
000260  4606              MOV      r6,r0                 ;2091
000262  f6400131          MOV      r1,#0x831             ;2091
000266  4610              MOV      r0,r2                 ;2091
000268  f7fffffe          BL       WM_GetDialogItem
00026c  4607              MOV      r7,r0                 ;2091
00026e  f06f4170          MVN      r1,#0xf0000000        ;2092
000272  4638              MOV      r0,r7                 ;2092
000274  f7fffffe          BL       TEXT_SetBkColor
000278  f06f417f          MVN      r1,#0xff000000        ;2093
00027c  4638              MOV      r0,r7                 ;2093
00027e  f7fffffe          BL       TEXT_SetTextColor
000282  4659              MOV      r1,r11                ;2095
000284  6870              LDR      r0,[r6,#4]            ;2095  ; hWinset
000286  f7fffffe          BL       WM_GetDialogItem
00028a  4606              MOV      r6,r0                 ;2095
00028c  4926              LDR      r1,|L7.808|
00028e  4630              MOV      r0,r6                 ;2096
000290  f7fffffe          BL       TEXT_SetBkColor
000294  2100              MOVS     r1,#0                 ;2097
000296  4630              MOV      r0,r6                 ;2097
000298  f7fffffe          BL       TEXT_SetTextColor
00029c  7025              STRB     r5,[r4,#0]            ;2099
00029e  e6f2              B        |L7.134|
                  |L7.672|
0002a0  4605              MOV      r5,r0                 ;2121
0002a2  4651              MOV      r1,r10                ;2121
0002a4  4610              MOV      r0,r2                 ;2121
0002a6  f7fffffe          BL       WM_GetDialogItem
0002aa  4606              MOV      r6,r0                 ;2121
0002ac  f06f4170          MVN      r1,#0xf0000000        ;2122
0002b0  4630              MOV      r0,r6                 ;2122
0002b2  f7fffffe          BL       TEXT_SetBkColor
0002b6  f06f417f          MVN      r1,#0xff000000        ;2123
0002ba  4630              MOV      r0,r6                 ;2123
0002bc  f7fffffe          BL       TEXT_SetTextColor
0002c0  4639              MOV      r1,r7                 ;2125
0002c2  6868              LDR      r0,[r5,#4]            ;2125  ; hWinset
0002c4  f7fffffe          BL       WM_GetDialogItem
0002c8  4605              MOV      r5,r0                 ;2125
0002ca  4917              LDR      r1,|L7.808|
0002cc  4628              MOV      r0,r5                 ;2126
0002ce  f7fffffe          BL       TEXT_SetBkColor
0002d2  2100              MOVS     r1,#0                 ;2127
0002d4  4628              MOV      r0,r5                 ;2127
0002d6  f7fffffe          BL       TEXT_SetTextColor
0002da  2001              MOVS     r0,#1                 ;2129
0002dc  7020              STRB     r0,[r4,#0]            ;2129
0002de  e6d2              B        |L7.134|
                  |L7.736|
0002e0  4605              MOV      r5,r0                 ;2136
0002e2  4659              MOV      r1,r11                ;2136
0002e4  4610              MOV      r0,r2                 ;2136
0002e6  f7fffffe          BL       WM_GetDialogItem
0002ea  4606              MOV      r6,r0                 ;2136
0002ec  f06f4170          MVN      r1,#0xf0000000        ;2137
0002f0  4630              MOV      r0,r6                 ;2137
0002f2  f7fffffe          BL       TEXT_SetBkColor
0002f6  f06f417f          MVN      r1,#0xff000000        ;2138
0002fa  4630              MOV      r0,r6                 ;2138
0002fc  f7fffffe          BL       TEXT_SetTextColor
000300  4641              MOV      r1,r8                 ;2140
000302  6868              LDR      r0,[r5,#4]            ;2140  ; hWinset
000304  f7fffffe          BL       WM_GetDialogItem
000308  4605              MOV      r5,r0                 ;2140
00030a  4907              LDR      r1,|L7.808|
00030c  4628              MOV      r0,r5                 ;2141
00030e  f7fffffe          BL       TEXT_SetBkColor
000312  2100              MOVS     r1,#0                 ;2142
000314  4628              MOV      r0,r5                 ;2142
000316  f7fffffe          BL       TEXT_SetTextColor
00031a  2002              MOVS     r0,#2                 ;2144
00031c  7020              STRB     r0,[r4,#0]            ;2144
00031e  e6b2              B        |L7.134|
;;;2179   
                          ENDP

                  |L7.800|
                          DCD      set_sw
                  |L7.804|
                          DCD      ||.data||
                  |L7.808|
                          DCD      0x00bfffff

                          AREA ||i.SET_OP_RIGHT||, CODE, READONLY, ALIGN=2

                  SET_OP_RIGHT PROC
;;;1807   
;;;1808   void SET_OP_RIGHT(void) {
000000  e92d5ff0          PUSH     {r4-r12,lr}
;;;1809                   switch(set_sw){
000004  4cc6              LDR      r4,|L8.800|
000006  7821              LDRB     r1,[r4,#0]  ; set_sw
;;;1810                       case set_1:
;;;1811                       {
;;;1812                           WM_HWIN hItem;
;;;1813   //                        WM_InvalidateWindow(hWinset);
;;;1814                           hItem = WM_GetDialogItem(hWinset, ID_TEXT_21);
000008  48c6              LDR      r0,|L8.804|
00000a  f640062b          MOV      r6,#0x82b
;;;1815                           TEXT_SetBkColor(hItem,GUI_INVALID_COLOR);//ÈÄâÈ°πËÉåÊôØËâ≤ËÆæ‰∏∫ÈÄèÊòé
;;;1816                           TEXT_SetTextColor(hItem, GUI_WHITE);
;;;1817   
;;;1818                           hItem = WM_GetDialogItem(hWinset, ID_TEXT_31);
;;;1819                           TEXT_SetBkColor(hItem,0x00BFFFFF);//ÈÄâÈ°πËÉåÊôØËâ≤ËÆæ‰∏∫Á±≥Ëâ≤
;;;1820                           TEXT_SetTextColor(hItem, GUI_BLACK);
;;;1821                           
;;;1822                           set_sw = set_8; 
;;;1823                           break;
;;;1824                       }                        
;;;1825                       case set_2:
;;;1826                       {
;;;1827                           WM_HWIN hItem;
;;;1828   //                        WM_InvalidateWindow(hWinset);
;;;1829                           hItem = WM_GetDialogItem(hWinset, ID_TEXT_22);
00000e  1c77              ADDS     r7,r6,#1
;;;1830                           TEXT_SetBkColor(hItem,GUI_INVALID_COLOR);//ÈÄâÈ°πËÉåÊôØËâ≤ËÆæ‰∏∫ÈÄèÊòé
;;;1831                           TEXT_SetTextColor(hItem, GUI_WHITE);
;;;1832                  
;;;1833                           hItem = WM_GetDialogItem(hWinset, ID_TEXT_32);
;;;1834                           TEXT_SetBkColor(hItem,0x00BFFFFF);//ÈÄâÈ°πËÉåÊôØËâ≤ËÆæ‰∏∫Á±≥Ëâ≤
;;;1835                           TEXT_SetTextColor(hItem, GUI_BLACK);
;;;1836   
;;;1837                           set_sw = set_9;
;;;1838                           break;
;;;1839                       }
;;;1840                       case set_3:
;;;1841                       {
;;;1842                           WM_HWIN hItem;
;;;1843   //                        WM_InvalidateWindow(hWinset);
;;;1844                           hItem = WM_GetDialogItem(hWinset, ID_TEXT_23);
;;;1845                           TEXT_SetBkColor(hItem,GUI_INVALID_COLOR);//ÈÄâÈ°πËÉåÊôØËâ≤ËÆæ‰∏∫ÈÄèÊòé
;;;1846                           TEXT_SetTextColor(hItem, GUI_WHITE);
;;;1847                  
;;;1848                           hItem = WM_GetDialogItem(hWinset, ID_TEXT_90);
;;;1849                           TEXT_SetBkColor(hItem,0x00BFFFFF);//ÈÄâÈ°πËÉåÊôØËâ≤ËÆæ‰∏∫Á±≥Ëâ≤
;;;1850                           TEXT_SetTextColor(hItem, GUI_BLACK);
;;;1851   
;;;1852                           set_sw = set_42;
000010  2529              MOVS     r5,#0x29
000012  6842              LDR      r2,[r0,#4]            ;1809
000014  f6400a3c          MOV      r10,#0x83c            ;1833
000018  f640082d          MOV      r8,#0x82d             ;1844
00001c  f6400b9e          MOV      r11,#0x89e            ;1848
;;;1853                           break;
;;;1854                       }
;;;1855                       case set_4:
;;;1856                       {
;;;1857                           WM_HWIN hItem;
;;;1858   //                        WM_InvalidateWindow(hWinset);
;;;1859                           hItem = WM_GetDialogItem(hWinset, ID_TEXT_24);
000020  f640092e          MOV      r9,#0x82e
000024  2905              CMP      r1,#5                 ;1809
000026  d076              BEQ      |L8.278|
000028  dc06              BGT      |L8.56|
00002a  2905              CMP      r1,#5                 ;1809
00002c  d22b              BCS      |L8.134|
00002e  e8dff001          TBB      [pc,r1]               ;1809
000032  5175              DCB      0x51,0x75
000034  95b6d700          DCB      0x95,0xb6,0xd7,0x00
                  |L8.56|
000038  2908              CMP      r1,#8                 ;1809
00003a  d06d              BEQ      |L8.280|
00003c  dc25              BGT      |L8.138|
00003e  2906              CMP      r1,#6                 ;1809
000040  d06b              BEQ      |L8.282|
000042  2907              CMP      r1,#7                 ;1809
000044  d11f              BNE      |L8.134|
;;;1860                           TEXT_SetBkColor(hItem,GUI_INVALID_COLOR);//ÈÄâÈ°πËÉåÊôØËâ≤ËÆæ‰∏∫ÈÄèÊòé
;;;1861                           TEXT_SetTextColor(hItem, GUI_WHITE);
;;;1862                  
;;;1863                           hItem = WM_GetDialogItem(hWinset, ID_TEXT_133);
;;;1864                           TEXT_SetBkColor(hItem,0x00BFFFFF);//ÈÄâÈ°πËÉåÊôØËâ≤ËÆæ‰∏∫Á±≥Ëâ≤
;;;1865                           TEXT_SetTextColor(hItem, GUI_BLACK);
;;;1866                           
;;;1867                           set_sw = set_73;
;;;1868                           break;                                 
;;;1869                       }
;;;1870                       case set_5:
;;;1871                       {
;;;1872                           WM_HWIN hItem;
;;;1873   //                        WM_InvalidateWindow(hWinset);
;;;1874                           hItem = WM_GetDialogItem(hWinset, ID_TEXT_25);
;;;1875                           TEXT_SetBkColor(hItem,GUI_INVALID_COLOR);//ÈÄâÈ°πËÉåÊôØËâ≤ËÆæ‰∏∫ÈÄèÊòé
;;;1876                           TEXT_SetTextColor(hItem, GUI_WHITE);
;;;1877                  
;;;1878                           hItem = WM_GetDialogItem(hWinset, ID_TEXT_90);
;;;1879                           TEXT_SetBkColor(hItem,0x00BFFFFF);//ÈÄâÈ°πËÉåÊôØËâ≤ËÆæ‰∏∫Á±≥Ëâ≤
;;;1880                           TEXT_SetTextColor(hItem, GUI_BLACK);
;;;1881   
;;;1882                           set_sw = set_42;
;;;1883                           break;
;;;1884                       }
;;;1885                       case set_6:
;;;1886                       {
;;;1887                           WM_HWIN hItem;
;;;1888   //                        WM_InvalidateWindow(hWinset);
;;;1889                           hItem = WM_GetDialogItem(hWinset, ID_TEXT_26);
;;;1890                           TEXT_SetBkColor(hItem,GUI_INVALID_COLOR);//ÈÄâÈ°πËÉåÊôØËâ≤ËÆæ‰∏∫ÈÄèÊòé
;;;1891                           TEXT_SetTextColor(hItem, GUI_WHITE);
;;;1892                  
;;;1893                           hItem = WM_GetDialogItem(hWinset, ID_TEXT_90);
;;;1894                           TEXT_SetBkColor(hItem,0x00BFFFFF);//ÈÄâÈ°πËÉåÊôØËâ≤ËÆæ‰∏∫Á±≥Ëâ≤
;;;1895                           TEXT_SetTextColor(hItem, GUI_BLACK);
;;;1896   
;;;1897                           set_sw = set_42;
;;;1898                           break;
;;;1899                       }
;;;1900                       case set_7:
;;;1901                       {
;;;1902                           WM_HWIN hItem;
;;;1903   //                        WM_InvalidateWindow(hWinset);
;;;1904                           hItem = WM_GetDialogItem(hWinset, ID_TEXT_27);
;;;1905                           TEXT_SetBkColor(hItem,GUI_INVALID_COLOR);//ÈÄâÈ°πËÉåÊôØËâ≤ËÆæ‰∏∫ÈÄèÊòé
;;;1906                           TEXT_SetTextColor(hItem, GUI_WHITE);
;;;1907                  
;;;1908                           hItem = WM_GetDialogItem(hWinset, ID_TEXT_90);
;;;1909                           TEXT_SetBkColor(hItem,0x00BFFFFF);//ÈÄâÈ°πËÉåÊôØËâ≤ËÆæ‰∏∫Á±≥Ëâ≤
;;;1910                           TEXT_SetTextColor(hItem, GUI_BLACK);
;;;1911   
;;;1912                           set_sw = set_42;
;;;1913                           break;
;;;1914                       }
;;;1915                       case set_8:
;;;1916                       {
;;;1917                           WM_HWIN hItem;
;;;1918   //                        WM_InvalidateWindow(hWinset);
;;;1919                           hItem = WM_GetDialogItem(hWinset, ID_TEXT_31);
000046  4605              MOV      r5,r0
000048  f640013b          MOV      r1,#0x83b
00004c  4610              MOV      r0,r2
00004e  f7fffffe          BL       WM_GetDialogItem
000052  4607              MOV      r7,r0
;;;1920                           TEXT_SetBkColor(hItem,GUI_INVALID_COLOR);//ÈÄâÈ°πËÉåÊôØËâ≤ËÆæ‰∏∫ÈÄèÊòé
000054  f06f4170          MVN      r1,#0xf0000000
000058  4638              MOV      r0,r7
00005a  f7fffffe          BL       TEXT_SetBkColor
;;;1921                           TEXT_SetTextColor(hItem, GUI_WHITE);
00005e  f06f417f          MVN      r1,#0xff000000
000062  4638              MOV      r0,r7
000064  f7fffffe          BL       TEXT_SetTextColor
;;;1922                  
;;;1923                           hItem = WM_GetDialogItem(hWinset, ID_TEXT_21);
000068  4631              MOV      r1,r6
00006a  6868              LDR      r0,[r5,#4]  ; hWinset
00006c  f7fffffe          BL       WM_GetDialogItem
000070  4605              MOV      r5,r0
;;;1924                           TEXT_SetBkColor(hItem,0x00BFFFFF);//ÈÄâÈ°πËÉåÊôØËâ≤ËÆæ‰∏∫Á±≥Ëâ≤
000072  49ad              LDR      r1,|L8.808|
000074  4628              MOV      r0,r5
000076  f7fffffe          BL       TEXT_SetBkColor
;;;1925                           TEXT_SetTextColor(hItem, GUI_BLACK);
00007a  2100              MOVS     r1,#0
00007c  4628              MOV      r0,r5
00007e  f7fffffe          BL       TEXT_SetTextColor
;;;1926   
;;;1927                           set_sw = set_1;
000082  2000              MOVS     r0,#0
000084  7020              STRB     r0,[r4,#0]
                  |L8.134|
;;;1928                           break;
;;;1929                       }
;;;1930                       case set_9:
;;;1931                       {
;;;1932                           WM_HWIN hItem;
;;;1933   //                        WM_InvalidateWindow(hWinset);
;;;1934                           hItem = WM_GetDialogItem(hWinset, ID_TEXT_32);
;;;1935                           TEXT_SetBkColor(hItem,GUI_INVALID_COLOR);//ÈÄâÈ°πËÉåÊôØËâ≤ËÆæ‰∏∫ÈÄèÊòé
;;;1936                           TEXT_SetTextColor(hItem, GUI_WHITE);
;;;1937                  
;;;1938                           hItem = WM_GetDialogItem(hWinset, ID_TEXT_22);
;;;1939                           TEXT_SetBkColor(hItem,0x00BFFFFF);//ÈÄâÈ°πËÉåÊôØËâ≤ËÆæ‰∏∫Á±≥Ëâ≤
;;;1940                           TEXT_SetTextColor(hItem, GUI_BLACK);
;;;1941   
;;;1942                           set_sw = set_2;
;;;1943                           break;
;;;1944                       }
;;;1945                       case set_42:
;;;1946                       {
;;;1947                           WM_HWIN hItem;
;;;1948   //                        WM_InvalidateWindow(hWinset);
;;;1949                           hItem = WM_GetDialogItem(hWinset, ID_TEXT_90);
;;;1950                           TEXT_SetBkColor(hItem,GUI_INVALID_COLOR);//ÈÄâÈ°πËÉåÊôØËâ≤ËÆæ‰∏∫ÈÄèÊòé
;;;1951                           TEXT_SetTextColor(hItem, GUI_WHITE);
;;;1952                  
;;;1953                           hItem = WM_GetDialogItem(hWinset, ID_TEXT_23);
;;;1954                           TEXT_SetBkColor(hItem,0x00BFFFFF);//ÈÄâÈ°πËÉåÊôØËâ≤ËÆæ‰∏∫Á±≥Ëâ≤
;;;1955                           TEXT_SetTextColor(hItem, GUI_BLACK);
;;;1956   
;;;1957                           set_sw = set_3;
;;;1958                           break;
;;;1959                       }
;;;1960                       case set_73:
;;;1961                       {
;;;1962                           WM_HWIN hItem;
;;;1963   //                        WM_InvalidateWindow(hWinset);
;;;1964                           hItem = WM_GetDialogItem(hWinset, ID_TEXT_133);
;;;1965                           TEXT_SetBkColor(hItem,GUI_INVALID_COLOR);//ÈÄâÈ°πËÉåÊôØËâ≤ËÆæ‰∏∫ÈÄèÊòé
;;;1966                           TEXT_SetTextColor(hItem, GUI_WHITE);
;;;1967                  
;;;1968                           hItem = WM_GetDialogItem(hWinset, ID_TEXT_24);
;;;1969                           TEXT_SetBkColor(hItem,0x00BFFFFF);//ÈÄâÈ°πËÉåÊôØËâ≤ËÆæ‰∏∫Á±≥Ëâ≤
;;;1970                           TEXT_SetTextColor(hItem, GUI_BLACK);
;;;1971   
;;;1972                           set_sw = set_4;
;;;1973                           break;
;;;1974                       }
;;;1975   //                     case set_11:
;;;1976   //                     {
;;;1977   //                         WM_HWIN hItem;
;;;1978   //                         WM_InvalidateWindow(hWinset);
;;;1979   //                         hItem = WM_GetDialogItem(hWinset, ID_TEXT_34);
;;;1980   //                         TEXT_SetBkColor(hItem,GUI_INVALID_COLOR);//ÈÄâÈ°πËÉåÊôØËâ≤ËÆæ‰∏∫ÈÄèÊòé
;;;1981   //                
;;;1982   //                         hItem = WM_GetDialogItem(hWinset, ID_TEXT_24);
;;;1983   //                         TEXT_SetBkColor(hItem,0x00BFFFFF);//ÈÄâÈ°πËÉåÊôØËâ≤ËÆæ‰∏∫Á±≥Ëâ≤
;;;1984   
;;;1985   //                         set_sw = set_4;
;;;1986   //                         break;
;;;1987   //                     }
;;;1988                       default: break;
;;;1989                   }
;;;1990   //                return set_sw;
;;;1991   }
000086  e8bd9ff0          POP      {r4-r12,pc}
                  |L8.138|
00008a  2929              CMP      r1,#0x29              ;1809
00008c  d07e              BEQ      |L8.396|
00008e  2948              CMP      r1,#0x48              ;1809
000090  d1f9              BNE      |L8.134|
000092  4605              MOV      r5,r0                 ;1964
000094  f6401122          MOV      r1,#0x922             ;1964
000098  4610              MOV      r0,r2                 ;1964
00009a  f7fffffe          BL       WM_GetDialogItem
00009e  4606              MOV      r6,r0                 ;1964
0000a0  f06f4170          MVN      r1,#0xf0000000        ;1965
0000a4  4630              MOV      r0,r6                 ;1965
0000a6  f7fffffe          BL       TEXT_SetBkColor
0000aa  f06f417f          MVN      r1,#0xff000000        ;1966
0000ae  4630              MOV      r0,r6                 ;1966
0000b0  f7fffffe          BL       TEXT_SetTextColor
0000b4  4649              MOV      r1,r9                 ;1968
0000b6  6868              LDR      r0,[r5,#4]            ;1968  ; hWinset
0000b8  f7fffffe          BL       WM_GetDialogItem
0000bc  4605              MOV      r5,r0                 ;1968
0000be  499a              LDR      r1,|L8.808|
0000c0  4628              MOV      r0,r5                 ;1969
0000c2  f7fffffe          BL       TEXT_SetBkColor
0000c6  2100              MOVS     r1,#0                 ;1970
0000c8  4628              MOV      r0,r5                 ;1970
0000ca  f7fffffe          BL       TEXT_SetTextColor
0000ce  2003              MOVS     r0,#3                 ;1972
0000d0  7020              STRB     r0,[r4,#0]            ;1972
0000d2  e7d8              B        |L8.134|
0000d4  4605              MOV      r5,r0                 ;1814
0000d6  4631              MOV      r1,r6                 ;1814
0000d8  4610              MOV      r0,r2                 ;1814
0000da  f7fffffe          BL       WM_GetDialogItem
0000de  4606              MOV      r6,r0                 ;1814
0000e0  f06f4170          MVN      r1,#0xf0000000        ;1815
0000e4  4630              MOV      r0,r6                 ;1815
0000e6  f7fffffe          BL       TEXT_SetBkColor
0000ea  f06f417f          MVN      r1,#0xff000000        ;1816
0000ee  4630              MOV      r0,r6                 ;1816
0000f0  f7fffffe          BL       TEXT_SetTextColor
0000f4  f640013b          MOV      r1,#0x83b             ;1818
0000f8  6868              LDR      r0,[r5,#4]            ;1818  ; hWinset
0000fa  f7fffffe          BL       WM_GetDialogItem
0000fe  4605              MOV      r5,r0                 ;1818
000100  4989              LDR      r1,|L8.808|
000102  4628              MOV      r0,r5                 ;1819
000104  f7fffffe          BL       TEXT_SetBkColor
000108  2100              MOVS     r1,#0                 ;1820
00010a  4628              MOV      r0,r5                 ;1820
00010c  f7fffffe          BL       TEXT_SetTextColor
000110  2007              MOVS     r0,#7                 ;1822
000112  7020              STRB     r0,[r4,#0]            ;1822
000114  e7b7              B        |L8.134|
                  |L8.278|
000116  e083              B        |L8.544|
                  |L8.280|
000118  e0c2              B        |L8.672|
                  |L8.282|
00011a  e0a1              B        |L8.608|
00011c  4605              MOV      r5,r0                 ;1829
00011e  4639              MOV      r1,r7                 ;1829
000120  4610              MOV      r0,r2                 ;1829
000122  f7fffffe          BL       WM_GetDialogItem
000126  4606              MOV      r6,r0                 ;1829
000128  f06f4170          MVN      r1,#0xf0000000        ;1830
00012c  4630              MOV      r0,r6                 ;1830
00012e  f7fffffe          BL       TEXT_SetBkColor
000132  f06f417f          MVN      r1,#0xff000000        ;1831
000136  4630              MOV      r0,r6                 ;1831
000138  f7fffffe          BL       TEXT_SetTextColor
00013c  4651              MOV      r1,r10                ;1833
00013e  6868              LDR      r0,[r5,#4]            ;1833  ; hWinset
000140  f7fffffe          BL       WM_GetDialogItem
000144  4605              MOV      r5,r0                 ;1833
000146  4978              LDR      r1,|L8.808|
000148  4628              MOV      r0,r5                 ;1834
00014a  f7fffffe          BL       TEXT_SetBkColor
00014e  2100              MOVS     r1,#0                 ;1835
000150  4628              MOV      r0,r5                 ;1835
000152  f7fffffe          BL       TEXT_SetTextColor
000156  2008              MOVS     r0,#8                 ;1837
000158  7020              STRB     r0,[r4,#0]            ;1837
00015a  e794              B        |L8.134|
00015c  4606              MOV      r6,r0                 ;1844
00015e  4641              MOV      r1,r8                 ;1844
000160  4610              MOV      r0,r2                 ;1844
000162  f7fffffe          BL       WM_GetDialogItem
000166  4607              MOV      r7,r0                 ;1844
000168  f06f4170          MVN      r1,#0xf0000000        ;1845
00016c  4638              MOV      r0,r7                 ;1845
00016e  f7fffffe          BL       TEXT_SetBkColor
000172  f06f417f          MVN      r1,#0xff000000        ;1846
000176  4638              MOV      r0,r7                 ;1846
000178  f7fffffe          BL       TEXT_SetTextColor
00017c  4659              MOV      r1,r11                ;1848
00017e  6870              LDR      r0,[r6,#4]            ;1848  ; hWinset
000180  f7fffffe          BL       WM_GetDialogItem
000184  4606              MOV      r6,r0                 ;1848
000186  4968              LDR      r1,|L8.808|
000188  4630              MOV      r0,r6                 ;1849
00018a  e000              B        |L8.398|
                  |L8.396|
00018c  e0a8              B        |L8.736|
                  |L8.398|
00018e  f7fffffe          BL       TEXT_SetBkColor
000192  2100              MOVS     r1,#0                 ;1850
000194  4630              MOV      r0,r6                 ;1850
000196  f7fffffe          BL       TEXT_SetTextColor
00019a  7025              STRB     r5,[r4,#0]            ;1852
00019c  e773              B        |L8.134|
00019e  4605              MOV      r5,r0                 ;1859
0001a0  4649              MOV      r1,r9                 ;1859
0001a2  4610              MOV      r0,r2                 ;1859
0001a4  f7fffffe          BL       WM_GetDialogItem
0001a8  4606              MOV      r6,r0                 ;1859
0001aa  f06f4170          MVN      r1,#0xf0000000        ;1860
0001ae  4630              MOV      r0,r6                 ;1860
0001b0  f7fffffe          BL       TEXT_SetBkColor
0001b4  f06f417f          MVN      r1,#0xff000000        ;1861
0001b8  4630              MOV      r0,r6                 ;1861
0001ba  f7fffffe          BL       TEXT_SetTextColor
0001be  f6401122          MOV      r1,#0x922             ;1863
0001c2  6868              LDR      r0,[r5,#4]            ;1863  ; hWinset
0001c4  f7fffffe          BL       WM_GetDialogItem
0001c8  4605              MOV      r5,r0                 ;1863
0001ca  4957              LDR      r1,|L8.808|
0001cc  4628              MOV      r0,r5                 ;1864
0001ce  f7fffffe          BL       TEXT_SetBkColor
0001d2  2100              MOVS     r1,#0                 ;1865
0001d4  4628              MOV      r0,r5                 ;1865
0001d6  f7fffffe          BL       TEXT_SetTextColor
0001da  2048              MOVS     r0,#0x48              ;1867
0001dc  7020              STRB     r0,[r4,#0]            ;1867
0001de  e752              B        |L8.134|
0001e0  4606              MOV      r6,r0                 ;1874
0001e2  f640012f          MOV      r1,#0x82f             ;1874
0001e6  4610              MOV      r0,r2                 ;1874
0001e8  f7fffffe          BL       WM_GetDialogItem
0001ec  4607              MOV      r7,r0                 ;1874
0001ee  f06f4170          MVN      r1,#0xf0000000        ;1875
0001f2  4638              MOV      r0,r7                 ;1875
0001f4  f7fffffe          BL       TEXT_SetBkColor
0001f8  f06f417f          MVN      r1,#0xff000000        ;1876
0001fc  4638              MOV      r0,r7                 ;1876
0001fe  f7fffffe          BL       TEXT_SetTextColor
000202  4659              MOV      r1,r11                ;1878
000204  6870              LDR      r0,[r6,#4]            ;1878  ; hWinset
000206  f7fffffe          BL       WM_GetDialogItem
00020a  4606              MOV      r6,r0                 ;1878
00020c  4946              LDR      r1,|L8.808|
00020e  4630              MOV      r0,r6                 ;1879
000210  f7fffffe          BL       TEXT_SetBkColor
000214  2100              MOVS     r1,#0                 ;1880
000216  4630              MOV      r0,r6                 ;1880
000218  f7fffffe          BL       TEXT_SetTextColor
00021c  7025              STRB     r5,[r4,#0]            ;1882
00021e  e732              B        |L8.134|
                  |L8.544|
000220  4606              MOV      r6,r0                 ;1889
000222  f44f6103          MOV      r1,#0x830             ;1889
000226  4610              MOV      r0,r2                 ;1889
000228  f7fffffe          BL       WM_GetDialogItem
00022c  4607              MOV      r7,r0                 ;1889
00022e  f06f4170          MVN      r1,#0xf0000000        ;1890
000232  4638              MOV      r0,r7                 ;1890
000234  f7fffffe          BL       TEXT_SetBkColor
000238  f06f417f          MVN      r1,#0xff000000        ;1891
00023c  4638              MOV      r0,r7                 ;1891
00023e  f7fffffe          BL       TEXT_SetTextColor
000242  4659              MOV      r1,r11                ;1893
000244  6870              LDR      r0,[r6,#4]            ;1893  ; hWinset
000246  f7fffffe          BL       WM_GetDialogItem
00024a  4606              MOV      r6,r0                 ;1893
00024c  4936              LDR      r1,|L8.808|
00024e  4630              MOV      r0,r6                 ;1894
000250  f7fffffe          BL       TEXT_SetBkColor
000254  2100              MOVS     r1,#0                 ;1895
000256  4630              MOV      r0,r6                 ;1895
000258  f7fffffe          BL       TEXT_SetTextColor
00025c  7025              STRB     r5,[r4,#0]            ;1897
00025e  e712              B        |L8.134|
                  |L8.608|
000260  4606              MOV      r6,r0                 ;1904
000262  f6400131          MOV      r1,#0x831             ;1904
000266  4610              MOV      r0,r2                 ;1904
000268  f7fffffe          BL       WM_GetDialogItem
00026c  4607              MOV      r7,r0                 ;1904
00026e  f06f4170          MVN      r1,#0xf0000000        ;1905
000272  4638              MOV      r0,r7                 ;1905
000274  f7fffffe          BL       TEXT_SetBkColor
000278  f06f417f          MVN      r1,#0xff000000        ;1906
00027c  4638              MOV      r0,r7                 ;1906
00027e  f7fffffe          BL       TEXT_SetTextColor
000282  4659              MOV      r1,r11                ;1908
000284  6870              LDR      r0,[r6,#4]            ;1908  ; hWinset
000286  f7fffffe          BL       WM_GetDialogItem
00028a  4606              MOV      r6,r0                 ;1908
00028c  4926              LDR      r1,|L8.808|
00028e  4630              MOV      r0,r6                 ;1909
000290  f7fffffe          BL       TEXT_SetBkColor
000294  2100              MOVS     r1,#0                 ;1910
000296  4630              MOV      r0,r6                 ;1910
000298  f7fffffe          BL       TEXT_SetTextColor
00029c  7025              STRB     r5,[r4,#0]            ;1912
00029e  e6f2              B        |L8.134|
                  |L8.672|
0002a0  4605              MOV      r5,r0                 ;1934
0002a2  4651              MOV      r1,r10                ;1934
0002a4  4610              MOV      r0,r2                 ;1934
0002a6  f7fffffe          BL       WM_GetDialogItem
0002aa  4606              MOV      r6,r0                 ;1934
0002ac  f06f4170          MVN      r1,#0xf0000000        ;1935
0002b0  4630              MOV      r0,r6                 ;1935
0002b2  f7fffffe          BL       TEXT_SetBkColor
0002b6  f06f417f          MVN      r1,#0xff000000        ;1936
0002ba  4630              MOV      r0,r6                 ;1936
0002bc  f7fffffe          BL       TEXT_SetTextColor
0002c0  4639              MOV      r1,r7                 ;1938
0002c2  6868              LDR      r0,[r5,#4]            ;1938  ; hWinset
0002c4  f7fffffe          BL       WM_GetDialogItem
0002c8  4605              MOV      r5,r0                 ;1938
0002ca  4917              LDR      r1,|L8.808|
0002cc  4628              MOV      r0,r5                 ;1939
0002ce  f7fffffe          BL       TEXT_SetBkColor
0002d2  2100              MOVS     r1,#0                 ;1940
0002d4  4628              MOV      r0,r5                 ;1940
0002d6  f7fffffe          BL       TEXT_SetTextColor
0002da  2001              MOVS     r0,#1                 ;1942
0002dc  7020              STRB     r0,[r4,#0]            ;1942
0002de  e6d2              B        |L8.134|
                  |L8.736|
0002e0  4605              MOV      r5,r0                 ;1949
0002e2  4659              MOV      r1,r11                ;1949
0002e4  4610              MOV      r0,r2                 ;1949
0002e6  f7fffffe          BL       WM_GetDialogItem
0002ea  4606              MOV      r6,r0                 ;1949
0002ec  f06f4170          MVN      r1,#0xf0000000        ;1950
0002f0  4630              MOV      r0,r6                 ;1950
0002f2  f7fffffe          BL       TEXT_SetBkColor
0002f6  f06f417f          MVN      r1,#0xff000000        ;1951
0002fa  4630              MOV      r0,r6                 ;1951
0002fc  f7fffffe          BL       TEXT_SetTextColor
000300  4641              MOV      r1,r8                 ;1953
000302  6868              LDR      r0,[r5,#4]            ;1953  ; hWinset
000304  f7fffffe          BL       WM_GetDialogItem
000308  4605              MOV      r5,r0                 ;1953
00030a  4907              LDR      r1,|L8.808|
00030c  4628              MOV      r0,r5                 ;1954
00030e  f7fffffe          BL       TEXT_SetBkColor
000312  2100              MOVS     r1,#0                 ;1955
000314  4628              MOV      r0,r5                 ;1955
000316  f7fffffe          BL       TEXT_SetTextColor
00031a  2002              MOVS     r0,#2                 ;1957
00031c  7020              STRB     r0,[r4,#0]            ;1957
00031e  e6b2              B        |L8.134|
;;;1992   
                          ENDP

                  |L8.800|
                          DCD      set_sw
                  |L8.804|
                          DCD      ||.data||
                  |L8.808|
                          DCD      0x00bfffff

                          AREA ||i.SET_OP_UP||, CODE, READONLY, ALIGN=2

                          REQUIRE _printf_percent
                          REQUIRE _printf_widthprec
                          REQUIRE _printf_f
                          REQUIRE _printf_fp_dec
                  SET_OP_UP PROC
;;;1299   
;;;1300   void SET_OP_UP(void) {
000000  e92d4ff0          PUSH     {r4-r11,lr}
000004  ed2d8b02          VPUSH    {d8}
000008  b087              SUB      sp,sp,#0x1c
;;;1301   				vu8 i;
;;;1302                   char buf[5];
;;;1303     
;;;1304   
;;;1305                   float dis_max_v = (float)set_max_v/1000;
00000a  4cf9              LDR      r4,|L9.1008|
00000c  6ba0              LDR      r0,[r4,#0x38]  ; Run_Control
00000e  ed9f8af9          VLDR     s16,|L9.1012|
;;;1306                   float dis_min_v = (float)set_min_v/1000;
000012  4620              MOV      r0,r4
000014  6bc0              LDR      r0,[r0,#0x3c]  ; Run_Control
000016  ee000a10          VMOV     s0,r0
00001a  eeb80a40          VCVT.F32.U32 s0,s0
00001e  eddf0af5          VLDR     s1,|L9.1012|
000022  eec08a20          VDIV.F32 s17,s0,s1
;;;1307                   vu16 dis_max_r = set_max_r;
000026  4620              MOV      r0,r4
000028  6c00              LDR      r0,[r0,#0x40]  ; Run_Control
00002a  9003              STR      r0,[sp,#0xc]
;;;1308                   vu16 dis_min_r = set_min_r;
00002c  4620              MOV      r0,r4
00002e  6c40              LDR      r0,[r0,#0x44]  ; Run_Control
000030  9002              STR      r0,[sp,#8]
;;;1309                   float dis_max_c = (float)set_max_c/1000;
000032  4620              MOV      r0,r4
000034  6c80              LDR      r0,[r0,#0x48]  ; Run_Control
;;;1310                   float dis_min_c = (float)set_min_c/1000;
000036  4620              MOV      r0,r4
000038  6cc0              LDR      r0,[r0,#0x4c]  ; Run_Control
;;;1311                   switch(set_sw){
00003a  4def              LDR      r5,|L9.1016|
00003c  782b              LDRB     r3,[r5,#0]  ; set_sw
;;;1312                       case set_1:
;;;1313                       {
;;;1314                           WM_HWIN hItem;
;;;1315   //                        WM_InvalidateWindow(hWinset);
;;;1316                           hItem = WM_GetDialogItem(hWinset, ID_TEXT_21);
00003e  48ef              LDR      r0,|L9.1020|
;;;1317                           TEXT_SetBkColor(hItem,GUI_INVALID_COLOR);//ÈÄâÈ°πËÉåÊôØËâ≤ËÆæ‰∏∫ÈÄèÊòé
;;;1318                           TEXT_SetTextColor(hItem, GUI_WHITE);
;;;1319   
;;;1320                           hItem = WM_GetDialogItem(hWinset, ID_TEXT_27);
;;;1321                           TEXT_SetBkColor(hItem,0x00BFFFFF);//ÈÄâÈ°πËÉåÊôØËâ≤ËÆæ‰∏∫Á±≥Ëâ≤
;;;1322                           TEXT_SetTextColor(hItem, GUI_BLACK);
;;;1323                           
;;;1324                           
;;;1325                           set_sw = set_7; 
;;;1326                           break;
;;;1327                       }                        
;;;1328                       case set_2:
;;;1329                       {
;;;1330                           WM_HWIN hItem;
;;;1331   //                        WM_InvalidateWindow(hWinset);
;;;1332                           hItem = WM_GetDialogItem(hWinset, ID_TEXT_22);
;;;1333                           TEXT_SetBkColor(hItem,GUI_INVALID_COLOR);//ÈÄâÈ°πËÉåÊôØËâ≤ËÆæ‰∏∫ÈÄèÊòé
;;;1334                           TEXT_SetTextColor(hItem, GUI_WHITE);
;;;1335                  
;;;1336                           hItem = WM_GetDialogItem(hWinset, ID_TEXT_21);
;;;1337                           TEXT_SetBkColor(hItem,0x00BFFFFF);//ÈÄâÈ°πËÉåÊôØËâ≤ËÆæ‰∏∫Á±≥Ëâ≤
;;;1338                           TEXT_SetTextColor(hItem, GUI_BLACK);
;;;1339   
;;;1340                           set_sw = set_1;
;;;1341                           break;
;;;1342                       }
;;;1343                       case set_3:
;;;1344                       {
;;;1345                           WM_HWIN hItem;
;;;1346   //                        WM_InvalidateWindow(hWinset);
;;;1347                           hItem = WM_GetDialogItem(hWinset, ID_TEXT_23);
;;;1348                           TEXT_SetBkColor(hItem,GUI_INVALID_COLOR);//ÈÄâÈ°πËÉåÊôØËâ≤ËÆæ‰∏∫ÈÄèÊòé
;;;1349                           TEXT_SetTextColor(hItem, GUI_WHITE);
;;;1350                  
;;;1351                           hItem = WM_GetDialogItem(hWinset, ID_TEXT_22);
;;;1352                           TEXT_SetBkColor(hItem,0x00BFFFFF);//ÈÄâÈ°πËÉåÊôØËâ≤ËÆæ‰∏∫Á±≥Ëâ≤
;;;1353                           TEXT_SetTextColor(hItem, GUI_BLACK);
;;;1354   
;;;1355                           set_sw = set_2;
000040  2601              MOVS     r6,#1
;;;1356                           break;
;;;1357                       }
;;;1358                       case set_4:
;;;1359                       {
;;;1360                           WM_HWIN hItem;
;;;1361   //                        WM_InvalidateWindow(hWinset);
;;;1362                           hItem = WM_GetDialogItem(hWinset, ID_TEXT_24);
;;;1363                           TEXT_SetBkColor(hItem,GUI_INVALID_COLOR);//ÈÄâÈ°πËÉåÊôØËâ≤ËÆæ‰∏∫ÈÄèÊòé
;;;1364                           TEXT_SetTextColor(hItem, GUI_WHITE);
;;;1365                  
;;;1366                           hItem = WM_GetDialogItem(hWinset, ID_TEXT_23);
;;;1367                           TEXT_SetBkColor(hItem,0x00BFFFFF);//ÈÄâÈ°πËÉåÊôØËâ≤ËÆæ‰∏∫Á±≥Ëâ≤
;;;1368                           TEXT_SetTextColor(hItem, GUI_BLACK);
;;;1369   
;;;1370                           set_sw = set_3;
000042  2702              MOVS     r7,#2
000044  6842              LDR      r2,[r0,#4]            ;1311
;;;1371                           break;
;;;1372                       }
;;;1373                       case set_5:
;;;1374                       {
;;;1375                           WM_HWIN hItem;
;;;1376   //                        WM_InvalidateWindow(hWinset);
;;;1377                           hItem = WM_GetDialogItem(hWinset, ID_TEXT_25);
;;;1378                           TEXT_SetBkColor(hItem,GUI_INVALID_COLOR);//ÈÄâÈ°πËÉåÊôØËâ≤ËÆæ‰∏∫ÈÄèÊòé
;;;1379                           TEXT_SetTextColor(hItem, GUI_WHITE);
;;;1380                  
;;;1381                           hItem = WM_GetDialogItem(hWinset, ID_TEXT_24);
;;;1382                           TEXT_SetBkColor(hItem,0x00BFFFFF);//ÈÄâÈ°πËÉåÊôØËâ≤ËÆæ‰∏∫Á±≥Ëâ≤
;;;1383                           TEXT_SetTextColor(hItem, GUI_BLACK);
;;;1384   
;;;1385                           set_sw = set_4;
000046  f04f0803          MOV      r8,#3
;;;1386                           break;
;;;1387                       }
;;;1388                       case set_6:
;;;1389                       {
;;;1390                           WM_HWIN hItem;
;;;1391   //                        WM_InvalidateWindow(hWinset);
;;;1392                           hItem = WM_GetDialogItem(hWinset, ID_TEXT_26);
;;;1393                           TEXT_SetBkColor(hItem,GUI_INVALID_COLOR);//ÈÄâÈ°πËÉåÊôØËâ≤ËÆæ‰∏∫ÈÄèÊòé
;;;1394                           TEXT_SetTextColor(hItem, GUI_WHITE);
;;;1395                  
;;;1396                           hItem = WM_GetDialogItem(hWinset, ID_TEXT_25);
;;;1397                           TEXT_SetBkColor(hItem,0x00BFFFFF);//ÈÄâÈ°πËÉåÊôØËâ≤ËÆæ‰∏∫Á±≥Ëâ≤
;;;1398                           TEXT_SetTextColor(hItem, GUI_BLACK);
;;;1399   
;;;1400                           set_sw = set_5;
00004a  f04f0904          MOV      r9,#4
;;;1401                           break;
;;;1402                       }
;;;1403                       case set_7:
;;;1404                       {
;;;1405                           WM_HWIN hItem;
;;;1406   //                        WM_InvalidateWindow(hWinset);
;;;1407                           hItem = WM_GetDialogItem(hWinset, ID_TEXT_27);
;;;1408                           TEXT_SetBkColor(hItem,GUI_INVALID_COLOR);//ÈÄâÈ°πËÉåÊôØËâ≤ËÆæ‰∏∫ÈÄèÊòé
;;;1409                           TEXT_SetTextColor(hItem, GUI_WHITE);
;;;1410                  
;;;1411                           hItem = WM_GetDialogItem(hWinset, ID_TEXT_26);
;;;1412                           TEXT_SetBkColor(hItem,0x00BFFFFF);//ÈÄâÈ°πËÉåÊôØËâ≤ËÆæ‰∏∫Á±≥Ëâ≤
;;;1413                           TEXT_SetTextColor(hItem, GUI_BLACK);
;;;1414   
;;;1415                           set_sw = set_6;
00004e  f04f0a05          MOV      r10,#5
000052  2b10              CMP      r3,#0x10              ;1311
000054  d06f              BEQ      |L9.310|
000056  dc0e              BGT      |L9.118|
000058  f640042b          MOV      r4,#0x82b             ;1316
00005c  f44f6b03          MOV      r11,#0x830            ;1392
000060  2b0d              CMP      r3,#0xd               ;1311
000062  d242              BCS      |L9.234|
000064  e8dff003          TBB      [pc,r3]               ;1311
000068  46688dae          DCB      0x46,0x68,0x8d,0xae
00006c  cffbf4f3          DCB      0xcf,0xfb,0xf4,0xf3
000070  f2414141          DCB      0xf2,0x41,0x41,0x41
000074  f100              DCB      0xf1,0x00
                  |L9.118|
;;;1416                           break;
;;;1417                       }
;;;1418                       case set_8:
;;;1419                       {
;;;1420                           WM_HWIN hItem;
;;;1421   //                        WM_InvalidateWindow(hWinset);
;;;1422                           hItem = WM_GetDialogItem(hWinset, ID_TEXT_31);
;;;1423                           TEXT_SetBkColor(hItem,GUI_INVALID_COLOR);//ÈÄâÈ°πËÉåÊôØËâ≤ËÆæ‰∏∫ÈÄèÊòé
;;;1424                           TEXT_SetTextColor(hItem, GUI_WHITE);
;;;1425                  
;;;1426                           hItem = WM_GetDialogItem(hWinset, ID_TEXT_165);
;;;1427                           TEXT_SetBkColor(hItem,0x00BFFFFF);//ÈÄâÈ°πËÉåÊôØËâ≤ËÆæ‰∏∫Á±≥Ëâ≤
;;;1428                           TEXT_SetTextColor(hItem, GUI_BLACK);
;;;1429   
;;;1430                           set_sw = set_90;
;;;1431                           break;
;;;1432                       }
;;;1433                       case set_9:
;;;1434                       {
;;;1435                           WM_HWIN hItem;
;;;1436   //                        WM_InvalidateWindow(hWinset);
;;;1437                           hItem = WM_GetDialogItem(hWinset, ID_TEXT_32);
;;;1438                           TEXT_SetBkColor(hItem,GUI_INVALID_COLOR);//ÈÄâÈ°πËÉåÊôØËâ≤ËÆæ‰∏∫ÈÄèÊòé
;;;1439                           TEXT_SetTextColor(hItem, GUI_WHITE);
;;;1440                  
;;;1441                           hItem = WM_GetDialogItem(hWinset, ID_TEXT_31);
;;;1442                           TEXT_SetBkColor(hItem,0x00BFFFFF);//ÈÄâÈ°πËÉåÊôØËâ≤ËÆæ‰∏∫Á±≥Ëâ≤
;;;1443                           TEXT_SetTextColor(hItem, GUI_BLACK);
;;;1444   
;;;1445                           set_sw = set_8;
;;;1446                           break;
;;;1447                       }
;;;1448                       case set_42:
;;;1449                       {
;;;1450                           WM_HWIN hItem;
;;;1451   //                        WM_InvalidateWindow(hWinset);
;;;1452                           hItem = WM_GetDialogItem(hWinset, ID_TEXT_90);
;;;1453                           TEXT_SetBkColor(hItem,GUI_INVALID_COLOR);//ÈÄâÈ°πËÉåÊôØËâ≤ËÆæ‰∏∫ÈÄèÊòé
;;;1454                           TEXT_SetTextColor(hItem, GUI_WHITE);
;;;1455                  
;;;1456                           hItem = WM_GetDialogItem(hWinset, ID_TEXT_32);
;;;1457                           TEXT_SetBkColor(hItem,0x00BFFFFF);//ÈÄâÈ°πËÉåÊôØËâ≤ËÆæ‰∏∫Á±≥Ëâ≤
;;;1458                           TEXT_SetTextColor(hItem, GUI_BLACK);
;;;1459   
;;;1460                           set_sw = set_9;
;;;1461                           break;
;;;1462                       }
;;;1463                       case set_73:
;;;1464                       {
;;;1465                           WM_HWIN hItem;
;;;1466   //                        WM_InvalidateWindow(hWinset);
;;;1467                           hItem = WM_GetDialogItem(hWinset, ID_TEXT_133);
;;;1468                           TEXT_SetBkColor(hItem,GUI_INVALID_COLOR);//ÈÄâÈ°πËÉåÊôØËâ≤ËÆæ‰∏∫ÈÄèÊòé
;;;1469                           TEXT_SetTextColor(hItem, GUI_WHITE);
;;;1470                  
;;;1471                           hItem = WM_GetDialogItem(hWinset, ID_TEXT_90);
;;;1472                           TEXT_SetBkColor(hItem,0x00BFFFFF);//ÈÄâÈ°πËÉåÊôØËâ≤ËÆæ‰∏∫Á±≥Ëâ≤
;;;1473                           TEXT_SetTextColor(hItem, GUI_BLACK);
;;;1474   
;;;1475                           set_sw = set_42;
;;;1476                           break;
;;;1477                       }
;;;1478   					 case set_90:
;;;1479                       {
;;;1480                           WM_HWIN hItem;
;;;1481   //                        WM_InvalidateWindow(hWinset);
;;;1482                           hItem = WM_GetDialogItem(hWinset, ID_TEXT_165);
;;;1483                           TEXT_SetBkColor(hItem,GUI_INVALID_COLOR);//ÈÄâÈ°πËÉåÊôØËâ≤ËÆæ‰∏∫ÈÄèÊòé
;;;1484                           TEXT_SetTextColor(hItem, GUI_WHITE);
;;;1485                  
;;;1486                           hItem = WM_GetDialogItem(hWinset, ID_TEXT_133);
;;;1487                           TEXT_SetBkColor(hItem,0x00BFFFFF);//ÈÄâÈ°πËÉåÊôØËâ≤ËÆæ‰∏∫Á±≥Ëâ≤
;;;1488                           TEXT_SetTextColor(hItem, GUI_BLACK);
;;;1489   
;;;1490                           set_sw = set_73;
;;;1491                           break;
;;;1492                       }
;;;1493   					
;;;1494   					case set_13:
;;;1495                       {
;;;1496   						WM_HWIN hItem;						
;;;1497   						hItem = WM_GetDialogItem(hWinset, ID_TEXT_36);
;;;1498                           TEXT_SetBkColor(hItem,GUI_INVALID_COLOR);//ÈÄâÈ°πËÉåÊôØËâ≤ËÆæ‰∏∫ÈÄèÊòé
;;;1499                           TEXT_SetTextColor(hItem, GUI_WHITE);
;;;1500                          
;;;1501                           sprintf(buf,"%.3f",dis_min_v);
;;;1502                           TEXT_SetText(hItem,buf);
;;;1503                  
;;;1504                           hItem = WM_GetDialogItem(hWinset, ID_TEXT_35);
;;;1505                           TEXT_SetBkColor(hItem,0x00BFFFFF);//ÈÄâÈ°πËÉåÊôØËâ≤ËÆæ‰∏∫Á±≥Ëâ≤
;;;1506                           TEXT_SetTextColor(hItem, GUI_BLACK);
;;;1507   							
;;;1508   						for(i=0;i<6;i++){
;;;1509   							set_limit[i] = '\0';
;;;1510   						}
;;;1511   						bit = 0;
;;;1512                           dot_flag = 0;
;;;1513                           set_sw = set_12;
;;;1514                           break;
;;;1515   					}
;;;1516   					
;;;1517   					case set_83:
;;;1518                       {
;;;1519   						WM_HWIN hItem;						
;;;1520   						hItem = WM_GetDialogItem(hWinset, ID_TEXT_155);
;;;1521                           TEXT_SetBkColor(hItem,GUI_INVALID_COLOR);//ÈÄâÈ°πËÉåÊôØËâ≤ËÆæ‰∏∫ÈÄèÊòé
;;;1522                           TEXT_SetTextColor(hItem, GUI_WHITE);
;;;1523                          
;;;1524                           sprintf(buf,"%.3f",(float)set_min_lv/1000);
;;;1525                           TEXT_SetText(hItem,buf);
;;;1526                  
;;;1527                           hItem = WM_GetDialogItem(hWinset, ID_TEXT_154);
;;;1528                           TEXT_SetBkColor(hItem,0x00BFFFFF);//ÈÄâÈ°πËÉåÊôØËâ≤ËÆæ‰∏∫Á±≥Ëâ≤
;;;1529                           TEXT_SetTextColor(hItem, GUI_BLACK);
;;;1530   							
;;;1531   						for(i=0;i<6;i++){
;;;1532   							set_limit[i] = '\0';
;;;1533   						}
;;;1534   						bit = 0;
;;;1535                           dot_flag = 0;
;;;1536                           set_sw = set_82;
;;;1537                           break;
;;;1538   					}
;;;1539   					
;;;1540   					case set_17:
;;;1541                       {
;;;1542   						WM_HWIN hItem;						
;;;1543   						hItem = WM_GetDialogItem(hWinset, ID_TEXT_40);
;;;1544                           TEXT_SetBkColor(hItem,GUI_INVALID_COLOR);//ÈÄâÈ°πËÉåÊôØËâ≤ËÆæ‰∏∫ÈÄèÊòé
;;;1545                           TEXT_SetTextColor(hItem, GUI_WHITE);
;;;1546                          
;;;1547                           sprintf(buf,"%.3f",(float)set_min_c/1000);
;;;1548                           TEXT_SetText(hItem,buf);
;;;1549                  
;;;1550                           hItem = WM_GetDialogItem(hWinset, ID_TEXT_39);
;;;1551                           TEXT_SetBkColor(hItem,0x00BFFFFF);//ÈÄâÈ°πËÉåÊôØËâ≤ËÆæ‰∏∫Á±≥Ëâ≤
;;;1552                           TEXT_SetTextColor(hItem, GUI_BLACK);
;;;1553   							
;;;1554   						for(i=0;i<6;i++){
;;;1555   							set_limit[i] = '\0';
;;;1556   						}
;;;1557   						bit = 0;
;;;1558                           dot_flag = 0;
;;;1559                           set_sw = set_16;
;;;1560                           break;
;;;1561   					}
;;;1562   					
;;;1563   					case set_85:
;;;1564                       {
;;;1565   						WM_HWIN hItem;						
;;;1566   						hItem = WM_GetDialogItem(hWinset, ID_TEXT_157);
;;;1567                           TEXT_SetBkColor(hItem,GUI_INVALID_COLOR);//ÈÄâÈ°πËÉåÊôØËâ≤ËÆæ‰∏∫ÈÄèÊòé
;;;1568                           TEXT_SetTextColor(hItem, GUI_WHITE);
;;;1569                          
;;;1570                           sprintf(buf,"%.3f",(float)set_min_pc/1000);
;;;1571                           TEXT_SetText(hItem,buf);
;;;1572                  
;;;1573                           hItem = WM_GetDialogItem(hWinset, ID_TEXT_156);
;;;1574                           TEXT_SetBkColor(hItem,0x00BFFFFF);//ÈÄâÈ°πËÉåÊôØËâ≤ËÆæ‰∏∫Á±≥Ëâ≤
;;;1575                           TEXT_SetTextColor(hItem, GUI_BLACK);
;;;1576   							
;;;1577   						for(i=0;i<6;i++){
;;;1578   							set_limit[i] = '\0';
;;;1579   						}
;;;1580   						bit = 0;
;;;1581                           dot_flag = 0;
;;;1582                           set_sw = set_84;
;;;1583                           break;
;;;1584   					}
;;;1585   					
;;;1586                       case set_43:
;;;1587                       {
;;;1588                           WM_HWIN hItem;
;;;1589                           hItem = WM_GetDialogItem(hWinset, ID_TEXT_91);
;;;1590                           TEXT_SetBkColor(hItem,GUI_INVALID_COLOR);//ÈÄâÈ°πËÉåÊôØËâ≤ËÆæ‰∏∫ÈÄèÊòé
;;;1591                           TEXT_SetTextColor(hItem, GUI_WHITE);
;;;1592                           
;;;1593                           hItem = WM_GetDialogItem(hWinset, ID_TEXT_95);
;;;1594                           TEXT_SetBkColor(hItem,0x00BFFFFF);//ÈÄâÈ°πËÉåÊôØËâ≤ËÆæ‰∏∫Á±≥Ëâ≤
;;;1595                           TEXT_SetTextColor(hItem, GUI_BLACK);
;;;1596                           
;;;1597                           switch(b_type)
000076  f8dfb388          LDR      r11,|L9.1024|
;;;1598                           {
;;;1599                               case Lion:
;;;1600                               {
;;;1601                                   buffer = LiMH;
00007a  4ce2              LDR      r4,|L9.1028|
00007c  2b2e              CMP      r3,#0x2e              ;1311
00007e  d07c              BEQ      |L9.378|
000080  dc08              BGT      |L9.148|
000082  f1a30329          SUB      r3,r3,#0x29           ;1311
000086  2b05              CMP      r3,#5                 ;1311
000088  d22f              BCS      |L9.234|
00008a  e8dff003          TBB      [pc,r3]               ;1311
00008e  e7e6              DCB      0xe7,0xe6
000090  e5e4e300          DCB      0xe5,0xe4,0xe3,0x00
                  |L9.148|
000094  f6401722          MOV      r7,#0x922             ;1467
000098  2b48              CMP      r3,#0x48              ;1311
00009a  d06f              BEQ      |L9.380|
00009c  4eda              LDR      r6,|L9.1032|
00009e  2b52              CMP      r3,#0x52              ;1311
0000a0  d06d              BEQ      |L9.382|
0000a2  2b54              CMP      r3,#0x54              ;1311
0000a4  d06c              BEQ      |L9.384|
0000a6  2b59              CMP      r3,#0x59              ;1311
0000a8  d11f              BNE      |L9.234|
0000aa  4604              MOV      r4,r0                 ;1482
0000ac  f44f6114          MOV      r1,#0x940             ;1482
0000b0  4610              MOV      r0,r2                 ;1482
0000b2  f7fffffe          BL       WM_GetDialogItem
0000b6  4606              MOV      r6,r0                 ;1482
0000b8  f06f4170          MVN      r1,#0xf0000000        ;1483
0000bc  4630              MOV      r0,r6                 ;1483
0000be  f7fffffe          BL       TEXT_SetBkColor
0000c2  f06f417f          MVN      r1,#0xff000000        ;1484
0000c6  4630              MOV      r0,r6                 ;1484
0000c8  f7fffffe          BL       TEXT_SetTextColor
0000cc  4639              MOV      r1,r7                 ;1486
0000ce  6860              LDR      r0,[r4,#4]            ;1486  ; hWinset
0000d0  f7fffffe          BL       WM_GetDialogItem
0000d4  4604              MOV      r4,r0                 ;1486
0000d6  49cd              LDR      r1,|L9.1036|
0000d8  4620              MOV      r0,r4                 ;1487
0000da  f7fffffe          BL       TEXT_SetBkColor
0000de  2100              MOVS     r1,#0                 ;1488
0000e0  4620              MOV      r0,r4                 ;1488
0000e2  f7fffffe          BL       TEXT_SetTextColor
0000e6  2048              MOVS     r0,#0x48              ;1490
0000e8  7028              STRB     r0,[r5,#0]            ;1490
                  |L9.234|
;;;1602                                   break;
;;;1603                               }
;;;1604                               case NiMH:
;;;1605                               {
;;;1606                                   buffer = LiMH;
;;;1607                                   break;
;;;1608                               }
;;;1609                               case NiCd:
;;;1610                               {
;;;1611                                   buffer = LiMH;
;;;1612                                   break;
;;;1613                               }
;;;1614                               case SLA:
;;;1615                               {
;;;1616                                   buffer = LiMH;
;;;1617                                   break;
;;;1618                               }
;;;1619                               case LiMH:
;;;1620                               {
;;;1621                                   buffer = SLA;
;;;1622                                   break;
;;;1623                               }
;;;1624                           }
;;;1625   
;;;1626                           set_sw = set_47;
;;;1627                           break;
;;;1628                       }
;;;1629                       case set_44:
;;;1630                       {
;;;1631                           WM_HWIN hItem;
;;;1632                           hItem = WM_GetDialogItem(hWinset, ID_TEXT_92);
;;;1633                           TEXT_SetBkColor(hItem,GUI_INVALID_COLOR);//ÈÄâÈ°πËÉåÊôØËâ≤ËÆæ‰∏∫ÈÄèÊòé
;;;1634                           TEXT_SetTextColor(hItem, GUI_WHITE);
;;;1635                  
;;;1636                           hItem = WM_GetDialogItem(hWinset, ID_TEXT_91);
;;;1637                           TEXT_SetBkColor(hItem,0x00BFFFFF);//ÈÄâÈ°πËÉåÊôØËâ≤ËÆæ‰∏∫Á±≥Ëâ≤
;;;1638                           TEXT_SetTextColor(hItem, GUI_BLACK);
;;;1639                           
;;;1640                           switch(b_type)
;;;1641                           {
;;;1642                               case Lion:
;;;1643                               {
;;;1644                                   buffer = Lion;
;;;1645                                   break;
;;;1646                               }
;;;1647                               case NiMH:
;;;1648                               {
;;;1649                                   buffer = NiMH;
;;;1650                                   break;
;;;1651                               }
;;;1652                               case NiCd:
;;;1653                               {
;;;1654                                   buffer = NiCd;
;;;1655                                   break;
;;;1656                               }
;;;1657                               case SLA:
;;;1658                               {
;;;1659                                   buffer = SLA;
;;;1660                                   break;
;;;1661                               }
;;;1662                               case LiMH:
;;;1663                               {
;;;1664                                   buffer = LiMH;
;;;1665                                   break;
;;;1666                               }
;;;1667                           }
;;;1668   
;;;1669                           set_sw = set_43;
;;;1670                           break;
;;;1671                       }
;;;1672                       case set_45:
;;;1673                       {
;;;1674                           WM_HWIN hItem;
;;;1675                           hItem = WM_GetDialogItem(hWinset, ID_TEXT_93);
;;;1676                           TEXT_SetBkColor(hItem,GUI_INVALID_COLOR);//ÈÄâÈ°πËÉåÊôØËâ≤ËÆæ‰∏∫ÈÄèÊòé
;;;1677                           TEXT_SetTextColor(hItem, GUI_WHITE);
;;;1678                  
;;;1679                           hItem = WM_GetDialogItem(hWinset, ID_TEXT_92);
;;;1680                           TEXT_SetBkColor(hItem,0x00BFFFFF);//ÈÄâÈ°πËÉåÊôØËâ≤ËÆæ‰∏∫Á±≥Ëâ≤
;;;1681                           TEXT_SetTextColor(hItem, GUI_BLACK);
;;;1682                           
;;;1683                           switch(b_type)
;;;1684                           {
;;;1685                               case Lion:
;;;1686                               {
;;;1687                                   buffer = NiMH;
;;;1688                                   break;
;;;1689                               }
;;;1690                               case NiMH:
;;;1691                               {
;;;1692                                   buffer = Lion;
;;;1693                                   break;
;;;1694                               }
;;;1695                               case NiCd:
;;;1696                               {
;;;1697                                   buffer = Lion;
;;;1698                                   break;
;;;1699                               }
;;;1700                               case SLA:
;;;1701                               {
;;;1702                                   buffer = Lion;
;;;1703                                   break;
;;;1704                               }
;;;1705                               case LiMH:
;;;1706                               {
;;;1707                                   buffer = Lion;
;;;1708                                   break;
;;;1709                               }
;;;1710                           }
;;;1711   
;;;1712                           set_sw = set_44;
;;;1713                           break;
;;;1714                       }
;;;1715                       case set_46:
;;;1716                       {
;;;1717                           WM_HWIN hItem;
;;;1718                           hItem = WM_GetDialogItem(hWinset, ID_TEXT_94);
;;;1719                           TEXT_SetBkColor(hItem,GUI_INVALID_COLOR);//ÈÄâÈ°πËÉåÊôØËâ≤ËÆæ‰∏∫ÈÄèÊòé
;;;1720                           TEXT_SetTextColor(hItem, GUI_WHITE);
;;;1721                  
;;;1722                           hItem = WM_GetDialogItem(hWinset, ID_TEXT_93);
;;;1723                           TEXT_SetBkColor(hItem,0x00BFFFFF);//ÈÄâÈ°πËÉåÊôØËâ≤ËÆæ‰∏∫Á±≥Ëâ≤
;;;1724                           TEXT_SetTextColor(hItem, GUI_BLACK);
;;;1725                           
;;;1726                           switch(b_type)
;;;1727                           {
;;;1728                               case Lion:
;;;1729                               {
;;;1730                                   buffer = NiCd;
;;;1731                                   break;
;;;1732                               }
;;;1733                               case NiMH:
;;;1734                               {
;;;1735                                   buffer = NiCd;
;;;1736                                   break;
;;;1737                               }
;;;1738                               case NiCd:
;;;1739                               {
;;;1740                                   buffer = NiMH;
;;;1741                                   break;
;;;1742                               }
;;;1743                               case SLA:
;;;1744                               {
;;;1745                                   buffer = NiMH;
;;;1746                                   break;
;;;1747                               }
;;;1748                               case LiMH:
;;;1749                               {
;;;1750                                   buffer = NiMH;
;;;1751                                   break;
;;;1752                               }
;;;1753                           }
;;;1754   
;;;1755                           set_sw = set_45;
;;;1756                           break;
;;;1757                       }
;;;1758                       case set_47:
;;;1759                       {
;;;1760                           WM_HWIN hItem;
;;;1761                           hItem = WM_GetDialogItem(hWinset, ID_TEXT_95);
;;;1762                           TEXT_SetBkColor(hItem,GUI_INVALID_COLOR);//ÈÄâÈ°πËÉåÊôØËâ≤ËÆæ‰∏∫ÈÄèÊòé
;;;1763                           TEXT_SetTextColor(hItem, GUI_WHITE);
;;;1764                           
;;;1765                           hItem = WM_GetDialogItem(hWinset, ID_TEXT_94);
;;;1766                           TEXT_SetBkColor(hItem,0x00BFFFFF);//ÈÄâÈ°πËÉåÊôØËâ≤ËÆæ‰∏∫Á±≥Ëâ≤
;;;1767                           TEXT_SetTextColor(hItem, GUI_BLACK);
;;;1768                           
;;;1769                           switch(b_type)
;;;1770                           {
;;;1771                               case Lion:
;;;1772                               {
;;;1773                                   buffer = SLA;
;;;1774                                   break;
;;;1775                               }
;;;1776                               case NiMH:
;;;1777                               {
;;;1778                                   buffer = SLA;
;;;1779                                   break;
;;;1780                               }
;;;1781                               case NiCd:
;;;1782                               {
;;;1783                                   buffer = SLA;
;;;1784                                   break;
;;;1785                               }
;;;1786                               case SLA:
;;;1787                               {
;;;1788                                   buffer = NiCd;
;;;1789                                   break;
;;;1790                               }
;;;1791                               case LiMH:
;;;1792                               {
;;;1793                                   buffer = NiCd;
;;;1794                                   break;
;;;1795                               }
;;;1796                           }
;;;1797   
;;;1798                           set_sw = set_46;
;;;1799                           break;
;;;1800                       }
;;;1801                       default: break;
;;;1802                   }
;;;1803   //                return set_sw;
;;;1804   }
0000ea  b007              ADD      sp,sp,#0x1c
0000ec  ecbd8b02          VPOP     {d8}
0000f0  e8bd8ff0          POP      {r4-r11,pc}
0000f4  4621              MOV      r1,r4                 ;1316
0000f6  4604              MOV      r4,r0                 ;1316
0000f8  4610              MOV      r0,r2                 ;1316
0000fa  f7fffffe          BL       WM_GetDialogItem
0000fe  4606              MOV      r6,r0                 ;1316
000100  f06f4170          MVN      r1,#0xf0000000        ;1317
000104  4630              MOV      r0,r6                 ;1317
000106  f7fffffe          BL       TEXT_SetBkColor
00010a  f06f417f          MVN      r1,#0xff000000        ;1318
00010e  4630              MOV      r0,r6                 ;1318
000110  f7fffffe          BL       TEXT_SetTextColor
000114  f6400131          MOV      r1,#0x831             ;1320
000118  6860              LDR      r0,[r4,#4]            ;1320  ; hWinset
00011a  f7fffffe          BL       WM_GetDialogItem
00011e  4604              MOV      r4,r0                 ;1320
000120  49ba              LDR      r1,|L9.1036|
000122  4620              MOV      r0,r4                 ;1321
000124  f7fffffe          BL       TEXT_SetBkColor
000128  2100              MOVS     r1,#0                 ;1322
00012a  4620              MOV      r0,r4                 ;1322
00012c  f7fffffe          BL       TEXT_SetTextColor
000130  2006              MOVS     r0,#6                 ;1325
000132  7028              STRB     r0,[r5,#0]            ;1325
000134  e7d9              B        |L9.234|
                  |L9.310|
000136  e1fb              B        |L9.1328|
000138  4606              MOV      r6,r0                 ;1332
00013a  f640012c          MOV      r1,#0x82c             ;1332
00013e  4610              MOV      r0,r2                 ;1332
000140  f7fffffe          BL       WM_GetDialogItem
000144  4607              MOV      r7,r0                 ;1332
000146  f06f4170          MVN      r1,#0xf0000000        ;1333
00014a  4638              MOV      r0,r7                 ;1333
00014c  f7fffffe          BL       TEXT_SetBkColor
000150  f06f417f          MVN      r1,#0xff000000        ;1334
000154  4638              MOV      r0,r7                 ;1334
000156  f7fffffe          BL       TEXT_SetTextColor
00015a  4621              MOV      r1,r4                 ;1336
00015c  6870              LDR      r0,[r6,#4]            ;1336  ; hWinset
00015e  f7fffffe          BL       WM_GetDialogItem
000162  4604              MOV      r4,r0                 ;1336
000164  49a9              LDR      r1,|L9.1036|
000166  4620              MOV      r0,r4                 ;1337
000168  f7fffffe          BL       TEXT_SetBkColor
00016c  2100              MOVS     r1,#0                 ;1338
00016e  4620              MOV      r0,r4                 ;1338
000170  f7fffffe          BL       TEXT_SetTextColor
000174  2000              MOVS     r0,#0                 ;1340
000176  7028              STRB     r0,[r5,#0]            ;1340
000178  e7b7              B        |L9.234|
                  |L9.378|
00017a  e34b              B        |L9.2068|
                  |L9.380|
00017c  e117              B        |L9.942|
                  |L9.382|
00017e  e18c              B        |L9.1178|
                  |L9.384|
000180  e222              B        |L9.1480|
000182  4604              MOV      r4,r0                 ;1347
000184  f640012d          MOV      r1,#0x82d             ;1347
000188  4610              MOV      r0,r2                 ;1347
00018a  f7fffffe          BL       WM_GetDialogItem
00018e  4607              MOV      r7,r0                 ;1347
000190  f06f4170          MVN      r1,#0xf0000000        ;1348
000194  4638              MOV      r0,r7                 ;1348
000196  f7fffffe          BL       TEXT_SetBkColor
00019a  f06f417f          MVN      r1,#0xff000000        ;1349
00019e  4638              MOV      r0,r7                 ;1349
0001a0  f7fffffe          BL       TEXT_SetTextColor
0001a4  f640012c          MOV      r1,#0x82c             ;1351
0001a8  6860              LDR      r0,[r4,#4]            ;1351  ; hWinset
0001aa  f7fffffe          BL       WM_GetDialogItem
0001ae  4604              MOV      r4,r0                 ;1351
0001b0  4996              LDR      r1,|L9.1036|
0001b2  4620              MOV      r0,r4                 ;1352
0001b4  f7fffffe          BL       TEXT_SetBkColor
0001b8  2100              MOVS     r1,#0                 ;1353
0001ba  4620              MOV      r0,r4                 ;1353
0001bc  f7fffffe          BL       TEXT_SetTextColor
0001c0  702e              STRB     r6,[r5,#0]            ;1355
0001c2  e792              B        |L9.234|
0001c4  4604              MOV      r4,r0                 ;1362
0001c6  f640012e          MOV      r1,#0x82e             ;1362
0001ca  4610              MOV      r0,r2                 ;1362
0001cc  f7fffffe          BL       WM_GetDialogItem
0001d0  4606              MOV      r6,r0                 ;1362
0001d2  f06f4170          MVN      r1,#0xf0000000        ;1363
0001d6  4630              MOV      r0,r6                 ;1363
0001d8  f7fffffe          BL       TEXT_SetBkColor
0001dc  f06f417f          MVN      r1,#0xff000000        ;1364
0001e0  4630              MOV      r0,r6                 ;1364
0001e2  f7fffffe          BL       TEXT_SetTextColor
0001e6  f640012d          MOV      r1,#0x82d             ;1366
0001ea  6860              LDR      r0,[r4,#4]            ;1366  ; hWinset
0001ec  f7fffffe          BL       WM_GetDialogItem
0001f0  4604              MOV      r4,r0                 ;1366
0001f2  4986              LDR      r1,|L9.1036|
0001f4  4620              MOV      r0,r4                 ;1367
0001f6  f7fffffe          BL       TEXT_SetBkColor
0001fa  2100              MOVS     r1,#0                 ;1368
0001fc  4620              MOV      r0,r4                 ;1368
0001fe  f7fffffe          BL       TEXT_SetTextColor
000202  702f              STRB     r7,[r5,#0]            ;1370
000204  e771              B        |L9.234|
000206  4604              MOV      r4,r0                 ;1377
000208  f640012f          MOV      r1,#0x82f             ;1377
00020c  4610              MOV      r0,r2                 ;1377
00020e  f7fffffe          BL       WM_GetDialogItem
000212  4606              MOV      r6,r0                 ;1377
000214  f06f4170          MVN      r1,#0xf0000000        ;1378
000218  4630              MOV      r0,r6                 ;1378
00021a  f7fffffe          BL       TEXT_SetBkColor
00021e  f06f417f          MVN      r1,#0xff000000        ;1379
000222  4630              MOV      r0,r6                 ;1379
000224  f7fffffe          BL       TEXT_SetTextColor
000228  f640012e          MOV      r1,#0x82e             ;1381
00022c  6860              LDR      r0,[r4,#4]            ;1381  ; hWinset
00022e  f7fffffe          BL       WM_GetDialogItem
000232  4604              MOV      r4,r0                 ;1381
000234  4975              LDR      r1,|L9.1036|
000236  4620              MOV      r0,r4                 ;1382
000238  f7fffffe          BL       TEXT_SetBkColor
00023c  2100              MOVS     r1,#0                 ;1383
00023e  4620              MOV      r0,r4                 ;1383
000240  f7fffffe          BL       TEXT_SetTextColor
000244  f8858000          STRB     r8,[r5,#0]            ;1385
000248  e74f              B        |L9.234|
00024a  e0e1              B        |L9.1040|
00024c  e06b              B        |L9.806|
00024e  e048              B        |L9.738|
000250  e026              B        |L9.672|
000252  e004              B        |L9.606|
000254  e2a8              B        |L9.1960|
000256  e272              B        |L9.1854|
000258  e23a              B        |L9.1744|
00025a  e200              B        |L9.1630|
00025c  e085              B        |L9.874|
                  |L9.606|
00025e  4604              MOV      r4,r0                 ;1392
000260  4659              MOV      r1,r11                ;1392
000262  4610              MOV      r0,r2                 ;1392
000264  f7fffffe          BL       WM_GetDialogItem
000268  4606              MOV      r6,r0                 ;1392
00026a  f06f4170          MVN      r1,#0xf0000000        ;1393
00026e  4630              MOV      r0,r6                 ;1393
000270  f7fffffe          BL       TEXT_SetBkColor
000274  f06f417f          MVN      r1,#0xff000000        ;1394
000278  4630              MOV      r0,r6                 ;1394
00027a  f7fffffe          BL       TEXT_SetTextColor
00027e  f640012f          MOV      r1,#0x82f             ;1396
000282  6860              LDR      r0,[r4,#4]            ;1396  ; hWinset
000284  f7fffffe          BL       WM_GetDialogItem
000288  4604              MOV      r4,r0                 ;1396
00028a  4960              LDR      r1,|L9.1036|
00028c  4620              MOV      r0,r4                 ;1397
00028e  f7fffffe          BL       TEXT_SetBkColor
000292  2100              MOVS     r1,#0                 ;1398
000294  4620              MOV      r0,r4                 ;1398
000296  f7fffffe          BL       TEXT_SetTextColor
00029a  f8859000          STRB     r9,[r5,#0]            ;1400
00029e  e724              B        |L9.234|
                  |L9.672|
0002a0  4604              MOV      r4,r0                 ;1407
0002a2  f6400131          MOV      r1,#0x831             ;1407
0002a6  4610              MOV      r0,r2                 ;1407
0002a8  f7fffffe          BL       WM_GetDialogItem
0002ac  4606              MOV      r6,r0                 ;1407
0002ae  f06f4170          MVN      r1,#0xf0000000        ;1408
0002b2  4630              MOV      r0,r6                 ;1408
0002b4  f7fffffe          BL       TEXT_SetBkColor
0002b8  f06f417f          MVN      r1,#0xff000000        ;1409
0002bc  4630              MOV      r0,r6                 ;1409
0002be  f7fffffe          BL       TEXT_SetTextColor
0002c2  4659              MOV      r1,r11                ;1411
0002c4  6860              LDR      r0,[r4,#4]            ;1411  ; hWinset
0002c6  f7fffffe          BL       WM_GetDialogItem
0002ca  4604              MOV      r4,r0                 ;1411
0002cc  494f              LDR      r1,|L9.1036|
0002ce  4620              MOV      r0,r4                 ;1412
0002d0  f7fffffe          BL       TEXT_SetBkColor
0002d4  2100              MOVS     r1,#0                 ;1413
0002d6  4620              MOV      r0,r4                 ;1413
0002d8  f7fffffe          BL       TEXT_SetTextColor
0002dc  f885a000          STRB     r10,[r5,#0]           ;1415
0002e0  e703              B        |L9.234|
                  |L9.738|
0002e2  4604              MOV      r4,r0                 ;1422
0002e4  f640013b          MOV      r1,#0x83b             ;1422
0002e8  4610              MOV      r0,r2                 ;1422
0002ea  f7fffffe          BL       WM_GetDialogItem
0002ee  4606              MOV      r6,r0                 ;1422
0002f0  f06f4170          MVN      r1,#0xf0000000        ;1423
0002f4  4630              MOV      r0,r6                 ;1423
0002f6  f7fffffe          BL       TEXT_SetBkColor
0002fa  f06f417f          MVN      r1,#0xff000000        ;1424
0002fe  4630              MOV      r0,r6                 ;1424
000300  f7fffffe          BL       TEXT_SetTextColor
000304  f44f6114          MOV      r1,#0x940             ;1426
000308  6860              LDR      r0,[r4,#4]            ;1426  ; hWinset
00030a  f7fffffe          BL       WM_GetDialogItem
00030e  4604              MOV      r4,r0                 ;1426
000310  493e              LDR      r1,|L9.1036|
000312  4620              MOV      r0,r4                 ;1427
000314  f7fffffe          BL       TEXT_SetBkColor
000318  2100              MOVS     r1,#0                 ;1428
00031a  4620              MOV      r0,r4                 ;1428
00031c  f7fffffe          BL       TEXT_SetTextColor
000320  2059              MOVS     r0,#0x59              ;1430
000322  7028              STRB     r0,[r5,#0]            ;1430
000324  e6e1              B        |L9.234|
                  |L9.806|
000326  4604              MOV      r4,r0                 ;1437
000328  f640013c          MOV      r1,#0x83c             ;1437
00032c  4610              MOV      r0,r2                 ;1437
00032e  f7fffffe          BL       WM_GetDialogItem
000332  4606              MOV      r6,r0                 ;1437
000334  f06f4170          MVN      r1,#0xf0000000        ;1438
000338  4630              MOV      r0,r6                 ;1438
00033a  f7fffffe          BL       TEXT_SetBkColor
00033e  f06f417f          MVN      r1,#0xff000000        ;1439
000342  4630              MOV      r0,r6                 ;1439
000344  f7fffffe          BL       TEXT_SetTextColor
000348  f640013b          MOV      r1,#0x83b             ;1441
00034c  6860              LDR      r0,[r4,#4]            ;1441  ; hWinset
00034e  f7fffffe          BL       WM_GetDialogItem
000352  4604              MOV      r4,r0                 ;1441
000354  492d              LDR      r1,|L9.1036|
000356  4620              MOV      r0,r4                 ;1442
000358  f7fffffe          BL       TEXT_SetBkColor
00035c  2100              MOVS     r1,#0                 ;1443
00035e  4620              MOV      r0,r4                 ;1443
000360  f7fffffe          BL       TEXT_SetTextColor
000364  2007              MOVS     r0,#7                 ;1445
000366  7028              STRB     r0,[r5,#0]            ;1445
000368  e6bf              B        |L9.234|
                  |L9.874|
00036a  4604              MOV      r4,r0                 ;1452
00036c  f640019e          MOV      r1,#0x89e             ;1452
000370  4610              MOV      r0,r2                 ;1452
000372  f7fffffe          BL       WM_GetDialogItem
000376  4606              MOV      r6,r0                 ;1452
000378  f06f4170          MVN      r1,#0xf0000000        ;1453
00037c  4630              MOV      r0,r6                 ;1453
00037e  f7fffffe          BL       TEXT_SetBkColor
000382  f06f417f          MVN      r1,#0xff000000        ;1454
000386  4630              MOV      r0,r6                 ;1454
000388  f7fffffe          BL       TEXT_SetTextColor
00038c  f640013c          MOV      r1,#0x83c             ;1456
000390  6860              LDR      r0,[r4,#4]            ;1456  ; hWinset
000392  f7fffffe          BL       WM_GetDialogItem
000396  4604              MOV      r4,r0                 ;1456
000398  491c              LDR      r1,|L9.1036|
00039a  4620              MOV      r0,r4                 ;1457
00039c  f7fffffe          BL       TEXT_SetBkColor
0003a0  2100              MOVS     r1,#0                 ;1458
0003a2  4620              MOV      r0,r4                 ;1458
0003a4  f7fffffe          BL       TEXT_SetTextColor
0003a8  2008              MOVS     r0,#8                 ;1460
0003aa  7028              STRB     r0,[r5,#0]            ;1460
0003ac  e69d              B        |L9.234|
                  |L9.942|
0003ae  4604              MOV      r4,r0                 ;1467
0003b0  4639              MOV      r1,r7                 ;1467
0003b2  4610              MOV      r0,r2                 ;1467
0003b4  f7fffffe          BL       WM_GetDialogItem
0003b8  4606              MOV      r6,r0                 ;1467
0003ba  f06f4170          MVN      r1,#0xf0000000        ;1468
0003be  4630              MOV      r0,r6                 ;1468
0003c0  f7fffffe          BL       TEXT_SetBkColor
0003c4  f06f417f          MVN      r1,#0xff000000        ;1469
0003c8  4630              MOV      r0,r6                 ;1469
0003ca  f7fffffe          BL       TEXT_SetTextColor
0003ce  f640019e          MOV      r1,#0x89e             ;1471
0003d2  6860              LDR      r0,[r4,#4]            ;1471  ; hWinset
0003d4  f7fffffe          BL       WM_GetDialogItem
0003d8  4604              MOV      r4,r0                 ;1471
0003da  490c              LDR      r1,|L9.1036|
0003dc  4620              MOV      r0,r4                 ;1472
0003de  f7fffffe          BL       TEXT_SetBkColor
0003e2  2100              MOVS     r1,#0                 ;1473
0003e4  4620              MOV      r0,r4                 ;1473
0003e6  f7fffffe          BL       TEXT_SetTextColor
0003ea  2029              MOVS     r0,#0x29              ;1475
0003ec  7028              STRB     r0,[r5,#0]            ;1475
0003ee  e67c              B        |L9.234|
                  |L9.1008|
                          DCD      Run_Control
                  |L9.1012|
0003f4  447a0000          DCFS     0x447a0000 ; 1000
                  |L9.1016|
                          DCD      set_sw
                  |L9.1020|
                          DCD      ||.data||
                  |L9.1024|
                          DCD      b_type
                  |L9.1028|
                          DCD      buffer
                  |L9.1032|
                          DCD      ||.bss||
                  |L9.1036|
                          DCD      0x00bfffff
                  |L9.1040|
000410  4604              MOV      r4,r0                 ;1497
000412  f6400161          MOV      r1,#0x861             ;1497
000416  4610              MOV      r0,r2                 ;1497
000418  f7fffffe          BL       WM_GetDialogItem
00041c  4606              MOV      r6,r0                 ;1497
00041e  f06f4170          MVN      r1,#0xf0000000        ;1498
000422  4630              MOV      r0,r6                 ;1498
000424  f7fffffe          BL       TEXT_SetBkColor
000428  f06f417f          MVN      r1,#0xff000000        ;1499
00042c  4630              MOV      r0,r6                 ;1499
00042e  f7fffffe          BL       TEXT_SetTextColor
000432  ee180a90          VMOV     r0,s17                ;1501
000436  f7fffffe          BL       __aeabi_f2d
00043a  ec410b10          VMOV     d0,r0,r1              ;1501
00043e  a1ff              ADR      r1,|L9.2108|
000440  ec532b10          VMOV     r2,r3,d0              ;1501
000444  a804              ADD      r0,sp,#0x10           ;1501
000446  f7fffffe          BL       __2sprintf
00044a  a904              ADD      r1,sp,#0x10           ;1502
00044c  4630              MOV      r0,r6                 ;1502
00044e  f7fffffe          BL       TEXT_SetText
000452  f44f6106          MOV      r1,#0x860             ;1504
000456  6860              LDR      r0,[r4,#4]            ;1504  ; hWinset
000458  f7fffffe          BL       WM_GetDialogItem
00045c  4604              MOV      r4,r0                 ;1504
00045e  49f9              LDR      r1,|L9.2116|
000460  4620              MOV      r0,r4                 ;1505
000462  f7fffffe          BL       TEXT_SetBkColor
000466  2100              MOVS     r1,#0                 ;1506
000468  4620              MOV      r0,r4                 ;1506
00046a  f7fffffe          BL       TEXT_SetTextColor
00046e  2000              MOVS     r0,#0                 ;1508
000470  9006              STR      r0,[sp,#0x18]         ;1508
000472  4af5              LDR      r2,|L9.2120|
000474  e006              B        |L9.1156|
                  |L9.1142|
000476  f89d1018          LDRB     r1,[sp,#0x18]         ;1509
00047a  5450              STRB     r0,[r2,r1]            ;1509
00047c  f89d1018          LDRB     r1,[sp,#0x18]         ;1508
000480  1c49              ADDS     r1,r1,#1              ;1508
000482  9106              STR      r1,[sp,#0x18]         ;1508
                  |L9.1156|
000484  f89d1018          LDRB     r1,[sp,#0x18]         ;1508
000488  2906              CMP      r1,#6                 ;1508
00048a  d3f4              BCC      |L9.1142|
00048c  49ef              LDR      r1,|L9.2124|
00048e  7008              STRB     r0,[r1,#0]            ;1511
000490  49ef              LDR      r1,|L9.2128|
000492  7008              STRB     r0,[r1,#0]            ;1512
000494  200b              MOVS     r0,#0xb               ;1513
000496  7028              STRB     r0,[r5,#0]            ;1513
000498  e627              B        |L9.234|
                  |L9.1178|
00049a  4604              MOV      r4,r0                 ;1520
00049c  f6401136          MOV      r1,#0x936             ;1520
0004a0  4610              MOV      r0,r2                 ;1520
0004a2  f7fffffe          BL       WM_GetDialogItem
0004a6  4607              MOV      r7,r0                 ;1520
0004a8  f06f4170          MVN      r1,#0xf0000000        ;1521
0004ac  4638              MOV      r0,r7                 ;1521
0004ae  f7fffffe          BL       TEXT_SetBkColor
0004b2  f06f417f          MVN      r1,#0xff000000        ;1522
0004b6  4638              MOV      r0,r7                 ;1522
0004b8  f7fffffe          BL       TEXT_SetTextColor
0004bc  ed960a01          VLDR     s0,[r6,#4]            ;1524
0004c0  eef80ac0          VCVT.F32.S32 s1,s0                 ;1524
0004c4  ee800a88          VDIV.F32 s0,s1,s16             ;1524
0004c8  ee100a10          VMOV     r0,s0                 ;1524
0004cc  f7fffffe          BL       __aeabi_f2d
0004d0  ec410b10          VMOV     d0,r0,r1              ;1524
0004d4  a1d9              ADR      r1,|L9.2108|
0004d6  ec532b10          VMOV     r2,r3,d0              ;1524
0004da  a804              ADD      r0,sp,#0x10           ;1524
0004dc  f7fffffe          BL       __2sprintf
0004e0  a904              ADD      r1,sp,#0x10           ;1525
0004e2  4638              MOV      r0,r7                 ;1525
0004e4  f7fffffe          BL       TEXT_SetText
0004e8  f6401135          MOV      r1,#0x935             ;1527
0004ec  6860              LDR      r0,[r4,#4]            ;1527  ; hWinset
0004ee  f7fffffe          BL       WM_GetDialogItem
0004f2  4604              MOV      r4,r0                 ;1527
0004f4  49d3              LDR      r1,|L9.2116|
0004f6  4620              MOV      r0,r4                 ;1528
0004f8  f7fffffe          BL       TEXT_SetBkColor
0004fc  2100              MOVS     r1,#0                 ;1529
0004fe  4620              MOV      r0,r4                 ;1529
000500  f7fffffe          BL       TEXT_SetTextColor
000504  2000              MOVS     r0,#0                 ;1531
000506  9006              STR      r0,[sp,#0x18]         ;1531
000508  4acf              LDR      r2,|L9.2120|
00050a  e006              B        |L9.1306|
                  |L9.1292|
00050c  f89d1018          LDRB     r1,[sp,#0x18]         ;1532
000510  5450              STRB     r0,[r2,r1]            ;1532
000512  f89d1018          LDRB     r1,[sp,#0x18]         ;1531
000516  1c49              ADDS     r1,r1,#1              ;1531
000518  9106              STR      r1,[sp,#0x18]         ;1531
                  |L9.1306|
00051a  f89d1018          LDRB     r1,[sp,#0x18]         ;1531
00051e  2906              CMP      r1,#6                 ;1531
000520  d3f4              BCC      |L9.1292|
000522  49ca              LDR      r1,|L9.2124|
000524  7008              STRB     r0,[r1,#0]            ;1534
000526  49ca              LDR      r1,|L9.2128|
000528  7008              STRB     r0,[r1,#0]            ;1535
00052a  2051              MOVS     r0,#0x51              ;1536
00052c  7028              STRB     r0,[r5,#0]            ;1536
00052e  e5dc              B        |L9.234|
                  |L9.1328|
000530  4606              MOV      r6,r0                 ;1543
000532  f6400165          MOV      r1,#0x865             ;1543
000536  4610              MOV      r0,r2                 ;1543
000538  f7fffffe          BL       WM_GetDialogItem
00053c  4607              MOV      r7,r0                 ;1543
00053e  f06f4170          MVN      r1,#0xf0000000        ;1544
000542  4638              MOV      r0,r7                 ;1544
000544  f7fffffe          BL       TEXT_SetBkColor
000548  f06f417f          MVN      r1,#0xff000000        ;1545
00054c  4638              MOV      r0,r7                 ;1545
00054e  f7fffffe          BL       TEXT_SetTextColor
000552  6ce0              LDR      r0,[r4,#0x4c]         ;1547  ; Run_Control
000554  ee000a10          VMOV     s0,r0                 ;1547
000558  eef80a40          VCVT.F32.U32 s1,s0                 ;1547
00055c  ee800a88          VDIV.F32 s0,s1,s16             ;1547
000560  ee100a10          VMOV     r0,s0                 ;1547
000564  f7fffffe          BL       __aeabi_f2d
000568  ec410b10          VMOV     d0,r0,r1              ;1547
00056c  a1b3              ADR      r1,|L9.2108|
00056e  ec532b10          VMOV     r2,r3,d0              ;1547
000572  a804              ADD      r0,sp,#0x10           ;1547
000574  f7fffffe          BL       __2sprintf
000578  a904              ADD      r1,sp,#0x10           ;1548
00057a  4638              MOV      r0,r7                 ;1548
00057c  f7fffffe          BL       TEXT_SetText
000580  f6400164          MOV      r1,#0x864             ;1550
000584  6870              LDR      r0,[r6,#4]            ;1550  ; hWinset
000586  f7fffffe          BL       WM_GetDialogItem
00058a  4604              MOV      r4,r0                 ;1550
00058c  49ad              LDR      r1,|L9.2116|
00058e  4620              MOV      r0,r4                 ;1551
000590  f7fffffe          BL       TEXT_SetBkColor
000594  2100              MOVS     r1,#0                 ;1552
000596  4620              MOV      r0,r4                 ;1552
000598  f7fffffe          BL       TEXT_SetTextColor
00059c  2000              MOVS     r0,#0                 ;1554
00059e  9006              STR      r0,[sp,#0x18]         ;1554
0005a0  4aa9              LDR      r2,|L9.2120|
0005a2  e006              B        |L9.1458|
                  |L9.1444|
0005a4  f89d1018          LDRB     r1,[sp,#0x18]         ;1555
0005a8  5450              STRB     r0,[r2,r1]            ;1555
0005aa  f89d1018          LDRB     r1,[sp,#0x18]         ;1554
0005ae  1c49              ADDS     r1,r1,#1              ;1554
0005b0  9106              STR      r1,[sp,#0x18]         ;1554
                  |L9.1458|
0005b2  f89d1018          LDRB     r1,[sp,#0x18]         ;1554
0005b6  2906              CMP      r1,#6                 ;1554
0005b8  d3f4              BCC      |L9.1444|
0005ba  49a4              LDR      r1,|L9.2124|
0005bc  7008              STRB     r0,[r1,#0]            ;1557
0005be  49a4              LDR      r1,|L9.2128|
0005c0  7008              STRB     r0,[r1,#0]            ;1558
0005c2  200f              MOVS     r0,#0xf               ;1559
0005c4  7028              STRB     r0,[r5,#0]            ;1559
0005c6  e590              B        |L9.234|
                  |L9.1480|
0005c8  4604              MOV      r4,r0                 ;1566
0005ca  f6401138          MOV      r1,#0x938             ;1566
0005ce  4610              MOV      r0,r2                 ;1566
0005d0  f7fffffe          BL       WM_GetDialogItem
0005d4  4607              MOV      r7,r0                 ;1566
0005d6  f06f4170          MVN      r1,#0xf0000000        ;1567
0005da  4638              MOV      r0,r7                 ;1567
0005dc  f7fffffe          BL       TEXT_SetBkColor
0005e0  f06f417f          MVN      r1,#0xff000000        ;1568
0005e4  4638              MOV      r0,r7                 ;1568
0005e6  f7fffffe          BL       TEXT_SetTextColor
0005ea  ed960a03          VLDR     s0,[r6,#0xc]          ;1570
0005ee  eef80ac0          VCVT.F32.S32 s1,s0                 ;1570
0005f2  ee800a88          VDIV.F32 s0,s1,s16             ;1570
0005f6  ee100a10          VMOV     r0,s0                 ;1570
0005fa  f7fffffe          BL       __aeabi_f2d
0005fe  ec410b10          VMOV     d0,r0,r1              ;1570
000602  a18e              ADR      r1,|L9.2108|
000604  ec532b10          VMOV     r2,r3,d0              ;1570
000608  a804              ADD      r0,sp,#0x10           ;1570
00060a  f7fffffe          BL       __2sprintf
00060e  a904              ADD      r1,sp,#0x10           ;1571
000610  4638              MOV      r0,r7                 ;1571
000612  f7fffffe          BL       TEXT_SetText
000616  f6401137          MOV      r1,#0x937             ;1573
00061a  6860              LDR      r0,[r4,#4]            ;1573  ; hWinset
00061c  f7fffffe          BL       WM_GetDialogItem
000620  4604              MOV      r4,r0                 ;1573
000622  4988              LDR      r1,|L9.2116|
000624  4620              MOV      r0,r4                 ;1574
000626  f7fffffe          BL       TEXT_SetBkColor
00062a  2100              MOVS     r1,#0                 ;1575
00062c  4620              MOV      r0,r4                 ;1575
00062e  f7fffffe          BL       TEXT_SetTextColor
000632  2000              MOVS     r0,#0                 ;1577
000634  9006              STR      r0,[sp,#0x18]         ;1577
000636  4a84              LDR      r2,|L9.2120|
000638  e006              B        |L9.1608|
                  |L9.1594|
00063a  f89d1018          LDRB     r1,[sp,#0x18]         ;1578
00063e  5450              STRB     r0,[r2,r1]            ;1578
000640  f89d1018          LDRB     r1,[sp,#0x18]         ;1577
000644  1c49              ADDS     r1,r1,#1              ;1577
000646  9106              STR      r1,[sp,#0x18]         ;1577
                  |L9.1608|
000648  f89d1018          LDRB     r1,[sp,#0x18]         ;1577
00064c  2906              CMP      r1,#6                 ;1577
00064e  d3f4              BCC      |L9.1594|
000650  497e              LDR      r1,|L9.2124|
000652  7008              STRB     r0,[r1,#0]            ;1580
000654  497e              LDR      r1,|L9.2128|
000656  7008              STRB     r0,[r1,#0]            ;1581
000658  2053              MOVS     r0,#0x53              ;1582
00065a  7028              STRB     r0,[r5,#0]            ;1582
00065c  e545              B        |L9.234|
                  |L9.1630|
00065e  4606              MOV      r6,r0                 ;1589
000660  f640019f          MOV      r1,#0x89f             ;1589
000664  4610              MOV      r0,r2                 ;1589
000666  f7fffffe          BL       WM_GetDialogItem
00066a  4607              MOV      r7,r0                 ;1589
00066c  f06f4170          MVN      r1,#0xf0000000        ;1590
000670  4638              MOV      r0,r7                 ;1590
000672  f7fffffe          BL       TEXT_SetBkColor
000676  f06f417f          MVN      r1,#0xff000000        ;1591
00067a  4638              MOV      r0,r7                 ;1591
00067c  f7fffffe          BL       TEXT_SetTextColor
000680  f6401103          MOV      r1,#0x903             ;1593
000684  6870              LDR      r0,[r6,#4]            ;1593  ; hWinset
000686  f7fffffe          BL       WM_GetDialogItem
00068a  4606              MOV      r6,r0                 ;1593
00068c  496d              LDR      r1,|L9.2116|
00068e  4630              MOV      r0,r6                 ;1594
000690  f7fffffe          BL       TEXT_SetBkColor
000694  2100              MOVS     r1,#0                 ;1595
000696  4630              MOV      r0,r6                 ;1595
000698  f7fffffe          BL       TEXT_SetTextColor
00069c  f89b0000          LDRB     r0,[r11,#0]           ;1597  ; b_type
0006a0  2806              CMP      r0,#6                 ;1597
0006a2  d212              BCS      |L9.1738|
0006a4  e8dff000          TBB      [pc,r0]               ;1597
0006a8  11030609          DCB      0x11,0x03,0x06,0x09
0006ac  0c0f              DCB      0x0c,0x0f
0006ae  f884a000          STRB     r10,[r4,#0]           ;1601
0006b2  e00a              B        |L9.1738|
0006b4  f884a000          STRB     r10,[r4,#0]           ;1606
0006b8  e007              B        |L9.1738|
0006ba  f884a000          STRB     r10,[r4,#0]           ;1611
0006be  e004              B        |L9.1738|
0006c0  f884a000          STRB     r10,[r4,#0]           ;1616
0006c4  e001              B        |L9.1738|
0006c6  f8849000          STRB     r9,[r4,#0]            ;1621
                  |L9.1738|
0006ca  202e              MOVS     r0,#0x2e              ;1626
0006cc  7028              STRB     r0,[r5,#0]            ;1626
0006ce  e50c              B        |L9.234|
                  |L9.1744|
0006d0  f44f6110          MOV      r1,#0x900             ;1632
0006d4  4610              MOV      r0,r2                 ;1632
0006d6  f7fffffe          BL       WM_GetDialogItem
0006da  9001              STR      r0,[sp,#4]            ;1632
0006dc  f06f4170          MVN      r1,#0xf0000000        ;1633
0006e0  9801              LDR      r0,[sp,#4]            ;1633
0006e2  f7fffffe          BL       TEXT_SetBkColor
0006e6  f06f417f          MVN      r1,#0xff000000        ;1634
0006ea  9801              LDR      r0,[sp,#4]            ;1634
0006ec  f7fffffe          BL       TEXT_SetTextColor
0006f0  4858              LDR      r0,|L9.2132|
0006f2  f640019f          MOV      r1,#0x89f             ;1636
0006f6  6840              LDR      r0,[r0,#4]            ;1636  ; hWinset
0006f8  f7fffffe          BL       WM_GetDialogItem
0006fc  9001              STR      r0,[sp,#4]            ;1636
0006fe  4951              LDR      r1,|L9.2116|
000700  9801              LDR      r0,[sp,#4]            ;1637
000702  f7fffffe          BL       TEXT_SetBkColor
000706  2100              MOVS     r1,#0                 ;1638
000708  9801              LDR      r0,[sp,#4]            ;1638
00070a  f7fffffe          BL       TEXT_SetTextColor
00070e  f89b0000          LDRB     r0,[r11,#0]           ;1640  ; b_type
000712  2806              CMP      r0,#6                 ;1640
000714  d210              BCS      |L9.1848|
000716  e8dff000          TBB      [pc,r0]               ;1640
00071a  0f03              DCB      0x0f,0x03
00071c  05070a0d          DCB      0x05,0x07,0x0a,0x0d
000720  7026              STRB     r6,[r4,#0]            ;1644
000722  e009              B        |L9.1848|
000724  7027              STRB     r7,[r4,#0]            ;1649
000726  e007              B        |L9.1848|
000728  f8848000          STRB     r8,[r4,#0]            ;1654
00072c  e004              B        |L9.1848|
00072e  f8849000          STRB     r9,[r4,#0]            ;1659
000732  e001              B        |L9.1848|
000734  f884a000          STRB     r10,[r4,#0]           ;1664
                  |L9.1848|
000738  202a              MOVS     r0,#0x2a              ;1669
00073a  7028              STRB     r0,[r5,#0]            ;1669
00073c  e4d5              B        |L9.234|
                  |L9.1854|
00073e  4680              MOV      r8,r0                 ;1675
000740  f6401101          MOV      r1,#0x901             ;1675
000744  4610              MOV      r0,r2                 ;1675
000746  f7fffffe          BL       WM_GetDialogItem
00074a  4681              MOV      r9,r0                 ;1675
00074c  f06f4170          MVN      r1,#0xf0000000        ;1676
000750  4648              MOV      r0,r9                 ;1676
000752  f7fffffe          BL       TEXT_SetBkColor
000756  f06f417f          MVN      r1,#0xff000000        ;1677
00075a  4648              MOV      r0,r9                 ;1677
00075c  f7fffffe          BL       TEXT_SetTextColor
000760  f44f6110          MOV      r1,#0x900             ;1679
000764  f8d80004          LDR      r0,[r8,#4]            ;1679  ; hWinset
000768  f7fffffe          BL       WM_GetDialogItem
00076c  4680              MOV      r8,r0                 ;1679
00076e  4935              LDR      r1,|L9.2116|
000770  4640              MOV      r0,r8                 ;1680
000772  f7fffffe          BL       TEXT_SetBkColor
000776  2100              MOVS     r1,#0                 ;1681
000778  4640              MOV      r0,r8                 ;1681
00077a  f7fffffe          BL       TEXT_SetTextColor
00077e  f89b0000          LDRB     r0,[r11,#0]           ;1683  ; b_type
000782  2806              CMP      r0,#6                 ;1683
000784  d20d              BCS      |L9.1954|
000786  e8dff000          TBB      [pc,r0]               ;1683
00078a  0c03              DCB      0x0c,0x03
00078c  0507090b          DCB      0x05,0x07,0x09,0x0b
000790  7027              STRB     r7,[r4,#0]            ;1687
000792  e006              B        |L9.1954|
000794  7026              STRB     r6,[r4,#0]            ;1692
000796  e004              B        |L9.1954|
000798  7026              STRB     r6,[r4,#0]            ;1697
00079a  e002              B        |L9.1954|
00079c  7026              STRB     r6,[r4,#0]            ;1702
00079e  e000              B        |L9.1954|
0007a0  7026              STRB     r6,[r4,#0]            ;1707
                  |L9.1954|
0007a2  202b              MOVS     r0,#0x2b              ;1712
0007a4  7028              STRB     r0,[r5,#0]            ;1712
0007a6  e4a0              B        |L9.234|
                  |L9.1960|
0007a8  4606              MOV      r6,r0                 ;1718
0007aa  f6401102          MOV      r1,#0x902             ;1718
0007ae  4610              MOV      r0,r2                 ;1718
0007b0  f7fffffe          BL       WM_GetDialogItem
0007b4  4681              MOV      r9,r0                 ;1718
0007b6  f06f4170          MVN      r1,#0xf0000000        ;1719
0007ba  4648              MOV      r0,r9                 ;1719
0007bc  f7fffffe          BL       TEXT_SetBkColor
0007c0  f06f417f          MVN      r1,#0xff000000        ;1720
0007c4  4648              MOV      r0,r9                 ;1720
0007c6  f7fffffe          BL       TEXT_SetTextColor
0007ca  f6401101          MOV      r1,#0x901             ;1722
0007ce  6870              LDR      r0,[r6,#4]            ;1722  ; hWinset
0007d0  f7fffffe          BL       WM_GetDialogItem
0007d4  4606              MOV      r6,r0                 ;1722
0007d6  491b              LDR      r1,|L9.2116|
0007d8  4630              MOV      r0,r6                 ;1723
0007da  f7fffffe          BL       TEXT_SetBkColor
0007de  2100              MOVS     r1,#0                 ;1724
0007e0  4630              MOV      r0,r6                 ;1724
0007e2  f7fffffe          BL       TEXT_SetTextColor
0007e6  f89b0000          LDRB     r0,[r11,#0]           ;1726  ; b_type
0007ea  2806              CMP      r0,#6                 ;1726
0007ec  d20f              BCS      |L9.2062|
0007ee  e8dff000          TBB      [pc,r0]               ;1726
0007f2  0e03              DCB      0x0e,0x03
0007f4  06090b0d          DCB      0x06,0x09,0x0b,0x0d
0007f8  f8848000          STRB     r8,[r4,#0]            ;1730
0007fc  e007              B        |L9.2062|
0007fe  f8848000          STRB     r8,[r4,#0]            ;1735
000802  e004              B        |L9.2062|
000804  7027              STRB     r7,[r4,#0]            ;1740
000806  e002              B        |L9.2062|
000808  7027              STRB     r7,[r4,#0]            ;1745
00080a  e000              B        |L9.2062|
00080c  7027              STRB     r7,[r4,#0]            ;1750
                  |L9.2062|
00080e  202c              MOVS     r0,#0x2c              ;1755
000810  7028              STRB     r0,[r5,#0]            ;1755
000812  e46a              B        |L9.234|
                  |L9.2068|
000814  4606              MOV      r6,r0                 ;1761
000816  f6401103          MOV      r1,#0x903             ;1761
00081a  4610              MOV      r0,r2                 ;1761
00081c  f7fffffe          BL       WM_GetDialogItem
000820  4607              MOV      r7,r0                 ;1761
000822  f06f4170          MVN      r1,#0xf0000000        ;1762
000826  4638              MOV      r0,r7                 ;1762
000828  f7fffffe          BL       TEXT_SetBkColor
00082c  f06f417f          MVN      r1,#0xff000000        ;1763
000830  4638              MOV      r0,r7                 ;1763
000832  f7fffffe          BL       TEXT_SetTextColor
000836  f6401102          MOV      r1,#0x902             ;1765
00083a  e00d              B        |L9.2136|
                  |L9.2108|
00083c  252e3366          DCB      "%.3f",0
000840  00      
000841  00                DCB      0
000842  00                DCB      0
000843  00                DCB      0
                  |L9.2116|
                          DCD      0x00bfffff
                  |L9.2120|
                          DCD      set_limit
                  |L9.2124|
                          DCD      bit
                  |L9.2128|
                          DCD      dot_flag
                  |L9.2132|
                          DCD      ||.data||
                  |L9.2136|
000858  6870              LDR      r0,[r6,#4]            ;1765  ; hWinset
00085a  f7fffffe          BL       WM_GetDialogItem
00085e  4606              MOV      r6,r0                 ;1765
000860  4910              LDR      r1,|L9.2212|
000862  4630              MOV      r0,r6                 ;1766
000864  f7fffffe          BL       TEXT_SetBkColor
000868  2100              MOVS     r1,#0                 ;1767
00086a  4630              MOV      r0,r6                 ;1767
00086c  f7fffffe          BL       TEXT_SetTextColor
000870  f89b0000          LDRB     r0,[r11,#0]           ;1769  ; b_type
000874  2806              CMP      r0,#6                 ;1769
000876  d212              BCS      |L9.2206|
000878  e8dff000          TBB      [pc,r0]               ;1769
00087c  11030609          DCB      0x11,0x03,0x06,0x09
000880  0c0f              DCB      0x0c,0x0f
000882  f8849000          STRB     r9,[r4,#0]            ;1773
000886  e00a              B        |L9.2206|
000888  f8849000          STRB     r9,[r4,#0]            ;1778
00088c  e007              B        |L9.2206|
00088e  f8849000          STRB     r9,[r4,#0]            ;1783
000892  e004              B        |L9.2206|
000894  f8848000          STRB     r8,[r4,#0]            ;1788
000898  e001              B        |L9.2206|
00089a  f8848000          STRB     r8,[r4,#0]            ;1793
                  |L9.2206|
00089e  202d              MOVS     r0,#0x2d              ;1798
0008a0  7028              STRB     r0,[r5,#0]            ;1798
0008a2  e422              B        |L9.234|
;;;1805   
                          ENDP

                  |L9.2212|
                          DCD      0x00bfffff

                          AREA ||i._cbDialog||, CODE, READONLY, ALIGN=2

                          REQUIRE _printf_percent
                          REQUIRE _printf_widthprec
                          REQUIRE _printf_f
                          REQUIRE _printf_fp_dec
                          REQUIRE _printf_pre_padding
                          REQUIRE _printf_d
                          REQUIRE _printf_int_dec
                  _cbDialog PROC
;;;149    */
;;;150    static void _cbDialog(WM_MESSAGE * pMsg) {
000000  e92d4ff0          PUSH     {r4-r11,lr}
000004  ed2d8b06          VPUSH    {d8-d10}
000008  b085              SUB      sp,sp,#0x14
00000a  4604              MOV      r4,r0
;;;151        WM_HWIN hItem;
;;;152    
;;;153        char buf[5];   
;;;154    
;;;155        float dis_max_v = (float)set_max_v/1000;
00000c  4ffe              LDR      r7,|L10.1032|
00000e  6bb8              LDR      r0,[r7,#0x38]  ; Run_Control
000010  ee000a10          VMOV     s0,r0
000014  eeb80a40          VCVT.F32.U32 s0,s0
000018  eddf8afc          VLDR     s17,|L10.1036|
00001c  ee80aa28          VDIV.F32 s20,s0,s17
;;;156        float dis_min_v = (float)set_min_v/1000;
000020  6bf8              LDR      r0,[r7,#0x3c]  ; Run_Control
000022  ee000a10          VMOV     s0,r0
000026  eeb80a40          VCVT.F32.U32 s0,s0
00002a  eec09a28          VDIV.F32 s19,s0,s17
;;;157        vu16 dis_max_r = set_max_r;
00002e  6c38              LDR      r0,[r7,#0x40]  ; Run_Control
000030  9001              STR      r0,[sp,#4]
;;;158        vu16 dis_min_r = set_min_r;
000032  6c78              LDR      r0,[r7,#0x44]  ; Run_Control
000034  9000              STR      r0,[sp,#0]
;;;159        float dis_max_c = (float)set_max_c/1000;
000036  6cb8              LDR      r0,[r7,#0x48]  ; Run_Control
000038  ee000a10          VMOV     s0,r0
00003c  eeb80a40          VCVT.F32.U32 s0,s0
000040  ee809a28          VDIV.F32 s18,s0,s17
;;;160        float dis_min_c = (float)set_min_c/1000;
000044  6cf8              LDR      r0,[r7,#0x4c]  ; Run_Control
000046  ee000a10          VMOV     s0,r0
00004a  eeb80a40          VCVT.F32.U32 s0,s0
00004e  ee808a28          VDIV.F32 s16,s0,s17
;;;161        
;;;162      
;;;163      // USER START (Optionally insert additional variables)
;;;164      // USER END
;;;165    
;;;166      switch (pMsg->MsgId) {
000052  6820              LDR      r0,[r4,#0]
;;;167                
;;;168    		
;;;169    	case WM_PAINT:
;;;170    	GUI_SetColor(GUI_WHITE);// ®◊É€≠“ä“ï…´
;;;171    	GUI_FillRect(0,25,480,26);//€≠“ªÕµ µ–ü
;;;172        GUI_SetColor(GUI_ORANGE);
;;;173    	GUI_SetFont(&GUI_Fontsymbol);
;;;174    	GUI_UC_SetEncodeUTF8();
;;;175    	GUI_SetTextMode(GUI_TM_TRANS);// ®◊ÉœÑ—æƒ£ ΩŒ™÷ó…´Õ∏ƒ∑
;;;176    	if(jkflag == 1)
;;;177    	{
;;;178    		GUI_DispStringAt("Jinko", 5, 1);//SET
;;;179    	}
;;;180    	if(lang == 0)
000054  4dee              LDR      r5,|L10.1040|
000056  f06f467f          MVN      r6,#0xff000000        ;170
00005a  280f              CMP      r0,#0xf               ;166
00005c  d00f              BEQ      |L10.126|
;;;181        {
;;;182            GUI_SetColor(GUI_WHITE);
;;;183            GUI_SetFont(&GUI_FontHZ20S);
;;;184            GUI_UC_SetEncodeUTF8();
;;;185            GUI_SetTextMode(GUI_TM_TRANS);// ®◊ÉœÑ—æƒ£ ΩŒ™÷ó…´Õ∏ƒ∑
;;;186            GUI_DispStringAt("Á≥ªÁªüËÆæÁΩÆ", 130, 3);//SET
;;;187        }else{
;;;188            GUI_SetColor(GUI_WHITE);
;;;189            GUI_SetFont(&GUI_Font20_ASCII);
;;;190            GUI_UC_SetEncodeUTF8();
;;;191            GUI_SetTextMode(GUI_TM_TRANS);// ®◊ÉœÑ—æƒ£ ΩŒ™÷ó…´Õ∏ƒ∑
;;;192            GUI_DispStringAt("System Settings", 130, 3);//SET
;;;193        }
;;;194     	GUI_SetColor(GUI_WHITE);// ®◊É«∞ﬁ∞…´Œ™—ó…´
;;;195     	GUI_SetFont(&GUI_Font24_1);//
;;;196        GUI_DispStringAt("V",220,125);
;;;197        GUI_DispStringAt("V",220,150);
;;;198        GUI_DispStringAt("A",451,50);
;;;199        GUI_DispStringAt("A",451,75);
;;;200        GUI_DispStringAt("m",195,175);
;;;201        GUI_DispStringAt("m",195,200);
;;;202        GUI_SetFont(&GUI_FontHZ16);
;;;203        GUI_DispStringAt("Œ©",211,182);
;;;204        GUI_DispStringAt("Œ©",211,207);
;;;205    	GUI_SetColor(GUI_WHITE);// ®◊É«∞ﬁ∞…´Œ™—ó…´
;;;206     	GUI_SetFont(&GUI_Font16_1);//
;;;207    	GUI_DispStringAt("H",173,122);
;;;208        GUI_DispStringAt("L",173,136);
;;;209        GUI_DispStringAt("H",173,150);
;;;210        GUI_DispStringAt("L",173,164);
;;;211    	GUI_DispStringAt("H",404,47);
;;;212        GUI_DispStringAt("L",404,61);
;;;213        GUI_DispStringAt("H",404,75);
;;;214        GUI_DispStringAt("L",404,89);
;;;215        
;;;216        GUI_SetColor(GUI_GREEN);
;;;217        GUI_SetFont(&GUI_Fontunit);
;;;218        GUI_DispStringAt("¬∞",342, 2);
;;;219        GUI_SetFont(&GUI_Font24_1);
;;;220        GUI_DispStringAt("C",350, 2);
;;;221    //    DrawLock();
;;;222        
;;;223    	break;
;;;224    	case WM_TIMER://÷® ±ƒ£‡†©–ªœ¢
;;;225    	if(WM_GetTimerId(pMsg->Data.v) == ID_TimerTime5)
;;;226    	{
;;;227    //        lockstat2 = lockstat1;
;;;228    //        lockstat1 = lock; 
;;;229    //        if(lockstat1 != lockstat2)
;;;230    //        {
;;;231    //            WM_InvalidateWindow(hWinset);
;;;232    //        }
;;;233            
;;;234            hItem = WM_GetDialogItem(pMsg->hWin, ID_TEXT_129);       
;;;235            sprintf(buf,"%.1f",temp);
00005e  f8df83b4          LDR      r8,|L10.1044|
000062  281d              CMP      r0,#0x1d              ;166
000064  d07e              BEQ      |L10.356|
000066  f5a07080          SUB      r0,r0,#0x100          ;166
00006a  3813              SUBS     r0,r0,#0x13           ;166
00006c  d07b              BEQ      |L10.358|
;;;236            TEXT_SetText(hItem,buf);
;;;237            
;;;238    //		WM_InvalidateWindow(hWinset);//œû–ß€Ø‘∞‡†ö        
;;;239    		WM_RestartTimer(pMsg->Data.v,500);//ÿ¥Œª÷® ±«∑ÀΩ÷µ‘Ω’≥À¢—Ç ±›§‘Ω◊å
;;;240    	}
;;;241    	break;
;;;242        
;;;243    		
;;;244      case WM_INIT_DIALOG:
;;;245        //
;;;246        // Initialization of 'R'
;;;247    	
;;;248        //
;;;249            hItem = pMsg->hWin;
;;;250            WINDOW_SetBkColor(hItem, GUI_BLACK);
;;;251    		WM_CreateTimer(hItem,ID_TimerTime5,1000,0);//‘¥›®—æ‘∞‡†ö÷® ±«∑
;;;252        //
;;;253    
;;;254        //    
;;;255    // 		hItem = WM_GetDialogItem(pMsg->hWin, ID_BUTTON_30);
;;;256    // 		BUTTON_SetTextColor(hItem,0,GUI_BLACK);// ®◊ÉÿñÕ•“ï…´Œ™€ö…´
;;;257    // 		BUTTON_SetFont      (hItem,    &GUI_FontHZ16);// ®÷®–¥≈•œÑ—æÿñÕ•
;;;258    // 		GUI_UC_SetEncodeUTF8();
;;;259    // 		BUTTON_SetText(hItem,"ÂÖÖÊîæÁîµ");
;;;260    	
;;;261    		if(lang == 0)
;;;262            {
;;;263    			hItem = WM_GetDialogItem(pMsg->hWin, ID_BUTTON_31);
;;;264    	//		BUTTON_SetTextColor(hItem,0,GUI_BLACK);// ®◊ÉÿñÕ•“ï…´Œ™€ö…´
;;;265    			BUTTON_SetFont      (hItem,    &GUI_FontHZ16);// ®÷®–¥≈•œÑ—æÿñÕ•
;;;266    			GUI_UC_SetEncodeUTF8();
;;;267    			BUTTON_SetText(hItem,"ÂÜÖÈòªÊµãËØï");
;;;268    		
;;;269    			hItem = WM_GetDialogItem(pMsg->hWin, ID_BUTTON_32);
;;;270    	//		BUTTON_SetTextColor(hItem,0,GUI_BLACK);// ®◊ÉÿñÕ•“ï…´Œ™€ö…´
;;;271    			BUTTON_SetFont      (hItem,    &GUI_FontHZ16);// ®÷®–¥≈•œÑ—æÿñÕ•
;;;272    			GUI_UC_SetEncodeUTF8();
;;;273    			BUTTON_SetText(hItem,"Á®ãÊéßË¥üËΩΩ");
;;;274    			
;;;275    			hItem = WM_GetDialogItem(pMsg->hWin, ID_BUTTON_33);
;;;276    	//		BUTTON_SetTextColor(hItem,0,GUI_BLACK);// ®◊ÉÿñÕ•“ï…´Œ™€ö…´
;;;277    			BUTTON_SetFont      (hItem,    &GUI_FontHZ16);// ®÷®–¥≈•œÑ—æÿñÕ•
;;;278    			GUI_UC_SetEncodeUTF8();
;;;279    			BUTTON_SetText(hItem,"Á®ãÊéßÁîµÊ∫ê");
;;;280    			
;;;281    			hItem = WM_GetDialogItem(pMsg->hWin, ID_BUTTON_34);
;;;282    	//		BUTTON_SetTextColor(hItem,0,GUI_BLACK);// ®◊ÉÿñÕ•“ï…´Œ™€ö…´
;;;283    			BUTTON_SetFont      (hItem,    &GUI_FontHZ16);// ®÷®–¥≈•œÑ—æÿñÕ•
;;;284    			GUI_UC_SetEncodeUTF8();
;;;285    			BUTTON_SetText(hItem,"ÂÖÖÊîæÁîµ"); 
;;;286    			
;;;287    			hItem = WM_GetDialogItem(pMsg->hWin, ID_BUTTON_35);
;;;288    	//		BUTTON_SetTextColor(hItem,0,GUI_BLACK);// ®◊ÉÿñÕ•“ï…´Œ™€ö…´
;;;289    			BUTTON_SetFont      (hItem,&GUI_FontHZ16);// ®÷®–¥≈•œÑ—æÿñÕ•
;;;290    			GUI_UC_SetEncodeUTF8();
;;;291    			BUTTON_SetText(hItem,"Êõ≤Á∫ø");
;;;292    			
;;;293    			hItem = WM_GetDialogItem(pMsg->hWin, ID_TEXT_21);
;;;294    			TEXT_SetTextColor(hItem, GUI_BLACK);//ËÆæÁΩÆÂ≠ó‰ΩìÈ¢úËâ≤
;;;295    			TEXT_SetFont(hItem,&GUI_Fontset_font);//ËÆæÂÆöÊñáÊú¨Â≠ó‰Ωì
;;;296    			TEXT_SetBkColor(hItem,0x00BFFFFF);
;;;297    			GUI_UC_SetEncodeUTF8();
;;;298    			TEXT_SetText(hItem,"ÂàÜÈÄâÂºÄÂÖ≥");
;;;299    			
;;;300    			hItem = WM_GetDialogItem(pMsg->hWin, ID_TEXT_22);
;;;301    			TEXT_SetTextColor(hItem, GUI_WHITE);//ËÆæÁΩÆÂ≠ó‰ΩìÈ¢úËâ≤
;;;302    			TEXT_SetFont(hItem,&GUI_Fontset_font);//ËÆæÂÆöÊñáÊú¨Â≠ó‰Ωì
;;;303    			GUI_UC_SetEncodeUTF8();
;;;304    			TEXT_SetText(hItem,"ËøáÊµÅÊµãËØï");
;;;305    			
;;;306    			hItem = WM_GetDialogItem(pMsg->hWin, ID_TEXT_23);
;;;307    			TEXT_SetTextColor(hItem, GUI_WHITE);//ËÆæÁΩÆÂ≠ó‰ΩìÈ¢úËâ≤
;;;308    			TEXT_SetFont(hItem,&GUI_Fontset_font);//ËÆæÂÆöÊñáÊú¨Â≠ó‰Ωì
;;;309    			GUI_UC_SetEncodeUTF8();
;;;310    			TEXT_SetText(hItem,"Êä•Ë≠¶Â£∞Èü≥");
;;;311    			
;;;312    			hItem = WM_GetDialogItem(pMsg->hWin, ID_TEXT_24);
;;;313    			TEXT_SetTextColor(hItem, GUI_WHITE);//ËÆæÁΩÆÂ≠ó‰ΩìÈ¢úËâ≤
;;;314    			TEXT_SetFont(hItem,&GUI_Fontset_font);//ËÆæÂÆöÊñáÊú¨Â≠ó‰Ωì
;;;315    			GUI_UC_SetEncodeUTF8();
;;;316    			TEXT_SetText(hItem,"ÁîµÂéã‰∏ä‰∏ãÈôê");
;;;317    			
;;;318    			hItem = WM_GetDialogItem(pMsg->hWin, ID_TEXT_25);
;;;319    			TEXT_SetTextColor(hItem, GUI_WHITE);//ËÆæÁΩÆÂ≠ó‰ΩìÈ¢úËâ≤
;;;320    			TEXT_SetFont(hItem,&GUI_Fontset_font);//ËÆæÂÆöÊñáÊú¨Â≠ó‰Ωì
;;;321    			GUI_UC_SetEncodeUTF8();
;;;322    			TEXT_SetText(hItem,"Ë¥üËΩΩÁîµÂéã‰∏ä‰∏ãÈôê");
;;;323    			
;;;324    			hItem = WM_GetDialogItem(pMsg->hWin, ID_TEXT_26);
;;;325    			TEXT_SetTextColor(hItem, GUI_WHITE);//ËÆæÁΩÆÂ≠ó‰ΩìÈ¢úËâ≤
;;;326    			TEXT_SetFont(hItem,&GUI_Fontset_font);//ËÆæÂÆöÊñáÊú¨Â≠ó‰Ωì
;;;327    			GUI_UC_SetEncodeUTF8();
;;;328    			TEXT_SetText(hItem,"ÂÜÖÈòª‰∏äÈôê");
;;;329    			
;;;330    			hItem = WM_GetDialogItem(pMsg->hWin, ID_TEXT_27);
;;;331    			TEXT_SetTextColor(hItem, GUI_WHITE);//ËÆæÁΩÆÂ≠ó‰ΩìÈ¢úËâ≤
;;;332    			TEXT_SetFont(hItem,&GUI_Fontset_font);//ËÆæÂÆöÊñáÊú¨Â≠ó‰Ωì
;;;333    			GUI_UC_SetEncodeUTF8();
;;;334    			TEXT_SetText(hItem,"ÂÜÖÈòª‰∏ãÈôê");
;;;335    		}else{
;;;336    			hItem = WM_GetDialogItem(pMsg->hWin, ID_BUTTON_31);
;;;337                BUTTON_SetTextColor(hItem,0,GUI_BLACK);// ®◊ÉÿñÕ•“ï…´Œ™€ö…´
;;;338                BUTTON_SetFont      (hItem,    &GUI_Font16B_ASCII);// ®÷®–¥≈•œÑ—æÿñÕ•
;;;339                GUI_UC_SetEncodeUTF8();
;;;340                BUTTON_SetText(hItem,"I.R. TEST");
;;;341            
;;;342                hItem = WM_GetDialogItem(pMsg->hWin, ID_BUTTON_32);
;;;343                BUTTON_SetTextColor(hItem,0,GUI_BLACK);// ®◊ÉÿñÕ•“ï…´Œ™€ö…´
;;;344                BUTTON_SetFont      (hItem,    &GUI_Font16B_ASCII);// ®÷®–¥≈•œÑ—æÿñÕ•
;;;345                GUI_UC_SetEncodeUTF8();
;;;346                BUTTON_SetText(hItem,"LOAD");
;;;347                
;;;348                hItem = WM_GetDialogItem(pMsg->hWin, ID_BUTTON_33);
;;;349                BUTTON_SetTextColor(hItem,0,GUI_BLACK);// ®◊ÉÿñÕ•“ï…´Œ™€ö…´
;;;350                BUTTON_SetFont      (hItem,    &GUI_Font16B_ASCII);// ®÷®–¥≈•œÑ—æÿñÕ•
;;;351                GUI_UC_SetEncodeUTF8();
;;;352                BUTTON_SetText(hItem,"POWER");
;;;353                
;;;354                hItem = WM_GetDialogItem(pMsg->hWin, ID_BUTTON_34);
;;;355                BUTTON_SetTextColor(hItem,0,GUI_BLACK);// ®◊ÉÿñÕ•“ï…´Œ™€ö…´
;;;356                BUTTON_SetFont      (hItem,    &GUI_Font16B_ASCII);// ®÷®–¥≈•œÑ—æÿñÕ•
;;;357                GUI_UC_SetEncodeUTF8();
;;;358                BUTTON_SetText(hItem,"C&DC"); 
;;;359                
;;;360                hItem = WM_GetDialogItem(pMsg->hWin, ID_BUTTON_35);
;;;361                BUTTON_SetTextColor(hItem,0,GUI_BLACK);// ®◊ÉÿñÕ•“ï…´Œ™€ö…´
;;;362                BUTTON_SetFont      (hItem,&GUI_Font16B_ASCII);// ®÷®–¥≈•œÑ—æÿñÕ•
;;;363                GUI_UC_SetEncodeUTF8();
;;;364                BUTTON_SetText(hItem,"GRAPH");
;;;365    			
;;;366    			hItem = WM_GetDialogItem(pMsg->hWin, ID_TEXT_21);
;;;367                TEXT_SetTextColor(hItem, GUI_BLACK);//ËÆæÁΩÆÂ≠ó‰ΩìÈ¢úËâ≤
;;;368                TEXT_SetFont(hItem,&GUI_Font20_ASCII);//ËÆæÂÆöÊñáÊú¨Â≠ó‰Ωì
;;;369                TEXT_SetBkColor(hItem,0x00BFFFFF);
;;;370                GUI_UC_SetEncodeUTF8();
;;;371                TEXT_SetText(hItem,"Comp");
;;;372    			
;;;373    			hItem = WM_GetDialogItem(pMsg->hWin, ID_TEXT_22);
;;;374                TEXT_SetTextColor(hItem, GUI_WHITE);//ËÆæÁΩÆÂ≠ó‰ΩìÈ¢úËâ≤
;;;375                TEXT_SetFont(hItem,&GUI_Font20_ASCII);//ËÆæÂÆöÊñáÊú¨Â≠ó‰Ωì
;;;376                GUI_UC_SetEncodeUTF8();
;;;377                TEXT_SetText(hItem,"Overflow");
;;;378    			
;;;379    			hItem = WM_GetDialogItem(pMsg->hWin, ID_TEXT_23);
;;;380                TEXT_SetTextColor(hItem, GUI_WHITE);//ËÆæÁΩÆÂ≠ó‰ΩìÈ¢úËâ≤
;;;381                TEXT_SetFont(hItem,&GUI_Font20_ASCII);//ËÆæÂÆöÊñáÊú¨Â≠ó‰Ωì
;;;382                GUI_UC_SetEncodeUTF8();
;;;383                TEXT_SetText(hItem,"Beep");
;;;384    			
;;;385    			hItem = WM_GetDialogItem(pMsg->hWin, ID_TEXT_24);
;;;386                TEXT_SetTextColor(hItem, GUI_WHITE);//ËÆæÁΩÆÂ≠ó‰ΩìÈ¢úËâ≤
;;;387                TEXT_SetFont(hItem,&GUI_Font20_ASCII);//ËÆæÂÆöÊñáÊú¨Â≠ó‰Ωì
;;;388                GUI_UC_SetEncodeUTF8();
;;;389                TEXT_SetText(hItem,"V Range");
;;;390    			
;;;391    			hItem = WM_GetDialogItem(pMsg->hWin, ID_TEXT_25);
;;;392    			TEXT_SetTextColor(hItem, GUI_WHITE);//ËÆæÁΩÆÂ≠ó‰ΩìÈ¢úËâ≤
;;;393    			TEXT_SetFont(hItem,&GUI_Font20_ASCII);//ËÆæÂÆöÊñáÊú¨Â≠ó‰Ωì
;;;394    			GUI_UC_SetEncodeUTF8();
;;;395    			TEXT_SetText(hItem,"L.V Range");
;;;396    			
;;;397    			hItem = WM_GetDialogItem(pMsg->hWin, ID_TEXT_26);
;;;398                TEXT_SetTextColor(hItem, GUI_WHITE);//ËÆæÁΩÆÂ≠ó‰ΩìÈ¢úËâ≤
;;;399                TEXT_SetFont(hItem,&GUI_Font20_ASCII);//ËÆæÂÆöÊñáÊú¨Â≠ó‰Ωì
;;;400                GUI_UC_SetEncodeUTF8();
;;;401                TEXT_SetText(hItem,"UL I.R.");
;;;402                
;;;403                hItem = WM_GetDialogItem(pMsg->hWin, ID_TEXT_27);
;;;404                TEXT_SetTextColor(hItem, GUI_WHITE);//ËÆæÁΩÆÂ≠ó‰ΩìÈ¢úËâ≤
;;;405                TEXT_SetFont(hItem,&GUI_Font20_ASCII);//ËÆæÂÆöÊñáÊú¨Â≠ó‰Ωì
;;;406                GUI_UC_SetEncodeUTF8();
;;;407                TEXT_SetText(hItem,"LL I.R.");
;;;408    		}
;;;409            
;;;410            switch(para_set1){
;;;411                case set_1_on:
;;;412                {
;;;413                    hItem = WM_GetDialogItem(pMsg->hWin, ID_TEXT_28);
;;;414                    TEXT_SetTextColor(hItem, GUI_WHITE);//ËÆæÁΩÆÂ≠ó‰ΩìÈ¢úËâ≤
;;;415                    TEXT_SetFont(hItem,&GUI_Font20_ASCII);//ËÆæÂÆöÊñáÊú¨Â≠ó‰Ωì
;;;416                    GUI_UC_SetEncodeUTF8();
;;;417                    TEXT_SetText(hItem,"ON");
;;;418                    break;
;;;419                }
;;;420                case set_1_off:
;;;421                {
;;;422                    hItem = WM_GetDialogItem(pMsg->hWin, ID_TEXT_28);
;;;423                    TEXT_SetTextColor(hItem, GUI_WHITE);//ËÆæÁΩÆÂ≠ó‰ΩìÈ¢úËâ≤
;;;424                    TEXT_SetFont(hItem,&GUI_Font20_ASCII);//ËÆæÂÆöÊñáÊú¨Â≠ó‰Ωì
;;;425                    GUI_UC_SetEncodeUTF8();
;;;426                    TEXT_SetText(hItem,"OFF");
;;;427                    break;
;;;428                }
;;;429            }
;;;430    
;;;431            switch(para_set2){
;;;432                case set_2_on:
;;;433                {
;;;434                    hItem = WM_GetDialogItem(pMsg->hWin, ID_TEXT_29);
;;;435                    TEXT_SetTextColor(hItem, GUI_WHITE);//ËÆæÁΩÆÂ≠ó‰ΩìÈ¢úËâ≤
;;;436                    TEXT_SetFont(hItem,&GUI_Font20_ASCII);//ËÆæÂÆöÊñáÊú¨Â≠ó‰Ωì
;;;437                    GUI_UC_SetEncodeUTF8();
;;;438                    TEXT_SetText(hItem,"ON");
;;;439                    break;
;;;440                }
;;;441                case set_2_off:
;;;442                {
;;;443                    hItem = WM_GetDialogItem(pMsg->hWin, ID_TEXT_29);
;;;444                    TEXT_SetTextColor(hItem, GUI_WHITE);//ËÆæÁΩÆÂ≠ó‰ΩìÈ¢úËâ≤
;;;445                    TEXT_SetFont(hItem,&GUI_Font20_ASCII);//ËÆæÂÆöÊñáÊú¨Â≠ó‰Ωì
;;;446                    GUI_UC_SetEncodeUTF8();
;;;447                    TEXT_SetText(hItem,"OFF");
;;;448                    break;
;;;449                }
;;;450            }
;;;451            
;;;452            switch(para_set4){
;;;453                case set_4_on:
;;;454                {
;;;455                    hItem = WM_GetDialogItem(pMsg->hWin, ID_TEXT_30);
;;;456                    TEXT_SetTextColor(hItem, GUI_WHITE);//ËÆæÁΩÆÂ≠ó‰ΩìÈ¢úËâ≤
;;;457                    TEXT_SetFont(hItem,&GUI_Font20_ASCII);//ËÆæÂÆöÊñáÊú¨Â≠ó‰Ωì
;;;458                    GUI_UC_SetEncodeUTF8();
;;;459                    TEXT_SetText(hItem,"ON");
;;;460                    break;
;;;461                }
;;;462                case set_4_off:
;;;463                {
;;;464                    hItem = WM_GetDialogItem(pMsg->hWin, ID_TEXT_30);
;;;465                    TEXT_SetTextColor(hItem, GUI_WHITE);//ËÆæÁΩÆÂ≠ó‰ΩìÈ¢úËâ≤
;;;466                    TEXT_SetFont(hItem,&GUI_Font20_ASCII);//ËÆæÂÆöÊñáÊú¨Â≠ó‰Ωì
;;;467                    GUI_UC_SetEncodeUTF8();
;;;468                    TEXT_SetText(hItem,"OFF");
;;;469                    break;
;;;470                }
;;;471            }
;;;472    		
;;;473    		if(lang == 0)
;;;474            {
;;;475    			hItem = WM_GetDialogItem(pMsg->hWin, ID_TEXT_31);
;;;476    			TEXT_SetTextColor(hItem, GUI_WHITE);//ËÆæÁΩÆÂ≠ó‰ΩìÈ¢úËâ≤
;;;477    			TEXT_SetFont(hItem,&GUI_Fontset_font);//ËÆæÂÆöÊñáÊú¨Â≠ó‰Ωì
;;;478    			GUI_UC_SetEncodeUTF8();
;;;479    			TEXT_SetText(hItem,"ËøáÊµÅ‰∏ä‰∏ãÈôê");
;;;480    
;;;481    			hItem = WM_GetDialogItem(pMsg->hWin, ID_TEXT_32);
;;;482    			TEXT_SetTextColor(hItem, GUI_WHITE);//ËÆæÁΩÆÂ≠ó‰ΩìÈ¢úËâ≤
;;;483    			TEXT_SetFont(hItem,&GUI_Fontset_font);//ËÆæÂÆöÊñáÊú¨Â≠ó‰Ωì
;;;484    			GUI_UC_SetEncodeUTF8();
;;;485    			TEXT_SetText(hItem,"ÂÖÖÁîµÁîµÊµÅ‰∏ä‰∏ãÈôê");
;;;486    			
;;;487    			hItem = WM_GetDialogItem(pMsg->hWin, ID_TEXT_90);
;;;488    			TEXT_SetTextColor(hItem, GUI_WHITE);//ËÆæÁΩÆÂ≠ó‰ΩìÈ¢úËâ≤
;;;489    			TEXT_SetFont(hItem,&GUI_Fontset_font);//ËÆæÂÆöÊñáÊú¨Â≠ó‰Ωì
;;;490    			GUI_UC_SetEncodeUTF8();
;;;491    			TEXT_SetText(hItem,"ÁîµÊ±†Á±ªÂûã");
;;;492    			
;;;493    			hItem = WM_GetDialogItem(pMsg->hWin, ID_TEXT_133);
;;;494    			TEXT_SetTextColor(hItem, GUI_WHITE);//ËÆæÁΩÆÂ≠ó‰ΩìÈ¢úËâ≤
;;;495    			TEXT_SetFont(hItem,&GUI_Fontset_font);//ËÆæÂÆöÊñáÊú¨Â≠ó‰Ωì
;;;496    			GUI_UC_SetEncodeUTF8();
;;;497    			TEXT_SetText(hItem,"ÊµãËØïÊ®°Âºè");
;;;498    			
;;;499    			hItem = WM_GetDialogItem(pMsg->hWin, ID_TEXT_134);
;;;500    			TEXT_SetTextColor(hItem, GUI_WHITE);//ËÆæÁΩÆÂ≠ó‰ΩìÈ¢úËâ≤
;;;501    			TEXT_SetFont(hItem,&GUI_Fontset_font);//ËÆæÂÆöÊñáÊú¨Â≠ó‰Ωì
;;;502    			GUI_UC_SetEncodeUTF8();
;;;503    			if(test_mode == 1)
;;;504    			{
;;;505    				TEXT_SetText(hItem,"Á≤æÂáÜ");
;;;506    			}else if(test_mode == 0){
;;;507    				TEXT_SetText(hItem,"Âø´ÈÄü");
;;;508    			}
;;;509    			
;;;510    			hItem = WM_GetDialogItem(pMsg->hWin, ID_TEXT_166);
;;;511                TEXT_SetTextColor(hItem, GUI_WHITE);//ËÆæÁΩÆÂ≠ó‰ΩìÈ¢úËâ≤
;;;512                TEXT_SetFont(hItem,&GUI_Fontset_font);//ËÆæÂÆöÊñáÊú¨Â≠ó‰Ωì
;;;513                GUI_UC_SetEncodeUTF8();
;;;514                TEXT_SetText(hItem,"‰∏≠Êñá");
;;;515                WM_InvalidateWindow(hWinset);
;;;516    			
;;;517    			hItem = WM_GetDialogItem(pMsg->hWin, ID_TEXT_165);
;;;518    			TEXT_SetTextColor(hItem, GUI_WHITE);//ËÆæÁΩÆÂ≠ó‰ΩìÈ¢úËâ≤
;;;519    			TEXT_SetFont(hItem,&GUI_Fontset_font);//ËÆæÂÆöÊñáÊú¨Â≠ó‰Ωì
;;;520    			GUI_UC_SetEncodeUTF8();
;;;521    			TEXT_SetText(hItem,"ËØ≠Ë®Ä");
;;;522            }else{
;;;523    			hItem = WM_GetDialogItem(pMsg->hWin, ID_TEXT_31);
;;;524    			TEXT_SetTextColor(hItem, GUI_WHITE);//ËÆæÁΩÆÂ≠ó‰ΩìÈ¢úËâ≤
;;;525    			TEXT_SetFont(hItem,&GUI_Font20_ASCII);//ËÆæÂÆöÊñáÊú¨Â≠ó‰Ωì
;;;526    			GUI_UC_SetEncodeUTF8();
;;;527    			TEXT_SetText(hItem,"OC Range");
;;;528    
;;;529    			hItem = WM_GetDialogItem(pMsg->hWin, ID_TEXT_32);
;;;530    			TEXT_SetTextColor(hItem, GUI_WHITE);//ËÆæÁΩÆÂ≠ó‰ΩìÈ¢úËâ≤
;;;531    			TEXT_SetFont(hItem,&GUI_Font20_ASCII);//ËÆæÂÆöÊñáÊú¨Â≠ó‰Ωì
;;;532    			GUI_UC_SetEncodeUTF8();
;;;533    			TEXT_SetText(hItem,"C.C Range");
;;;534    			
;;;535    			hItem = WM_GetDialogItem(pMsg->hWin, ID_TEXT_90);
;;;536    			TEXT_SetTextColor(hItem, GUI_WHITE);//ËÆæÁΩÆÂ≠ó‰ΩìÈ¢úËâ≤
;;;537    			TEXT_SetFont(hItem,&GUI_Font20_ASCII);//ËÆæÂÆöÊñáÊú¨Â≠ó‰Ωì
;;;538    			GUI_UC_SetEncodeUTF8();
;;;539    			TEXT_SetText(hItem,"B.Type");
;;;540    			
;;;541    			hItem = WM_GetDialogItem(pMsg->hWin, ID_TEXT_133);
;;;542    			TEXT_SetTextColor(hItem, GUI_WHITE);//ËÆæÁΩÆÂ≠ó‰ΩìÈ¢úËâ≤
;;;543    			TEXT_SetFont(hItem,&GUI_Font20_ASCII);//ËÆæÂÆöÊñáÊú¨Â≠ó‰Ωì
;;;544    			GUI_UC_SetEncodeUTF8();
;;;545    			TEXT_SetText(hItem,"Mode");
;;;546    			
;;;547    			hItem = WM_GetDialogItem(pMsg->hWin, ID_TEXT_134);
;;;548    			TEXT_SetTextColor(hItem, GUI_WHITE);//ËÆæÁΩÆÂ≠ó‰ΩìÈ¢úËâ≤
;;;549    			TEXT_SetFont(hItem,&GUI_Font20_ASCII);//ËÆæÂÆöÊñáÊú¨Â≠ó‰Ωì
;;;550    			GUI_UC_SetEncodeUTF8();
;;;551    			if(test_mode == 1)
;;;552    			{
;;;553    				TEXT_SetText(hItem,"ACCURATE");
;;;554    			}else if(test_mode == 0){
;;;555    				TEXT_SetText(hItem,"FAST");
;;;556    			}
;;;557    			
;;;558    			hItem = WM_GetDialogItem(pMsg->hWin, ID_TEXT_166);
;;;559                TEXT_SetTextColor(hItem, GUI_WHITE);//ËÆæÁΩÆÂ≠ó‰ΩìÈ¢úËâ≤
;;;560                TEXT_SetFont(hItem,&GUI_Font20_ASCII);//ËÆæÂÆöÊñáÊú¨Â≠ó‰Ωì
;;;561                GUI_UC_SetEncodeUTF8();
;;;562                TEXT_SetText(hItem,"ENGLISH");
;;;563                WM_InvalidateWindow(hWinset);
;;;564    			
;;;565    			hItem = WM_GetDialogItem(pMsg->hWin, ID_TEXT_165);
;;;566    			TEXT_SetTextColor(hItem, GUI_WHITE);//ËÆæÁΩÆÂ≠ó‰ΩìÈ¢úËâ≤
;;;567    			TEXT_SetFont(hItem,&GUI_Font20_ASCII);//ËÆæÂÆöÊñáÊú¨Â≠ó‰Ωì
;;;568    			GUI_UC_SetEncodeUTF8();
;;;569    			TEXT_SetText(hItem,"Language");
;;;570    		}
;;;571            
;;;572            
;;;573            
;;;574            
;;;575            
;;;576            switch(b_type)
;;;577            {
;;;578                case Lion:
;;;579                {
;;;580                    hItem = WM_GetDialogItem(pMsg->hWin, ID_TEXT_91);
;;;581                    TEXT_SetTextColor(hItem, GUI_WHITE);//ËÆæÁΩÆÂ≠ó‰ΩìÈ¢úËâ≤
;;;582                    if(lang ==0)
;;;583                    {
;;;584                        TEXT_SetFont(hItem,&GUI_Fontset_font);//ËÆæÂÆöÊñáÊú¨Â≠ó‰Ωì
;;;585                        GUI_UC_SetEncodeUTF8();
;;;586                        TEXT_SetText(hItem,"ÈîÇÁîµÊ±†");
;;;587                    }else{
;;;588                        TEXT_SetFont(hItem,&GUI_Font20_ASCII);//ËÆæÂÆöÊñáÊú¨Â≠ó‰Ωì
;;;589                        GUI_UC_SetEncodeUTF8();
;;;590                        TEXT_SetText(hItem,"Lion");
;;;591    				}
;;;592                    break;
;;;593                }
;;;594                case NiMH:
;;;595                {
;;;596                    hItem = WM_GetDialogItem(pMsg->hWin, ID_TEXT_91);
;;;597                    TEXT_SetTextColor(hItem, GUI_WHITE);//ËÆæÁΩÆÂ≠ó‰ΩìÈ¢úËâ≤
;;;598                    if(lang ==0)
;;;599                    {
;;;600                        TEXT_SetFont(hItem,&GUI_Fontset_font);//ËÆæÂÆöÊñáÊú¨Â≠ó‰Ωì
;;;601                        GUI_UC_SetEncodeUTF8();
;;;602                        TEXT_SetText(hItem,"ÈïçÊ∞¢ÁîµÊ±†");
;;;603                    }else{
;;;604                        TEXT_SetFont(hItem,&GUI_Font20_ASCII);//ËÆæÂÆöÊñáÊú¨Â≠ó‰Ωì
;;;605                        GUI_UC_SetEncodeUTF8();
;;;606                        TEXT_SetText(hItem,"NiMH");
;;;607                    }
;;;608                    break;
;;;609                }
;;;610                case NiCd:
;;;611                {
;;;612                    hItem = WM_GetDialogItem(pMsg->hWin, ID_TEXT_91);
;;;613                    TEXT_SetTextColor(hItem, GUI_WHITE);//ËÆæÁΩÆÂ≠ó‰ΩìÈ¢úËâ≤
;;;614                    if(lang == 0)
;;;615                    {
;;;616                        TEXT_SetFont(hItem,&GUI_Fontset_font);//ËÆæÂÆöÊñáÊú¨Â≠ó‰Ωì
;;;617                        GUI_UC_SetEncodeUTF8();
;;;618                        TEXT_SetText(hItem,"ÈïçÈïâÁîµÊ±†");
;;;619                    }else{
;;;620                        TEXT_SetFont(hItem,&GUI_Font20_ASCII);//ËÆæÂÆöÊñáÊú¨Â≠ó‰Ωì
;;;621                        GUI_UC_SetEncodeUTF8();
;;;622                        TEXT_SetText(hItem,"NiCd");
;;;623                    }
;;;624                    break;
;;;625                }
;;;626                case SLA:
;;;627                {
;;;628                    hItem = WM_GetDialogItem(pMsg->hWin, ID_TEXT_91);
;;;629                    TEXT_SetTextColor(hItem, GUI_WHITE);//ËÆæÁΩÆÂ≠ó‰ΩìÈ¢úËâ≤
;;;630                    if(lang == 0)
;;;631                    {
;;;632                        TEXT_SetFont(hItem,&GUI_Fontset_font);//ËÆæÂÆöÊñáÊú¨Â≠ó‰Ωì
;;;633                        GUI_UC_SetEncodeUTF8();
;;;634                        TEXT_SetText(hItem,"Â∞èÂûãÈìÖÈÖ∏ÁîµÊ±†");
;;;635                    }else{
;;;636                        TEXT_SetFont(hItem,&GUI_Font20_ASCII);//ËÆæÂÆöÊñáÊú¨Â≠ó‰Ωì
;;;637                        GUI_UC_SetEncodeUTF8();
;;;638                        TEXT_SetText(hItem,"SLA");
;;;639                    }
;;;640                    break;
;;;641                }
;;;642                case LiMH:
;;;643                {
;;;644                    hItem = WM_GetDialogItem(pMsg->hWin, ID_TEXT_91);
;;;645                    TEXT_SetTextColor(hItem, GUI_WHITE);//ËÆæÁΩÆÂ≠ó‰ΩìÈ¢úËâ≤
;;;646                    if(lang == 0)
;;;647                    {
;;;648                        TEXT_SetFont(hItem,&GUI_Fontset_font);//ËÆæÂÆöÊñáÊú¨Â≠ó‰Ωì
;;;649                        GUI_UC_SetEncodeUTF8();
;;;650                        TEXT_SetText(hItem,"ÈîÇÈî∞ÁîµÊ±†");
;;;651                    }else{
;;;652                        TEXT_SetFont(hItem,&GUI_Font20_ASCII);//ËÆæÂÆöÊñáÊú¨Â≠ó‰Ωì
;;;653                        GUI_UC_SetEncodeUTF8();
;;;654                        TEXT_SetText(hItem,"LiMH");
;;;655                    }
;;;656                    break;
;;;657                }
;;;658                
;;;659            }
;;;660    
;;;661            
;;;662    
;;;663    
;;;664            hItem = WM_GetDialogItem(pMsg->hWin, ID_TEXT_35);
;;;665            sprintf(buf,"%.3f",dis_max_v);
;;;666    		TEXT_SetTextColor(hItem, GUI_WHITE);//ËÆæÁΩÆÂ≠ó‰ΩìÈ¢úËâ≤
;;;667            TEXT_SetFont(hItem,&GUI_Font16_1);//ËÆæÂÆöÊñáÊú¨Â≠ó‰Ωì
;;;668    		GUI_UC_SetEncodeUTF8();        
;;;669    		TEXT_SetText(hItem,buf);
;;;670    
;;;671            hItem = WM_GetDialogItem(pMsg->hWin, ID_TEXT_36);
;;;672            sprintf(buf,"%.3f",dis_min_v);
;;;673    		TEXT_SetTextColor(hItem, GUI_WHITE);//ËÆæÁΩÆÂ≠ó‰ΩìÈ¢úËâ≤
;;;674            TEXT_SetFont(hItem,&GUI_Font16_1);//ËÆæÂÆöÊñáÊú¨Â≠ó‰Ωì
;;;675    		GUI_UC_SetEncodeUTF8();        
;;;676    		TEXT_SetText(hItem,buf);
;;;677    		
;;;678    		hItem = WM_GetDialogItem(pMsg->hWin, ID_TEXT_154);
;;;679            sprintf(buf,"%.3f",(float)set_max_lv/1000);
;;;680    		TEXT_SetTextColor(hItem, GUI_WHITE);//ËÆæÁΩÆÂ≠ó‰ΩìÈ¢úËâ≤
;;;681            TEXT_SetFont(hItem,&GUI_Font16_1);//ËÆæÂÆöÊñáÊú¨Â≠ó‰Ωì
;;;682    		GUI_UC_SetEncodeUTF8();        
;;;683    		TEXT_SetText(hItem,buf);
;;;684    
;;;685            hItem = WM_GetDialogItem(pMsg->hWin, ID_TEXT_155);
;;;686            sprintf(buf,"%.3f",(float)set_min_lv/1000);
;;;687    		TEXT_SetTextColor(hItem, GUI_WHITE);//ËÆæÁΩÆÂ≠ó‰ΩìÈ¢úËâ≤
;;;688            TEXT_SetFont(hItem,&GUI_Font16_1);//ËÆæÂÆöÊñáÊú¨Â≠ó‰Ωì
;;;689    		GUI_UC_SetEncodeUTF8();        
;;;690    		TEXT_SetText(hItem,buf);
;;;691    //         
;;;692            hItem = WM_GetDialogItem(pMsg->hWin, ID_TEXT_37);
;;;693            sprintf(buf,"%4d",set_max_r);
;;;694    		TEXT_SetTextColor(hItem, GUI_WHITE);//ËÆæÁΩÆÂ≠ó‰ΩìÈ¢úËâ≤
;;;695            TEXT_SetFont(hItem,&GUI_Font24_1);//ËÆæÂÆöÊñáÊú¨Â≠ó‰Ωì
;;;696    		GUI_UC_SetEncodeUTF8();        
;;;697    		TEXT_SetText(hItem,buf);
;;;698    
;;;699            hItem = WM_GetDialogItem(pMsg->hWin, ID_TEXT_38);
;;;700            sprintf(buf,"%4d",set_min_r);
;;;701    		TEXT_SetTextColor(hItem, GUI_WHITE);//ËÆæÁΩÆÂ≠ó‰ΩìÈ¢úËâ≤
;;;702            TEXT_SetFont(hItem,&GUI_Font24_1);//ËÆæÂÆöÊñáÊú¨Â≠ó‰Ωì
;;;703    		GUI_UC_SetEncodeUTF8();        
;;;704    		TEXT_SetText(hItem,buf);
;;;705    // // // 		
;;;706            hItem = WM_GetDialogItem(pMsg->hWin, ID_TEXT_39);
;;;707            sprintf(buf,"%.3f",dis_max_c);        
;;;708    		TEXT_SetTextColor(hItem, GUI_WHITE);//ËÆæÁΩÆÂ≠ó‰ΩìÈ¢úËâ≤
;;;709            TEXT_SetFont(hItem,&GUI_Font16_1);//ËÆæÂÆöÊñáÊú¨Â≠ó‰Ωì
;;;710    		GUI_UC_SetEncodeUTF8();        
;;;711    		TEXT_SetText(hItem,buf);
;;;712            
;;;713            hItem = WM_GetDialogItem(pMsg->hWin, ID_TEXT_156);
;;;714            sprintf(buf,"%.3f",(float)set_max_pc/1000);
;;;715    		TEXT_SetTextColor(hItem, GUI_WHITE);//ËÆæÁΩÆÂ≠ó‰ΩìÈ¢úËâ≤
;;;716            TEXT_SetFont(hItem,&GUI_Font16_1);//ËÆæÂÆöÊñáÊú¨Â≠ó‰Ωì
;;;717    		GUI_UC_SetEncodeUTF8(); 
;;;718    		TEXT_SetText(hItem,buf);
;;;719    		
;;;720    		hItem = WM_GetDialogItem(pMsg->hWin, ID_TEXT_157);
;;;721            sprintf(buf,"%.3f",(float)set_min_pc/1000);        
;;;722    		TEXT_SetTextColor(hItem, GUI_WHITE);//ËÆæÁΩÆÂ≠ó‰ΩìÈ¢úËâ≤
;;;723            TEXT_SetFont(hItem,&GUI_Font16_1);//ËÆæÂÆöÊñáÊú¨Â≠ó‰Ωì
;;;724    		GUI_UC_SetEncodeUTF8();        
;;;725    		TEXT_SetText(hItem,buf);
;;;726            
;;;727            hItem = WM_GetDialogItem(pMsg->hWin, ID_TEXT_40);
;;;728            sprintf(buf,"%.3f",dis_min_c);
;;;729    		TEXT_SetTextColor(hItem, GUI_WHITE);//ËÆæÁΩÆÂ≠ó‰ΩìÈ¢úËâ≤
;;;730            TEXT_SetFont(hItem,&GUI_Font16_1);//ËÆæÂÆöÊñáÊú¨Â≠ó‰Ωì
;;;731    		GUI_UC_SetEncodeUTF8(); 
;;;732    		TEXT_SetText(hItem,buf);
;;;733            
;;;734            hItem = WM_GetDialogItem(pMsg->hWin, ID_TEXT_129);
;;;735            TEXT_SetTextColor(hItem, GUI_GREEN);//…Ë÷√◊÷ÃÂ—’…´
;;;736            TEXT_SetFont(hItem,&GUI_Font24_1);//…Ë∂®Œƒ±æ◊÷ÃÂ       
;;;737            sprintf(buf,"%.1f",temp);
;;;738            TEXT_SetText(hItem,buf);
;;;739            
;;;740    		
;;;741            
;;;742    
;;;743            
;;;744            
;;;745    
;;;746        // USER START (Optionally insert additional code for further widget initialization)
;;;747        // USER END
;;;748            break;
;;;749      // USER START (Optionally insert additional message handling)
;;;750      // USER END
;;;751        default:
;;;752            WM_DefaultProc(pMsg);
00006e  4620              MOV      r0,r4
000070  f7fffffe          BL       WM_DefaultProc
                  |L10.116|
;;;753            break;
;;;754      }
;;;755    }
000074  b005              ADD      sp,sp,#0x14
000076  ecbd8b06          VPOP     {d8-d10}
00007a  e8bd8ff0          POP      {r4-r11,pc}
                  |L10.126|
00007e  4630              MOV      r0,r6                 ;170
000080  f7fffffe          BL       GUI_SetColor
000084  231a              MOVS     r3,#0x1a              ;171
000086  f44f72f0          MOV      r2,#0x1e0             ;171
00008a  2119              MOVS     r1,#0x19              ;171
00008c  2000              MOVS     r0,#0                 ;171
00008e  f7fffffe          BL       GUI_FillRect
000092  f24a50ff          MOV      r0,#0xa5ff            ;172
000096  f7fffffe          BL       GUI_SetColor
00009a  48df              LDR      r0,|L10.1048|
00009c  f7fffffe          BL       GUI_SetFont
0000a0  f7fffffe          BL       GUI_UC_SetEncodeUTF8
0000a4  2002              MOVS     r0,#2                 ;175
0000a6  f7fffffe          BL       GUI_SetTextMode
0000aa  49dc              LDR      r1,|L10.1052|
0000ac  7809              LDRB     r1,[r1,#0]            ;176  ; jkflag
0000ae  2901              CMP      r1,#1                 ;176
0000b0  d104              BNE      |L10.188|
0000b2  2201              MOVS     r2,#1                 ;178
0000b4  2105              MOVS     r1,#5                 ;178
0000b6  a0da              ADR      r0,|L10.1056|
0000b8  f7fffffe          BL       GUI_DispStringAt
                  |L10.188|
0000bc  7869              LDRB     r1,[r5,#1]            ;180  ; lang
0000be  2900              CMP      r1,#0                 ;180
0000c0  d07e              BEQ      |L10.448|
0000c2  4630              MOV      r0,r6                 ;188
0000c4  f7fffffe          BL       GUI_SetColor
0000c8  48d7              LDR      r0,|L10.1064|
0000ca  f7fffffe          BL       GUI_SetFont
0000ce  f7fffffe          BL       GUI_UC_SetEncodeUTF8
0000d2  2002              MOVS     r0,#2                 ;191
0000d4  f7fffffe          BL       GUI_SetTextMode
0000d8  2203              MOVS     r2,#3                 ;192
0000da  2182              MOVS     r1,#0x82              ;192
0000dc  a0d3              ADR      r0,|L10.1068|
0000de  f7fffffe          BL       GUI_DispStringAt
                  |L10.226|
0000e2  4630              MOV      r0,r6                 ;194
0000e4  f7fffffe          BL       GUI_SetColor
0000e8  48d4              LDR      r0,|L10.1084|
0000ea  f7fffffe          BL       GUI_SetFont
0000ee  227d              MOVS     r2,#0x7d              ;196
0000f0  21dc              MOVS     r1,#0xdc              ;196
0000f2  a0d3              ADR      r0,|L10.1088|
0000f4  f7fffffe          BL       GUI_DispStringAt
0000f8  2296              MOVS     r2,#0x96              ;197
0000fa  21dc              MOVS     r1,#0xdc              ;197
0000fc  a0d0              ADR      r0,|L10.1088|
0000fe  f7fffffe          BL       GUI_DispStringAt
000102  f24014c3          MOV      r4,#0x1c3             ;198
000106  2232              MOVS     r2,#0x32              ;198
000108  4621              MOV      r1,r4                 ;198
00010a  a0ce              ADR      r0,|L10.1092|
00010c  f7fffffe          BL       GUI_DispStringAt
000110  224b              MOVS     r2,#0x4b              ;199
000112  4621              MOV      r1,r4                 ;199
000114  a0cb              ADR      r0,|L10.1092|
000116  f7fffffe          BL       GUI_DispStringAt
00011a  22af              MOVS     r2,#0xaf              ;200
00011c  21c3              MOVS     r1,#0xc3              ;200
00011e  a0ca              ADR      r0,|L10.1096|
000120  f7fffffe          BL       GUI_DispStringAt
000124  22c8              MOVS     r2,#0xc8              ;201
000126  21c3              MOVS     r1,#0xc3              ;201
000128  a0c7              ADR      r0,|L10.1096|
00012a  f7fffffe          BL       GUI_DispStringAt
00012e  48c7              LDR      r0,|L10.1100|
000130  f7fffffe          BL       GUI_SetFont
000134  22b6              MOVS     r2,#0xb6              ;203
000136  21d3              MOVS     r1,#0xd3              ;203
000138  a0c5              ADR      r0,|L10.1104|
00013a  f7fffffe          BL       GUI_DispStringAt
00013e  22cf              MOVS     r2,#0xcf              ;204
000140  21d3              MOVS     r1,#0xd3              ;204
000142  a0c3              ADR      r0,|L10.1104|
000144  f7fffffe          BL       GUI_DispStringAt
000148  4630              MOV      r0,r6                 ;205
00014a  f7fffffe          BL       GUI_SetColor
00014e  48c1              LDR      r0,|L10.1108|
000150  f7fffffe          BL       GUI_SetFont
000154  227a              MOVS     r2,#0x7a              ;207
000156  21ad              MOVS     r1,#0xad              ;207
000158  a0bf              ADR      r0,|L10.1112|
00015a  f7fffffe          BL       GUI_DispStringAt
00015e  2288              MOVS     r2,#0x88              ;208
000160  21ad              MOVS     r1,#0xad              ;208
000162  e001              B        |L10.360|
                  |L10.356|
000164  e06e              B        |L10.580|
                  |L10.358|
000166  e04c              B        |L10.514|
                  |L10.360|
000168  a0bc              ADR      r0,|L10.1116|
00016a  f7fffffe          BL       GUI_DispStringAt
00016e  2296              MOVS     r2,#0x96              ;209
000170  21ad              MOVS     r1,#0xad              ;209
000172  a0b9              ADR      r0,|L10.1112|
000174  f7fffffe          BL       GUI_DispStringAt
000178  22a4              MOVS     r2,#0xa4              ;210
00017a  21ad              MOVS     r1,#0xad              ;210
00017c  a0b7              ADR      r0,|L10.1116|
00017e  f7fffffe          BL       GUI_DispStringAt
000182  f44f74ca          MOV      r4,#0x194             ;211
000186  222f              MOVS     r2,#0x2f              ;211
000188  4621              MOV      r1,r4                 ;211
00018a  a0b3              ADR      r0,|L10.1112|
00018c  f7fffffe          BL       GUI_DispStringAt
000190  223d              MOVS     r2,#0x3d              ;212
000192  4621              MOV      r1,r4                 ;212
000194  a0b1              ADR      r0,|L10.1116|
000196  f7fffffe          BL       GUI_DispStringAt
00019a  224b              MOVS     r2,#0x4b              ;213
00019c  4621              MOV      r1,r4                 ;213
00019e  a0ae              ADR      r0,|L10.1112|
0001a0  f7fffffe          BL       GUI_DispStringAt
0001a4  2259              MOVS     r2,#0x59              ;214
0001a6  4621              MOV      r1,r4                 ;214
0001a8  a0ac              ADR      r0,|L10.1116|
0001aa  f7fffffe          BL       GUI_DispStringAt
0001ae  f44f407f          MOV      r0,#0xff00            ;216
0001b2  f7fffffe          BL       GUI_SetColor
0001b6  48aa              LDR      r0,|L10.1120|
0001b8  f7fffffe          BL       GUI_SetFont
0001bc  2202              MOVS     r2,#2                 ;218
0001be  e000              B        |L10.450|
                  |L10.448|
0001c0  e00e              B        |L10.480|
                  |L10.450|
0001c2  f44f71ab          MOV      r1,#0x156             ;218
0001c6  a0a7              ADR      r0,|L10.1124|
0001c8  f7fffffe          BL       GUI_DispStringAt
0001cc  489b              LDR      r0,|L10.1084|
0001ce  f7fffffe          BL       GUI_SetFont
0001d2  2202              MOVS     r2,#2                 ;220
0001d4  f44f71af          MOV      r1,#0x15e             ;220
0001d8  a0a3              ADR      r0,|L10.1128|
0001da  f7fffffe          BL       GUI_DispStringAt
                  |L10.478|
0001de  e749              B        |L10.116|
                  |L10.480|
0001e0  4630              MOV      r0,r6                 ;182
0001e2  f7fffffe          BL       GUI_SetColor
0001e6  48a1              LDR      r0,|L10.1132|
0001e8  f7fffffe          BL       GUI_SetFont
0001ec  f7fffffe          BL       GUI_UC_SetEncodeUTF8
0001f0  2002              MOVS     r0,#2                 ;185
0001f2  f7fffffe          BL       GUI_SetTextMode
0001f6  2203              MOVS     r2,#3                 ;186
0001f8  2182              MOVS     r1,#0x82              ;186
0001fa  a09d              ADR      r0,|L10.1136|
0001fc  f7fffffe          BL       GUI_DispStringAt
000200  e76f              B        |L10.226|
                  |L10.514|
000202  68e0              LDR      r0,[r4,#0xc]          ;225
000204  f7fffffe          BL       WM_GetTimerId
000208  2806              CMP      r0,#6                 ;225
00020a  d1e8              BNE      |L10.478|
00020c  f640110a          MOV      r1,#0x90a             ;234
000210  6860              LDR      r0,[r4,#4]            ;234
000212  f7fffffe          BL       WM_GetDialogItem
000216  4605              MOV      r5,r0                 ;234
000218  f8d80000          LDR      r0,[r8,#0]            ;235  ; temp
00021c  f7fffffe          BL       __aeabi_f2d
000220  ec410b10          VMOV     d0,r0,r1              ;235
000224  a196              ADR      r1,|L10.1152|
000226  ec532b10          VMOV     r2,r3,d0              ;235
00022a  a802              ADD      r0,sp,#8              ;235
00022c  f7fffffe          BL       __2sprintf
000230  a902              ADD      r1,sp,#8              ;236
000232  4628              MOV      r0,r5                 ;236
000234  f7fffffe          BL       TEXT_SetText
000238  f44f71fa          MOV      r1,#0x1f4             ;239
00023c  68e0              LDR      r0,[r4,#0xc]          ;239
00023e  f7fffffe          BL       WM_RestartTimer
000242  e717              B        |L10.116|
                  |L10.580|
000244  f8d49004          LDR      r9,[r4,#4]            ;249
000248  2100              MOVS     r1,#0                 ;250
00024a  4648              MOV      r0,r9                 ;250
00024c  f7fffffe          BL       WINDOW_SetBkColor
000250  2300              MOVS     r3,#0                 ;251
000252  f44f727a          MOV      r2,#0x3e8             ;251
000256  2106              MOVS     r1,#6                 ;251
000258  4648              MOV      r0,r9                 ;251
00025a  f7fffffe          BL       WM_CreateTimer
00025e  7868              LDRB     r0,[r5,#1]            ;261  ; lang
000260  f6400136          MOV      r1,#0x836             ;263
000264  f6400937          MOV      r9,#0x837             ;269
000268  f6400a38          MOV      r10,#0x838            ;275
00026c  f6400b39          MOV      r11,#0x839            ;281
000270  2800              CMP      r0,#0                 ;261
000272  d07c              BEQ      |L10.878|
000274  6860              LDR      r0,[r4,#4]            ;336
000276  f7fffffe          BL       WM_GetDialogItem
00027a  9004              STR      r0,[sp,#0x10]         ;336
00027c  2200              MOVS     r2,#0                 ;337
00027e  4611              MOV      r1,r2                 ;337
000280  9804              LDR      r0,[sp,#0x10]         ;337
000282  f7fffffe          BL       BUTTON_SetTextColor
000286  4980              LDR      r1,|L10.1160|
000288  9804              LDR      r0,[sp,#0x10]         ;338
00028a  f7fffffe          BL       BUTTON_SetFont
00028e  f7fffffe          BL       GUI_UC_SetEncodeUTF8
000292  a17e              ADR      r1,|L10.1164|
000294  9804              LDR      r0,[sp,#0x10]         ;340
000296  f7fffffe          BL       BUTTON_SetText
00029a  4649              MOV      r1,r9                 ;342
00029c  6860              LDR      r0,[r4,#4]            ;342
00029e  f7fffffe          BL       WM_GetDialogItem
0002a2  4681              MOV      r9,r0                 ;342
0002a4  2200              MOVS     r2,#0                 ;343
0002a6  4611              MOV      r1,r2                 ;343
0002a8  4648              MOV      r0,r9                 ;343
0002aa  f7fffffe          BL       BUTTON_SetTextColor
0002ae  4976              LDR      r1,|L10.1160|
0002b0  4648              MOV      r0,r9                 ;344
0002b2  f7fffffe          BL       BUTTON_SetFont
0002b6  f7fffffe          BL       GUI_UC_SetEncodeUTF8
0002ba  a177              ADR      r1,|L10.1176|
0002bc  4648              MOV      r0,r9                 ;346
0002be  f7fffffe          BL       BUTTON_SetText
0002c2  4651              MOV      r1,r10                ;348
0002c4  6860              LDR      r0,[r4,#4]            ;348
0002c6  f7fffffe          BL       WM_GetDialogItem
0002ca  4681              MOV      r9,r0                 ;348
0002cc  2200              MOVS     r2,#0                 ;349
0002ce  4611              MOV      r1,r2                 ;349
0002d0  4648              MOV      r0,r9                 ;349
0002d2  f7fffffe          BL       BUTTON_SetTextColor
0002d6  496c              LDR      r1,|L10.1160|
0002d8  4648              MOV      r0,r9                 ;350
0002da  f7fffffe          BL       BUTTON_SetFont
0002de  f7fffffe          BL       GUI_UC_SetEncodeUTF8
0002e2  a16f              ADR      r1,|L10.1184|
0002e4  4648              MOV      r0,r9                 ;352
0002e6  f7fffffe          BL       BUTTON_SetText
0002ea  4659              MOV      r1,r11                ;354
0002ec  6860              LDR      r0,[r4,#4]            ;354
0002ee  f7fffffe          BL       WM_GetDialogItem
0002f2  4681              MOV      r9,r0                 ;354
0002f4  2200              MOVS     r2,#0                 ;355
0002f6  4611              MOV      r1,r2                 ;355
0002f8  4648              MOV      r0,r9                 ;355
0002fa  f7fffffe          BL       BUTTON_SetTextColor
0002fe  4962              LDR      r1,|L10.1160|
000300  4648              MOV      r0,r9                 ;356
000302  f7fffffe          BL       BUTTON_SetFont
000306  f7fffffe          BL       GUI_UC_SetEncodeUTF8
00030a  a167              ADR      r1,|L10.1192|
00030c  4648              MOV      r0,r9                 ;358
00030e  f7fffffe          BL       BUTTON_SetText
000312  f640013a          MOV      r1,#0x83a             ;360
000316  6860              LDR      r0,[r4,#4]            ;360
000318  f7fffffe          BL       WM_GetDialogItem
00031c  4681              MOV      r9,r0                 ;360
00031e  2200              MOVS     r2,#0                 ;361
000320  4611              MOV      r1,r2                 ;361
000322  4648              MOV      r0,r9                 ;361
000324  f7fffffe          BL       BUTTON_SetTextColor
000328  4957              LDR      r1,|L10.1160|
00032a  4648              MOV      r0,r9                 ;362
00032c  f7fffffe          BL       BUTTON_SetFont
000330  f7fffffe          BL       GUI_UC_SetEncodeUTF8
000334  a15e              ADR      r1,|L10.1200|
000336  4648              MOV      r0,r9                 ;364
000338  f7fffffe          BL       BUTTON_SetText
00033c  f640012b          MOV      r1,#0x82b             ;366
000340  6860              LDR      r0,[r4,#4]            ;366
000342  f7fffffe          BL       WM_GetDialogItem
000346  4681              MOV      r9,r0                 ;366
000348  2100              MOVS     r1,#0                 ;367
00034a  4648              MOV      r0,r9                 ;367
00034c  f7fffffe          BL       TEXT_SetTextColor
000350  4935              LDR      r1,|L10.1064|
000352  4648              MOV      r0,r9                 ;368
000354  f7fffffe          BL       TEXT_SetFont
000358  4957              LDR      r1,|L10.1208|
00035a  4648              MOV      r0,r9                 ;369
00035c  f7fffffe          BL       TEXT_SetBkColor
000360  f7fffffe          BL       GUI_UC_SetEncodeUTF8
000364  a155              ADR      r1,|L10.1212|
000366  4648              MOV      r0,r9                 ;371
000368  f7fffffe          BL       TEXT_SetText
00036c  e000              B        |L10.880|
                  |L10.878|
00036e  e0ee              B        |L10.1358|
                  |L10.880|
000370  f640012c          MOV      r1,#0x82c             ;373
000374  6860              LDR      r0,[r4,#4]            ;373
000376  f7fffffe          BL       WM_GetDialogItem
00037a  4681              MOV      r9,r0                 ;373
00037c  4631              MOV      r1,r6                 ;374
00037e  4648              MOV      r0,r9                 ;374
000380  f7fffffe          BL       TEXT_SetTextColor
000384  4928              LDR      r1,|L10.1064|
000386  4648              MOV      r0,r9                 ;375
000388  f7fffffe          BL       TEXT_SetFont
00038c  f7fffffe          BL       GUI_UC_SetEncodeUTF8
000390  a14c              ADR      r1,|L10.1220|
000392  4648              MOV      r0,r9                 ;377
000394  f7fffffe          BL       TEXT_SetText
000398  f640012d          MOV      r1,#0x82d             ;379
00039c  6860              LDR      r0,[r4,#4]            ;379
00039e  f7fffffe          BL       WM_GetDialogItem
0003a2  4681              MOV      r9,r0                 ;379
0003a4  4631              MOV      r1,r6                 ;380
0003a6  4648              MOV      r0,r9                 ;380
0003a8  f7fffffe          BL       TEXT_SetTextColor
0003ac  491e              LDR      r1,|L10.1064|
0003ae  4648              MOV      r0,r9                 ;381
0003b0  f7fffffe          BL       TEXT_SetFont
0003b4  f7fffffe          BL       GUI_UC_SetEncodeUTF8
0003b8  a145              ADR      r1,|L10.1232|
0003ba  4648              MOV      r0,r9                 ;383
0003bc  f7fffffe          BL       TEXT_SetText
0003c0  f640012e          MOV      r1,#0x82e             ;385
0003c4  6860              LDR      r0,[r4,#4]            ;385
0003c6  f7fffffe          BL       WM_GetDialogItem
0003ca  4681              MOV      r9,r0                 ;385
0003cc  4631              MOV      r1,r6                 ;386
0003ce  4648              MOV      r0,r9                 ;386
0003d0  f7fffffe          BL       TEXT_SetTextColor
0003d4  4914              LDR      r1,|L10.1064|
0003d6  4648              MOV      r0,r9                 ;387
0003d8  f7fffffe          BL       TEXT_SetFont
0003dc  f7fffffe          BL       GUI_UC_SetEncodeUTF8
0003e0  a13d              ADR      r1,|L10.1240|
0003e2  4648              MOV      r0,r9                 ;389
0003e4  f7fffffe          BL       TEXT_SetText
0003e8  f640012f          MOV      r1,#0x82f             ;391
0003ec  6860              LDR      r0,[r4,#4]            ;391
0003ee  f7fffffe          BL       WM_GetDialogItem
0003f2  4681              MOV      r9,r0                 ;391
0003f4  4631              MOV      r1,r6                 ;392
0003f6  4648              MOV      r0,r9                 ;392
0003f8  f7fffffe          BL       TEXT_SetTextColor
0003fc  490a              LDR      r1,|L10.1064|
0003fe  4648              MOV      r0,r9                 ;393
000400  f7fffffe          BL       TEXT_SetFont
000404  e06c              B        |L10.1248|
000406  0000              DCW      0x0000
                  |L10.1032|
                          DCD      Run_Control
                  |L10.1036|
00040c  447a0000          DCFS     0x447a0000 ; 1000
                  |L10.1040|
                          DCD      ||.data||
                  |L10.1044|
                          DCD      temp
                  |L10.1048|
                          DCD      GUI_Fontsymbol
                  |L10.1052|
                          DCD      jkflag
                  |L10.1056|
000420  4a696e6b          DCB      "Jinko",0
000424  6f00    
000426  00                DCB      0
000427  00                DCB      0
                  |L10.1064|
                          DCD      GUI_Font20_ASCII
                  |L10.1068|
00042c  53797374          DCB      "System Settings",0
000430  656d2053
000434  65747469
000438  6e677300
                  |L10.1084|
                          DCD      GUI_Font24_1
                  |L10.1088|
000440  5600              DCB      "V",0
000442  00                DCB      0
000443  00                DCB      0
                  |L10.1092|
000444  4100              DCB      "A",0
000446  00                DCB      0
000447  00                DCB      0
                  |L10.1096|
000448  6d00              DCB      "m",0
00044a  00                DCB      0
00044b  00                DCB      0
                  |L10.1100|
                          DCD      GUI_FontHZ16
                  |L10.1104|
000450  cea900            DCB      206,169,0
000453  00                DCB      0
                  |L10.1108|
                          DCD      GUI_Font16_1
                  |L10.1112|
000458  4800              DCB      "H",0
00045a  00                DCB      0
00045b  00                DCB      0
                  |L10.1116|
00045c  4c00              DCB      "L",0
00045e  00                DCB      0
00045f  00                DCB      0
                  |L10.1120|
                          DCD      GUI_Fontunit
                  |L10.1124|
000464  c2b000            DCB      194,176,0
000467  00                DCB      0
                  |L10.1128|
000468  4300              DCB      "C",0
00046a  00                DCB      0
00046b  00                DCB      0
                  |L10.1132|
                          DCD      GUI_FontHZ20S
                  |L10.1136|
000470  e7b3bbe7          DCB      231,179,187,231,187,159,232,174,190,231,189,174,0
000474  bb9fe8ae
000478  bee7bdae
00047c  00      
00047d  00                DCB      0
00047e  00                DCB      0
00047f  00                DCB      0
                  |L10.1152|
000480  252e3166          DCB      "%.1f",0
000484  00      
000485  00                DCB      0
000486  00                DCB      0
000487  00                DCB      0
                  |L10.1160|
                          DCD      GUI_Font16B_ASCII
                  |L10.1164|
00048c  492e522e          DCB      "I.R. TEST",0
000490  20544553
000494  5400    
000496  00                DCB      0
000497  00                DCB      0
                  |L10.1176|
000498  4c4f4144          DCB      "LOAD",0
00049c  00      
00049d  00                DCB      0
00049e  00                DCB      0
00049f  00                DCB      0
                  |L10.1184|
0004a0  504f5745          DCB      "POWER",0
0004a4  5200    
0004a6  00                DCB      0
0004a7  00                DCB      0
                  |L10.1192|
0004a8  43264443          DCB      "C&DC",0
0004ac  00      
0004ad  00                DCB      0
0004ae  00                DCB      0
0004af  00                DCB      0
                  |L10.1200|
0004b0  47524150          DCB      "GRAPH",0
0004b4  4800    
0004b6  00                DCB      0
0004b7  00                DCB      0
                  |L10.1208|
                          DCD      0x00bfffff
                  |L10.1212|
0004bc  436f6d70          DCB      "Comp",0
0004c0  00      
0004c1  00                DCB      0
0004c2  00                DCB      0
0004c3  00                DCB      0
                  |L10.1220|
0004c4  4f766572          DCB      "Overflow",0
0004c8  666c6f77
0004cc  00      
0004cd  00                DCB      0
0004ce  00                DCB      0
0004cf  00                DCB      0
                  |L10.1232|
0004d0  42656570          DCB      "Beep",0
0004d4  00      
0004d5  00                DCB      0
0004d6  00                DCB      0
0004d7  00                DCB      0
                  |L10.1240|
0004d8  56205261          DCB      "V Range",0
0004dc  6e676500
                  |L10.1248|
0004e0  f7fffffe          BL       GUI_UC_SetEncodeUTF8
0004e4  a1fe              ADR      r1,|L10.2272|
0004e6  4648              MOV      r0,r9                 ;395
0004e8  f7fffffe          BL       TEXT_SetText
0004ec  f44f6103          MOV      r1,#0x830             ;397
0004f0  6860              LDR      r0,[r4,#4]            ;397
0004f2  f7fffffe          BL       WM_GetDialogItem
0004f6  4681              MOV      r9,r0                 ;397
0004f8  4631              MOV      r1,r6                 ;398
0004fa  4648              MOV      r0,r9                 ;398
0004fc  f7fffffe          BL       TEXT_SetTextColor
000500  49fa              LDR      r1,|L10.2284|
000502  4648              MOV      r0,r9                 ;399
000504  f7fffffe          BL       TEXT_SetFont
000508  f7fffffe          BL       GUI_UC_SetEncodeUTF8
00050c  a1f8              ADR      r1,|L10.2288|
00050e  4648              MOV      r0,r9                 ;401
000510  f7fffffe          BL       TEXT_SetText
000514  f6400131          MOV      r1,#0x831             ;403
000518  6860              LDR      r0,[r4,#4]            ;403
00051a  f7fffffe          BL       WM_GetDialogItem
00051e  4681              MOV      r9,r0                 ;403
000520  4631              MOV      r1,r6                 ;404
000522  4648              MOV      r0,r9                 ;404
000524  f7fffffe          BL       TEXT_SetTextColor
000528  49f0              LDR      r1,|L10.2284|
00052a  4648              MOV      r0,r9                 ;405
00052c  f7fffffe          BL       TEXT_SetFont
000530  f7fffffe          BL       GUI_UC_SetEncodeUTF8
000534  a1f0              ADR      r1,|L10.2296|
000536  4648              MOV      r0,r9                 ;407
000538  f7fffffe          BL       TEXT_SetText
                  |L10.1340|
00053c  48f0              LDR      r0,|L10.2304|
00053e  7800              LDRB     r0,[r0,#0]            ;410  ; para_set1
000540  f6400132          MOV      r1,#0x832             ;413
000544  2800              CMP      r0,#0                 ;410
000546  d07d              BEQ      |L10.1604|
000548  28ff              CMP      r0,#0xff              ;410
00054a  d17c              BNE      |L10.1606|
00054c  e0de              B        |L10.1804|
                  |L10.1358|
00054e  6860              LDR      r0,[r4,#4]            ;263
000550  f7fffffe          BL       WM_GetDialogItem
000554  9004              STR      r0,[sp,#0x10]         ;263
000556  49eb              LDR      r1,|L10.2308|
000558  9804              LDR      r0,[sp,#0x10]         ;265
00055a  f7fffffe          BL       BUTTON_SetFont
00055e  f7fffffe          BL       GUI_UC_SetEncodeUTF8
000562  a1e9              ADR      r1,|L10.2312|
000564  9804              LDR      r0,[sp,#0x10]         ;267
000566  f7fffffe          BL       BUTTON_SetText
00056a  4649              MOV      r1,r9                 ;269
00056c  6860              LDR      r0,[r4,#4]            ;269
00056e  f7fffffe          BL       WM_GetDialogItem
000572  4681              MOV      r9,r0                 ;269
000574  49e3              LDR      r1,|L10.2308|
000576  4648              MOV      r0,r9                 ;271
000578  f7fffffe          BL       BUTTON_SetFont
00057c  f7fffffe          BL       GUI_UC_SetEncodeUTF8
000580  a1e5              ADR      r1,|L10.2328|
000582  4648              MOV      r0,r9                 ;273
000584  f7fffffe          BL       BUTTON_SetText
000588  4651              MOV      r1,r10                ;275
00058a  6860              LDR      r0,[r4,#4]            ;275
00058c  f7fffffe          BL       WM_GetDialogItem
000590  4681              MOV      r9,r0                 ;275
000592  49dc              LDR      r1,|L10.2308|
000594  4648              MOV      r0,r9                 ;277
000596  f7fffffe          BL       BUTTON_SetFont
00059a  f7fffffe          BL       GUI_UC_SetEncodeUTF8
00059e  a1e2              ADR      r1,|L10.2344|
0005a0  4648              MOV      r0,r9                 ;279
0005a2  f7fffffe          BL       BUTTON_SetText
0005a6  4659              MOV      r1,r11                ;281
0005a8  6860              LDR      r0,[r4,#4]            ;281
0005aa  f7fffffe          BL       WM_GetDialogItem
0005ae  4681              MOV      r9,r0                 ;281
0005b0  49d4              LDR      r1,|L10.2308|
0005b2  4648              MOV      r0,r9                 ;283
0005b4  f7fffffe          BL       BUTTON_SetFont
0005b8  f7fffffe          BL       GUI_UC_SetEncodeUTF8
0005bc  a1de              ADR      r1,|L10.2360|
0005be  4648              MOV      r0,r9                 ;285
0005c0  f7fffffe          BL       BUTTON_SetText
0005c4  f640013a          MOV      r1,#0x83a             ;287
0005c8  6860              LDR      r0,[r4,#4]            ;287
0005ca  f7fffffe          BL       WM_GetDialogItem
0005ce  4681              MOV      r9,r0                 ;287
0005d0  49cc              LDR      r1,|L10.2308|
0005d2  4648              MOV      r0,r9                 ;289
0005d4  f7fffffe          BL       BUTTON_SetFont
0005d8  f7fffffe          BL       GUI_UC_SetEncodeUTF8
0005dc  a1d9              ADR      r1,|L10.2372|
0005de  4648              MOV      r0,r9                 ;291
0005e0  f7fffffe          BL       BUTTON_SetText
0005e4  f640012b          MOV      r1,#0x82b             ;293
0005e8  6860              LDR      r0,[r4,#4]            ;293
0005ea  f7fffffe          BL       WM_GetDialogItem
0005ee  4681              MOV      r9,r0                 ;293
0005f0  2100              MOVS     r1,#0                 ;294
0005f2  4648              MOV      r0,r9                 ;294
0005f4  f7fffffe          BL       TEXT_SetTextColor
0005f8  49d4              LDR      r1,|L10.2380|
0005fa  4648              MOV      r0,r9                 ;295
0005fc  f7fffffe          BL       TEXT_SetFont
000600  49d3              LDR      r1,|L10.2384|
000602  4648              MOV      r0,r9                 ;296
000604  f7fffffe          BL       TEXT_SetBkColor
000608  f7fffffe          BL       GUI_UC_SetEncodeUTF8
00060c  a1d1              ADR      r1,|L10.2388|
00060e  4648              MOV      r0,r9                 ;298
000610  f7fffffe          BL       TEXT_SetText
000614  f640012c          MOV      r1,#0x82c             ;300
000618  6860              LDR      r0,[r4,#4]            ;300
00061a  f7fffffe          BL       WM_GetDialogItem
00061e  4681              MOV      r9,r0                 ;300
000620  4631              MOV      r1,r6                 ;301
000622  4648              MOV      r0,r9                 ;301
000624  f7fffffe          BL       TEXT_SetTextColor
000628  49c8              LDR      r1,|L10.2380|
00062a  4648              MOV      r0,r9                 ;302
00062c  f7fffffe          BL       TEXT_SetFont
000630  f7fffffe          BL       GUI_UC_SetEncodeUTF8
000634  a1cb              ADR      r1,|L10.2404|
000636  4648              MOV      r0,r9                 ;304
000638  f7fffffe          BL       TEXT_SetText
00063c  f640012d          MOV      r1,#0x82d             ;306
000640  6860              LDR      r0,[r4,#4]            ;306
000642  e001              B        |L10.1608|
                  |L10.1604|
000644  e075              B        |L10.1842|
                  |L10.1606|
000646  e086              B        |L10.1878|
                  |L10.1608|
000648  f7fffffe          BL       WM_GetDialogItem
00064c  4681              MOV      r9,r0                 ;306
00064e  4631              MOV      r1,r6                 ;307
000650  4648              MOV      r0,r9                 ;307
000652  f7fffffe          BL       TEXT_SetTextColor
000656  49bd              LDR      r1,|L10.2380|
000658  4648              MOV      r0,r9                 ;308
00065a  f7fffffe          BL       TEXT_SetFont
00065e  f7fffffe          BL       GUI_UC_SetEncodeUTF8
000662  a1c4              ADR      r1,|L10.2420|
000664  4648              MOV      r0,r9                 ;310
000666  f7fffffe          BL       TEXT_SetText
00066a  f640012e          MOV      r1,#0x82e             ;312
00066e  6860              LDR      r0,[r4,#4]            ;312
000670  f7fffffe          BL       WM_GetDialogItem
000674  4681              MOV      r9,r0                 ;312
000676  4631              MOV      r1,r6                 ;313
000678  4648              MOV      r0,r9                 ;313
00067a  f7fffffe          BL       TEXT_SetTextColor
00067e  49b3              LDR      r1,|L10.2380|
000680  4648              MOV      r0,r9                 ;314
000682  f7fffffe          BL       TEXT_SetFont
000686  f7fffffe          BL       GUI_UC_SetEncodeUTF8
00068a  a1be              ADR      r1,|L10.2436|
00068c  4648              MOV      r0,r9                 ;316
00068e  f7fffffe          BL       TEXT_SetText
000692  f640012f          MOV      r1,#0x82f             ;318
000696  6860              LDR      r0,[r4,#4]            ;318
000698  f7fffffe          BL       WM_GetDialogItem
00069c  4681              MOV      r9,r0                 ;318
00069e  4631              MOV      r1,r6                 ;319
0006a0  4648              MOV      r0,r9                 ;319
0006a2  f7fffffe          BL       TEXT_SetTextColor
0006a6  49a9              LDR      r1,|L10.2380|
0006a8  4648              MOV      r0,r9                 ;320
0006aa  f7fffffe          BL       TEXT_SetFont
0006ae  f7fffffe          BL       GUI_UC_SetEncodeUTF8
0006b2  a1b8              ADR      r1,|L10.2452|
0006b4  4648              MOV      r0,r9                 ;322
0006b6  f7fffffe          BL       TEXT_SetText
0006ba  f44f6103          MOV      r1,#0x830             ;324
0006be  6860              LDR      r0,[r4,#4]            ;324
0006c0  f7fffffe          BL       WM_GetDialogItem
0006c4  4681              MOV      r9,r0                 ;324
0006c6  4631              MOV      r1,r6                 ;325
0006c8  4648              MOV      r0,r9                 ;325
0006ca  f7fffffe          BL       TEXT_SetTextColor
0006ce  499f              LDR      r1,|L10.2380|
0006d0  4648              MOV      r0,r9                 ;326
0006d2  f7fffffe          BL       TEXT_SetFont
0006d6  f7fffffe          BL       GUI_UC_SetEncodeUTF8
0006da  a1b4              ADR      r1,|L10.2476|
0006dc  4648              MOV      r0,r9                 ;328
0006de  f7fffffe          BL       TEXT_SetText
0006e2  f6400131          MOV      r1,#0x831             ;330
0006e6  6860              LDR      r0,[r4,#4]            ;330
0006e8  f7fffffe          BL       WM_GetDialogItem
0006ec  4681              MOV      r9,r0                 ;330
0006ee  4631              MOV      r1,r6                 ;331
0006f0  4648              MOV      r0,r9                 ;331
0006f2  f7fffffe          BL       TEXT_SetTextColor
0006f6  4995              LDR      r1,|L10.2380|
0006f8  4648              MOV      r0,r9                 ;332
0006fa  f7fffffe          BL       TEXT_SetFont
0006fe  f7fffffe          BL       GUI_UC_SetEncodeUTF8
000702  a1ae              ADR      r1,|L10.2492|
000704  4648              MOV      r0,r9                 ;334
000706  f7fffffe          BL       TEXT_SetText
00070a  e717              B        |L10.1340|
                  |L10.1804|
00070c  6860              LDR      r0,[r4,#4]            ;413
00070e  f7fffffe          BL       WM_GetDialogItem
000712  4681              MOV      r9,r0                 ;413
000714  4631              MOV      r1,r6                 ;414
000716  4648              MOV      r0,r9                 ;414
000718  f7fffffe          BL       TEXT_SetTextColor
00071c  4973              LDR      r1,|L10.2284|
00071e  4648              MOV      r0,r9                 ;415
000720  f7fffffe          BL       TEXT_SetFont
000724  f7fffffe          BL       GUI_UC_SetEncodeUTF8
000728  a1a8              ADR      r1,|L10.2508|
00072a  4648              MOV      r0,r9                 ;417
00072c  f7fffffe          BL       TEXT_SetText
000730  e011              B        |L10.1878|
                  |L10.1842|
000732  6860              LDR      r0,[r4,#4]            ;422
000734  f7fffffe          BL       WM_GetDialogItem
000738  4681              MOV      r9,r0                 ;422
00073a  4631              MOV      r1,r6                 ;423
00073c  4648              MOV      r0,r9                 ;423
00073e  f7fffffe          BL       TEXT_SetTextColor
000742  496a              LDR      r1,|L10.2284|
000744  4648              MOV      r0,r9                 ;424
000746  f7fffffe          BL       TEXT_SetFont
00074a  f7fffffe          BL       GUI_UC_SetEncodeUTF8
00074e  a1a0              ADR      r1,|L10.2512|
000750  4648              MOV      r0,r9                 ;426
000752  f7fffffe          BL       TEXT_SetText
                  |L10.1878|
000756  489f              LDR      r0,|L10.2516|
000758  7800              LDRB     r0,[r0,#0]            ;431  ; para_set2
00075a  f6400133          MOV      r1,#0x833             ;434
00075e  b1a0              CBZ      r0,|L10.1930|
000760  28ff              CMP      r0,#0xff              ;431
000762  d124              BNE      |L10.1966|
000764  6860              LDR      r0,[r4,#4]            ;434
000766  f7fffffe          BL       WM_GetDialogItem
00076a  4681              MOV      r9,r0                 ;434
00076c  4631              MOV      r1,r6                 ;435
00076e  4648              MOV      r0,r9                 ;435
000770  f7fffffe          BL       TEXT_SetTextColor
000774  495d              LDR      r1,|L10.2284|
000776  4648              MOV      r0,r9                 ;436
000778  f7fffffe          BL       TEXT_SetFont
00077c  f7fffffe          BL       GUI_UC_SetEncodeUTF8
000780  a192              ADR      r1,|L10.2508|
000782  4648              MOV      r0,r9                 ;438
000784  f7fffffe          BL       TEXT_SetText
000788  e011              B        |L10.1966|
                  |L10.1930|
00078a  6860              LDR      r0,[r4,#4]            ;443
00078c  f7fffffe          BL       WM_GetDialogItem
000790  4681              MOV      r9,r0                 ;443
000792  4631              MOV      r1,r6                 ;444
000794  4648              MOV      r0,r9                 ;444
000796  f7fffffe          BL       TEXT_SetTextColor
00079a  4954              LDR      r1,|L10.2284|
00079c  4648              MOV      r0,r9                 ;445
00079e  f7fffffe          BL       TEXT_SetFont
0007a2  f7fffffe          BL       GUI_UC_SetEncodeUTF8
0007a6  a18a              ADR      r1,|L10.2512|
0007a8  4648              MOV      r0,r9                 ;447
0007aa  f7fffffe          BL       TEXT_SetText
                  |L10.1966|
0007ae  488a              LDR      r0,|L10.2520|
0007b0  7800              LDRB     r0,[r0,#0]            ;452  ; para_set4
0007b2  f6400134          MOV      r1,#0x834             ;455
0007b6  b1a0              CBZ      r0,|L10.2018|
0007b8  28ff              CMP      r0,#0xff              ;452
0007ba  d124              BNE      |L10.2054|
0007bc  6860              LDR      r0,[r4,#4]            ;455
0007be  f7fffffe          BL       WM_GetDialogItem
0007c2  4681              MOV      r9,r0                 ;455
0007c4  4631              MOV      r1,r6                 ;456
0007c6  4648              MOV      r0,r9                 ;456
0007c8  f7fffffe          BL       TEXT_SetTextColor
0007cc  4947              LDR      r1,|L10.2284|
0007ce  4648              MOV      r0,r9                 ;457
0007d0  f7fffffe          BL       TEXT_SetFont
0007d4  f7fffffe          BL       GUI_UC_SetEncodeUTF8
0007d8  a17c              ADR      r1,|L10.2508|
0007da  4648              MOV      r0,r9                 ;459
0007dc  f7fffffe          BL       TEXT_SetText
0007e0  e011              B        |L10.2054|
                  |L10.2018|
0007e2  6860              LDR      r0,[r4,#4]            ;464
0007e4  f7fffffe          BL       WM_GetDialogItem
0007e8  4681              MOV      r9,r0                 ;464
0007ea  4631              MOV      r1,r6                 ;465
0007ec  4648              MOV      r0,r9                 ;465
0007ee  f7fffffe          BL       TEXT_SetTextColor
0007f2  493e              LDR      r1,|L10.2284|
0007f4  4648              MOV      r0,r9                 ;466
0007f6  f7fffffe          BL       TEXT_SetFont
0007fa  f7fffffe          BL       GUI_UC_SetEncodeUTF8
0007fe  a174              ADR      r1,|L10.2512|
000800  4648              MOV      r0,r9                 ;468
000802  f7fffffe          BL       TEXT_SetText
                  |L10.2054|
000806  7868              LDRB     r0,[r5,#1]            ;473  ; lang
000808  f640013b          MOV      r1,#0x83b             ;475
00080c  f640093c          MOV      r9,#0x83c             ;481
000810  f6400a9e          MOV      r10,#0x89e            ;487
000814  f6401b22          MOV      r11,#0x922            ;493
000818  2800              CMP      r0,#0                 ;473
00081a  d05f              BEQ      |L10.2268|
00081c  6860              LDR      r0,[r4,#4]            ;523
00081e  f7fffffe          BL       WM_GetDialogItem
000822  9004              STR      r0,[sp,#0x10]         ;523
000824  4631              MOV      r1,r6                 ;524
000826  9804              LDR      r0,[sp,#0x10]         ;524
000828  f7fffffe          BL       TEXT_SetTextColor
00082c  492f              LDR      r1,|L10.2284|
00082e  9804              LDR      r0,[sp,#0x10]         ;525
000830  f7fffffe          BL       TEXT_SetFont
000834  f7fffffe          BL       GUI_UC_SetEncodeUTF8
000838  a168              ADR      r1,|L10.2524|
00083a  9804              LDR      r0,[sp,#0x10]         ;527
00083c  f7fffffe          BL       TEXT_SetText
000840  4649              MOV      r1,r9                 ;529
000842  6860              LDR      r0,[r4,#4]            ;529
000844  f7fffffe          BL       WM_GetDialogItem
000848  4681              MOV      r9,r0                 ;529
00084a  4631              MOV      r1,r6                 ;530
00084c  4648              MOV      r0,r9                 ;530
00084e  f7fffffe          BL       TEXT_SetTextColor
000852  4926              LDR      r1,|L10.2284|
000854  4648              MOV      r0,r9                 ;531
000856  f7fffffe          BL       TEXT_SetFont
00085a  f7fffffe          BL       GUI_UC_SetEncodeUTF8
00085e  a162              ADR      r1,|L10.2536|
000860  4648              MOV      r0,r9                 ;533
000862  f7fffffe          BL       TEXT_SetText
000866  4651              MOV      r1,r10                ;535
000868  6860              LDR      r0,[r4,#4]            ;535
00086a  f7fffffe          BL       WM_GetDialogItem
00086e  4681              MOV      r9,r0                 ;535
000870  4631              MOV      r1,r6                 ;536
000872  4648              MOV      r0,r9                 ;536
000874  f7fffffe          BL       TEXT_SetTextColor
000878  491c              LDR      r1,|L10.2284|
00087a  4648              MOV      r0,r9                 ;537
00087c  f7fffffe          BL       TEXT_SetFont
000880  f7fffffe          BL       GUI_UC_SetEncodeUTF8
000884  a15b              ADR      r1,|L10.2548|
000886  4648              MOV      r0,r9                 ;539
000888  f7fffffe          BL       TEXT_SetText
00088c  4659              MOV      r1,r11                ;541
00088e  6860              LDR      r0,[r4,#4]            ;541
000890  f7fffffe          BL       WM_GetDialogItem
000894  4681              MOV      r9,r0                 ;541
000896  4631              MOV      r1,r6                 ;542
000898  4648              MOV      r0,r9                 ;542
00089a  f7fffffe          BL       TEXT_SetTextColor
00089e  4913              LDR      r1,|L10.2284|
0008a0  4648              MOV      r0,r9                 ;543
0008a2  f7fffffe          BL       TEXT_SetFont
0008a6  f7fffffe          BL       GUI_UC_SetEncodeUTF8
0008aa  a154              ADR      r1,|L10.2556|
0008ac  4648              MOV      r0,r9                 ;545
0008ae  f7fffffe          BL       TEXT_SetText
0008b2  f6401123          MOV      r1,#0x923             ;547
0008b6  6860              LDR      r0,[r4,#4]            ;547
0008b8  f7fffffe          BL       WM_GetDialogItem
0008bc  4681              MOV      r9,r0                 ;547
0008be  4631              MOV      r1,r6                 ;548
0008c0  4648              MOV      r0,r9                 ;548
0008c2  f7fffffe          BL       TEXT_SetTextColor
0008c6  4909              LDR      r1,|L10.2284|
0008c8  4648              MOV      r0,r9                 ;549
0008ca  f7fffffe          BL       TEXT_SetFont
0008ce  f7fffffe          BL       GUI_UC_SetEncodeUTF8
0008d2  7828              LDRB     r0,[r5,#0]            ;551  ; test_mode
0008d4  2801              CMP      r0,#1                 ;551
0008d6  d002              BEQ      |L10.2270|
0008d8  7828              LDRB     r0,[r5,#0]            ;554  ; test_mode
0008da  e093              B        |L10.2564|
                  |L10.2268|
0008dc  e095              B        |L10.2570|
                  |L10.2270|
0008de  e12c              B        |L10.2874|
                  |L10.2272|
0008e0  4c2e5620          DCB      "L.V Range",0
0008e4  52616e67
0008e8  6500    
0008ea  00                DCB      0
0008eb  00                DCB      0
                  |L10.2284|
                          DCD      GUI_Font20_ASCII
                  |L10.2288|
0008f0  554c2049          DCB      "UL I.R.",0
0008f4  2e522e00
                  |L10.2296|
0008f8  4c4c2049          DCB      "LL I.R.",0
0008fc  2e522e00
                  |L10.2304|
                          DCD      para_set1
                  |L10.2308|
                          DCD      GUI_FontHZ16
                  |L10.2312|
000908  e58685e9          DCB      229,134,133,233,152,187,230,181,139,232,175,149,0
00090c  98bbe6b5
000910  8be8af95
000914  00      
000915  00                DCB      0
000916  00                DCB      0
000917  00                DCB      0
                  |L10.2328|
000918  e7a88be6          DCB      231,168,139,230,142,167,232,180,159,232,189,189,0
00091c  8ea7e8b4
000920  9fe8bdbd
000924  00      
000925  00                DCB      0
000926  00                DCB      0
000927  00                DCB      0
                  |L10.2344|
000928  e7a88be6          DCB      231,168,139,230,142,167,231,148,181,230,186,144,0
00092c  8ea7e794
000930  b5e6ba90
000934  00      
000935  00                DCB      0
000936  00                DCB      0
000937  00                DCB      0
                  |L10.2360|
000938  e58585e6          DCB      229,133,133,230,148,190,231,148,181,0
00093c  94bee794
000940  b500    
000942  00                DCB      0
000943  00                DCB      0
                  |L10.2372|
000944  e69bb2e7          DCB      230,155,178,231,186,191,0
000948  babf00  
00094b  00                DCB      0
                  |L10.2380|
                          DCD      GUI_Fontset_font
                  |L10.2384|
                          DCD      0x00bfffff
                  |L10.2388|
000954  e58886e9          DCB      229,136,134,233,128,137,229,188,128,229,133,179,0
000958  8089e5bc
00095c  80e585b3
000960  00      
000961  00                DCB      0
000962  00                DCB      0
000963  00                DCB      0
                  |L10.2404|
000964  e8bf87e6          DCB      232,191,135,230,181,129,230,181,139,232,175,149,0
000968  b581e6b5
00096c  8be8af95
000970  00      
000971  00                DCB      0
000972  00                DCB      0
000973  00                DCB      0
                  |L10.2420|
000974  e68aa5e8          DCB      230,138,165,232,173,166,229,163,176,233,159,179,0
000978  ada6e5a3
00097c  b0e99fb3
000980  00      
000981  00                DCB      0
000982  00                DCB      0
000983  00                DCB      0
                  |L10.2436|
000984  e794b5e5          DCB      231,148,181,229,142,139,228,184,138,228,184,139,233,153,144
000988  8e8be4b8
00098c  8ae4b88b
000990  e99990  
000993  00                DCB      0
                  |L10.2452|
000994  e8b49fe8          DCB      232,180,159,232,189,189,231,148,181,229,142,139,228,184,138
000998  bdbde794
00099c  b5e58e8b
0009a0  e4b88a  
0009a3  e4b88be9          DCB      228,184,139,233,153,144,0
0009a7  999000  
0009aa  00                DCB      0
0009ab  00                DCB      0
                  |L10.2476|
0009ac  e58685e9          DCB      229,134,133,233,152,187,228,184,138,233,153,144,0
0009b0  98bbe4b8
0009b4  8ae99990
0009b8  00      
0009b9  00                DCB      0
0009ba  00                DCB      0
0009bb  00                DCB      0
                  |L10.2492|
0009bc  e58685e9          DCB      229,134,133,233,152,187,228,184,139,233,153,144,0
0009c0  98bbe4b8
0009c4  8be99990
0009c8  00      
0009c9  00                DCB      0
0009ca  00                DCB      0
0009cb  00                DCB      0
                  |L10.2508|
0009cc  4f4e00            DCB      "ON",0
0009cf  00                DCB      0
                  |L10.2512|
0009d0  4f464600          DCB      "OFF",0
                  |L10.2516|
                          DCD      para_set2
                  |L10.2520|
                          DCD      para_set4
                  |L10.2524|
0009dc  4f432052          DCB      "OC Range",0
0009e0  616e6765
0009e4  00      
0009e5  00                DCB      0
0009e6  00                DCB      0
0009e7  00                DCB      0
                  |L10.2536|
0009e8  432e4320          DCB      "C.C Range",0
0009ec  52616e67
0009f0  6500    
0009f2  00                DCB      0
0009f3  00                DCB      0
                  |L10.2548|
0009f4  422e5479          DCB      "B.Type",0
0009f8  706500  
0009fb  00                DCB      0
                  |L10.2556|
0009fc  4d6f6465          DCB      "Mode",0
000a00  00      
000a01  00                DCB      0
000a02  00                DCB      0
000a03  00                DCB      0
                  |L10.2564|
000a04  2800              CMP      r0,#0                 ;554
000a06  d07b              BEQ      |L10.2816|
000a08  e0a0              B        |L10.2892|
                  |L10.2570|
000a0a  6860              LDR      r0,[r4,#4]            ;475
000a0c  f7fffffe          BL       WM_GetDialogItem
000a10  9004              STR      r0,[sp,#0x10]         ;475
000a12  4631              MOV      r1,r6                 ;476
000a14  9804              LDR      r0,[sp,#0x10]         ;476
000a16  f7fffffe          BL       TEXT_SetTextColor
000a1a  49fe              LDR      r1,|L10.3604|
000a1c  9804              LDR      r0,[sp,#0x10]         ;477
000a1e  f7fffffe          BL       TEXT_SetFont
000a22  f7fffffe          BL       GUI_UC_SetEncodeUTF8
000a26  a1fc              ADR      r1,|L10.3608|
000a28  9804              LDR      r0,[sp,#0x10]         ;479
000a2a  f7fffffe          BL       TEXT_SetText
000a2e  4649              MOV      r1,r9                 ;481
000a30  6860              LDR      r0,[r4,#4]            ;481
000a32  f7fffffe          BL       WM_GetDialogItem
000a36  4681              MOV      r9,r0                 ;481
000a38  4631              MOV      r1,r6                 ;482
000a3a  4648              MOV      r0,r9                 ;482
000a3c  f7fffffe          BL       TEXT_SetTextColor
000a40  49f4              LDR      r1,|L10.3604|
000a42  4648              MOV      r0,r9                 ;483
000a44  f7fffffe          BL       TEXT_SetFont
000a48  f7fffffe          BL       GUI_UC_SetEncodeUTF8
000a4c  a1f6              ADR      r1,|L10.3624|
000a4e  4648              MOV      r0,r9                 ;485
000a50  f7fffffe          BL       TEXT_SetText
000a54  4651              MOV      r1,r10                ;487
000a56  6860              LDR      r0,[r4,#4]            ;487
000a58  f7fffffe          BL       WM_GetDialogItem
000a5c  4681              MOV      r9,r0                 ;487
000a5e  4631              MOV      r1,r6                 ;488
000a60  4648              MOV      r0,r9                 ;488
000a62  f7fffffe          BL       TEXT_SetTextColor
000a66  49eb              LDR      r1,|L10.3604|
000a68  4648              MOV      r0,r9                 ;489
000a6a  f7fffffe          BL       TEXT_SetFont
000a6e  f7fffffe          BL       GUI_UC_SetEncodeUTF8
000a72  a1f3              ADR      r1,|L10.3648|
000a74  4648              MOV      r0,r9                 ;491
000a76  f7fffffe          BL       TEXT_SetText
000a7a  4659              MOV      r1,r11                ;493
000a7c  6860              LDR      r0,[r4,#4]            ;493
000a7e  f7fffffe          BL       WM_GetDialogItem
000a82  4681              MOV      r9,r0                 ;493
000a84  4631              MOV      r1,r6                 ;494
000a86  4648              MOV      r0,r9                 ;494
000a88  f7fffffe          BL       TEXT_SetTextColor
000a8c  49e1              LDR      r1,|L10.3604|
000a8e  4648              MOV      r0,r9                 ;495
000a90  f7fffffe          BL       TEXT_SetFont
000a94  f7fffffe          BL       GUI_UC_SetEncodeUTF8
000a98  a1ed              ADR      r1,|L10.3664|
000a9a  4648              MOV      r0,r9                 ;497
000a9c  f7fffffe          BL       TEXT_SetText
000aa0  f6401123          MOV      r1,#0x923             ;499
000aa4  6860              LDR      r0,[r4,#4]            ;499
000aa6  f7fffffe          BL       WM_GetDialogItem
000aaa  4681              MOV      r9,r0                 ;499
000aac  4631              MOV      r1,r6                 ;500
000aae  4648              MOV      r0,r9                 ;500
000ab0  f7fffffe          BL       TEXT_SetTextColor
000ab4  49d7              LDR      r1,|L10.3604|
000ab6  4648              MOV      r0,r9                 ;501
000ab8  f7fffffe          BL       TEXT_SetFont
000abc  f7fffffe          BL       GUI_UC_SetEncodeUTF8
000ac0  7828              LDRB     r0,[r5,#0]            ;503  ; test_mode
000ac2  2801              CMP      r0,#1                 ;503
000ac4  d002              BEQ      |L10.2764|
000ac6  7828              LDRB     r0,[r5,#0]            ;506  ; test_mode
000ac8  b128              CBZ      r0,|L10.2774|
000aca  e008              B        |L10.2782|
                  |L10.2764|
000acc  a1e4              ADR      r1,|L10.3680|
000ace  4648              MOV      r0,r9                 ;505
000ad0  f7fffffe          BL       TEXT_SetText
000ad4  e003              B        |L10.2782|
                  |L10.2774|
000ad6  a1e4              ADR      r1,|L10.3688|
000ad8  4648              MOV      r0,r9                 ;507
000ada  f7fffffe          BL       TEXT_SetText
                  |L10.2782|
000ade  f6401141          MOV      r1,#0x941             ;510
000ae2  6860              LDR      r0,[r4,#4]            ;510
000ae4  f7fffffe          BL       WM_GetDialogItem
000ae8  4681              MOV      r9,r0                 ;510
000aea  4631              MOV      r1,r6                 ;511
000aec  4648              MOV      r0,r9                 ;511
000aee  f7fffffe          BL       TEXT_SetTextColor
000af2  49c8              LDR      r1,|L10.3604|
000af4  4648              MOV      r0,r9                 ;512
000af6  f7fffffe          BL       TEXT_SetFont
000afa  f7fffffe          BL       GUI_UC_SetEncodeUTF8
000afe  e000              B        |L10.2818|
                  |L10.2816|
000b00  e020              B        |L10.2884|
                  |L10.2818|
000b02  a1db              ADR      r1,|L10.3696|
000b04  4648              MOV      r0,r9                 ;514
000b06  f7fffffe          BL       TEXT_SetText
000b0a  6868              LDR      r0,[r5,#4]            ;515  ; hWinset
000b0c  f7fffffe          BL       WM_InvalidateWindow
000b10  f44f6114          MOV      r1,#0x940             ;517
000b14  6860              LDR      r0,[r4,#4]            ;517
000b16  f7fffffe          BL       WM_GetDialogItem
000b1a  4681              MOV      r9,r0                 ;517
000b1c  4631              MOV      r1,r6                 ;518
000b1e  4648              MOV      r0,r9                 ;518
000b20  f7fffffe          BL       TEXT_SetTextColor
000b24  49bb              LDR      r1,|L10.3604|
000b26  4648              MOV      r0,r9                 ;519
000b28  f7fffffe          BL       TEXT_SetFont
000b2c  f7fffffe          BL       GUI_UC_SetEncodeUTF8
000b30  a1d1              ADR      r1,|L10.3704|
000b32  4648              MOV      r0,r9                 ;521
000b34  f7fffffe          BL       TEXT_SetText
000b38  e033              B        |L10.2978|
                  |L10.2874|
000b3a  a1d1              ADR      r1,|L10.3712|
000b3c  4648              MOV      r0,r9                 ;553
000b3e  f7fffffe          BL       TEXT_SetText
000b42  e003              B        |L10.2892|
                  |L10.2884|
000b44  a1d1              ADR      r1,|L10.3724|
000b46  4648              MOV      r0,r9                 ;555
000b48  f7fffffe          BL       TEXT_SetText
                  |L10.2892|
000b4c  f6401141          MOV      r1,#0x941             ;558
000b50  6860              LDR      r0,[r4,#4]            ;558
000b52  f7fffffe          BL       WM_GetDialogItem
000b56  4681              MOV      r9,r0                 ;558
000b58  4631              MOV      r1,r6                 ;559
000b5a  4648              MOV      r0,r9                 ;559
000b5c  f7fffffe          BL       TEXT_SetTextColor
000b60  49cc              LDR      r1,|L10.3732|
000b62  4648              MOV      r0,r9                 ;560
000b64  f7fffffe          BL       TEXT_SetFont
000b68  f7fffffe          BL       GUI_UC_SetEncodeUTF8
000b6c  a1ca              ADR      r1,|L10.3736|
000b6e  4648              MOV      r0,r9                 ;562
000b70  f7fffffe          BL       TEXT_SetText
000b74  6868              LDR      r0,[r5,#4]            ;563  ; hWinset
000b76  f7fffffe          BL       WM_InvalidateWindow
000b7a  f44f6114          MOV      r1,#0x940             ;565
000b7e  6860              LDR      r0,[r4,#4]            ;565
000b80  f7fffffe          BL       WM_GetDialogItem
000b84  4681              MOV      r9,r0                 ;565
000b86  4631              MOV      r1,r6                 ;566
000b88  4648              MOV      r0,r9                 ;566
000b8a  f7fffffe          BL       TEXT_SetTextColor
000b8e  49c1              LDR      r1,|L10.3732|
000b90  4648              MOV      r0,r9                 ;567
000b92  f7fffffe          BL       TEXT_SetFont
000b96  f7fffffe          BL       GUI_UC_SetEncodeUTF8
000b9a  a1c1              ADR      r1,|L10.3744|
000b9c  4648              MOV      r0,r9                 ;569
000b9e  f7fffffe          BL       TEXT_SetText
                  |L10.2978|
000ba2  48c2              LDR      r0,|L10.3756|
000ba4  7800              LDRB     r0,[r0,#0]            ;576  ; b_type
000ba6  f640019f          MOV      r1,#0x89f             ;580
000baa  2806              CMP      r0,#6                 ;576
000bac  d218              BCS      |L10.3040|
000bae  e8dff000          TBB      [pc,r0]               ;576
000bb2  9803              DCB      0x98,0x03
000bb4  23436383          DCB      0x23,0x43,0x63,0x83
000bb8  6860              LDR      r0,[r4,#4]            ;580
000bba  f7fffffe          BL       WM_GetDialogItem
000bbe  4681              MOV      r9,r0                 ;580
000bc0  4631              MOV      r1,r6                 ;581
000bc2  4648              MOV      r0,r9                 ;581
000bc4  f7fffffe          BL       TEXT_SetTextColor
000bc8  7868              LDRB     r0,[r5,#1]            ;582  ; lang
000bca  b150              CBZ      r0,|L10.3042|
000bcc  49b1              LDR      r1,|L10.3732|
000bce  4648              MOV      r0,r9                 ;588
000bd0  f7fffffe          BL       TEXT_SetFont
000bd4  f7fffffe          BL       GUI_UC_SetEncodeUTF8
000bd8  a1b5              ADR      r1,|L10.3760|
000bda  4648              MOV      r0,r9                 ;590
000bdc  f7fffffe          BL       TEXT_SetText
                  |L10.3040|
000be0  e07f              B        |L10.3298|
                  |L10.3042|
000be2  498c              LDR      r1,|L10.3604|
000be4  4648              MOV      r0,r9                 ;584
000be6  f7fffffe          BL       TEXT_SetFont
000bea  f7fffffe          BL       GUI_UC_SetEncodeUTF8
000bee  a1b2              ADR      r1,|L10.3768|
000bf0  4648              MOV      r0,r9                 ;586
000bf2  f7fffffe          BL       TEXT_SetText
000bf6  e074              B        |L10.3298|
000bf8  6860              LDR      r0,[r4,#4]            ;596
000bfa  f7fffffe          BL       WM_GetDialogItem
000bfe  4681              MOV      r9,r0                 ;596
000c00  4631              MOV      r1,r6                 ;597
000c02  4648              MOV      r0,r9                 ;597
000c04  f7fffffe          BL       TEXT_SetTextColor
000c08  7868              LDRB     r0,[r5,#1]            ;598  ; lang
000c0a  b150              CBZ      r0,|L10.3106|
000c0c  49a1              LDR      r1,|L10.3732|
000c0e  4648              MOV      r0,r9                 ;604
000c10  f7fffffe          BL       TEXT_SetFont
000c14  f7fffffe          BL       GUI_UC_SetEncodeUTF8
000c18  a1aa              ADR      r1,|L10.3780|
000c1a  4648              MOV      r0,r9                 ;606
000c1c  f7fffffe          BL       TEXT_SetText
000c20  e05f              B        |L10.3298|
                  |L10.3106|
000c22  497c              LDR      r1,|L10.3604|
000c24  4648              MOV      r0,r9                 ;600
000c26  f7fffffe          BL       TEXT_SetFont
000c2a  f7fffffe          BL       GUI_UC_SetEncodeUTF8
000c2e  a1a7              ADR      r1,|L10.3788|
000c30  4648              MOV      r0,r9                 ;602
000c32  f7fffffe          BL       TEXT_SetText
000c36  e054              B        |L10.3298|
000c38  6860              LDR      r0,[r4,#4]            ;612
000c3a  f7fffffe          BL       WM_GetDialogItem
000c3e  4681              MOV      r9,r0                 ;612
000c40  4631              MOV      r1,r6                 ;613
000c42  4648              MOV      r0,r9                 ;613
000c44  f7fffffe          BL       TEXT_SetTextColor
000c48  7868              LDRB     r0,[r5,#1]            ;614  ; lang
000c4a  b150              CBZ      r0,|L10.3170|
000c4c  4991              LDR      r1,|L10.3732|
000c4e  4648              MOV      r0,r9                 ;620
000c50  f7fffffe          BL       TEXT_SetFont
000c54  f7fffffe          BL       GUI_UC_SetEncodeUTF8
000c58  a1a0              ADR      r1,|L10.3804|
000c5a  4648              MOV      r0,r9                 ;622
000c5c  f7fffffe          BL       TEXT_SetText
000c60  e03f              B        |L10.3298|
                  |L10.3170|
000c62  496c              LDR      r1,|L10.3604|
000c64  4648              MOV      r0,r9                 ;616
000c66  f7fffffe          BL       TEXT_SetFont
000c6a  f7fffffe          BL       GUI_UC_SetEncodeUTF8
000c6e  a19d              ADR      r1,|L10.3812|
000c70  4648              MOV      r0,r9                 ;618
000c72  f7fffffe          BL       TEXT_SetText
000c76  e034              B        |L10.3298|
000c78  6860              LDR      r0,[r4,#4]            ;628
000c7a  f7fffffe          BL       WM_GetDialogItem
000c7e  4681              MOV      r9,r0                 ;628
000c80  4631              MOV      r1,r6                 ;629
000c82  4648              MOV      r0,r9                 ;629
000c84  f7fffffe          BL       TEXT_SetTextColor
000c88  7868              LDRB     r0,[r5,#1]            ;630  ; lang
000c8a  b150              CBZ      r0,|L10.3234|
000c8c  4981              LDR      r1,|L10.3732|
000c8e  4648              MOV      r0,r9                 ;636
000c90  f7fffffe          BL       TEXT_SetFont
000c94  f7fffffe          BL       GUI_UC_SetEncodeUTF8
000c98  a196              ADR      r1,|L10.3828|
000c9a  4648              MOV      r0,r9                 ;638
000c9c  f7fffffe          BL       TEXT_SetText
000ca0  e01f              B        |L10.3298|
                  |L10.3234|
000ca2  495c              LDR      r1,|L10.3604|
000ca4  4648              MOV      r0,r9                 ;632
000ca6  f7fffffe          BL       TEXT_SetFont
000caa  f7fffffe          BL       GUI_UC_SetEncodeUTF8
000cae  a192              ADR      r1,|L10.3832|
000cb0  4648              MOV      r0,r9                 ;634
000cb2  f7fffffe          BL       TEXT_SetText
000cb6  e014              B        |L10.3298|
000cb8  6860              LDR      r0,[r4,#4]            ;644
000cba  f7fffffe          BL       WM_GetDialogItem
000cbe  4681              MOV      r9,r0                 ;644
000cc0  4631              MOV      r1,r6                 ;645
000cc2  4648              MOV      r0,r9                 ;645
000cc4  f7fffffe          BL       TEXT_SetTextColor
000cc8  7868              LDRB     r0,[r5,#1]            ;646  ; lang
000cca  2800              CMP      r0,#0                 ;646
000ccc  d07d              BEQ      |L10.3530|
000cce  4971              LDR      r1,|L10.3732|
000cd0  4648              MOV      r0,r9                 ;652
000cd2  f7fffffe          BL       TEXT_SetFont
000cd6  f7fffffe          BL       GUI_UC_SetEncodeUTF8
000cda  a18c              ADR      r1,|L10.3852|
000cdc  4648              MOV      r0,r9                 ;654
000cde  f7fffffe          BL       TEXT_SetText
                  |L10.3298|
000ce2  f44f6106          MOV      r1,#0x860             ;664
000ce6  6860              LDR      r0,[r4,#4]            ;664
000ce8  f7fffffe          BL       WM_GetDialogItem
000cec  4605              MOV      r5,r0                 ;664
000cee  ee1a0a10          VMOV     r0,s20                ;665
000cf2  f7fffffe          BL       __aeabi_f2d
000cf6  ec410b10          VMOV     d0,r0,r1              ;665
000cfa  a186              ADR      r1,|L10.3860|
000cfc  ec532b10          VMOV     r2,r3,d0              ;665
000d00  a802              ADD      r0,sp,#8              ;665
000d02  f7fffffe          BL       __2sprintf
000d06  4631              MOV      r1,r6                 ;666
000d08  4628              MOV      r0,r5                 ;666
000d0a  f7fffffe          BL       TEXT_SetTextColor
000d0e  4983              LDR      r1,|L10.3868|
000d10  4628              MOV      r0,r5                 ;667
000d12  f7fffffe          BL       TEXT_SetFont
000d16  f7fffffe          BL       GUI_UC_SetEncodeUTF8
000d1a  a902              ADD      r1,sp,#8              ;669
000d1c  4628              MOV      r0,r5                 ;669
000d1e  f7fffffe          BL       TEXT_SetText
000d22  f6400161          MOV      r1,#0x861             ;671
000d26  6860              LDR      r0,[r4,#4]            ;671
000d28  f7fffffe          BL       WM_GetDialogItem
000d2c  4605              MOV      r5,r0                 ;671
000d2e  ee190a90          VMOV     r0,s19                ;672
000d32  f7fffffe          BL       __aeabi_f2d
000d36  ec410b10          VMOV     d0,r0,r1              ;672
000d3a  a176              ADR      r1,|L10.3860|
000d3c  ec532b10          VMOV     r2,r3,d0              ;672
000d40  a802              ADD      r0,sp,#8              ;672
000d42  f7fffffe          BL       __2sprintf
000d46  4631              MOV      r1,r6                 ;673
000d48  4628              MOV      r0,r5                 ;673
000d4a  f7fffffe          BL       TEXT_SetTextColor
000d4e  4973              LDR      r1,|L10.3868|
000d50  4628              MOV      r0,r5                 ;674
000d52  f7fffffe          BL       TEXT_SetFont
000d56  f7fffffe          BL       GUI_UC_SetEncodeUTF8
000d5a  a902              ADD      r1,sp,#8              ;676
000d5c  4628              MOV      r0,r5                 ;676
000d5e  f7fffffe          BL       TEXT_SetText
000d62  f6401135          MOV      r1,#0x935             ;678
000d66  6860              LDR      r0,[r4,#4]            ;678
000d68  f7fffffe          BL       WM_GetDialogItem
000d6c  4681              MOV      r9,r0                 ;678
000d6e  4d6c              LDR      r5,|L10.3872|
000d70  ed950a00          VLDR     s0,[r5,#0]            ;679
000d74  eef80ac0          VCVT.F32.S32 s1,s0                 ;679
000d78  ee800aa8          VDIV.F32 s0,s1,s17             ;679
000d7c  ee100a10          VMOV     r0,s0                 ;679
000d80  f7fffffe          BL       __aeabi_f2d
000d84  ec410b10          VMOV     d0,r0,r1              ;679
000d88  a162              ADR      r1,|L10.3860|
000d8a  ec532b10          VMOV     r2,r3,d0              ;679
000d8e  a802              ADD      r0,sp,#8              ;679
000d90  f7fffffe          BL       __2sprintf
000d94  4631              MOV      r1,r6                 ;680
000d96  4648              MOV      r0,r9                 ;680
000d98  f7fffffe          BL       TEXT_SetTextColor
000d9c  495f              LDR      r1,|L10.3868|
000d9e  4648              MOV      r0,r9                 ;681
000da0  f7fffffe          BL       TEXT_SetFont
000da4  f7fffffe          BL       GUI_UC_SetEncodeUTF8
000da8  a902              ADD      r1,sp,#8              ;683
000daa  4648              MOV      r0,r9                 ;683
000dac  f7fffffe          BL       TEXT_SetText
000db0  f6401136          MOV      r1,#0x936             ;685
000db4  6860              LDR      r0,[r4,#4]            ;685
000db6  f7fffffe          BL       WM_GetDialogItem
000dba  4681              MOV      r9,r0                 ;685
000dbc  ed950a01          VLDR     s0,[r5,#4]            ;686
000dc0  eef80ac0          VCVT.F32.S32 s1,s0                 ;686
000dc4  ee800aa8          VDIV.F32 s0,s1,s17             ;686
000dc8  e000              B        |L10.3532|
                  |L10.3530|
000dca  e18c              B        |L10.4326|
                  |L10.3532|
000dcc  ee100a10          VMOV     r0,s0                 ;686
000dd0  f7fffffe          BL       __aeabi_f2d
000dd4  ec410b10          VMOV     d0,r0,r1              ;686
000dd8  a14e              ADR      r1,|L10.3860|
000dda  ec532b10          VMOV     r2,r3,d0              ;686
000dde  a802              ADD      r0,sp,#8              ;686
000de0  f7fffffe          BL       __2sprintf
000de4  4631              MOV      r1,r6                 ;687
000de6  4648              MOV      r0,r9                 ;687
000de8  f7fffffe          BL       TEXT_SetTextColor
000dec  494b              LDR      r1,|L10.3868|
000dee  4648              MOV      r0,r9                 ;688
000df0  f7fffffe          BL       TEXT_SetFont
000df4  f7fffffe          BL       GUI_UC_SetEncodeUTF8
000df8  a902              ADD      r1,sp,#8              ;690
000dfa  4648              MOV      r0,r9                 ;690
000dfc  f7fffffe          BL       TEXT_SetText
000e00  f6400162          MOV      r1,#0x862             ;692
000e04  6860              LDR      r0,[r4,#4]            ;692
000e06  f7fffffe          BL       WM_GetDialogItem
000e0a  4681              MOV      r9,r0                 ;692
000e0c  6c3a              LDR      r2,[r7,#0x40]         ;693  ; Run_Control
000e0e  a145              ADR      r1,|L10.3876|
000e10  a802              ADD      r0,sp,#8              ;693
000e12  e089              B        |L10.3880|
                  |L10.3604|
                          DCD      GUI_Fontset_font
                  |L10.3608|
000e18  e8bf87e6          DCB      232,191,135,230,181,129,228,184,138,228,184,139,233,153,144
000e1c  b581e4b8
000e20  8ae4b88b
000e24  e99990  
000e27  00                DCB      0
                  |L10.3624|
000e28  e58585e7          DCB      229,133,133,231,148,181,231,148,181,230,181,129,228,184,138
000e2c  94b5e794
000e30  b5e6b581
000e34  e4b88a  
000e37  e4b88be9          DCB      228,184,139,233,153,144,0
000e3b  999000  
000e3e  00                DCB      0
000e3f  00                DCB      0
                  |L10.3648|
000e40  e794b5e6          DCB      231,148,181,230,177,160,231,177,187,229,158,139,0
000e44  b1a0e7b1
000e48  bbe59e8b
000e4c  00      
000e4d  00                DCB      0
000e4e  00                DCB      0
000e4f  00                DCB      0
                  |L10.3664|
000e50  e6b58be8          DCB      230,181,139,232,175,149,230,168,161,229,188,143,0
000e54  af95e6a8
000e58  a1e5bc8f
000e5c  00      
000e5d  00                DCB      0
000e5e  00                DCB      0
000e5f  00                DCB      0
                  |L10.3680|
000e60  e7b2bee5          DCB      231,178,190,229,135,134,0
000e64  878600  
000e67  00                DCB      0
                  |L10.3688|
000e68  e5bfabe9          DCB      229,191,171,233,128,159,0
000e6c  809f00  
000e6f  00                DCB      0
                  |L10.3696|
000e70  e4b8ade6          DCB      228,184,173,230,150,135,0
000e74  968700  
000e77  00                DCB      0
                  |L10.3704|
000e78  e8afade8          DCB      232,175,173,232,168,128,0
000e7c  a88000  
000e7f  00                DCB      0
                  |L10.3712|
000e80  41434355          DCB      "ACCURATE",0
000e84  52415445
000e88  00      
000e89  00                DCB      0
000e8a  00                DCB      0
000e8b  00                DCB      0
                  |L10.3724|
000e8c  46415354          DCB      "FAST",0
000e90  00      
000e91  00                DCB      0
000e92  00                DCB      0
000e93  00                DCB      0
                  |L10.3732|
                          DCD      GUI_Font20_ASCII
                  |L10.3736|
000e98  454e474c          DCB      "ENGLISH",0
000e9c  49534800
                  |L10.3744|
000ea0  4c616e67          DCB      "Language",0
000ea4  75616765
000ea8  00      
000ea9  00                DCB      0
000eaa  00                DCB      0
000eab  00                DCB      0
                  |L10.3756|
                          DCD      b_type
                  |L10.3760|
000eb0  4c696f6e          DCB      "Lion",0
000eb4  00      
000eb5  00                DCB      0
000eb6  00                DCB      0
000eb7  00                DCB      0
                  |L10.3768|
000eb8  e99482e7          DCB      233,148,130,231,148,181,230,177,160,0
000ebc  94b5e6b1
000ec0  a000    
000ec2  00                DCB      0
000ec3  00                DCB      0
                  |L10.3780|
000ec4  4e694d48          DCB      "NiMH",0
000ec8  00      
000ec9  00                DCB      0
000eca  00                DCB      0
000ecb  00                DCB      0
                  |L10.3788|
000ecc  e9958de6          DCB      233,149,141,230,176,162,231,148,181,230,177,160,0
000ed0  b0a2e794
000ed4  b5e6b1a0
000ed8  00      
000ed9  00                DCB      0
000eda  00                DCB      0
000edb  00                DCB      0
                  |L10.3804|
000edc  4e694364          DCB      "NiCd",0
000ee0  00      
000ee1  00                DCB      0
000ee2  00                DCB      0
000ee3  00                DCB      0
                  |L10.3812|
000ee4  e9958de9          DCB      233,149,141,233,149,137,231,148,181,230,177,160,0
000ee8  9589e794
000eec  b5e6b1a0
000ef0  00      
000ef1  00                DCB      0
000ef2  00                DCB      0
000ef3  00                DCB      0
                  |L10.3828|
000ef4  534c4100          DCB      "SLA",0
                  |L10.3832|
000ef8  e5b08fe5          DCB      229,176,143,229,158,139,233,147,133,233,133,184,231,148,181
000efc  9e8be993
000f00  85e985b8
000f04  e794b5  
000f07  e6b1a000          DCB      230,177,160,0
000f0b  00                DCB      0
                  |L10.3852|
000f0c  4c694d48          DCB      "LiMH",0
000f10  00      
000f11  00                DCB      0
000f12  00                DCB      0
000f13  00                DCB      0
                  |L10.3860|
000f14  252e3366          DCB      "%.3f",0
000f18  00      
000f19  00                DCB      0
000f1a  00                DCB      0
000f1b  00                DCB      0
                  |L10.3868|
                          DCD      GUI_Font16_1
                  |L10.3872|
                          DCD      ||.bss||
                  |L10.3876|
000f24  25346400          DCB      "%4d",0
                  |L10.3880|
000f28  f7fffffe          BL       __2sprintf
000f2c  4631              MOV      r1,r6                 ;694
000f2e  4648              MOV      r0,r9                 ;694
000f30  f7fffffe          BL       TEXT_SetTextColor
000f34  4971              LDR      r1,|L10.4348|
000f36  4648              MOV      r0,r9                 ;695
000f38  f7fffffe          BL       TEXT_SetFont
000f3c  f7fffffe          BL       GUI_UC_SetEncodeUTF8
000f40  a902              ADD      r1,sp,#8              ;697
000f42  4648              MOV      r0,r9                 ;697
000f44  f7fffffe          BL       TEXT_SetText
000f48  f6400163          MOV      r1,#0x863             ;699
000f4c  6860              LDR      r0,[r4,#4]            ;699
000f4e  f7fffffe          BL       WM_GetDialogItem
000f52  4681              MOV      r9,r0                 ;699
000f54  6c7a              LDR      r2,[r7,#0x44]         ;700  ; Run_Control
000f56  f2af0134          ADR      r1,|L10.3876|
000f5a  a802              ADD      r0,sp,#8              ;700
000f5c  f7fffffe          BL       __2sprintf
000f60  4631              MOV      r1,r6                 ;701
000f62  4648              MOV      r0,r9                 ;701
000f64  f7fffffe          BL       TEXT_SetTextColor
000f68  4964              LDR      r1,|L10.4348|
000f6a  4648              MOV      r0,r9                 ;702
000f6c  f7fffffe          BL       TEXT_SetFont
000f70  f7fffffe          BL       GUI_UC_SetEncodeUTF8
000f74  a902              ADD      r1,sp,#8              ;704
000f76  4648              MOV      r0,r9                 ;704
000f78  f7fffffe          BL       TEXT_SetText
000f7c  f6400164          MOV      r1,#0x864             ;706
000f80  6860              LDR      r0,[r4,#4]            ;706
000f82  f7fffffe          BL       WM_GetDialogItem
000f86  4607              MOV      r7,r0                 ;706
000f88  ee190a10          VMOV     r0,s18                ;707
000f8c  f7fffffe          BL       __aeabi_f2d
000f90  ec410b10          VMOV     d0,r0,r1              ;707
000f94  ec532b10          VMOV     r2,r3,d0              ;707
000f98  f2af0188          ADR      r1,|L10.3860|
000f9c  a802              ADD      r0,sp,#8              ;707
000f9e  f7fffffe          BL       __2sprintf
000fa2  4631              MOV      r1,r6                 ;708
000fa4  4638              MOV      r0,r7                 ;708
000fa6  f7fffffe          BL       TEXT_SetTextColor
000faa  4955              LDR      r1,|L10.4352|
000fac  4638              MOV      r0,r7                 ;709
000fae  f7fffffe          BL       TEXT_SetFont
000fb2  f7fffffe          BL       GUI_UC_SetEncodeUTF8
000fb6  a902              ADD      r1,sp,#8              ;711
000fb8  4638              MOV      r0,r7                 ;711
000fba  f7fffffe          BL       TEXT_SetText
000fbe  f6401137          MOV      r1,#0x937             ;713
000fc2  6860              LDR      r0,[r4,#4]            ;713
000fc4  f7fffffe          BL       WM_GetDialogItem
000fc8  4607              MOV      r7,r0                 ;713
000fca  ed950a02          VLDR     s0,[r5,#8]            ;714
000fce  eef80ac0          VCVT.F32.S32 s1,s0                 ;714
000fd2  ee800aa8          VDIV.F32 s0,s1,s17             ;714
000fd6  ee100a10          VMOV     r0,s0                 ;714
000fda  f7fffffe          BL       __aeabi_f2d
000fde  ec410b10          VMOV     d0,r0,r1              ;714
000fe2  ec532b10          VMOV     r2,r3,d0              ;714
000fe6  f2af01d4          ADR      r1,|L10.3860|
000fea  a802              ADD      r0,sp,#8              ;714
000fec  f7fffffe          BL       __2sprintf
000ff0  4631              MOV      r1,r6                 ;715
000ff2  4638              MOV      r0,r7                 ;715
000ff4  f7fffffe          BL       TEXT_SetTextColor
000ff8  4941              LDR      r1,|L10.4352|
000ffa  4638              MOV      r0,r7                 ;716
000ffc  f7fffffe          BL       TEXT_SetFont
001000  f7fffffe          BL       GUI_UC_SetEncodeUTF8
001004  a902              ADD      r1,sp,#8              ;718
001006  4638              MOV      r0,r7                 ;718
001008  f7fffffe          BL       TEXT_SetText
00100c  f6401138          MOV      r1,#0x938             ;720
001010  6860              LDR      r0,[r4,#4]            ;720
001012  f7fffffe          BL       WM_GetDialogItem
001016  4607              MOV      r7,r0                 ;720
001018  ed950a03          VLDR     s0,[r5,#0xc]          ;721
00101c  eef80ac0          VCVT.F32.S32 s1,s0                 ;721
001020  ee800aa8          VDIV.F32 s0,s1,s17             ;721
001024  ee100a10          VMOV     r0,s0                 ;721
001028  f7fffffe          BL       __aeabi_f2d
00102c  ec410b10          VMOV     d0,r0,r1              ;721
001030  ec532b10          VMOV     r2,r3,d0              ;721
001034  f2af1124          ADR      r1,|L10.3860|
001038  a802              ADD      r0,sp,#8              ;721
00103a  f7fffffe          BL       __2sprintf
00103e  4631              MOV      r1,r6                 ;722
001040  4638              MOV      r0,r7                 ;722
001042  f7fffffe          BL       TEXT_SetTextColor
001046  492e              LDR      r1,|L10.4352|
001048  4638              MOV      r0,r7                 ;723
00104a  f7fffffe          BL       TEXT_SetFont
00104e  f7fffffe          BL       GUI_UC_SetEncodeUTF8
001052  a902              ADD      r1,sp,#8              ;725
001054  4638              MOV      r0,r7                 ;725
001056  f7fffffe          BL       TEXT_SetText
00105a  f6400165          MOV      r1,#0x865             ;727
00105e  6860              LDR      r0,[r4,#4]            ;727
001060  f7fffffe          BL       WM_GetDialogItem
001064  4605              MOV      r5,r0                 ;727
001066  ee180a10          VMOV     r0,s16                ;728
00106a  f7fffffe          BL       __aeabi_f2d
00106e  ec410b10          VMOV     d0,r0,r1              ;728
001072  ec532b10          VMOV     r2,r3,d0              ;728
001076  f2af1164          ADR      r1,|L10.3860|
00107a  a802              ADD      r0,sp,#8              ;728
00107c  f7fffffe          BL       __2sprintf
001080  4631              MOV      r1,r6                 ;729
001082  4628              MOV      r0,r5                 ;729
001084  f7fffffe          BL       TEXT_SetTextColor
001088  491d              LDR      r1,|L10.4352|
00108a  4628              MOV      r0,r5                 ;730
00108c  f7fffffe          BL       TEXT_SetFont
001090  f7fffffe          BL       GUI_UC_SetEncodeUTF8
001094  a902              ADD      r1,sp,#8              ;732
001096  4628              MOV      r0,r5                 ;732
001098  f7fffffe          BL       TEXT_SetText
00109c  f640110a          MOV      r1,#0x90a             ;734
0010a0  6860              LDR      r0,[r4,#4]            ;734
0010a2  f7fffffe          BL       WM_GetDialogItem
0010a6  4604              MOV      r4,r0                 ;734
0010a8  f44f417f          MOV      r1,#0xff00            ;735
0010ac  4620              MOV      r0,r4                 ;735
0010ae  f7fffffe          BL       TEXT_SetTextColor
0010b2  4912              LDR      r1,|L10.4348|
0010b4  4620              MOV      r0,r4                 ;736
0010b6  f7fffffe          BL       TEXT_SetFont
0010ba  f8d80000          LDR      r0,[r8,#0]            ;737  ; temp
0010be  f7fffffe          BL       __aeabi_f2d
0010c2  ec410b10          VMOV     d0,r0,r1              ;737
0010c6  ec532b10          VMOV     r2,r3,d0              ;737
0010ca  f6af414c          ADR      r1,|L10.1152|
0010ce  a802              ADD      r0,sp,#8              ;737
0010d0  f7fffffe          BL       __2sprintf
0010d4  a902              ADD      r1,sp,#8              ;738
0010d6  4620              MOV      r0,r4                 ;738
0010d8  f7fffffe          BL       TEXT_SetText
0010dc  b005              ADD      sp,sp,#0x14
0010de  ecbd8b06          VPOP     {d8-d10}
0010e2  e8bd8ff0          POP      {r4-r11,pc}
                  |L10.4326|
0010e6  4907              LDR      r1,|L10.4356|
0010e8  4648              MOV      r0,r9                 ;648
0010ea  f7fffffe          BL       TEXT_SetFont
0010ee  f7fffffe          BL       GUI_UC_SetEncodeUTF8
0010f2  a105              ADR      r1,|L10.4360|
0010f4  4648              MOV      r0,r9                 ;650
0010f6  f7fffffe          BL       TEXT_SetText
0010fa  e5f2              B        |L10.3298|
;;;756    
                          ENDP

                  |L10.4348|
                          DCD      GUI_Font24_1
                  |L10.4352|
                          DCD      GUI_Font16_1
                  |L10.4356|
                          DCD      GUI_Fontset_font
                  |L10.4360|
001108  e99482e9          DCB      233,148,130,233,148,176,231,148,181,230,177,160,0
00110c  94b0e794
001110  b5e6b1a0
001114  00      
001115  00                DCB      0
001116  00                DCB      0
001117  00                DCB      0

                          AREA ||.bss||, DATA, NOINIT, ALIGN=2

                  InFlashSave
                          %        160

                          AREA ||.constdata||, DATA, READONLY, ALIGN=2

                  _aDialogCreate5
                          DCD      WINDOW_CreateIndirect
                          DCD      ||.conststring||
000008  082a0000          DCW      0x082a,0x0000
00000c  000001e0          DCW      0x0000,0x01e0
000010  01100000          DCW      0x0110,0x0000
                          DCD      0x00000000
                          DCD      0x00000000
                          DCD      BUTTON_CreateIndirect
                          DCD      ||.conststring||+0x8
000024  08360053          DCW      0x0836,0x0053
000028  00e2004d          DCW      0x00e2,0x004d
00002c  002d0000          DCW      0x002d,0x0000
                          DCD      0x00000000
                          DCD      0x00000000
                          DCD      BUTTON_CreateIndirect
                          DCD      ||.conststring||+0x8
000040  083700a3          DCW      0x0837,0x00a3
000044  00e2004d          DCW      0x00e2,0x004d
000048  002d0000          DCW      0x002d,0x0000
                          DCD      0x00000000
                          DCD      0x00000000
                          DCD      BUTTON_CreateIndirect
                          DCD      ||.conststring||+0x8
00005c  083800f3          DCW      0x0838,0x00f3
000060  00e2004d          DCW      0x00e2,0x004d
000064  002d0000          DCW      0x002d,0x0000
                          DCD      0x00000000
                          DCD      0x00000000
                          DCD      BUTTON_CreateIndirect
                          DCD      ||.conststring||+0x8
000078  08390143          DCW      0x0839,0x0143
00007c  00e2004d          DCW      0x00e2,0x004d
000080  002d0000          DCW      0x002d,0x0000
                          DCD      0x00000000
                          DCD      0x00000000
                          DCD      BUTTON_CreateIndirect
                          DCD      ||.conststring||+0x8
000094  083a0193          DCW      0x083a,0x0193
000098  00e2004d          DCW      0x00e2,0x004d
00009c  002d0000          DCW      0x002d,0x0000
                          DCD      0x00000000
                          DCD      0x00000000
                          DCD      TEXT_CreateIndirect
                          DCD      ||.conststring||+0x10
0000b0  082b001e          DCW      0x082b,0x001e
0000b4  00320050          DCW      0x0032,0x0050
0000b8  00140000          DCW      0x0014,0x0000
                          DCD      0x00000000
                          DCD      0x00000000
                          DCD      TEXT_CreateIndirect
                          DCD      ||.conststring||+0x10
0000cc  082c001e          DCW      0x082c,0x001e
0000d0  004b0050          DCW      0x004b,0x0050
0000d4  00140000          DCW      0x0014,0x0000
                          DCD      0x00000000
                          DCD      0x00000000
                          DCD      TEXT_CreateIndirect
                          DCD      ||.conststring||+0x10
0000e8  082d001e          DCW      0x082d,0x001e
0000ec  00640050          DCW      0x0064,0x0050
0000f0  00140000          DCW      0x0014,0x0000
                          DCD      0x00000000
                          DCD      0x00000000
                          DCD      TEXT_CreateIndirect
                          DCD      ||.conststring||+0x10
000104  082e001e          DCW      0x082e,0x001e
000108  007d0064          DCW      0x007d,0x0064
00010c  00140000          DCW      0x0014,0x0000
                          DCD      0x00000000
                          DCD      0x00000000
                          DCD      TEXT_CreateIndirect
                          DCD      ||.conststring||+0x10
000120  082f001e          DCW      0x082f,0x001e
000124  0096008c          DCW      0x0096,0x008c
000128  00140000          DCW      0x0014,0x0000
                          DCD      0x00000000
                          DCD      0x00000000
                          DCD      TEXT_CreateIndirect
                          DCD      ||.conststring||+0x10
00013c  0830001e          DCW      0x0830,0x001e
000140  00af0050          DCW      0x00af,0x0050
000144  00140000          DCW      0x0014,0x0000
                          DCD      0x00000000
                          DCD      0x00000000
                          DCD      TEXT_CreateIndirect
                          DCD      ||.conststring||+0x10
000158  0831001e          DCW      0x0831,0x001e
00015c  00c80050          DCW      0x00c8,0x0050
000160  00140000          DCW      0x0014,0x0000
                          DCD      0x00000064
                          DCD      0x00000000
                          DCD      TEXT_CreateIndirect
                          DCD      ||.conststring||+0x10
000174  08320076          DCW      0x0832,0x0076
000178  00320028          DCW      0x0032,0x0028
00017c  00140000          DCW      0x0014,0x0000
                          DCD      0x00000064
                          DCD      0x00000000
                          DCD      TEXT_CreateIndirect
                          DCD      ||.conststring||+0x10
000190  08330076          DCW      0x0833,0x0076
000194  004b0028          DCW      0x004b,0x0028
000198  00140000          DCW      0x0014,0x0000
                          DCD      0x00000000
                          DCD      0x00000000
                          DCD      TEXT_CreateIndirect
                          DCD      ||.conststring||+0x10
0001ac  08340076          DCW      0x0834,0x0076
0001b0  00640028          DCW      0x0064,0x0028
0001b4  00140000          DCW      0x0014,0x0000
                          DCD      0x00000000
                          DCD      0x00000000
                          DCD      TEXT_CreateIndirect
                          DCD      ||.conststring||+0x10
0001c8  083b0104          DCW      0x083b,0x0104
0001cc  00320064          DCW      0x0032,0x0064
0001d0  00140000          DCW      0x0014,0x0000
                          DCD      0x00000000
                          DCD      0x00000000
                          DCD      TEXT_CreateIndirect
                          DCD      ||.conststring||+0x10
0001e4  083c0104          DCW      0x083c,0x0104
0001e8  004b008c          DCW      0x004b,0x008c
0001ec  00140000          DCW      0x0014,0x0000
                          DCD      0x00000000
                          DCD      0x00000000
                          DCD      TEXT_CreateIndirect
                          DCD      ||.conststring||+0x10
000200  086000b9          DCW      0x0860,0x00b9
000204  007a0028          DCW      0x007a,0x0028
000208  000e0000          DCW      0x000e,0x0000
                          DCD      0x00000000
                          DCD      0x00000000
                          DCD      TEXT_CreateIndirect
                          DCD      ||.conststring||+0x10
00021c  086100b9          DCW      0x0861,0x00b9
000220  00880028          DCW      0x0088,0x0028
000224  000e0000          DCW      0x000e,0x0000
                          DCD      0x00000000
                          DCD      0x00000000
                          DCD      TEXT_CreateIndirect
                          DCD      ||.conststring||+0x10
000238  093500b9          DCW      0x0935,0x00b9
00023c  00960028          DCW      0x0096,0x0028
000240  000e0000          DCW      0x000e,0x0000
                          DCD      0x00000000
                          DCD      0x00000000
                          DCD      TEXT_CreateIndirect
                          DCD      ||.conststring||+0x10
000254  093600b9          DCW      0x0936,0x00b9
000258  00a40028          DCW      0x00a4,0x0028
00025c  000e0000          DCW      0x000e,0x0000
                          DCD      0x00000000
                          DCD      0x00000000
                          DCD      TEXT_CreateIndirect
                          DCD      ||.conststring||+0x10
000270  08620076          DCW      0x0862,0x0076
000274  00af0030          DCW      0x00af,0x0030
000278  00140000          DCW      0x0014,0x0000
                          DCD      0x00000000
                          DCD      0x00000000
                          DCD      TEXT_CreateIndirect
                          DCD      ||.conststring||+0x10
00028c  08630076          DCW      0x0863,0x0076
000290  00c80030          DCW      0x00c8,0x0030
000294  00140000          DCW      0x0014,0x0000
                          DCD      0x00000000
                          DCD      0x00000000
                          DCD      TEXT_CreateIndirect
                          DCD      ||.conststring||+0x10
0002a8  0864019e          DCW      0x0864,0x019e
0002ac  002f0028          DCW      0x002f,0x0028
0002b0  000e0000          DCW      0x000e,0x0000
                          DCD      0x00000000
                          DCD      0x00000000
                          DCD      TEXT_CreateIndirect
                          DCD      ||.conststring||+0x10
0002c4  0865019e          DCW      0x0865,0x019e
0002c8  003d0028          DCW      0x003d,0x0028
0002cc  000e0000          DCW      0x000e,0x0000
                          DCD      0x00000000
                          DCD      0x00000000
                          DCD      TEXT_CreateIndirect
                          DCD      ||.conststring||+0x10
0002e0  0937019e          DCW      0x0937,0x019e
0002e4  004b0028          DCW      0x004b,0x0028
0002e8  000e0000          DCW      0x000e,0x0000
                          DCD      0x00000000
                          DCD      0x00000000
                          DCD      TEXT_CreateIndirect
                          DCD      ||.conststring||+0x10
0002fc  0938019e          DCW      0x0938,0x019e
000300  00590028          DCW      0x0059,0x0028
000304  000e0000          DCW      0x000e,0x0000
                          DCD      0x00000000
                          DCD      0x00000000
                          DCD      TEXT_CreateIndirect
                          DCD      ||.conststring||+0x10
000318  089e0104          DCW      0x089e,0x0104
00031c  00640050          DCW      0x0064,0x0050
000320  00140000          DCW      0x0014,0x0000
                          DCD      0x00000000
                          DCD      0x00000000
                          DCD      TEXT_CreateIndirect
                          DCD      ||.conststring||+0x10
000334  089f015c          DCW      0x089f,0x015c
000338  00640078          DCW      0x0064,0x0078
00033c  00140000          DCW      0x0014,0x0000
                          DCD      0x00000000
                          DCD      0x00000000
                          DCD      TEXT_CreateIndirect
                          DCD      ||.conststring||+0x10
000350  09000168          DCW      0x0900,0x0168
000354  007d0078          DCW      0x007d,0x0078
000358  00140000          DCW      0x0014,0x0000
                          DCD      0x00000000
                          DCD      0x00000000
                          DCD      TEXT_CreateIndirect
                          DCD      ||.conststring||+0x10
00036c  09010168          DCW      0x0901,0x0168
000370  00960078          DCW      0x0096,0x0078
000374  00140000          DCW      0x0014,0x0000
                          DCD      0x00000000
                          DCD      0x00000000
                          DCD      TEXT_CreateIndirect
                          DCD      ||.conststring||+0x10
000388  09020168          DCW      0x0902,0x0168
00038c  00af0078          DCW      0x00af,0x0078
000390  00140000          DCW      0x0014,0x0000
                          DCD      0x00000000
                          DCD      0x00000000
                          DCD      TEXT_CreateIndirect
                          DCD      ||.conststring||+0x10
0003a4  09030168          DCW      0x0903,0x0168
0003a8  00c80078          DCW      0x00c8,0x0078
0003ac  00140000          DCW      0x0014,0x0000
                          DCD      0x00000000
                          DCD      0x00000000
                          DCD      TEXT_CreateIndirect
                          DCD      ||.conststring||+0x10
0003c0  09400104          DCW      0x0940,0x0104
0003c4  00960064          DCW      0x0096,0x0064
0003c8  00140000          DCW      0x0014,0x0000
                          DCD      0x00000000
                          DCD      0x00000000
                          DCD      TEXT_CreateIndirect
                          DCD      ||.conststring||+0x10
0003dc  09410168          DCW      0x0941,0x0168
0003e0  00960050          DCW      0x0096,0x0050
0003e4  00140000          DCW      0x0014,0x0000
                          DCD      0x00000000
                          DCD      0x00000000
                          DCD      TEXT_CreateIndirect
                          DCD      ||.conststring||+0x10
0003f8  09220104          DCW      0x0922,0x0104
0003fc  007d0064          DCW      0x007d,0x0064
000400  00140000          DCW      0x0014,0x0000
                          DCD      0x00000000
                          DCD      0x00000000
                          DCD      TEXT_CreateIndirect
                          DCD      ||.conststring||+0x10
000414  09230168          DCW      0x0923,0x0168
000418  007d0064          DCW      0x007d,0x0064
00041c  00140000          DCW      0x0014,0x0000
                          DCD      0x00000000
                          DCD      0x00000000
                          DCD      TEXT_CreateIndirect
                          DCD      ||.conststring||+0x10
000430  090a012c          DCW      0x090a,0x012c
000434  00020050          DCW      0x0002,0x0050
000438  00140000          DCW      0x0014,0x0000
                          DCD      0x00000000
                          DCD      0x00000000

                          AREA ||.conststring||, DATA, READONLY, MERGE=1, STRINGS, ALIGN=2

000000  53595353          DCB      "SYSSET",0
000004  455400  
000007  00                DCB      0
000008  42757474          DCB      "Button",0
00000c  6f6e00  
00000f  00                DCB      0
000010  54657874          DCB      "Text",0
000014  00      

                          AREA ||.data||, DATA, ALIGN=2

                  test_mode
000000  00                DCB      0x00
                  lang
000001  000000            DCB      0x00,0x00,0x00
                  hWinset
                          DCD      0x00000000

;*** Start embedded assembler ***

#line 1 "..\\APP\\settings.c"
	AREA ||.rev16_text||, CODE
	THUMB
	EXPORT |__asm___10_settings_c_7a1dfd46____REV16|
#line 129 "E:\\Keil_v5\\ARM\\CMSIS\\Include\\core_cmInstr.h"
|__asm___10_settings_c_7a1dfd46____REV16| PROC
#line 130

 rev16 r0, r0
 bx lr
	ENDP
	AREA ||.revsh_text||, CODE
	THUMB
	EXPORT |__asm___10_settings_c_7a1dfd46____REVSH|
#line 144
|__asm___10_settings_c_7a1dfd46____REVSH| PROC
#line 145

 revsh r0, r0
 bx lr
	ENDP

;*** End   embedded assembler ***
