; generated by Component: ARM Compiler 5.06 update 6 (build 750) Tool: ArmCC [4d3637]
; commandline ArmCC [--list --split_sections --debug -c --asm --interleave -o..\output\sysinfo.o --asm_dir=..\Listing\ --list_dir=..\Listing\ --depend=..\output\sysinfo.d --cpu=Cortex-M4.fp --apcs=interwork -O1 --diag_suppress=9931,870 -I..\APP -I..\drive -I..\Include -I..\Libraries\CMSIS\inc -I..\Libraries\CMSIS\src -I..\Libraries\FWlib\inc -I..\Libraries\FWlib\src -I..\Listing -I..\Output -I..\Project -I..\STemWinLibrary522\Config -I..\STemWinLibrary522\emWinTask -I..\STemWinLibrary522\GUILib -I..\STemWinLibrary522\inc -I..\User -I..\USB\STM32_USB_HOST_Library\Class\HID\inc -I..\USB\STM32_USB_HOST_Library\Class\MSC\src -I..\USB\STM32_USB_HOST_Library\Core\src -I..\USB\USB_APP -I..\USB\STM32_USB_HOST_Library\Class\HID\src -I..\USB\STM32_USB_HOST_Library\Class\MSC\inc -I..\USB\STM32_USB_HOST_Library\Core\inc -I..\USB\STM32_USB_OTG_Driver\inc -I..\FATFS\exfuns -I..\FATFS\src\option -I..\FATFS\src -I..\MALLOC -I..\FATFS -I..\IAP -ID:\Keil_v5\ARM\RV31\INC -ID:\Keil_v5\ARM\CMSIS\Include -ID:\Keil_v5\ARM\INC\ST\STM32F4xx -D__UVISION_VERSION=525 -DUSE_STDPERIPH_DRIVER -DSTM32F40XX -DUSE_USB_OTG_FS -DUSE_EMBEDDED_PHY -DUSE_USB_OTG_HS -DSTM32F40XX --omf_browse=..\output\sysinfo.crf --no_multibyte_chars ..\APP\sysinfo.c]
                          THUMB

                          AREA ||i.CFM_PASS||, CODE, READONLY, ALIGN=2

                  CFM_PASS PROC
;;;1409   void CFM_PASS(void);            
;;;1410   void CFM_PASS(void){
000000  b570              PUSH     {r4-r6,lr}
;;;1411       if(admin == 1)
000002  4c17              LDR      r4,|L1.96|
000004  7961              LDRB     r1,[r4,#5]  ; admin
000006  4620              MOV      r0,r4
;;;1412       {
;;;1413           WM_HWIN hItem;
;;;1414           hItem = WM_GetDialogItem(hWinsysinfo, ID_TEXT_99);
;;;1415           TEXT_SetBkColor(hItem,0x00BFFFFF);
000008  4d16              LDR      r5,|L1.100|
00000a  6980              LDR      r0,[r0,#0x18]         ;1414
00000c  f6400299          MOV      r2,#0x899             ;1414
000010  2901              CMP      r1,#1                 ;1411
000012  d012              BEQ      |L1.58|
;;;1416           TEXT_SetTextColor(hItem, GUI_BLACK);
;;;1417       }else if(cal == 1){
000014  7ba1              LDRB     r1,[r4,#0xe]  ; cal
000016  2901              CMP      r1,#1
000018  d01d              BEQ      |L1.86|
;;;1418           Createcal();
;;;1419       }else{
;;;1420           WM_HWIN hItem;
;;;1421           hItem = WM_GetDialogItem(hWinsysinfo, ID_TEXT_99);
00001a  4611              MOV      r1,r2
00001c  f7fffffe          BL       WM_GetDialogItem
000020  4606              MOV      r6,r0
;;;1422           TEXT_SetBkColor(hItem,GUI_INVALID_COLOR);
000022  f06f4170          MVN      r1,#0xf0000000
000026  4630              MOV      r0,r6
000028  f7fffffe          BL       TEXT_SetBkColor
;;;1423           TEXT_SetTextColor(hItem, 0x00BFFFFF);
00002c  4629              MOV      r1,r5
00002e  4630              MOV      r0,r6
000030  f7fffffe          BL       TEXT_SetTextColor
;;;1424           info_set = set_48;
000034  202f              MOVS     r0,#0x2f
000036  7020              STRB     r0,[r4,#0]
;;;1425       }
;;;1426   }
000038  bd70              POP      {r4-r6,pc}
                  |L1.58|
00003a  4611              MOV      r1,r2                 ;1414
00003c  f7fffffe          BL       WM_GetDialogItem
000040  4604              MOV      r4,r0                 ;1414
000042  4629              MOV      r1,r5                 ;1415
000044  4620              MOV      r0,r4                 ;1415
000046  f7fffffe          BL       TEXT_SetBkColor
00004a  4620              MOV      r0,r4                 ;1416
00004c  e8bd4070          POP      {r4-r6,lr}            ;1416
000050  2100              MOVS     r1,#0                 ;1416
000052  f7ffbffe          B.W      TEXT_SetTextColor
                  |L1.86|
000056  e8bd4070          POP      {r4-r6,lr}            ;1418
00005a  f7ffbffe          B.W      Createcal
;;;1427   
                          ENDP

00005e  0000              DCW      0x0000
                  |L1.96|
                          DCD      ||.data||
                  |L1.100|
                          DCD      0x00bfffff

                          AREA ||i.Createsysinfo||, CODE, READONLY, ALIGN=2

                  Createsysinfo PROC
;;;369    WM_HWIN Createsysinfo(void);
;;;370    WM_HWIN Createsysinfo(void) {
000000  b51c              PUSH     {r2-r4,lr}
;;;371      hWinsysinfo  = GUI_CreateDialogBox(_aDialogCreate7, GUI_COUNTOF(_aDialogCreate7), _cbDialog, WM_HBKWIN, 0, 0);
000002  f7fffffe          BL       WM_GetDesktopWindow
000006  2400              MOVS     r4,#0
000008  4603              MOV      r3,r0
00000a  9400              STR      r4,[sp,#0]
00000c  4a07              LDR      r2,|L2.44|
00000e  2112              MOVS     r1,#0x12
000010  4807              LDR      r0,|L2.48|
000012  9401              STR      r4,[sp,#4]
000014  f7fffffe          BL       GUI_CreateDialogBox
000018  4906              LDR      r1,|L2.52|
00001a  6188              STR      r0,[r1,#0x18]  ; hWinsysinfo
;;;372      pass = 0;
00001c  4a06              LDR      r2,|L2.56|
00001e  7014              STRB     r4,[r2,#0]
;;;373      page_sw = face_sys_info;
000020  4b06              LDR      r3,|L2.60|
000022  2207              MOVS     r2,#7
000024  701a              STRB     r2,[r3,#0]
;;;374      info_set = set_48;
000026  222f              MOVS     r2,#0x2f
000028  700a              STRB     r2,[r1,#0]
;;;375      return hWinsysinfo;
;;;376    }
00002a  bd1c              POP      {r2-r4,pc}
;;;377    
                          ENDP

                  |L2.44|
                          DCD      _cbDialog
                  |L2.48|
                          DCD      ||.constdata||
                  |L2.52|
                          DCD      ||.data||
                  |L2.56|
                          DCD      pass
                  |L2.60|
                          DCD      page_sw

                          AREA ||i.INPUT_INFO||, CODE, READONLY, ALIGN=2

                          REQUIRE _printf_percent
                          REQUIRE _printf_d
                          REQUIRE _printf_int_dec
                  INPUT_INFO PROC
;;;1255              
;;;1256   void INPUT_INFO(vu8 num){
000000  b531              PUSH     {r0,r4,r5,lr}
;;;1257       static char buf[5];
;;;1258       WM_HWIN hItem;
;;;1259       switch(info_set)
000002  4ccd              LDR      r4,|L3.824|
000004  7821              LDRB     r1,[r4,#0]  ; info_set
000006  4620              MOV      r0,r4
000008  392f              SUBS     r1,r1,#0x2f
;;;1260       {
;;;1261           case set_48:
;;;1262           {
;;;1263               hItem = WM_GetDialogItem(hWinsysinfo, ID_TEXT_99);
00000a  6980              LDR      r0,[r0,#0x18]
00000c  2910              CMP      r1,#0x10              ;1259
00000e  d27d              BCS      |L3.268|
000010  e8dff001          TBB      [pc,r1]               ;1259
000014  08203850          DCB      0x08,0x20,0x38,0x50
000018  68829ab2          DCB      0x68,0x82,0x9a,0xb2
00001c  cae2fcfb          DCB      0xca,0xe2,0xfc,0xfb
000020  faf9f8f7          DCB      0xfa,0xf9,0xf8,0xf7
000024  f6400199          MOV      r1,#0x899
000028  f7fffffe          BL       WM_GetDialogItem
00002c  4605              MOV      r5,r0
;;;1264               sprintf(buf,"%d",num);
00002e  f89d2000          LDRB     r2,[sp,#0]
000032  48c1              LDR      r0,|L3.824|
000034  a1c1              ADR      r1,|L3.828|
000036  3021              ADDS     r0,r0,#0x21
000038  f7fffffe          BL       __2sprintf
;;;1265               TEXT_SetText(hItem,buf);
00003c  49be              LDR      r1,|L3.824|
00003e  4628              MOV      r0,r5
000040  3121              ADDS     r1,r1,#0x21
000042  f7fffffe          BL       TEXT_SetText
;;;1266               year1 = num;
000046  f89d0000          LDRB     r0,[sp,#0]
00004a  8220              STRH     r0,[r4,#0x10]
;;;1267               Write_info();
00004c  e8bd4038          POP      {r3-r5,lr}
000050  f7ffbffe          B.W      Write_info
;;;1268               break;
;;;1269           }
;;;1270           case set_49:
;;;1271           {
;;;1272               hItem = WM_GetDialogItem(hWinsysinfo, ID_TEXT_100);
000054  f640019a          MOV      r1,#0x89a
000058  f7fffffe          BL       WM_GetDialogItem
00005c  4605              MOV      r5,r0
;;;1273               sprintf(buf,"%d",num);
00005e  f89d2000          LDRB     r2,[sp,#0]
000062  48b5              LDR      r0,|L3.824|
000064  a1b5              ADR      r1,|L3.828|
000066  3021              ADDS     r0,r0,#0x21
000068  f7fffffe          BL       __2sprintf
;;;1274               TEXT_SetText(hItem,buf);
00006c  49b2              LDR      r1,|L3.824|
00006e  4628              MOV      r0,r5
000070  3121              ADDS     r1,r1,#0x21
000072  f7fffffe          BL       TEXT_SetText
;;;1275               year2= num;
000076  f89d0000          LDRB     r0,[sp,#0]
00007a  8260              STRH     r0,[r4,#0x12]
;;;1276               Write_info();
00007c  e8bd4038          POP      {r3-r5,lr}
000080  f7ffbffe          B.W      Write_info
;;;1277               break;
;;;1278           }
;;;1279           case set_50:
;;;1280           {
;;;1281               hItem = WM_GetDialogItem(hWinsysinfo, ID_TEXT_101);
000084  f640019b          MOV      r1,#0x89b
000088  f7fffffe          BL       WM_GetDialogItem
00008c  4605              MOV      r5,r0
;;;1282               sprintf(buf,"%d",num);
00008e  f89d2000          LDRB     r2,[sp,#0]
000092  48a9              LDR      r0,|L3.824|
000094  a1a9              ADR      r1,|L3.828|
000096  3021              ADDS     r0,r0,#0x21
000098  f7fffffe          BL       __2sprintf
;;;1283               TEXT_SetText(hItem,buf);
00009c  49a6              LDR      r1,|L3.824|
00009e  4628              MOV      r0,r5
0000a0  3121              ADDS     r1,r1,#0x21
0000a2  f7fffffe          BL       TEXT_SetText
;;;1284               year3= num;
0000a6  f89d0000          LDRB     r0,[sp,#0]
0000aa  82a0              STRH     r0,[r4,#0x14]
;;;1285               Write_info();
0000ac  e8bd4038          POP      {r3-r5,lr}
0000b0  f7ffbffe          B.W      Write_info
;;;1286               break;
;;;1287           }
;;;1288           case set_51:
;;;1289           {
;;;1290               hItem = WM_GetDialogItem(hWinsysinfo, ID_TEXT_102);
0000b4  f640019c          MOV      r1,#0x89c
0000b8  f7fffffe          BL       WM_GetDialogItem
0000bc  4605              MOV      r5,r0
;;;1291               sprintf(buf,"%d",num);
0000be  f89d2000          LDRB     r2,[sp,#0]
0000c2  489d              LDR      r0,|L3.824|
0000c4  a19d              ADR      r1,|L3.828|
0000c6  3021              ADDS     r0,r0,#0x21
0000c8  f7fffffe          BL       __2sprintf
;;;1292               TEXT_SetText(hItem,buf);
0000cc  499a              LDR      r1,|L3.824|
0000ce  4628              MOV      r0,r5
0000d0  3121              ADDS     r1,r1,#0x21
0000d2  f7fffffe          BL       TEXT_SetText
;;;1293               year4= num;
0000d6  f89d0000          LDRB     r0,[sp,#0]
0000da  82e0              STRH     r0,[r4,#0x16]
;;;1294               Write_info();
0000dc  e8bd4038          POP      {r3-r5,lr}
0000e0  f7ffbffe          B.W      Write_info
;;;1295               break;
;;;1296           }
;;;1297           case set_52:
;;;1298           {
;;;1299               hItem = WM_GetDialogItem(hWinsysinfo, ID_TEXT_103);
0000e4  f640019d          MOV      r1,#0x89d
0000e8  f7fffffe          BL       WM_GetDialogItem
0000ec  4605              MOV      r5,r0
;;;1300               sprintf(buf,"%d",num);
0000ee  f89d2000          LDRB     r2,[sp,#0]
0000f2  4891              LDR      r0,|L3.824|
0000f4  a191              ADR      r1,|L3.828|
0000f6  3021              ADDS     r0,r0,#0x21
0000f8  f7fffffe          BL       __2sprintf
;;;1301               TEXT_SetText(hItem,buf);
0000fc  498e              LDR      r1,|L3.824|
0000fe  4628              MOV      r0,r5
000100  3121              ADDS     r1,r1,#0x21
000102  f7fffffe          BL       TEXT_SetText
;;;1302               month1 = num;
000106  f89d0000          LDRB     r0,[sp,#0]
00010a  e000              B        |L3.270|
                  |L3.268|
00010c  e113              B        |L3.822|
                  |L3.270|
00010e  7060              STRB     r0,[r4,#1]
;;;1303               Write_info();
000110  e8bd4038          POP      {r3-r5,lr}
000114  f7ffbffe          B.W      Write_info
;;;1304               break;
;;;1305           }
;;;1306           case set_53:
;;;1307           {
;;;1308               hItem = WM_GetDialogItem(hWinsysinfo, ID_TEXT_104);
000118  f640019e          MOV      r1,#0x89e
00011c  f7fffffe          BL       WM_GetDialogItem
000120  4605              MOV      r5,r0
;;;1309               sprintf(buf,"%d",num);
000122  f89d2000          LDRB     r2,[sp,#0]
000126  4884              LDR      r0,|L3.824|
000128  a184              ADR      r1,|L3.828|
00012a  3021              ADDS     r0,r0,#0x21
00012c  f7fffffe          BL       __2sprintf
;;;1310               TEXT_SetText(hItem,buf);
000130  4981              LDR      r1,|L3.824|
000132  4628              MOV      r0,r5
000134  3121              ADDS     r1,r1,#0x21
000136  f7fffffe          BL       TEXT_SetText
;;;1311               month2 = num;
00013a  f89d0000          LDRB     r0,[sp,#0]
00013e  70a0              STRB     r0,[r4,#2]
;;;1312               Write_info();
000140  e8bd4038          POP      {r3-r5,lr}
000144  f7ffbffe          B.W      Write_info
;;;1313               break;
;;;1314           }
;;;1315           case set_54:
;;;1316           {
;;;1317               hItem = WM_GetDialogItem(hWinsysinfo, ID_TEXT_105);
000148  f6401115          MOV      r1,#0x915
00014c  f7fffffe          BL       WM_GetDialogItem
000150  4605              MOV      r5,r0
;;;1318               sprintf(buf,"%d",num);
000152  f89d2000          LDRB     r2,[sp,#0]
000156  4878              LDR      r0,|L3.824|
000158  a178              ADR      r1,|L3.828|
00015a  3021              ADDS     r0,r0,#0x21
00015c  f7fffffe          BL       __2sprintf
;;;1319               TEXT_SetText(hItem,buf);
000160  4975              LDR      r1,|L3.824|
000162  4628              MOV      r0,r5
000164  3121              ADDS     r1,r1,#0x21
000166  f7fffffe          BL       TEXT_SetText
;;;1320               day1 = num;
00016a  f89d0000          LDRB     r0,[sp,#0]
00016e  70e0              STRB     r0,[r4,#3]
;;;1321               Write_info();
000170  e8bd4038          POP      {r3-r5,lr}
000174  f7ffbffe          B.W      Write_info
;;;1322               break;
;;;1323           }
;;;1324           case set_55:
;;;1325           {
;;;1326               hItem = WM_GetDialogItem(hWinsysinfo, ID_TEXT_106);
000178  f6401116          MOV      r1,#0x916
00017c  f7fffffe          BL       WM_GetDialogItem
000180  4605              MOV      r5,r0
;;;1327               sprintf(buf,"%d",num);
000182  f89d2000          LDRB     r2,[sp,#0]
000186  486c              LDR      r0,|L3.824|
000188  a16c              ADR      r1,|L3.828|
00018a  3021              ADDS     r0,r0,#0x21
00018c  f7fffffe          BL       __2sprintf
;;;1328               TEXT_SetText(hItem,buf);
000190  4969              LDR      r1,|L3.824|
000192  4628              MOV      r0,r5
000194  3121              ADDS     r1,r1,#0x21
000196  f7fffffe          BL       TEXT_SetText
;;;1329               day2 = num;
00019a  f89d0000          LDRB     r0,[sp,#0]
00019e  7120              STRB     r0,[r4,#4]
;;;1330               Write_info();
0001a0  e8bd4038          POP      {r3-r5,lr}
0001a4  f7ffbffe          B.W      Write_info
;;;1331               break;
;;;1332           }
;;;1333           case set_56:
;;;1334           {
;;;1335               hItem = WM_GetDialogItem(hWinsysinfo, ID_TEXT_107);
0001a8  f6401117          MOV      r1,#0x917
0001ac  f7fffffe          BL       WM_GetDialogItem
0001b0  4605              MOV      r5,r0
;;;1336               sprintf(buf,"%d",num);
0001b2  f89d2000          LDRB     r2,[sp,#0]
0001b6  4860              LDR      r0,|L3.824|
0001b8  a160              ADR      r1,|L3.828|
0001ba  3021              ADDS     r0,r0,#0x21
0001bc  f7fffffe          BL       __2sprintf
;;;1337               TEXT_SetText(hItem,buf);
0001c0  495d              LDR      r1,|L3.824|
0001c2  4628              MOV      r0,r5
0001c4  3121              ADDS     r1,r1,#0x21
0001c6  f7fffffe          BL       TEXT_SetText
;;;1338               code3 = num;
0001ca  f89d0000          LDRB     r0,[sp,#0]
0001ce  7220              STRB     r0,[r4,#8]
;;;1339               Write_info();
0001d0  e8bd4038          POP      {r3-r5,lr}
0001d4  f7ffbffe          B.W      Write_info
;;;1340               break;
;;;1341           }
;;;1342           case set_57:
;;;1343           {
;;;1344               hItem = WM_GetDialogItem(hWinsysinfo, ID_TEXT_108);
0001d8  f6401118          MOV      r1,#0x918
0001dc  f7fffffe          BL       WM_GetDialogItem
0001e0  4605              MOV      r5,r0
;;;1345               sprintf(buf,"%d",num);
0001e2  f89d2000          LDRB     r2,[sp,#0]
0001e6  4854              LDR      r0,|L3.824|
0001e8  a154              ADR      r1,|L3.828|
0001ea  3021              ADDS     r0,r0,#0x21
0001ec  f7fffffe          BL       __2sprintf
;;;1346               TEXT_SetText(hItem,buf);
0001f0  4951              LDR      r1,|L3.824|
0001f2  4628              MOV      r0,r5
0001f4  3121              ADDS     r1,r1,#0x21
0001f6  f7fffffe          BL       TEXT_SetText
;;;1347               code4 = num;
0001fa  f89d0000          LDRB     r0,[sp,#0]
0001fe  7260              STRB     r0,[r4,#9]
;;;1348               Write_info();
000200  e005              B        |L3.526|
000202  e080              B        |L3.774|
000204  e067              B        |L3.726|
000206  e04e              B        |L3.678|
000208  e035              B        |L3.630|
00020a  e01c              B        |L3.582|
00020c  e003              B        |L3.534|
                  |L3.526|
00020e  e8bd4038          POP      {r3-r5,lr}
000212  f7ffbffe          B.W      Write_info
                  |L3.534|
;;;1349               break;
;;;1350           }
;;;1351           case set_58:
;;;1352           {
;;;1353               hItem = WM_GetDialogItem(hWinsysinfo, ID_TEXT_109);
000216  f6401119          MOV      r1,#0x919
00021a  f7fffffe          BL       WM_GetDialogItem
00021e  4605              MOV      r5,r0
;;;1354               sprintf(buf,"%d",num);
000220  f89d2000          LDRB     r2,[sp,#0]
000224  4844              LDR      r0,|L3.824|
000226  a145              ADR      r1,|L3.828|
000228  3021              ADDS     r0,r0,#0x21
00022a  f7fffffe          BL       __2sprintf
;;;1355               TEXT_SetText(hItem,buf);
00022e  4942              LDR      r1,|L3.824|
000230  4628              MOV      r0,r5
000232  3121              ADDS     r1,r1,#0x21
000234  f7fffffe          BL       TEXT_SetText
;;;1356               code5 = num;
000238  f89d0000          LDRB     r0,[sp,#0]
00023c  72a0              STRB     r0,[r4,#0xa]
;;;1357               Write_info();
00023e  e8bd4038          POP      {r3-r5,lr}
000242  f7ffbffe          B.W      Write_info
                  |L3.582|
;;;1358               break;
;;;1359           }
;;;1360           case set_59:
;;;1361           {
;;;1362               hItem = WM_GetDialogItem(hWinsysinfo, ID_TEXT_110);
000246  f640111a          MOV      r1,#0x91a
00024a  f7fffffe          BL       WM_GetDialogItem
00024e  4605              MOV      r5,r0
;;;1363               sprintf(buf,"%d",num);
000250  f89d2000          LDRB     r2,[sp,#0]
000254  4838              LDR      r0,|L3.824|
000256  a139              ADR      r1,|L3.828|
000258  3021              ADDS     r0,r0,#0x21
00025a  f7fffffe          BL       __2sprintf
;;;1364               TEXT_SetText(hItem,buf);
00025e  4936              LDR      r1,|L3.824|
000260  4628              MOV      r0,r5
000262  3121              ADDS     r1,r1,#0x21
000264  f7fffffe          BL       TEXT_SetText
;;;1365               code6 = num;
000268  f89d0000          LDRB     r0,[sp,#0]
00026c  72e0              STRB     r0,[r4,#0xb]
;;;1366               Write_info();
00026e  e8bd4038          POP      {r3-r5,lr}
000272  f7ffbffe          B.W      Write_info
                  |L3.630|
;;;1367               break;
;;;1368           }
;;;1369           case set_60:
;;;1370           {
;;;1371               hItem = WM_GetDialogItem(hWinsysinfo, ID_TEXT_111);
000276  f640111b          MOV      r1,#0x91b
00027a  f7fffffe          BL       WM_GetDialogItem
00027e  4605              MOV      r5,r0
;;;1372               sprintf(buf,"%d",num);
000280  f89d2000          LDRB     r2,[sp,#0]
000284  482c              LDR      r0,|L3.824|
000286  a12d              ADR      r1,|L3.828|
000288  3021              ADDS     r0,r0,#0x21
00028a  f7fffffe          BL       __2sprintf
;;;1373               TEXT_SetText(hItem,buf);
00028e  492a              LDR      r1,|L3.824|
000290  4628              MOV      r0,r5
000292  3121              ADDS     r1,r1,#0x21
000294  f7fffffe          BL       TEXT_SetText
;;;1374               code7 = num;
000298  f89d0000          LDRB     r0,[sp,#0]
00029c  7320              STRB     r0,[r4,#0xc]
;;;1375               Write_info();
00029e  e8bd4038          POP      {r3-r5,lr}
0002a2  f7ffbffe          B.W      Write_info
                  |L3.678|
;;;1376               break;
;;;1377           }
;;;1378           case set_61:
;;;1379           {
;;;1380               hItem = WM_GetDialogItem(hWinsysinfo, ID_TEXT_112);
0002a6  f640111c          MOV      r1,#0x91c
0002aa  f7fffffe          BL       WM_GetDialogItem
0002ae  4605              MOV      r5,r0
;;;1381               sprintf(buf,"%d",num);
0002b0  f89d2000          LDRB     r2,[sp,#0]
0002b4  4820              LDR      r0,|L3.824|
0002b6  a121              ADR      r1,|L3.828|
0002b8  3021              ADDS     r0,r0,#0x21
0002ba  f7fffffe          BL       __2sprintf
;;;1382               TEXT_SetText(hItem,buf);
0002be  491e              LDR      r1,|L3.824|
0002c0  4628              MOV      r0,r5
0002c2  3121              ADDS     r1,r1,#0x21
0002c4  f7fffffe          BL       TEXT_SetText
;;;1383               code8 = num;
0002c8  f89d0000          LDRB     r0,[sp,#0]
0002cc  7360              STRB     r0,[r4,#0xd]
;;;1384               Write_info();
0002ce  e8bd4038          POP      {r3-r5,lr}
0002d2  f7ffbffe          B.W      Write_info
                  |L3.726|
;;;1385               break;
;;;1386           }
;;;1387           case set_62:
;;;1388           {
;;;1389               hItem = WM_GetDialogItem(hWinsysinfo, ID_TEXT_113);
0002d6  f640111d          MOV      r1,#0x91d
0002da  f7fffffe          BL       WM_GetDialogItem
0002de  4605              MOV      r5,r0
;;;1390               sprintf(buf,"%d",num);
0002e0  f89d2000          LDRB     r2,[sp,#0]
0002e4  4814              LDR      r0,|L3.824|
0002e6  a115              ADR      r1,|L3.828|
0002e8  3021              ADDS     r0,r0,#0x21
0002ea  f7fffffe          BL       __2sprintf
;;;1391               TEXT_SetText(hItem,buf);
0002ee  4912              LDR      r1,|L3.824|
0002f0  4628              MOV      r0,r5
0002f2  3121              ADDS     r1,r1,#0x21
0002f4  f7fffffe          BL       TEXT_SetText
;;;1392               code1 = num;
0002f8  f89d0000          LDRB     r0,[sp,#0]
0002fc  71a0              STRB     r0,[r4,#6]
;;;1393               Write_info();
0002fe  e8bd4038          POP      {r3-r5,lr}
000302  f7ffbffe          B.W      Write_info
                  |L3.774|
;;;1394               break;
;;;1395           }
;;;1396           case set_63:
;;;1397           {
;;;1398               hItem = WM_GetDialogItem(hWinsysinfo, ID_TEXT_114);
000306  f640111e          MOV      r1,#0x91e
00030a  f7fffffe          BL       WM_GetDialogItem
00030e  4605              MOV      r5,r0
;;;1399               sprintf(buf,"%d",num);
000310  f89d2000          LDRB     r2,[sp,#0]
000314  4808              LDR      r0,|L3.824|
000316  a109              ADR      r1,|L3.828|
000318  3021              ADDS     r0,r0,#0x21
00031a  f7fffffe          BL       __2sprintf
;;;1400               TEXT_SetText(hItem,buf);
00031e  4906              LDR      r1,|L3.824|
000320  4628              MOV      r0,r5
000322  3121              ADDS     r1,r1,#0x21
000324  f7fffffe          BL       TEXT_SetText
;;;1401               code2 = num;
000328  f89d0000          LDRB     r0,[sp,#0]
00032c  71e0              STRB     r0,[r4,#7]
;;;1402               Write_info();
00032e  e8bd4038          POP      {r3-r5,lr}
000332  f7ffbffe          B.W      Write_info
                  |L3.822|
;;;1403               break;
;;;1404           }
;;;1405           
;;;1406       }
;;;1407   }
000336  bd38              POP      {r3-r5,pc}
;;;1408   
                          ENDP

                  |L3.824|
                          DCD      ||.data||
                  |L3.828|
00033c  256400            DCB      "%d",0
00033f  00                DCB      0

                          AREA ||i.SYS_INFO_DOWN||, CODE, READONLY, ALIGN=2

                  SYS_INFO_DOWN PROC
;;;1036   
;;;1037   void SYS_INFO_DOWN(void)
000000  e92d47f0          PUSH     {r4-r10,lr}
;;;1038   {
;;;1039       WM_HWIN hItem;
;;;1040       switch(info_set)
000004  4cf0              LDR      r4,|L4.968|
000006  7821              LDRB     r1,[r4,#0]  ; info_set
000008  4620              MOV      r0,r4
00000a  392f              SUBS     r1,r1,#0x2f
;;;1041       {
;;;1042           case set_48:
;;;1043           {
;;;1044               hItem = WM_GetDialogItem(hWinsysinfo, ID_TEXT_99);
;;;1045               TEXT_SetBkColor(hItem,GUI_INVALID_COLOR);
;;;1046               TEXT_SetTextColor(hItem, 0x00BFFFFF);
00000c  4def              LDR      r5,|L4.972|
;;;1047               
;;;1048               hItem = WM_GetDialogItem(hWinsysinfo, ID_TEXT_113);
;;;1049               TEXT_SetBkColor(hItem,0x00BFFFFF);
;;;1050               TEXT_SetTextColor(hItem, GUI_BLACK);
;;;1051               
;;;1052               info_set = set_62;
00000e  263d              MOVS     r6,#0x3d
;;;1053               break;
;;;1054           }
;;;1055           case set_49:
;;;1056           {
;;;1057               hItem = WM_GetDialogItem(hWinsysinfo, ID_TEXT_100);
;;;1058               TEXT_SetBkColor(hItem,GUI_INVALID_COLOR);
;;;1059               TEXT_SetTextColor(hItem, 0x00BFFFFF);
;;;1060               
;;;1061               hItem = WM_GetDialogItem(hWinsysinfo, ID_TEXT_113);
;;;1062               TEXT_SetBkColor(hItem,0x00BFFFFF);
;;;1063               TEXT_SetTextColor(hItem, GUI_BLACK);
;;;1064               
;;;1065               info_set = set_62;
;;;1066               break;
;;;1067           }
;;;1068           case set_50:
;;;1069           {
;;;1070               hItem = WM_GetDialogItem(hWinsysinfo, ID_TEXT_101);
;;;1071               TEXT_SetBkColor(hItem,GUI_INVALID_COLOR);
;;;1072               TEXT_SetTextColor(hItem, 0x00BFFFFF);
;;;1073               
;;;1074               hItem = WM_GetDialogItem(hWinsysinfo, ID_TEXT_113);
;;;1075               TEXT_SetBkColor(hItem,0x00BFFFFF);
;;;1076               TEXT_SetTextColor(hItem, GUI_BLACK);
;;;1077               
;;;1078               info_set = set_62;
;;;1079               break;
;;;1080           }
;;;1081           case set_51:
;;;1082           {
;;;1083               hItem = WM_GetDialogItem(hWinsysinfo, ID_TEXT_102);
;;;1084               TEXT_SetBkColor(hItem,GUI_INVALID_COLOR);
;;;1085               TEXT_SetTextColor(hItem, 0x00BFFFFF);
;;;1086               
;;;1087               hItem = WM_GetDialogItem(hWinsysinfo, ID_TEXT_113);
;;;1088               TEXT_SetBkColor(hItem,0x00BFFFFF);
;;;1089               TEXT_SetTextColor(hItem, GUI_BLACK);
;;;1090               
;;;1091               info_set = set_62;
;;;1092               break;
;;;1093           }
;;;1094           case set_52:
;;;1095           {
;;;1096               hItem = WM_GetDialogItem(hWinsysinfo, ID_TEXT_103);
;;;1097               TEXT_SetBkColor(hItem,GUI_INVALID_COLOR);
;;;1098               TEXT_SetTextColor(hItem, 0x00BFFFFF);
;;;1099               
;;;1100               hItem = WM_GetDialogItem(hWinsysinfo, ID_TEXT_113);
;;;1101               TEXT_SetBkColor(hItem,0x00BFFFFF);
;;;1102               TEXT_SetTextColor(hItem, GUI_BLACK);
;;;1103               
;;;1104               info_set = set_62;
;;;1105               break;
;;;1106           }
;;;1107           case set_53:
;;;1108           {
;;;1109               hItem = WM_GetDialogItem(hWinsysinfo, ID_TEXT_104);
;;;1110               TEXT_SetBkColor(hItem,GUI_INVALID_COLOR);
;;;1111               TEXT_SetTextColor(hItem, 0x00BFFFFF);
;;;1112               
;;;1113               hItem = WM_GetDialogItem(hWinsysinfo, ID_TEXT_113);
;;;1114               TEXT_SetBkColor(hItem,0x00BFFFFF);
;;;1115               TEXT_SetTextColor(hItem, GUI_BLACK);
;;;1116               
;;;1117               info_set = set_62;
;;;1118               break;
;;;1119           }
;;;1120           case set_54:
;;;1121           {
;;;1122               hItem = WM_GetDialogItem(hWinsysinfo, ID_TEXT_105);
;;;1123               TEXT_SetBkColor(hItem,GUI_INVALID_COLOR);
;;;1124               TEXT_SetTextColor(hItem, 0x00BFFFFF);
;;;1125               
;;;1126               hItem = WM_GetDialogItem(hWinsysinfo, ID_TEXT_113);
;;;1127               TEXT_SetBkColor(hItem,0x00BFFFFF);
;;;1128               TEXT_SetTextColor(hItem, GUI_BLACK);
;;;1129               
;;;1130               info_set = set_62;
;;;1131               break;
;;;1132           }
;;;1133           case set_55:
;;;1134           {
;;;1135               hItem = WM_GetDialogItem(hWinsysinfo, ID_TEXT_106);
;;;1136               TEXT_SetBkColor(hItem,GUI_INVALID_COLOR);
;;;1137               TEXT_SetTextColor(hItem, 0x00BFFFFF);
;;;1138               
;;;1139               hItem = WM_GetDialogItem(hWinsysinfo, ID_TEXT_113);
;;;1140               TEXT_SetBkColor(hItem,0x00BFFFFF);
;;;1141               TEXT_SetTextColor(hItem, GUI_BLACK);
;;;1142               
;;;1143               info_set = set_62;
;;;1144               break;
;;;1145           }
;;;1146           case set_62:
;;;1147           {
;;;1148               hItem = WM_GetDialogItem(hWinsysinfo, ID_TEXT_113);
;;;1149               TEXT_SetBkColor(hItem,GUI_INVALID_COLOR);
;;;1150               TEXT_SetTextColor(hItem, 0x00BFFFFF);
;;;1151               
;;;1152               hItem = WM_GetDialogItem(hWinsysinfo, ID_TEXT_99);
;;;1153               TEXT_SetBkColor(hItem,0x00BFFFFF);
;;;1154               TEXT_SetTextColor(hItem, GUI_BLACK);
;;;1155               
;;;1156               info_set = set_48;
000010  272f              MOVS     r7,#0x2f
000012  6980              LDR      r0,[r0,#0x18]         ;1044
000014  f6400a99          MOV      r10,#0x899            ;1044
000018  f06f4870          MVN      r8,#0xf0000000        ;1045
00001c  f640191d          MOV      r9,#0x91d             ;1048
000020  2910              CMP      r1,#0x10              ;1040
000022  d223              BCS      |L4.108|
000024  e8dff001          TBB      [pc,r1]               ;1040
000028  0824405c          DCB      0x08,0x24,0x40,0x5c
00002c  7894b0cc          DCB      0x78,0x94,0xb0,0xcc
000030  efeeedec          DCB      0xef,0xee,0xed,0xec
000034  ebeaf0e8          DCB      0xeb,0xea,0xf0,0xe8
000038  4651              MOV      r1,r10                ;1044
00003a  f7fffffe          BL       WM_GetDialogItem
00003e  4607              MOV      r7,r0                 ;1044
000040  4641              MOV      r1,r8                 ;1045
000042  4638              MOV      r0,r7                 ;1045
000044  f7fffffe          BL       TEXT_SetBkColor
000048  4629              MOV      r1,r5                 ;1046
00004a  4638              MOV      r0,r7                 ;1046
00004c  f7fffffe          BL       TEXT_SetTextColor
000050  4649              MOV      r1,r9                 ;1048
000052  69a0              LDR      r0,[r4,#0x18]         ;1048  ; hWinsysinfo
000054  f7fffffe          BL       WM_GetDialogItem
000058  4607              MOV      r7,r0                 ;1048
00005a  4629              MOV      r1,r5                 ;1049
00005c  4638              MOV      r0,r7                 ;1049
00005e  f7fffffe          BL       TEXT_SetBkColor
000062  2100              MOVS     r1,#0                 ;1050
000064  4638              MOV      r0,r7                 ;1050
000066  f7fffffe          BL       TEXT_SetTextColor
00006a  7026              STRB     r6,[r4,#0]            ;1052
                  |L4.108|
;;;1157               break;
;;;1158           }
;;;1159           case set_63:
;;;1160           {
;;;1161               hItem = WM_GetDialogItem(hWinsysinfo, ID_TEXT_114);
;;;1162               TEXT_SetBkColor(hItem,GUI_INVALID_COLOR);
;;;1163               TEXT_SetTextColor(hItem, 0x00BFFFFF);
;;;1164               
;;;1165               hItem = WM_GetDialogItem(hWinsysinfo, ID_TEXT_99);
;;;1166               TEXT_SetBkColor(hItem,0x00BFFFFF);
;;;1167               TEXT_SetTextColor(hItem, GUI_BLACK);
;;;1168               
;;;1169               info_set = set_48;
;;;1170               break;
;;;1171           }
;;;1172           case set_56:
;;;1173           {
;;;1174               hItem = WM_GetDialogItem(hWinsysinfo, ID_TEXT_107);
;;;1175               TEXT_SetBkColor(hItem,GUI_INVALID_COLOR);
;;;1176               TEXT_SetTextColor(hItem, 0x00BFFFFF);
;;;1177               
;;;1178               hItem = WM_GetDialogItem(hWinsysinfo, ID_TEXT_99);
;;;1179               TEXT_SetBkColor(hItem,0x00BFFFFF);
;;;1180               TEXT_SetTextColor(hItem, GUI_BLACK);
;;;1181               
;;;1182               info_set = set_48;
;;;1183               break;
;;;1184           }
;;;1185           case set_57:
;;;1186           {
;;;1187               hItem = WM_GetDialogItem(hWinsysinfo, ID_TEXT_108);
;;;1188               TEXT_SetBkColor(hItem,GUI_INVALID_COLOR);
;;;1189               TEXT_SetTextColor(hItem, 0x00BFFFFF);
;;;1190               
;;;1191               hItem = WM_GetDialogItem(hWinsysinfo, ID_TEXT_99);
;;;1192               TEXT_SetBkColor(hItem,0x00BFFFFF);
;;;1193               TEXT_SetTextColor(hItem, GUI_BLACK);
;;;1194               
;;;1195               info_set = set_48;
;;;1196               break;
;;;1197           }
;;;1198           case set_58:
;;;1199           {
;;;1200               hItem = WM_GetDialogItem(hWinsysinfo, ID_TEXT_109);
;;;1201               TEXT_SetBkColor(hItem,GUI_INVALID_COLOR);
;;;1202               TEXT_SetTextColor(hItem, 0x00BFFFFF);
;;;1203               
;;;1204               hItem = WM_GetDialogItem(hWinsysinfo, ID_TEXT_99);
;;;1205               TEXT_SetBkColor(hItem,0x00BFFFFF);
;;;1206               TEXT_SetTextColor(hItem, GUI_BLACK);
;;;1207               
;;;1208               info_set = set_48;
;;;1209               break;
;;;1210           }
;;;1211           case set_59:
;;;1212           {
;;;1213               hItem = WM_GetDialogItem(hWinsysinfo, ID_TEXT_110);
;;;1214               TEXT_SetBkColor(hItem,GUI_INVALID_COLOR);
;;;1215               TEXT_SetTextColor(hItem, 0x00BFFFFF);
;;;1216               
;;;1217               hItem = WM_GetDialogItem(hWinsysinfo, ID_TEXT_99);
;;;1218               TEXT_SetBkColor(hItem,0x00BFFFFF);
;;;1219               TEXT_SetTextColor(hItem, GUI_BLACK);
;;;1220               
;;;1221               info_set = set_48;
;;;1222               break;
;;;1223           }
;;;1224           case set_60:
;;;1225           {
;;;1226               hItem = WM_GetDialogItem(hWinsysinfo, ID_TEXT_111);
;;;1227               TEXT_SetBkColor(hItem,GUI_INVALID_COLOR);
;;;1228               TEXT_SetTextColor(hItem, 0x00BFFFFF);
;;;1229               
;;;1230               hItem = WM_GetDialogItem(hWinsysinfo, ID_TEXT_99);
;;;1231               TEXT_SetBkColor(hItem,0x00BFFFFF);
;;;1232               TEXT_SetTextColor(hItem, GUI_BLACK);
;;;1233               
;;;1234               info_set = set_48;
;;;1235               break;
;;;1236           }
;;;1237           case set_61:
;;;1238           {
;;;1239               hItem = WM_GetDialogItem(hWinsysinfo, ID_TEXT_112);
;;;1240               TEXT_SetBkColor(hItem,GUI_INVALID_COLOR);
;;;1241               TEXT_SetTextColor(hItem, 0x00BFFFFF);
;;;1242               
;;;1243               hItem = WM_GetDialogItem(hWinsysinfo, ID_TEXT_99);
;;;1244               TEXT_SetBkColor(hItem,0x00BFFFFF);
;;;1245               TEXT_SetTextColor(hItem, GUI_BLACK);
;;;1246               
;;;1247               info_set = set_48;
;;;1248               break;
;;;1249           }
;;;1250       }
;;;1251       
;;;1252   }
00006c  e8bd87f0          POP      {r4-r10,pc}
000070  f640019a          MOV      r1,#0x89a             ;1057
000074  f7fffffe          BL       WM_GetDialogItem
000078  4607              MOV      r7,r0                 ;1057
00007a  4641              MOV      r1,r8                 ;1058
00007c  4638              MOV      r0,r7                 ;1058
00007e  f7fffffe          BL       TEXT_SetBkColor
000082  4629              MOV      r1,r5                 ;1059
000084  4638              MOV      r0,r7                 ;1059
000086  f7fffffe          BL       TEXT_SetTextColor
00008a  4649              MOV      r1,r9                 ;1061
00008c  69a0              LDR      r0,[r4,#0x18]         ;1061  ; hWinsysinfo
00008e  f7fffffe          BL       WM_GetDialogItem
000092  4607              MOV      r7,r0                 ;1061
000094  4629              MOV      r1,r5                 ;1062
000096  4638              MOV      r0,r7                 ;1062
000098  f7fffffe          BL       TEXT_SetBkColor
00009c  2100              MOVS     r1,#0                 ;1063
00009e  4638              MOV      r0,r7                 ;1063
0000a0  f7fffffe          BL       TEXT_SetTextColor
0000a4  7026              STRB     r6,[r4,#0]            ;1065
0000a6  e7e1              B        |L4.108|
0000a8  f640019b          MOV      r1,#0x89b             ;1070
0000ac  f7fffffe          BL       WM_GetDialogItem
0000b0  4607              MOV      r7,r0                 ;1070
0000b2  4641              MOV      r1,r8                 ;1071
0000b4  4638              MOV      r0,r7                 ;1071
0000b6  f7fffffe          BL       TEXT_SetBkColor
0000ba  4629              MOV      r1,r5                 ;1072
0000bc  4638              MOV      r0,r7                 ;1072
0000be  f7fffffe          BL       TEXT_SetTextColor
0000c2  4649              MOV      r1,r9                 ;1074
0000c4  69a0              LDR      r0,[r4,#0x18]         ;1074  ; hWinsysinfo
0000c6  f7fffffe          BL       WM_GetDialogItem
0000ca  4607              MOV      r7,r0                 ;1074
0000cc  4629              MOV      r1,r5                 ;1075
0000ce  4638              MOV      r0,r7                 ;1075
0000d0  f7fffffe          BL       TEXT_SetBkColor
0000d4  2100              MOVS     r1,#0                 ;1076
0000d6  4638              MOV      r0,r7                 ;1076
0000d8  f7fffffe          BL       TEXT_SetTextColor
0000dc  7026              STRB     r6,[r4,#0]            ;1078
0000de  e7c5              B        |L4.108|
0000e0  f640019c          MOV      r1,#0x89c             ;1083
0000e4  f7fffffe          BL       WM_GetDialogItem
0000e8  4607              MOV      r7,r0                 ;1083
0000ea  4641              MOV      r1,r8                 ;1084
0000ec  4638              MOV      r0,r7                 ;1084
0000ee  f7fffffe          BL       TEXT_SetBkColor
0000f2  4629              MOV      r1,r5                 ;1085
0000f4  4638              MOV      r0,r7                 ;1085
0000f6  f7fffffe          BL       TEXT_SetTextColor
0000fa  4649              MOV      r1,r9                 ;1087
0000fc  69a0              LDR      r0,[r4,#0x18]         ;1087  ; hWinsysinfo
0000fe  f7fffffe          BL       WM_GetDialogItem
000102  4607              MOV      r7,r0                 ;1087
000104  4629              MOV      r1,r5                 ;1088
000106  4638              MOV      r0,r7                 ;1088
000108  f7fffffe          BL       TEXT_SetBkColor
00010c  2100              MOVS     r1,#0                 ;1089
00010e  4638              MOV      r0,r7                 ;1089
000110  f7fffffe          BL       TEXT_SetTextColor
000114  7026              STRB     r6,[r4,#0]            ;1091
000116  e7a9              B        |L4.108|
000118  f640019d          MOV      r1,#0x89d             ;1096
00011c  f7fffffe          BL       WM_GetDialogItem
000120  4607              MOV      r7,r0                 ;1096
000122  4641              MOV      r1,r8                 ;1097
000124  4638              MOV      r0,r7                 ;1097
000126  f7fffffe          BL       TEXT_SetBkColor
00012a  4629              MOV      r1,r5                 ;1098
00012c  4638              MOV      r0,r7                 ;1098
00012e  f7fffffe          BL       TEXT_SetTextColor
000132  4649              MOV      r1,r9                 ;1100
000134  69a0              LDR      r0,[r4,#0x18]         ;1100  ; hWinsysinfo
000136  f7fffffe          BL       WM_GetDialogItem
00013a  4607              MOV      r7,r0                 ;1100
00013c  4629              MOV      r1,r5                 ;1101
00013e  4638              MOV      r0,r7                 ;1101
000140  f7fffffe          BL       TEXT_SetBkColor
000144  2100              MOVS     r1,#0                 ;1102
000146  4638              MOV      r0,r7                 ;1102
000148  f7fffffe          BL       TEXT_SetTextColor
00014c  7026              STRB     r6,[r4,#0]            ;1104
00014e  e78d              B        |L4.108|
000150  f640019e          MOV      r1,#0x89e             ;1109
000154  f7fffffe          BL       WM_GetDialogItem
000158  4607              MOV      r7,r0                 ;1109
00015a  4641              MOV      r1,r8                 ;1110
00015c  4638              MOV      r0,r7                 ;1110
00015e  f7fffffe          BL       TEXT_SetBkColor
000162  4629              MOV      r1,r5                 ;1111
000164  4638              MOV      r0,r7                 ;1111
000166  f7fffffe          BL       TEXT_SetTextColor
00016a  4649              MOV      r1,r9                 ;1113
00016c  69a0              LDR      r0,[r4,#0x18]         ;1113  ; hWinsysinfo
00016e  f7fffffe          BL       WM_GetDialogItem
000172  4607              MOV      r7,r0                 ;1113
000174  4629              MOV      r1,r5                 ;1114
000176  4638              MOV      r0,r7                 ;1114
000178  f7fffffe          BL       TEXT_SetBkColor
00017c  2100              MOVS     r1,#0                 ;1115
00017e  4638              MOV      r0,r7                 ;1115
000180  f7fffffe          BL       TEXT_SetTextColor
000184  7026              STRB     r6,[r4,#0]            ;1117
000186  e771              B        |L4.108|
000188  f6401115          MOV      r1,#0x915             ;1122
00018c  f7fffffe          BL       WM_GetDialogItem
000190  4607              MOV      r7,r0                 ;1122
000192  4641              MOV      r1,r8                 ;1123
000194  4638              MOV      r0,r7                 ;1123
000196  f7fffffe          BL       TEXT_SetBkColor
00019a  4629              MOV      r1,r5                 ;1124
00019c  4638              MOV      r0,r7                 ;1124
00019e  f7fffffe          BL       TEXT_SetTextColor
0001a2  4649              MOV      r1,r9                 ;1126
0001a4  69a0              LDR      r0,[r4,#0x18]         ;1126  ; hWinsysinfo
0001a6  f7fffffe          BL       WM_GetDialogItem
0001aa  4607              MOV      r7,r0                 ;1126
0001ac  4629              MOV      r1,r5                 ;1127
0001ae  4638              MOV      r0,r7                 ;1127
0001b0  f7fffffe          BL       TEXT_SetBkColor
0001b4  2100              MOVS     r1,#0                 ;1128
0001b6  4638              MOV      r0,r7                 ;1128
0001b8  f7fffffe          BL       TEXT_SetTextColor
0001bc  7026              STRB     r6,[r4,#0]            ;1130
0001be  e755              B        |L4.108|
0001c0  f6401116          MOV      r1,#0x916             ;1135
0001c4  f7fffffe          BL       WM_GetDialogItem
0001c8  4607              MOV      r7,r0                 ;1135
0001ca  4641              MOV      r1,r8                 ;1136
0001cc  4638              MOV      r0,r7                 ;1136
0001ce  f7fffffe          BL       TEXT_SetBkColor
0001d2  4629              MOV      r1,r5                 ;1137
0001d4  4638              MOV      r0,r7                 ;1137
0001d6  f7fffffe          BL       TEXT_SetTextColor
0001da  4649              MOV      r1,r9                 ;1139
0001dc  69a0              LDR      r0,[r4,#0x18]         ;1139  ; hWinsysinfo
0001de  f7fffffe          BL       WM_GetDialogItem
0001e2  4607              MOV      r7,r0                 ;1139
0001e4  4629              MOV      r1,r5                 ;1140
0001e6  4638              MOV      r0,r7                 ;1140
0001e8  f7fffffe          BL       TEXT_SetBkColor
0001ec  2100              MOVS     r1,#0                 ;1141
0001ee  4638              MOV      r0,r7                 ;1141
0001f0  f7fffffe          BL       TEXT_SetTextColor
0001f4  7026              STRB     r6,[r4,#0]            ;1143
0001f6  e739              B        |L4.108|
0001f8  e021              B        |L4.574|
0001fa  e005              B        |L4.520|
0001fc  e0c7              B        |L4.910|
0001fe  e0aa              B        |L4.854|
000200  e08d              B        |L4.798|
000202  e070              B        |L4.742|
000204  e053              B        |L4.686|
000206  e036              B        |L4.630|
                  |L4.520|
000208  4649              MOV      r1,r9                 ;1148
00020a  f7fffffe          BL       WM_GetDialogItem
00020e  4606              MOV      r6,r0                 ;1148
000210  4641              MOV      r1,r8                 ;1149
000212  4630              MOV      r0,r6                 ;1149
000214  f7fffffe          BL       TEXT_SetBkColor
000218  4629              MOV      r1,r5                 ;1150
00021a  4630              MOV      r0,r6                 ;1150
00021c  f7fffffe          BL       TEXT_SetTextColor
000220  4651              MOV      r1,r10                ;1152
000222  69a0              LDR      r0,[r4,#0x18]         ;1152  ; hWinsysinfo
000224  f7fffffe          BL       WM_GetDialogItem
000228  4606              MOV      r6,r0                 ;1152
00022a  4629              MOV      r1,r5                 ;1153
00022c  4630              MOV      r0,r6                 ;1153
00022e  f7fffffe          BL       TEXT_SetBkColor
000232  2100              MOVS     r1,#0                 ;1154
000234  4630              MOV      r0,r6                 ;1154
000236  f7fffffe          BL       TEXT_SetTextColor
00023a  7027              STRB     r7,[r4,#0]            ;1156
00023c  e716              B        |L4.108|
                  |L4.574|
00023e  f640111e          MOV      r1,#0x91e             ;1161
000242  f7fffffe          BL       WM_GetDialogItem
000246  4606              MOV      r6,r0                 ;1161
000248  4641              MOV      r1,r8                 ;1162
00024a  4630              MOV      r0,r6                 ;1162
00024c  f7fffffe          BL       TEXT_SetBkColor
000250  4629              MOV      r1,r5                 ;1163
000252  4630              MOV      r0,r6                 ;1163
000254  f7fffffe          BL       TEXT_SetTextColor
000258  4651              MOV      r1,r10                ;1165
00025a  69a0              LDR      r0,[r4,#0x18]         ;1165  ; hWinsysinfo
00025c  f7fffffe          BL       WM_GetDialogItem
000260  4606              MOV      r6,r0                 ;1165
000262  4629              MOV      r1,r5                 ;1166
000264  4630              MOV      r0,r6                 ;1166
000266  f7fffffe          BL       TEXT_SetBkColor
00026a  2100              MOVS     r1,#0                 ;1167
00026c  4630              MOV      r0,r6                 ;1167
00026e  f7fffffe          BL       TEXT_SetTextColor
000272  7027              STRB     r7,[r4,#0]            ;1169
000274  e6fa              B        |L4.108|
                  |L4.630|
000276  f6401117          MOV      r1,#0x917             ;1174
00027a  f7fffffe          BL       WM_GetDialogItem
00027e  4606              MOV      r6,r0                 ;1174
000280  4641              MOV      r1,r8                 ;1175
000282  4630              MOV      r0,r6                 ;1175
000284  f7fffffe          BL       TEXT_SetBkColor
000288  4629              MOV      r1,r5                 ;1176
00028a  4630              MOV      r0,r6                 ;1176
00028c  f7fffffe          BL       TEXT_SetTextColor
000290  4651              MOV      r1,r10                ;1178
000292  69a0              LDR      r0,[r4,#0x18]         ;1178  ; hWinsysinfo
000294  f7fffffe          BL       WM_GetDialogItem
000298  4606              MOV      r6,r0                 ;1178
00029a  4629              MOV      r1,r5                 ;1179
00029c  4630              MOV      r0,r6                 ;1179
00029e  f7fffffe          BL       TEXT_SetBkColor
0002a2  2100              MOVS     r1,#0                 ;1180
0002a4  4630              MOV      r0,r6                 ;1180
0002a6  f7fffffe          BL       TEXT_SetTextColor
0002aa  7027              STRB     r7,[r4,#0]            ;1182
0002ac  e6de              B        |L4.108|
                  |L4.686|
0002ae  f6401118          MOV      r1,#0x918             ;1187
0002b2  f7fffffe          BL       WM_GetDialogItem
0002b6  4606              MOV      r6,r0                 ;1187
0002b8  4641              MOV      r1,r8                 ;1188
0002ba  4630              MOV      r0,r6                 ;1188
0002bc  f7fffffe          BL       TEXT_SetBkColor
0002c0  4629              MOV      r1,r5                 ;1189
0002c2  4630              MOV      r0,r6                 ;1189
0002c4  f7fffffe          BL       TEXT_SetTextColor
0002c8  4651              MOV      r1,r10                ;1191
0002ca  69a0              LDR      r0,[r4,#0x18]         ;1191  ; hWinsysinfo
0002cc  f7fffffe          BL       WM_GetDialogItem
0002d0  4606              MOV      r6,r0                 ;1191
0002d2  4629              MOV      r1,r5                 ;1192
0002d4  4630              MOV      r0,r6                 ;1192
0002d6  f7fffffe          BL       TEXT_SetBkColor
0002da  2100              MOVS     r1,#0                 ;1193
0002dc  4630              MOV      r0,r6                 ;1193
0002de  f7fffffe          BL       TEXT_SetTextColor
0002e2  7027              STRB     r7,[r4,#0]            ;1195
0002e4  e6c2              B        |L4.108|
                  |L4.742|
0002e6  f6401119          MOV      r1,#0x919             ;1200
0002ea  f7fffffe          BL       WM_GetDialogItem
0002ee  4606              MOV      r6,r0                 ;1200
0002f0  4641              MOV      r1,r8                 ;1201
0002f2  4630              MOV      r0,r6                 ;1201
0002f4  f7fffffe          BL       TEXT_SetBkColor
0002f8  4629              MOV      r1,r5                 ;1202
0002fa  4630              MOV      r0,r6                 ;1202
0002fc  f7fffffe          BL       TEXT_SetTextColor
000300  4651              MOV      r1,r10                ;1204
000302  69a0              LDR      r0,[r4,#0x18]         ;1204  ; hWinsysinfo
000304  f7fffffe          BL       WM_GetDialogItem
000308  4606              MOV      r6,r0                 ;1204
00030a  4629              MOV      r1,r5                 ;1205
00030c  4630              MOV      r0,r6                 ;1205
00030e  f7fffffe          BL       TEXT_SetBkColor
000312  2100              MOVS     r1,#0                 ;1206
000314  4630              MOV      r0,r6                 ;1206
000316  f7fffffe          BL       TEXT_SetTextColor
00031a  7027              STRB     r7,[r4,#0]            ;1208
00031c  e6a6              B        |L4.108|
                  |L4.798|
00031e  f640111a          MOV      r1,#0x91a             ;1213
000322  f7fffffe          BL       WM_GetDialogItem
000326  4606              MOV      r6,r0                 ;1213
000328  4641              MOV      r1,r8                 ;1214
00032a  4630              MOV      r0,r6                 ;1214
00032c  f7fffffe          BL       TEXT_SetBkColor
000330  4629              MOV      r1,r5                 ;1215
000332  4630              MOV      r0,r6                 ;1215
000334  f7fffffe          BL       TEXT_SetTextColor
000338  4651              MOV      r1,r10                ;1217
00033a  69a0              LDR      r0,[r4,#0x18]         ;1217  ; hWinsysinfo
00033c  f7fffffe          BL       WM_GetDialogItem
000340  4606              MOV      r6,r0                 ;1217
000342  4629              MOV      r1,r5                 ;1218
000344  4630              MOV      r0,r6                 ;1218
000346  f7fffffe          BL       TEXT_SetBkColor
00034a  2100              MOVS     r1,#0                 ;1219
00034c  4630              MOV      r0,r6                 ;1219
00034e  f7fffffe          BL       TEXT_SetTextColor
000352  7027              STRB     r7,[r4,#0]            ;1221
000354  e68a              B        |L4.108|
                  |L4.854|
000356  f640111b          MOV      r1,#0x91b             ;1226
00035a  f7fffffe          BL       WM_GetDialogItem
00035e  4606              MOV      r6,r0                 ;1226
000360  4641              MOV      r1,r8                 ;1227
000362  4630              MOV      r0,r6                 ;1227
000364  f7fffffe          BL       TEXT_SetBkColor
000368  4629              MOV      r1,r5                 ;1228
00036a  4630              MOV      r0,r6                 ;1228
00036c  f7fffffe          BL       TEXT_SetTextColor
000370  4651              MOV      r1,r10                ;1230
000372  69a0              LDR      r0,[r4,#0x18]         ;1230  ; hWinsysinfo
000374  f7fffffe          BL       WM_GetDialogItem
000378  4606              MOV      r6,r0                 ;1230
00037a  4629              MOV      r1,r5                 ;1231
00037c  4630              MOV      r0,r6                 ;1231
00037e  f7fffffe          BL       TEXT_SetBkColor
000382  2100              MOVS     r1,#0                 ;1232
000384  4630              MOV      r0,r6                 ;1232
000386  f7fffffe          BL       TEXT_SetTextColor
00038a  7027              STRB     r7,[r4,#0]            ;1234
00038c  e66e              B        |L4.108|
                  |L4.910|
00038e  f640111c          MOV      r1,#0x91c             ;1239
000392  f7fffffe          BL       WM_GetDialogItem
000396  4606              MOV      r6,r0                 ;1239
000398  4641              MOV      r1,r8                 ;1240
00039a  4630              MOV      r0,r6                 ;1240
00039c  f7fffffe          BL       TEXT_SetBkColor
0003a0  4629              MOV      r1,r5                 ;1241
0003a2  4630              MOV      r0,r6                 ;1241
0003a4  f7fffffe          BL       TEXT_SetTextColor
0003a8  4651              MOV      r1,r10                ;1243
0003aa  69a0              LDR      r0,[r4,#0x18]         ;1243  ; hWinsysinfo
0003ac  f7fffffe          BL       WM_GetDialogItem
0003b0  4606              MOV      r6,r0                 ;1243
0003b2  4629              MOV      r1,r5                 ;1244
0003b4  4630              MOV      r0,r6                 ;1244
0003b6  f7fffffe          BL       TEXT_SetBkColor
0003ba  2100              MOVS     r1,#0                 ;1245
0003bc  4630              MOV      r0,r6                 ;1245
0003be  f7fffffe          BL       TEXT_SetTextColor
0003c2  7027              STRB     r7,[r4,#0]            ;1247
0003c4  e652              B        |L4.108|
;;;1253   
                          ENDP

0003c6  0000              DCW      0x0000
                  |L4.968|
                          DCD      ||.data||
                  |L4.972|
                          DCD      0x00bfffff

                          AREA ||i.SYS_INFO_LEFT||, CODE, READONLY, ALIGN=2

                  SYS_INFO_LEFT PROC
;;;598    
;;;599    void SYS_INFO_LEFT(void)
000000  e92d5ff0          PUSH     {r4-r12,lr}
;;;600    {
;;;601        WM_HWIN hItem;
;;;602        switch(info_set)
000004  48fc              LDR      r0,|L5.1016|
000006  7801              LDRB     r1,[r0,#0]  ; info_set
;;;603        {
;;;604            case set_48:
;;;605            {
;;;606                hItem = WM_GetDialogItem(hWinsysinfo, ID_TEXT_99);
000008  f6400599          MOV      r5,#0x899
00000c  392f              SUBS     r1,r1,#0x2f           ;602
;;;607                TEXT_SetBkColor(hItem,GUI_INVALID_COLOR);
;;;608                TEXT_SetTextColor(hItem, 0x00BFFFFF);
00000e  4cfb              LDR      r4,|L5.1020|
;;;609                
;;;610                hItem = WM_GetDialogItem(hWinsysinfo, ID_TEXT_106);
;;;611                TEXT_SetBkColor(hItem,0x00BFFFFF);
;;;612                TEXT_SetTextColor(hItem, GUI_BLACK);
;;;613                
;;;614                info_set = set_55;
;;;615                break;
;;;616            }
;;;617            case set_49:
;;;618            {
;;;619                hItem = WM_GetDialogItem(hWinsysinfo, ID_TEXT_100);
000010  1c6e              ADDS     r6,r5,#1
;;;620                TEXT_SetBkColor(hItem,GUI_INVALID_COLOR);
;;;621                TEXT_SetTextColor(hItem, 0x00BFFFFF);
;;;622                
;;;623                hItem = WM_GetDialogItem(hWinsysinfo, ID_TEXT_99);
;;;624                TEXT_SetBkColor(hItem,0x00BFFFFF);
;;;625                TEXT_SetTextColor(hItem, GUI_BLACK);
;;;626                
;;;627                info_set = set_48;
;;;628                break;
;;;629            }
;;;630            case set_50:
;;;631            {
;;;632                hItem = WM_GetDialogItem(hWinsysinfo, ID_TEXT_101);
000012  1caf              ADDS     r7,r5,#2
000014  6980              LDR      r0,[r0,#0x18]         ;606
;;;633                TEXT_SetBkColor(hItem,GUI_INVALID_COLOR);
;;;634                TEXT_SetTextColor(hItem, 0x00BFFFFF);
;;;635                
;;;636                hItem = WM_GetDialogItem(hWinsysinfo, ID_TEXT_100);
;;;637                TEXT_SetBkColor(hItem,0x00BFFFFF);
;;;638                TEXT_SetTextColor(hItem, GUI_BLACK);
;;;639                
;;;640                info_set = set_49;
;;;641                break;
;;;642            }
;;;643            case set_51:
;;;644            {
;;;645                hItem = WM_GetDialogItem(hWinsysinfo, ID_TEXT_102);
000016  f640089c          MOV      r8,#0x89c
;;;646                TEXT_SetBkColor(hItem,GUI_INVALID_COLOR);
;;;647                TEXT_SetTextColor(hItem, 0x00BFFFFF);
;;;648                
;;;649                hItem = WM_GetDialogItem(hWinsysinfo, ID_TEXT_101);
;;;650                TEXT_SetBkColor(hItem,0x00BFFFFF);
;;;651                TEXT_SetTextColor(hItem, GUI_BLACK);
;;;652                
;;;653                info_set = set_50;
;;;654                break;
;;;655            }
;;;656            case set_52:
;;;657            {
;;;658                hItem = WM_GetDialogItem(hWinsysinfo, ID_TEXT_103);
00001a  f640099d          MOV      r9,#0x89d
;;;659                TEXT_SetBkColor(hItem,GUI_INVALID_COLOR);
;;;660                TEXT_SetTextColor(hItem, 0x00BFFFFF);
;;;661                
;;;662                hItem = WM_GetDialogItem(hWinsysinfo, ID_TEXT_102);
;;;663                TEXT_SetBkColor(hItem,0x00BFFFFF);
;;;664                TEXT_SetTextColor(hItem, GUI_BLACK);
;;;665                
;;;666                info_set = set_51;
;;;667                break;
;;;668            }
;;;669            case set_53:
;;;670            {
;;;671                hItem = WM_GetDialogItem(hWinsysinfo, ID_TEXT_104);
00001e  f6400a9e          MOV      r10,#0x89e
;;;672                TEXT_SetBkColor(hItem,GUI_INVALID_COLOR);
;;;673                TEXT_SetTextColor(hItem, 0x00BFFFFF);
;;;674                
;;;675                hItem = WM_GetDialogItem(hWinsysinfo, ID_TEXT_103);
;;;676                TEXT_SetBkColor(hItem,0x00BFFFFF);
;;;677                TEXT_SetTextColor(hItem, GUI_BLACK);
;;;678                
;;;679                info_set = set_52;
;;;680                break;
;;;681            }
;;;682            case set_54:
;;;683            {
;;;684                hItem = WM_GetDialogItem(hWinsysinfo, ID_TEXT_105);
000022  f6401b15          MOV      r11,#0x915
000026  2910              CMP      r1,#0x10              ;602
000028  d227              BCS      |L5.122|
00002a  e8dff001          TBB      [pc,r1]               ;602
00002e  0828              DCB      0x08,0x28
000030  466482a0          DCB      0x46,0x64,0x82,0xa0
000034  bedcfefd          DCB      0xbe,0xdc,0xfe,0xfd
000038  fcfbfaf9          DCB      0xfc,0xfb,0xfa,0xf9
00003c  f8f7              DCB      0xf8,0xf7
00003e  4629              MOV      r1,r5                 ;606
000040  4ded              LDR      r5,|L5.1016|
000042  f7fffffe          BL       WM_GetDialogItem
000046  4606              MOV      r6,r0                 ;606
000048  f06f4170          MVN      r1,#0xf0000000        ;607
00004c  4630              MOV      r0,r6                 ;607
00004e  f7fffffe          BL       TEXT_SetBkColor
000052  4621              MOV      r1,r4                 ;608
000054  4630              MOV      r0,r6                 ;608
000056  f7fffffe          BL       TEXT_SetTextColor
00005a  f6401116          MOV      r1,#0x916             ;610
00005e  69a8              LDR      r0,[r5,#0x18]         ;610  ; hWinsysinfo
000060  f7fffffe          BL       WM_GetDialogItem
000064  4606              MOV      r6,r0                 ;610
000066  4621              MOV      r1,r4                 ;611
000068  4630              MOV      r0,r6                 ;611
00006a  f7fffffe          BL       TEXT_SetBkColor
00006e  2100              MOVS     r1,#0                 ;612
000070  4630              MOV      r0,r6                 ;612
000072  f7fffffe          BL       TEXT_SetTextColor
000076  2036              MOVS     r0,#0x36              ;614
000078  7028              STRB     r0,[r5,#0]            ;614
                  |L5.122|
;;;685                TEXT_SetBkColor(hItem,GUI_INVALID_COLOR);
;;;686                TEXT_SetTextColor(hItem, 0x00BFFFFF);
;;;687                
;;;688                hItem = WM_GetDialogItem(hWinsysinfo, ID_TEXT_104);
;;;689                TEXT_SetBkColor(hItem,0x00BFFFFF);
;;;690                TEXT_SetTextColor(hItem, GUI_BLACK);
;;;691                
;;;692                info_set = set_53;
;;;693                break;
;;;694            }
;;;695            case set_55:
;;;696            {
;;;697                hItem = WM_GetDialogItem(hWinsysinfo, ID_TEXT_106);
;;;698                TEXT_SetBkColor(hItem,GUI_INVALID_COLOR);
;;;699                TEXT_SetTextColor(hItem, 0x00BFFFFF);
;;;700                
;;;701                hItem = WM_GetDialogItem(hWinsysinfo, ID_TEXT_105);
;;;702                TEXT_SetBkColor(hItem,0x00BFFFFF);
;;;703                TEXT_SetTextColor(hItem, GUI_BLACK);
;;;704                
;;;705                info_set = set_54;
;;;706                break;
;;;707            }
;;;708            case set_62:
;;;709            {
;;;710                hItem = WM_GetDialogItem(hWinsysinfo, ID_TEXT_113);
;;;711                TEXT_SetBkColor(hItem,GUI_INVALID_COLOR);
;;;712                TEXT_SetTextColor(hItem, 0x00BFFFFF);
;;;713                
;;;714                hItem = WM_GetDialogItem(hWinsysinfo, ID_TEXT_112);
;;;715                TEXT_SetBkColor(hItem,0x00BFFFFF);
;;;716                TEXT_SetTextColor(hItem, GUI_BLACK);
;;;717                
;;;718                info_set = set_61;
;;;719                break;
;;;720            }
;;;721            case set_63:
;;;722            {
;;;723                hItem = WM_GetDialogItem(hWinsysinfo, ID_TEXT_114);
;;;724                TEXT_SetBkColor(hItem,GUI_INVALID_COLOR);
;;;725                TEXT_SetTextColor(hItem, 0x00BFFFFF);
;;;726                
;;;727                hItem = WM_GetDialogItem(hWinsysinfo, ID_TEXT_113);
;;;728                TEXT_SetBkColor(hItem,0x00BFFFFF);
;;;729                TEXT_SetTextColor(hItem, GUI_BLACK);
;;;730                
;;;731                info_set = set_62;
;;;732                break;
;;;733            }
;;;734            case set_56:
;;;735            {
;;;736                hItem = WM_GetDialogItem(hWinsysinfo, ID_TEXT_107);
;;;737                TEXT_SetBkColor(hItem,GUI_INVALID_COLOR);
;;;738                TEXT_SetTextColor(hItem, 0x00BFFFFF);
;;;739                
;;;740                hItem = WM_GetDialogItem(hWinsysinfo, ID_TEXT_114);
;;;741                TEXT_SetBkColor(hItem,0x00BFFFFF);
;;;742                TEXT_SetTextColor(hItem, GUI_BLACK);
;;;743                
;;;744                info_set = set_63;
;;;745                break;
;;;746            }
;;;747            case set_57:
;;;748            {
;;;749                hItem = WM_GetDialogItem(hWinsysinfo, ID_TEXT_108);
;;;750                TEXT_SetBkColor(hItem,GUI_INVALID_COLOR);
;;;751                TEXT_SetTextColor(hItem, 0x00BFFFFF);
;;;752                
;;;753                hItem = WM_GetDialogItem(hWinsysinfo, ID_TEXT_107);
;;;754                TEXT_SetBkColor(hItem,0x00BFFFFF);
;;;755                TEXT_SetTextColor(hItem, GUI_BLACK);
;;;756                
;;;757                info_set = set_56;
;;;758                break;
;;;759            }
;;;760            case set_58:
;;;761            {
;;;762                hItem = WM_GetDialogItem(hWinsysinfo, ID_TEXT_109);
;;;763                TEXT_SetBkColor(hItem,GUI_INVALID_COLOR);
;;;764                TEXT_SetTextColor(hItem, 0x00BFFFFF);
;;;765                
;;;766                hItem = WM_GetDialogItem(hWinsysinfo, ID_TEXT_108);
;;;767                TEXT_SetBkColor(hItem,0x00BFFFFF);
;;;768                TEXT_SetTextColor(hItem, GUI_BLACK);
;;;769                
;;;770                info_set = set_57;
;;;771                break;
;;;772            }
;;;773            case set_59:
;;;774            {
;;;775                hItem = WM_GetDialogItem(hWinsysinfo, ID_TEXT_110);
;;;776                TEXT_SetBkColor(hItem,GUI_INVALID_COLOR);
;;;777                TEXT_SetTextColor(hItem, 0x00BFFFFF);
;;;778                
;;;779                hItem = WM_GetDialogItem(hWinsysinfo, ID_TEXT_109);
;;;780                TEXT_SetBkColor(hItem,0x00BFFFFF);
;;;781                TEXT_SetTextColor(hItem, GUI_BLACK);
;;;782                
;;;783                info_set = set_58;
;;;784                break;
;;;785            }
;;;786            case set_60:
;;;787            {
;;;788                hItem = WM_GetDialogItem(hWinsysinfo, ID_TEXT_111);
;;;789                TEXT_SetBkColor(hItem,GUI_INVALID_COLOR);
;;;790                TEXT_SetTextColor(hItem, 0x00BFFFFF);
;;;791                
;;;792                hItem = WM_GetDialogItem(hWinsysinfo, ID_TEXT_110);
;;;793                TEXT_SetBkColor(hItem,0x00BFFFFF);
;;;794                TEXT_SetTextColor(hItem, GUI_BLACK);
;;;795                
;;;796                info_set = set_59;
;;;797                break;
;;;798            }
;;;799            case set_61:
;;;800            {
;;;801                hItem = WM_GetDialogItem(hWinsysinfo, ID_TEXT_112);
;;;802                TEXT_SetBkColor(hItem,GUI_INVALID_COLOR);
;;;803                TEXT_SetTextColor(hItem, 0x00BFFFFF);
;;;804                
;;;805                hItem = WM_GetDialogItem(hWinsysinfo, ID_TEXT_111);
;;;806                TEXT_SetBkColor(hItem,0x00BFFFFF);
;;;807                TEXT_SetTextColor(hItem, GUI_BLACK);
;;;808                
;;;809                info_set = set_60;
;;;810                break;
;;;811            }
;;;812        }
;;;813        
;;;814    }
00007a  e8bd9ff0          POP      {r4-r12,pc}
00007e  4631              MOV      r1,r6                 ;619
000080  4edd              LDR      r6,|L5.1016|
000082  f7fffffe          BL       WM_GetDialogItem
000086  4607              MOV      r7,r0                 ;619
000088  f06f4170          MVN      r1,#0xf0000000        ;620
00008c  4638              MOV      r0,r7                 ;620
00008e  f7fffffe          BL       TEXT_SetBkColor
000092  4621              MOV      r1,r4                 ;621
000094  4638              MOV      r0,r7                 ;621
000096  f7fffffe          BL       TEXT_SetTextColor
00009a  4629              MOV      r1,r5                 ;623
00009c  69b0              LDR      r0,[r6,#0x18]         ;623  ; hWinsysinfo
00009e  f7fffffe          BL       WM_GetDialogItem
0000a2  4605              MOV      r5,r0                 ;623
0000a4  4621              MOV      r1,r4                 ;624
0000a6  4628              MOV      r0,r5                 ;624
0000a8  f7fffffe          BL       TEXT_SetBkColor
0000ac  2100              MOVS     r1,#0                 ;625
0000ae  4628              MOV      r0,r5                 ;625
0000b0  f7fffffe          BL       TEXT_SetTextColor
0000b4  202f              MOVS     r0,#0x2f              ;627
0000b6  7030              STRB     r0,[r6,#0]            ;627
0000b8  e7df              B        |L5.122|
0000ba  4639              MOV      r1,r7                 ;632
0000bc  4dce              LDR      r5,|L5.1016|
0000be  f7fffffe          BL       WM_GetDialogItem
0000c2  4607              MOV      r7,r0                 ;632
0000c4  f06f4170          MVN      r1,#0xf0000000        ;633
0000c8  4638              MOV      r0,r7                 ;633
0000ca  f7fffffe          BL       TEXT_SetBkColor
0000ce  4621              MOV      r1,r4                 ;634
0000d0  4638              MOV      r0,r7                 ;634
0000d2  f7fffffe          BL       TEXT_SetTextColor
0000d6  4631              MOV      r1,r6                 ;636
0000d8  69a8              LDR      r0,[r5,#0x18]         ;636  ; hWinsysinfo
0000da  f7fffffe          BL       WM_GetDialogItem
0000de  4606              MOV      r6,r0                 ;636
0000e0  4621              MOV      r1,r4                 ;637
0000e2  4630              MOV      r0,r6                 ;637
0000e4  f7fffffe          BL       TEXT_SetBkColor
0000e8  2100              MOVS     r1,#0                 ;638
0000ea  4630              MOV      r0,r6                 ;638
0000ec  f7fffffe          BL       TEXT_SetTextColor
0000f0  2030              MOVS     r0,#0x30              ;640
0000f2  7028              STRB     r0,[r5,#0]            ;640
0000f4  e7c1              B        |L5.122|
0000f6  4641              MOV      r1,r8                 ;645
0000f8  4dbf              LDR      r5,|L5.1016|
0000fa  f7fffffe          BL       WM_GetDialogItem
0000fe  4606              MOV      r6,r0                 ;645
000100  f06f4170          MVN      r1,#0xf0000000        ;646
000104  4630              MOV      r0,r6                 ;646
000106  f7fffffe          BL       TEXT_SetBkColor
00010a  4621              MOV      r1,r4                 ;647
00010c  4630              MOV      r0,r6                 ;647
00010e  f7fffffe          BL       TEXT_SetTextColor
000112  4639              MOV      r1,r7                 ;649
000114  69a8              LDR      r0,[r5,#0x18]         ;649  ; hWinsysinfo
000116  f7fffffe          BL       WM_GetDialogItem
00011a  4606              MOV      r6,r0                 ;649
00011c  4621              MOV      r1,r4                 ;650
00011e  4630              MOV      r0,r6                 ;650
000120  f7fffffe          BL       TEXT_SetBkColor
000124  2100              MOVS     r1,#0                 ;651
000126  4630              MOV      r0,r6                 ;651
000128  f7fffffe          BL       TEXT_SetTextColor
00012c  2031              MOVS     r0,#0x31              ;653
00012e  7028              STRB     r0,[r5,#0]            ;653
000130  e7a3              B        |L5.122|
000132  4649              MOV      r1,r9                 ;658
000134  4db0              LDR      r5,|L5.1016|
000136  f7fffffe          BL       WM_GetDialogItem
00013a  4606              MOV      r6,r0                 ;658
00013c  f06f4170          MVN      r1,#0xf0000000        ;659
000140  4630              MOV      r0,r6                 ;659
000142  f7fffffe          BL       TEXT_SetBkColor
000146  4621              MOV      r1,r4                 ;660
000148  4630              MOV      r0,r6                 ;660
00014a  f7fffffe          BL       TEXT_SetTextColor
00014e  4641              MOV      r1,r8                 ;662
000150  69a8              LDR      r0,[r5,#0x18]         ;662  ; hWinsysinfo
000152  f7fffffe          BL       WM_GetDialogItem
000156  4606              MOV      r6,r0                 ;662
000158  4621              MOV      r1,r4                 ;663
00015a  4630              MOV      r0,r6                 ;663
00015c  f7fffffe          BL       TEXT_SetBkColor
000160  2100              MOVS     r1,#0                 ;664
000162  4630              MOV      r0,r6                 ;664
000164  f7fffffe          BL       TEXT_SetTextColor
000168  2032              MOVS     r0,#0x32              ;666
00016a  7028              STRB     r0,[r5,#0]            ;666
00016c  e785              B        |L5.122|
00016e  4651              MOV      r1,r10                ;671
000170  4da1              LDR      r5,|L5.1016|
000172  f7fffffe          BL       WM_GetDialogItem
000176  4606              MOV      r6,r0                 ;671
000178  f06f4170          MVN      r1,#0xf0000000        ;672
00017c  4630              MOV      r0,r6                 ;672
00017e  f7fffffe          BL       TEXT_SetBkColor
000182  4621              MOV      r1,r4                 ;673
000184  4630              MOV      r0,r6                 ;673
000186  f7fffffe          BL       TEXT_SetTextColor
00018a  4649              MOV      r1,r9                 ;675
00018c  69a8              LDR      r0,[r5,#0x18]         ;675  ; hWinsysinfo
00018e  f7fffffe          BL       WM_GetDialogItem
000192  4606              MOV      r6,r0                 ;675
000194  4621              MOV      r1,r4                 ;676
000196  4630              MOV      r0,r6                 ;676
000198  f7fffffe          BL       TEXT_SetBkColor
00019c  2100              MOVS     r1,#0                 ;677
00019e  4630              MOV      r0,r6                 ;677
0001a0  f7fffffe          BL       TEXT_SetTextColor
0001a4  2033              MOVS     r0,#0x33              ;679
0001a6  7028              STRB     r0,[r5,#0]            ;679
0001a8  e767              B        |L5.122|
0001aa  4659              MOV      r1,r11                ;684
0001ac  4d92              LDR      r5,|L5.1016|
0001ae  f7fffffe          BL       WM_GetDialogItem
0001b2  4606              MOV      r6,r0                 ;684
0001b4  f06f4170          MVN      r1,#0xf0000000        ;685
0001b8  4630              MOV      r0,r6                 ;685
0001ba  f7fffffe          BL       TEXT_SetBkColor
0001be  4621              MOV      r1,r4                 ;686
0001c0  4630              MOV      r0,r6                 ;686
0001c2  f7fffffe          BL       TEXT_SetTextColor
0001c6  4651              MOV      r1,r10                ;688
0001c8  69a8              LDR      r0,[r5,#0x18]         ;688  ; hWinsysinfo
0001ca  f7fffffe          BL       WM_GetDialogItem
0001ce  4606              MOV      r6,r0                 ;688
0001d0  4621              MOV      r1,r4                 ;689
0001d2  4630              MOV      r0,r6                 ;689
0001d4  f7fffffe          BL       TEXT_SetBkColor
0001d8  2100              MOVS     r1,#0                 ;690
0001da  4630              MOV      r0,r6                 ;690
0001dc  f7fffffe          BL       TEXT_SetTextColor
0001e0  2034              MOVS     r0,#0x34              ;692
0001e2  7028              STRB     r0,[r5,#0]            ;692
0001e4  e749              B        |L5.122|
0001e6  f6401116          MOV      r1,#0x916             ;697
0001ea  4d83              LDR      r5,|L5.1016|
0001ec  f7fffffe          BL       WM_GetDialogItem
0001f0  4606              MOV      r6,r0                 ;697
0001f2  f06f4170          MVN      r1,#0xf0000000        ;698
0001f6  4630              MOV      r0,r6                 ;698
0001f8  f7fffffe          BL       TEXT_SetBkColor
0001fc  4621              MOV      r1,r4                 ;699
0001fe  4630              MOV      r0,r6                 ;699
000200  f7fffffe          BL       TEXT_SetTextColor
000204  4659              MOV      r1,r11                ;701
000206  69a8              LDR      r0,[r5,#0x18]         ;701  ; hWinsysinfo
000208  f7fffffe          BL       WM_GetDialogItem
00020c  4606              MOV      r6,r0                 ;701
00020e  4621              MOV      r1,r4                 ;702
000210  4630              MOV      r0,r6                 ;702
000212  f7fffffe          BL       TEXT_SetBkColor
000216  2100              MOVS     r1,#0                 ;703
000218  4630              MOV      r0,r6                 ;703
00021a  e007              B        |L5.556|
00021c  e02b              B        |L5.630|
00021e  e00a              B        |L5.566|
000220  e0ee              B        |L5.1024|
000222  e0c8              B        |L5.950|
000224  e0a7              B        |L5.886|
000226  e086              B        |L5.822|
000228  e065              B        |L5.758|
00022a  e044              B        |L5.694|
                  |L5.556|
00022c  f7fffffe          BL       TEXT_SetTextColor
000230  2035              MOVS     r0,#0x35              ;705
000232  7028              STRB     r0,[r5,#0]            ;705
000234  e721              B        |L5.122|
                  |L5.566|
000236  f640111d          MOV      r1,#0x91d             ;710
00023a  4d6f              LDR      r5,|L5.1016|
00023c  f7fffffe          BL       WM_GetDialogItem
000240  4606              MOV      r6,r0                 ;710
000242  f06f4170          MVN      r1,#0xf0000000        ;711
000246  4630              MOV      r0,r6                 ;711
000248  f7fffffe          BL       TEXT_SetBkColor
00024c  4621              MOV      r1,r4                 ;712
00024e  4630              MOV      r0,r6                 ;712
000250  f7fffffe          BL       TEXT_SetTextColor
000254  f640111c          MOV      r1,#0x91c             ;714
000258  69a8              LDR      r0,[r5,#0x18]         ;714  ; hWinsysinfo
00025a  f7fffffe          BL       WM_GetDialogItem
00025e  4606              MOV      r6,r0                 ;714
000260  4621              MOV      r1,r4                 ;715
000262  4630              MOV      r0,r6                 ;715
000264  f7fffffe          BL       TEXT_SetBkColor
000268  2100              MOVS     r1,#0                 ;716
00026a  4630              MOV      r0,r6                 ;716
00026c  f7fffffe          BL       TEXT_SetTextColor
000270  203c              MOVS     r0,#0x3c              ;718
000272  7028              STRB     r0,[r5,#0]            ;718
000274  e701              B        |L5.122|
                  |L5.630|
000276  f640111e          MOV      r1,#0x91e             ;723
00027a  4d5f              LDR      r5,|L5.1016|
00027c  f7fffffe          BL       WM_GetDialogItem
000280  4606              MOV      r6,r0                 ;723
000282  f06f4170          MVN      r1,#0xf0000000        ;724
000286  4630              MOV      r0,r6                 ;724
000288  f7fffffe          BL       TEXT_SetBkColor
00028c  4621              MOV      r1,r4                 ;725
00028e  4630              MOV      r0,r6                 ;725
000290  f7fffffe          BL       TEXT_SetTextColor
000294  f640111d          MOV      r1,#0x91d             ;727
000298  69a8              LDR      r0,[r5,#0x18]         ;727  ; hWinsysinfo
00029a  f7fffffe          BL       WM_GetDialogItem
00029e  4606              MOV      r6,r0                 ;727
0002a0  4621              MOV      r1,r4                 ;728
0002a2  4630              MOV      r0,r6                 ;728
0002a4  f7fffffe          BL       TEXT_SetBkColor
0002a8  2100              MOVS     r1,#0                 ;729
0002aa  4630              MOV      r0,r6                 ;729
0002ac  f7fffffe          BL       TEXT_SetTextColor
0002b0  203d              MOVS     r0,#0x3d              ;731
0002b2  7028              STRB     r0,[r5,#0]            ;731
0002b4  e6e1              B        |L5.122|
                  |L5.694|
0002b6  f6401117          MOV      r1,#0x917             ;736
0002ba  4d4f              LDR      r5,|L5.1016|
0002bc  f7fffffe          BL       WM_GetDialogItem
0002c0  4606              MOV      r6,r0                 ;736
0002c2  f06f4170          MVN      r1,#0xf0000000        ;737
0002c6  4630              MOV      r0,r6                 ;737
0002c8  f7fffffe          BL       TEXT_SetBkColor
0002cc  4621              MOV      r1,r4                 ;738
0002ce  4630              MOV      r0,r6                 ;738
0002d0  f7fffffe          BL       TEXT_SetTextColor
0002d4  f640111e          MOV      r1,#0x91e             ;740
0002d8  69a8              LDR      r0,[r5,#0x18]         ;740  ; hWinsysinfo
0002da  f7fffffe          BL       WM_GetDialogItem
0002de  4606              MOV      r6,r0                 ;740
0002e0  4621              MOV      r1,r4                 ;741
0002e2  4630              MOV      r0,r6                 ;741
0002e4  f7fffffe          BL       TEXT_SetBkColor
0002e8  2100              MOVS     r1,#0                 ;742
0002ea  4630              MOV      r0,r6                 ;742
0002ec  f7fffffe          BL       TEXT_SetTextColor
0002f0  203e              MOVS     r0,#0x3e              ;744
0002f2  7028              STRB     r0,[r5,#0]            ;744
0002f4  e6c1              B        |L5.122|
                  |L5.758|
0002f6  f6401118          MOV      r1,#0x918             ;749
0002fa  4d3f              LDR      r5,|L5.1016|
0002fc  f7fffffe          BL       WM_GetDialogItem
000300  4606              MOV      r6,r0                 ;749
000302  f06f4170          MVN      r1,#0xf0000000        ;750
000306  4630              MOV      r0,r6                 ;750
000308  f7fffffe          BL       TEXT_SetBkColor
00030c  4621              MOV      r1,r4                 ;751
00030e  4630              MOV      r0,r6                 ;751
000310  f7fffffe          BL       TEXT_SetTextColor
000314  f6401117          MOV      r1,#0x917             ;753
000318  69a8              LDR      r0,[r5,#0x18]         ;753  ; hWinsysinfo
00031a  f7fffffe          BL       WM_GetDialogItem
00031e  4606              MOV      r6,r0                 ;753
000320  4621              MOV      r1,r4                 ;754
000322  4630              MOV      r0,r6                 ;754
000324  f7fffffe          BL       TEXT_SetBkColor
000328  2100              MOVS     r1,#0                 ;755
00032a  4630              MOV      r0,r6                 ;755
00032c  f7fffffe          BL       TEXT_SetTextColor
000330  2037              MOVS     r0,#0x37              ;757
000332  7028              STRB     r0,[r5,#0]            ;757
000334  e6a1              B        |L5.122|
                  |L5.822|
000336  f6401119          MOV      r1,#0x919             ;762
00033a  4d2f              LDR      r5,|L5.1016|
00033c  f7fffffe          BL       WM_GetDialogItem
000340  4606              MOV      r6,r0                 ;762
000342  f06f4170          MVN      r1,#0xf0000000        ;763
000346  4630              MOV      r0,r6                 ;763
000348  f7fffffe          BL       TEXT_SetBkColor
00034c  4621              MOV      r1,r4                 ;764
00034e  4630              MOV      r0,r6                 ;764
000350  f7fffffe          BL       TEXT_SetTextColor
000354  f6401118          MOV      r1,#0x918             ;766
000358  69a8              LDR      r0,[r5,#0x18]         ;766  ; hWinsysinfo
00035a  f7fffffe          BL       WM_GetDialogItem
00035e  4606              MOV      r6,r0                 ;766
000360  4621              MOV      r1,r4                 ;767
000362  4630              MOV      r0,r6                 ;767
000364  f7fffffe          BL       TEXT_SetBkColor
000368  2100              MOVS     r1,#0                 ;768
00036a  4630              MOV      r0,r6                 ;768
00036c  f7fffffe          BL       TEXT_SetTextColor
000370  2038              MOVS     r0,#0x38              ;770
000372  7028              STRB     r0,[r5,#0]            ;770
000374  e681              B        |L5.122|
                  |L5.886|
000376  f640111a          MOV      r1,#0x91a             ;775
00037a  4d1f              LDR      r5,|L5.1016|
00037c  f7fffffe          BL       WM_GetDialogItem
000380  4606              MOV      r6,r0                 ;775
000382  f06f4170          MVN      r1,#0xf0000000        ;776
000386  4630              MOV      r0,r6                 ;776
000388  f7fffffe          BL       TEXT_SetBkColor
00038c  4621              MOV      r1,r4                 ;777
00038e  4630              MOV      r0,r6                 ;777
000390  f7fffffe          BL       TEXT_SetTextColor
000394  f6401119          MOV      r1,#0x919             ;779
000398  69a8              LDR      r0,[r5,#0x18]         ;779  ; hWinsysinfo
00039a  f7fffffe          BL       WM_GetDialogItem
00039e  4606              MOV      r6,r0                 ;779
0003a0  4621              MOV      r1,r4                 ;780
0003a2  4630              MOV      r0,r6                 ;780
0003a4  f7fffffe          BL       TEXT_SetBkColor
0003a8  2100              MOVS     r1,#0                 ;781
0003aa  4630              MOV      r0,r6                 ;781
0003ac  f7fffffe          BL       TEXT_SetTextColor
0003b0  2039              MOVS     r0,#0x39              ;783
0003b2  7028              STRB     r0,[r5,#0]            ;783
0003b4  e661              B        |L5.122|
                  |L5.950|
0003b6  f640111b          MOV      r1,#0x91b             ;788
0003ba  4d0f              LDR      r5,|L5.1016|
0003bc  f7fffffe          BL       WM_GetDialogItem
0003c0  4606              MOV      r6,r0                 ;788
0003c2  f06f4170          MVN      r1,#0xf0000000        ;789
0003c6  4630              MOV      r0,r6                 ;789
0003c8  f7fffffe          BL       TEXT_SetBkColor
0003cc  4621              MOV      r1,r4                 ;790
0003ce  4630              MOV      r0,r6                 ;790
0003d0  f7fffffe          BL       TEXT_SetTextColor
0003d4  f640111a          MOV      r1,#0x91a             ;792
0003d8  69a8              LDR      r0,[r5,#0x18]         ;792  ; hWinsysinfo
0003da  f7fffffe          BL       WM_GetDialogItem
0003de  4606              MOV      r6,r0                 ;792
0003e0  4621              MOV      r1,r4                 ;793
0003e2  4630              MOV      r0,r6                 ;793
0003e4  f7fffffe          BL       TEXT_SetBkColor
0003e8  2100              MOVS     r1,#0                 ;794
0003ea  4630              MOV      r0,r6                 ;794
0003ec  f7fffffe          BL       TEXT_SetTextColor
0003f0  203a              MOVS     r0,#0x3a              ;796
0003f2  7028              STRB     r0,[r5,#0]            ;796
0003f4  e641              B        |L5.122|
0003f6  0000              DCW      0x0000
                  |L5.1016|
                          DCD      ||.data||
                  |L5.1020|
                          DCD      0x00bfffff
                  |L5.1024|
000400  f640111c          MOV      r1,#0x91c             ;801
000404  4d0e              LDR      r5,|L5.1088|
000406  f7fffffe          BL       WM_GetDialogItem
00040a  4606              MOV      r6,r0                 ;801
00040c  f06f4170          MVN      r1,#0xf0000000        ;802
000410  4630              MOV      r0,r6                 ;802
000412  f7fffffe          BL       TEXT_SetBkColor
000416  4621              MOV      r1,r4                 ;803
000418  4630              MOV      r0,r6                 ;803
00041a  f7fffffe          BL       TEXT_SetTextColor
00041e  f640111b          MOV      r1,#0x91b             ;805
000422  69a8              LDR      r0,[r5,#0x18]         ;805  ; hWinsysinfo
000424  f7fffffe          BL       WM_GetDialogItem
000428  4606              MOV      r6,r0                 ;805
00042a  4621              MOV      r1,r4                 ;806
00042c  4630              MOV      r0,r6                 ;806
00042e  f7fffffe          BL       TEXT_SetBkColor
000432  2100              MOVS     r1,#0                 ;807
000434  4630              MOV      r0,r6                 ;807
000436  f7fffffe          BL       TEXT_SetTextColor
00043a  203b              MOVS     r0,#0x3b              ;809
00043c  7028              STRB     r0,[r5,#0]            ;809
00043e  e61c              B        |L5.122|
;;;815    
                          ENDP

                  |L5.1088|
                          DCD      ||.data||

                          AREA ||i.SYS_INFO_RIGHT||, CODE, READONLY, ALIGN=2

                  SYS_INFO_RIGHT PROC
;;;379    
;;;380    void SYS_INFO_RIGHT(void)
000000  e92d5ff0          PUSH     {r4-r12,lr}
;;;381    {
;;;382        WM_HWIN hItem;
;;;383        switch(info_set)
000004  48fd              LDR      r0,|L6.1020|
000006  7801              LDRB     r1,[r0,#0]  ; info_set
;;;384        {
;;;385            case set_48:
;;;386            {
;;;387                hItem = WM_GetDialogItem(hWinsysinfo, ID_TEXT_99);
000008  f6400599          MOV      r5,#0x899
00000c  392f              SUBS     r1,r1,#0x2f           ;383
;;;388                TEXT_SetBkColor(hItem,GUI_INVALID_COLOR);
;;;389                TEXT_SetTextColor(hItem, 0x00BFFFFF);
00000e  4cfc              LDR      r4,|L6.1024|
;;;390                
;;;391                hItem = WM_GetDialogItem(hWinsysinfo, ID_TEXT_100);
000010  1c6f              ADDS     r7,r5,#1
000012  6980              LDR      r0,[r0,#0x18]         ;387
;;;392                TEXT_SetBkColor(hItem,0x00BFFFFF);
;;;393                TEXT_SetTextColor(hItem, GUI_BLACK);
;;;394                
;;;395                info_set = set_49;
;;;396                break;
;;;397            }
;;;398            case set_49:
;;;399            {
;;;400                hItem = WM_GetDialogItem(hWinsysinfo, ID_TEXT_100);
;;;401                TEXT_SetBkColor(hItem,GUI_INVALID_COLOR);
;;;402                TEXT_SetTextColor(hItem, 0x00BFFFFF);
;;;403                
;;;404                hItem = WM_GetDialogItem(hWinsysinfo, ID_TEXT_101);
000014  f640089b          MOV      r8,#0x89b
;;;405                TEXT_SetBkColor(hItem,0x00BFFFFF);
;;;406                TEXT_SetTextColor(hItem, GUI_BLACK);
;;;407                
;;;408                info_set = set_50;
;;;409                break;
;;;410            }
;;;411            case set_50:
;;;412            {
;;;413                hItem = WM_GetDialogItem(hWinsysinfo, ID_TEXT_101);
;;;414                TEXT_SetBkColor(hItem,GUI_INVALID_COLOR);
;;;415                TEXT_SetTextColor(hItem, 0x00BFFFFF);
;;;416                
;;;417                hItem = WM_GetDialogItem(hWinsysinfo, ID_TEXT_102);
000018  f640099c          MOV      r9,#0x89c
;;;418                TEXT_SetBkColor(hItem,0x00BFFFFF);
;;;419                TEXT_SetTextColor(hItem, GUI_BLACK);
;;;420                
;;;421                info_set = set_51;
;;;422                break;
;;;423            }
;;;424            case set_51:
;;;425            {
;;;426                hItem = WM_GetDialogItem(hWinsysinfo, ID_TEXT_102);
;;;427                TEXT_SetBkColor(hItem,GUI_INVALID_COLOR);
;;;428                TEXT_SetTextColor(hItem, 0x00BFFFFF);
;;;429                
;;;430                hItem = WM_GetDialogItem(hWinsysinfo, ID_TEXT_103);
00001c  f6400a9d          MOV      r10,#0x89d
;;;431                TEXT_SetBkColor(hItem,0x00BFFFFF);
;;;432                TEXT_SetTextColor(hItem, GUI_BLACK);
;;;433                
;;;434                info_set = set_52;
;;;435                break;
;;;436            }
;;;437            case set_52:
;;;438            {
;;;439                hItem = WM_GetDialogItem(hWinsysinfo, ID_TEXT_103);
;;;440                TEXT_SetBkColor(hItem,GUI_INVALID_COLOR);
;;;441                TEXT_SetTextColor(hItem, 0x00BFFFFF);
;;;442                
;;;443                hItem = WM_GetDialogItem(hWinsysinfo, ID_TEXT_104);
000020  f6400b9e          MOV      r11,#0x89e
;;;444                TEXT_SetBkColor(hItem,0x00BFFFFF);
;;;445                TEXT_SetTextColor(hItem, GUI_BLACK);
;;;446                
;;;447                info_set = set_53;
;;;448                break;
;;;449            }
;;;450            case set_53:
;;;451            {
;;;452                hItem = WM_GetDialogItem(hWinsysinfo, ID_TEXT_104);
;;;453                TEXT_SetBkColor(hItem,GUI_INVALID_COLOR);
;;;454                TEXT_SetTextColor(hItem, 0x00BFFFFF);
;;;455                
;;;456                hItem = WM_GetDialogItem(hWinsysinfo, ID_TEXT_105);
;;;457                TEXT_SetBkColor(hItem,0x00BFFFFF);
;;;458                TEXT_SetTextColor(hItem, GUI_BLACK);
;;;459                
;;;460                info_set = set_54;
;;;461                break;
;;;462            }
;;;463            case set_54:
;;;464            {
;;;465                hItem = WM_GetDialogItem(hWinsysinfo, ID_TEXT_105);
;;;466                TEXT_SetBkColor(hItem,GUI_INVALID_COLOR);
;;;467                TEXT_SetTextColor(hItem, 0x00BFFFFF);
;;;468                
;;;469                hItem = WM_GetDialogItem(hWinsysinfo, ID_TEXT_106);
;;;470                TEXT_SetBkColor(hItem,0x00BFFFFF);
;;;471                TEXT_SetTextColor(hItem, GUI_BLACK);
;;;472                
;;;473                info_set = set_55;
;;;474                break;
;;;475            }
;;;476            case set_55:
;;;477            {
;;;478                hItem = WM_GetDialogItem(hWinsysinfo, ID_TEXT_106);
;;;479                TEXT_SetBkColor(hItem,GUI_INVALID_COLOR);
;;;480                TEXT_SetTextColor(hItem, 0x00BFFFFF);
;;;481                
;;;482                hItem = WM_GetDialogItem(hWinsysinfo, ID_TEXT_99);
;;;483                TEXT_SetBkColor(hItem,0x00BFFFFF);
;;;484                TEXT_SetTextColor(hItem, GUI_BLACK);
;;;485                
;;;486                info_set = set_48;
;;;487                break;
;;;488            }
;;;489            case set_62:
;;;490            {
;;;491                hItem = WM_GetDialogItem(hWinsysinfo, ID_TEXT_113);
000024  f640161d          MOV      r6,#0x91d
000028  2910              CMP      r1,#0x10              ;383
00002a  d226              BCS      |L6.122|
00002c  e8dff001          TBB      [pc,r1]               ;383
000030  08274563          DCB      0x08,0x27,0x45,0x63
000034  819fbede          DCB      0x81,0x9f,0xbe,0xde
000038  fcfbfaf9          DCB      0xfc,0xfb,0xfa,0xf9
00003c  f8f7f6f5          DCB      0xf8,0xf7,0xf6,0xf5
000040  4629              MOV      r1,r5                 ;387
000042  4dee              LDR      r5,|L6.1020|
000044  f7fffffe          BL       WM_GetDialogItem
000048  4606              MOV      r6,r0                 ;387
00004a  f06f4170          MVN      r1,#0xf0000000        ;388
00004e  4630              MOV      r0,r6                 ;388
000050  f7fffffe          BL       TEXT_SetBkColor
000054  4621              MOV      r1,r4                 ;389
000056  4630              MOV      r0,r6                 ;389
000058  f7fffffe          BL       TEXT_SetTextColor
00005c  4639              MOV      r1,r7                 ;391
00005e  69a8              LDR      r0,[r5,#0x18]         ;391  ; hWinsysinfo
000060  f7fffffe          BL       WM_GetDialogItem
000064  4606              MOV      r6,r0                 ;391
000066  4621              MOV      r1,r4                 ;392
000068  4630              MOV      r0,r6                 ;392
00006a  f7fffffe          BL       TEXT_SetBkColor
00006e  2100              MOVS     r1,#0                 ;393
000070  4630              MOV      r0,r6                 ;393
000072  f7fffffe          BL       TEXT_SetTextColor
000076  2030              MOVS     r0,#0x30              ;395
000078  7028              STRB     r0,[r5,#0]            ;395
                  |L6.122|
;;;492                TEXT_SetBkColor(hItem,GUI_INVALID_COLOR);
;;;493                TEXT_SetTextColor(hItem, 0x00BFFFFF);
;;;494                
;;;495                hItem = WM_GetDialogItem(hWinsysinfo, ID_TEXT_114);
;;;496                TEXT_SetBkColor(hItem,0x00BFFFFF);
;;;497                TEXT_SetTextColor(hItem, GUI_BLACK);
;;;498                
;;;499                info_set = set_63;
;;;500                break;
;;;501            }
;;;502            case set_63:
;;;503            {
;;;504                hItem = WM_GetDialogItem(hWinsysinfo, ID_TEXT_114);
;;;505                TEXT_SetBkColor(hItem,GUI_INVALID_COLOR);
;;;506                TEXT_SetTextColor(hItem, 0x00BFFFFF);
;;;507                
;;;508                hItem = WM_GetDialogItem(hWinsysinfo, ID_TEXT_107);
;;;509                TEXT_SetBkColor(hItem,0x00BFFFFF);
;;;510                TEXT_SetTextColor(hItem, GUI_BLACK);
;;;511                
;;;512                info_set = set_56;
;;;513                break;
;;;514            }
;;;515            case set_56:
;;;516            {
;;;517                hItem = WM_GetDialogItem(hWinsysinfo, ID_TEXT_107);
;;;518                TEXT_SetBkColor(hItem,GUI_INVALID_COLOR);
;;;519                TEXT_SetTextColor(hItem, 0x00BFFFFF);
;;;520                
;;;521                hItem = WM_GetDialogItem(hWinsysinfo, ID_TEXT_108);
;;;522                TEXT_SetBkColor(hItem,0x00BFFFFF);
;;;523                TEXT_SetTextColor(hItem, GUI_BLACK);
;;;524                
;;;525                info_set = set_57;
;;;526                break;
;;;527            }
;;;528            case set_57:
;;;529            {
;;;530                hItem = WM_GetDialogItem(hWinsysinfo, ID_TEXT_108);
;;;531                TEXT_SetBkColor(hItem,GUI_INVALID_COLOR);
;;;532                TEXT_SetTextColor(hItem, 0x00BFFFFF);
;;;533                
;;;534                hItem = WM_GetDialogItem(hWinsysinfo, ID_TEXT_109);
;;;535                TEXT_SetBkColor(hItem,0x00BFFFFF);
;;;536                TEXT_SetTextColor(hItem, GUI_BLACK);
;;;537                
;;;538                info_set = set_58;
;;;539                break;
;;;540            }
;;;541            case set_58:
;;;542            {
;;;543                hItem = WM_GetDialogItem(hWinsysinfo, ID_TEXT_109);
;;;544                TEXT_SetBkColor(hItem,GUI_INVALID_COLOR);
;;;545                TEXT_SetTextColor(hItem, 0x00BFFFFF);
;;;546                
;;;547                hItem = WM_GetDialogItem(hWinsysinfo, ID_TEXT_110);
;;;548                TEXT_SetBkColor(hItem,0x00BFFFFF);
;;;549                TEXT_SetTextColor(hItem, GUI_BLACK);
;;;550                
;;;551                info_set = set_59;
;;;552                break;
;;;553            }
;;;554            case set_59:
;;;555            {
;;;556                hItem = WM_GetDialogItem(hWinsysinfo, ID_TEXT_110);
;;;557                TEXT_SetBkColor(hItem,GUI_INVALID_COLOR);
;;;558                TEXT_SetTextColor(hItem, 0x00BFFFFF);
;;;559                
;;;560                hItem = WM_GetDialogItem(hWinsysinfo, ID_TEXT_111);
;;;561                TEXT_SetBkColor(hItem,0x00BFFFFF);
;;;562                TEXT_SetTextColor(hItem, GUI_BLACK);
;;;563                
;;;564                info_set = set_60;
;;;565                break;
;;;566            }
;;;567            case set_60:
;;;568            {
;;;569                hItem = WM_GetDialogItem(hWinsysinfo, ID_TEXT_111);
;;;570                TEXT_SetBkColor(hItem,GUI_INVALID_COLOR);
;;;571                TEXT_SetTextColor(hItem, 0x00BFFFFF);
;;;572                
;;;573                hItem = WM_GetDialogItem(hWinsysinfo, ID_TEXT_112);
;;;574                TEXT_SetBkColor(hItem,0x00BFFFFF);
;;;575                TEXT_SetTextColor(hItem, GUI_BLACK);
;;;576                
;;;577                info_set = set_61;
;;;578                break;
;;;579            }
;;;580            case set_61:
;;;581            {
;;;582                hItem = WM_GetDialogItem(hWinsysinfo, ID_TEXT_112);
;;;583                TEXT_SetBkColor(hItem,GUI_INVALID_COLOR);
;;;584                TEXT_SetTextColor(hItem, 0x00BFFFFF);
;;;585                
;;;586                hItem = WM_GetDialogItem(hWinsysinfo, ID_TEXT_113);
;;;587                TEXT_SetBkColor(hItem,0x00BFFFFF);
;;;588                TEXT_SetTextColor(hItem, GUI_BLACK);
;;;589                
;;;590                info_set = set_62;
;;;591                break;
;;;592            }
;;;593        }
;;;594        
;;;595    }
00007a  e8bd9ff0          POP      {r4-r12,pc}
00007e  4639              MOV      r1,r7                 ;400
000080  4dde              LDR      r5,|L6.1020|
000082  f7fffffe          BL       WM_GetDialogItem
000086  4606              MOV      r6,r0                 ;400
000088  f06f4170          MVN      r1,#0xf0000000        ;401
00008c  4630              MOV      r0,r6                 ;401
00008e  f7fffffe          BL       TEXT_SetBkColor
000092  4621              MOV      r1,r4                 ;402
000094  4630              MOV      r0,r6                 ;402
000096  f7fffffe          BL       TEXT_SetTextColor
00009a  4641              MOV      r1,r8                 ;404
00009c  69a8              LDR      r0,[r5,#0x18]         ;404  ; hWinsysinfo
00009e  f7fffffe          BL       WM_GetDialogItem
0000a2  4606              MOV      r6,r0                 ;404
0000a4  4621              MOV      r1,r4                 ;405
0000a6  4630              MOV      r0,r6                 ;405
0000a8  f7fffffe          BL       TEXT_SetBkColor
0000ac  2100              MOVS     r1,#0                 ;406
0000ae  4630              MOV      r0,r6                 ;406
0000b0  f7fffffe          BL       TEXT_SetTextColor
0000b4  2031              MOVS     r0,#0x31              ;408
0000b6  7028              STRB     r0,[r5,#0]            ;408
0000b8  e7df              B        |L6.122|
0000ba  4641              MOV      r1,r8                 ;413
0000bc  4dcf              LDR      r5,|L6.1020|
0000be  f7fffffe          BL       WM_GetDialogItem
0000c2  4606              MOV      r6,r0                 ;413
0000c4  f06f4170          MVN      r1,#0xf0000000        ;414
0000c8  4630              MOV      r0,r6                 ;414
0000ca  f7fffffe          BL       TEXT_SetBkColor
0000ce  4621              MOV      r1,r4                 ;415
0000d0  4630              MOV      r0,r6                 ;415
0000d2  f7fffffe          BL       TEXT_SetTextColor
0000d6  4649              MOV      r1,r9                 ;417
0000d8  69a8              LDR      r0,[r5,#0x18]         ;417  ; hWinsysinfo
0000da  f7fffffe          BL       WM_GetDialogItem
0000de  4606              MOV      r6,r0                 ;417
0000e0  4621              MOV      r1,r4                 ;418
0000e2  4630              MOV      r0,r6                 ;418
0000e4  f7fffffe          BL       TEXT_SetBkColor
0000e8  2100              MOVS     r1,#0                 ;419
0000ea  4630              MOV      r0,r6                 ;419
0000ec  f7fffffe          BL       TEXT_SetTextColor
0000f0  2032              MOVS     r0,#0x32              ;421
0000f2  7028              STRB     r0,[r5,#0]            ;421
0000f4  e7c1              B        |L6.122|
0000f6  4649              MOV      r1,r9                 ;426
0000f8  4dc0              LDR      r5,|L6.1020|
0000fa  f7fffffe          BL       WM_GetDialogItem
0000fe  4606              MOV      r6,r0                 ;426
000100  f06f4170          MVN      r1,#0xf0000000        ;427
000104  4630              MOV      r0,r6                 ;427
000106  f7fffffe          BL       TEXT_SetBkColor
00010a  4621              MOV      r1,r4                 ;428
00010c  4630              MOV      r0,r6                 ;428
00010e  f7fffffe          BL       TEXT_SetTextColor
000112  4651              MOV      r1,r10                ;430
000114  69a8              LDR      r0,[r5,#0x18]         ;430  ; hWinsysinfo
000116  f7fffffe          BL       WM_GetDialogItem
00011a  4606              MOV      r6,r0                 ;430
00011c  4621              MOV      r1,r4                 ;431
00011e  4630              MOV      r0,r6                 ;431
000120  f7fffffe          BL       TEXT_SetBkColor
000124  2100              MOVS     r1,#0                 ;432
000126  4630              MOV      r0,r6                 ;432
000128  f7fffffe          BL       TEXT_SetTextColor
00012c  2033              MOVS     r0,#0x33              ;434
00012e  7028              STRB     r0,[r5,#0]            ;434
000130  e7a3              B        |L6.122|
000132  4651              MOV      r1,r10                ;439
000134  4db1              LDR      r5,|L6.1020|
000136  f7fffffe          BL       WM_GetDialogItem
00013a  4606              MOV      r6,r0                 ;439
00013c  f06f4170          MVN      r1,#0xf0000000        ;440
000140  4630              MOV      r0,r6                 ;440
000142  f7fffffe          BL       TEXT_SetBkColor
000146  4621              MOV      r1,r4                 ;441
000148  4630              MOV      r0,r6                 ;441
00014a  f7fffffe          BL       TEXT_SetTextColor
00014e  4659              MOV      r1,r11                ;443
000150  69a8              LDR      r0,[r5,#0x18]         ;443  ; hWinsysinfo
000152  f7fffffe          BL       WM_GetDialogItem
000156  4606              MOV      r6,r0                 ;443
000158  4621              MOV      r1,r4                 ;444
00015a  4630              MOV      r0,r6                 ;444
00015c  f7fffffe          BL       TEXT_SetBkColor
000160  2100              MOVS     r1,#0                 ;445
000162  4630              MOV      r0,r6                 ;445
000164  f7fffffe          BL       TEXT_SetTextColor
000168  2034              MOVS     r0,#0x34              ;447
00016a  7028              STRB     r0,[r5,#0]            ;447
00016c  e785              B        |L6.122|
00016e  4659              MOV      r1,r11                ;452
000170  4da2              LDR      r5,|L6.1020|
000172  f7fffffe          BL       WM_GetDialogItem
000176  4606              MOV      r6,r0                 ;452
000178  f06f4170          MVN      r1,#0xf0000000        ;453
00017c  4630              MOV      r0,r6                 ;453
00017e  f7fffffe          BL       TEXT_SetBkColor
000182  4621              MOV      r1,r4                 ;454
000184  4630              MOV      r0,r6                 ;454
000186  f7fffffe          BL       TEXT_SetTextColor
00018a  f6401115          MOV      r1,#0x915             ;456
00018e  69a8              LDR      r0,[r5,#0x18]         ;456  ; hWinsysinfo
000190  f7fffffe          BL       WM_GetDialogItem
000194  4606              MOV      r6,r0                 ;456
000196  4621              MOV      r1,r4                 ;457
000198  4630              MOV      r0,r6                 ;457
00019a  f7fffffe          BL       TEXT_SetBkColor
00019e  2100              MOVS     r1,#0                 ;458
0001a0  4630              MOV      r0,r6                 ;458
0001a2  f7fffffe          BL       TEXT_SetTextColor
0001a6  2035              MOVS     r0,#0x35              ;460
0001a8  7028              STRB     r0,[r5,#0]            ;460
0001aa  e766              B        |L6.122|
0001ac  f6401115          MOV      r1,#0x915             ;465
0001b0  4d92              LDR      r5,|L6.1020|
0001b2  f7fffffe          BL       WM_GetDialogItem
0001b6  4606              MOV      r6,r0                 ;465
0001b8  f06f4170          MVN      r1,#0xf0000000        ;466
0001bc  4630              MOV      r0,r6                 ;466
0001be  f7fffffe          BL       TEXT_SetBkColor
0001c2  4621              MOV      r1,r4                 ;467
0001c4  4630              MOV      r0,r6                 ;467
0001c6  f7fffffe          BL       TEXT_SetTextColor
0001ca  f6401116          MOV      r1,#0x916             ;469
0001ce  69a8              LDR      r0,[r5,#0x18]         ;469  ; hWinsysinfo
0001d0  f7fffffe          BL       WM_GetDialogItem
0001d4  4606              MOV      r6,r0                 ;469
0001d6  4621              MOV      r1,r4                 ;470
0001d8  4630              MOV      r0,r6                 ;470
0001da  f7fffffe          BL       TEXT_SetBkColor
0001de  2100              MOVS     r1,#0                 ;471
0001e0  4630              MOV      r0,r6                 ;471
0001e2  f7fffffe          BL       TEXT_SetTextColor
0001e6  2036              MOVS     r0,#0x36              ;473
0001e8  7028              STRB     r0,[r5,#0]            ;473
0001ea  e746              B        |L6.122|
0001ec  f6401116          MOV      r1,#0x916             ;478
0001f0  4e82              LDR      r6,|L6.1020|
0001f2  f7fffffe          BL       WM_GetDialogItem
0001f6  4607              MOV      r7,r0                 ;478
0001f8  f06f4170          MVN      r1,#0xf0000000        ;479
0001fc  4638              MOV      r0,r7                 ;479
0001fe  f7fffffe          BL       TEXT_SetBkColor
000202  4621              MOV      r1,r4                 ;480
000204  4638              MOV      r0,r7                 ;480
000206  f7fffffe          BL       TEXT_SetTextColor
00020a  4629              MOV      r1,r5                 ;482
00020c  69b0              LDR      r0,[r6,#0x18]         ;482  ; hWinsysinfo
00020e  f7fffffe          BL       WM_GetDialogItem
000212  4605              MOV      r5,r0                 ;482
000214  4621              MOV      r1,r4                 ;483
000216  4628              MOV      r0,r5                 ;483
000218  e007              B        |L6.554|
00021a  e02e              B        |L6.634|
00021c  e00e              B        |L6.572|
00021e  e0f1              B        |L6.1028|
000220  e0cb              B        |L6.954|
000222  e0aa              B        |L6.890|
000224  e089              B        |L6.826|
000226  e068              B        |L6.762|
000228  e047              B        |L6.698|
                  |L6.554|
00022a  f7fffffe          BL       TEXT_SetBkColor
00022e  2100              MOVS     r1,#0                 ;484
000230  4628              MOV      r0,r5                 ;484
000232  f7fffffe          BL       TEXT_SetTextColor
000236  202f              MOVS     r0,#0x2f              ;486
000238  7030              STRB     r0,[r6,#0]            ;486
00023a  e71e              B        |L6.122|
                  |L6.572|
00023c  4631              MOV      r1,r6                 ;491
00023e  4d6f              LDR      r5,|L6.1020|
000240  f7fffffe          BL       WM_GetDialogItem
000244  4606              MOV      r6,r0                 ;491
000246  f06f4170          MVN      r1,#0xf0000000        ;492
00024a  4630              MOV      r0,r6                 ;492
00024c  f7fffffe          BL       TEXT_SetBkColor
000250  4621              MOV      r1,r4                 ;493
000252  4630              MOV      r0,r6                 ;493
000254  f7fffffe          BL       TEXT_SetTextColor
000258  f640111e          MOV      r1,#0x91e             ;495
00025c  69a8              LDR      r0,[r5,#0x18]         ;495  ; hWinsysinfo
00025e  f7fffffe          BL       WM_GetDialogItem
000262  4606              MOV      r6,r0                 ;495
000264  4621              MOV      r1,r4                 ;496
000266  4630              MOV      r0,r6                 ;496
000268  f7fffffe          BL       TEXT_SetBkColor
00026c  2100              MOVS     r1,#0                 ;497
00026e  4630              MOV      r0,r6                 ;497
000270  f7fffffe          BL       TEXT_SetTextColor
000274  203e              MOVS     r0,#0x3e              ;499
000276  7028              STRB     r0,[r5,#0]            ;499
000278  e6ff              B        |L6.122|
                  |L6.634|
00027a  f640111e          MOV      r1,#0x91e             ;504
00027e  4d5f              LDR      r5,|L6.1020|
000280  f7fffffe          BL       WM_GetDialogItem
000284  4606              MOV      r6,r0                 ;504
000286  f06f4170          MVN      r1,#0xf0000000        ;505
00028a  4630              MOV      r0,r6                 ;505
00028c  f7fffffe          BL       TEXT_SetBkColor
000290  4621              MOV      r1,r4                 ;506
000292  4630              MOV      r0,r6                 ;506
000294  f7fffffe          BL       TEXT_SetTextColor
000298  f6401117          MOV      r1,#0x917             ;508
00029c  69a8              LDR      r0,[r5,#0x18]         ;508  ; hWinsysinfo
00029e  f7fffffe          BL       WM_GetDialogItem
0002a2  4606              MOV      r6,r0                 ;508
0002a4  4621              MOV      r1,r4                 ;509
0002a6  4630              MOV      r0,r6                 ;509
0002a8  f7fffffe          BL       TEXT_SetBkColor
0002ac  2100              MOVS     r1,#0                 ;510
0002ae  4630              MOV      r0,r6                 ;510
0002b0  f7fffffe          BL       TEXT_SetTextColor
0002b4  2037              MOVS     r0,#0x37              ;512
0002b6  7028              STRB     r0,[r5,#0]            ;512
0002b8  e6df              B        |L6.122|
                  |L6.698|
0002ba  f6401117          MOV      r1,#0x917             ;517
0002be  4d4f              LDR      r5,|L6.1020|
0002c0  f7fffffe          BL       WM_GetDialogItem
0002c4  4606              MOV      r6,r0                 ;517
0002c6  f06f4170          MVN      r1,#0xf0000000        ;518
0002ca  4630              MOV      r0,r6                 ;518
0002cc  f7fffffe          BL       TEXT_SetBkColor
0002d0  4621              MOV      r1,r4                 ;519
0002d2  4630              MOV      r0,r6                 ;519
0002d4  f7fffffe          BL       TEXT_SetTextColor
0002d8  f6401118          MOV      r1,#0x918             ;521
0002dc  69a8              LDR      r0,[r5,#0x18]         ;521  ; hWinsysinfo
0002de  f7fffffe          BL       WM_GetDialogItem
0002e2  4606              MOV      r6,r0                 ;521
0002e4  4621              MOV      r1,r4                 ;522
0002e6  4630              MOV      r0,r6                 ;522
0002e8  f7fffffe          BL       TEXT_SetBkColor
0002ec  2100              MOVS     r1,#0                 ;523
0002ee  4630              MOV      r0,r6                 ;523
0002f0  f7fffffe          BL       TEXT_SetTextColor
0002f4  2038              MOVS     r0,#0x38              ;525
0002f6  7028              STRB     r0,[r5,#0]            ;525
0002f8  e6bf              B        |L6.122|
                  |L6.762|
0002fa  f6401118          MOV      r1,#0x918             ;530
0002fe  4d3f              LDR      r5,|L6.1020|
000300  f7fffffe          BL       WM_GetDialogItem
000304  4606              MOV      r6,r0                 ;530
000306  f06f4170          MVN      r1,#0xf0000000        ;531
00030a  4630              MOV      r0,r6                 ;531
00030c  f7fffffe          BL       TEXT_SetBkColor
000310  4621              MOV      r1,r4                 ;532
000312  4630              MOV      r0,r6                 ;532
000314  f7fffffe          BL       TEXT_SetTextColor
000318  f6401119          MOV      r1,#0x919             ;534
00031c  69a8              LDR      r0,[r5,#0x18]         ;534  ; hWinsysinfo
00031e  f7fffffe          BL       WM_GetDialogItem
000322  4606              MOV      r6,r0                 ;534
000324  4621              MOV      r1,r4                 ;535
000326  4630              MOV      r0,r6                 ;535
000328  f7fffffe          BL       TEXT_SetBkColor
00032c  2100              MOVS     r1,#0                 ;536
00032e  4630              MOV      r0,r6                 ;536
000330  f7fffffe          BL       TEXT_SetTextColor
000334  2039              MOVS     r0,#0x39              ;538
000336  7028              STRB     r0,[r5,#0]            ;538
000338  e69f              B        |L6.122|
                  |L6.826|
00033a  f6401119          MOV      r1,#0x919             ;543
00033e  4d2f              LDR      r5,|L6.1020|
000340  f7fffffe          BL       WM_GetDialogItem
000344  4606              MOV      r6,r0                 ;543
000346  f06f4170          MVN      r1,#0xf0000000        ;544
00034a  4630              MOV      r0,r6                 ;544
00034c  f7fffffe          BL       TEXT_SetBkColor
000350  4621              MOV      r1,r4                 ;545
000352  4630              MOV      r0,r6                 ;545
000354  f7fffffe          BL       TEXT_SetTextColor
000358  f640111a          MOV      r1,#0x91a             ;547
00035c  69a8              LDR      r0,[r5,#0x18]         ;547  ; hWinsysinfo
00035e  f7fffffe          BL       WM_GetDialogItem
000362  4606              MOV      r6,r0                 ;547
000364  4621              MOV      r1,r4                 ;548
000366  4630              MOV      r0,r6                 ;548
000368  f7fffffe          BL       TEXT_SetBkColor
00036c  2100              MOVS     r1,#0                 ;549
00036e  4630              MOV      r0,r6                 ;549
000370  f7fffffe          BL       TEXT_SetTextColor
000374  203a              MOVS     r0,#0x3a              ;551
000376  7028              STRB     r0,[r5,#0]            ;551
000378  e67f              B        |L6.122|
                  |L6.890|
00037a  f640111a          MOV      r1,#0x91a             ;556
00037e  4d1f              LDR      r5,|L6.1020|
000380  f7fffffe          BL       WM_GetDialogItem
000384  4606              MOV      r6,r0                 ;556
000386  f06f4170          MVN      r1,#0xf0000000        ;557
00038a  4630              MOV      r0,r6                 ;557
00038c  f7fffffe          BL       TEXT_SetBkColor
000390  4621              MOV      r1,r4                 ;558
000392  4630              MOV      r0,r6                 ;558
000394  f7fffffe          BL       TEXT_SetTextColor
000398  f640111b          MOV      r1,#0x91b             ;560
00039c  69a8              LDR      r0,[r5,#0x18]         ;560  ; hWinsysinfo
00039e  f7fffffe          BL       WM_GetDialogItem
0003a2  4606              MOV      r6,r0                 ;560
0003a4  4621              MOV      r1,r4                 ;561
0003a6  4630              MOV      r0,r6                 ;561
0003a8  f7fffffe          BL       TEXT_SetBkColor
0003ac  2100              MOVS     r1,#0                 ;562
0003ae  4630              MOV      r0,r6                 ;562
0003b0  f7fffffe          BL       TEXT_SetTextColor
0003b4  203b              MOVS     r0,#0x3b              ;564
0003b6  7028              STRB     r0,[r5,#0]            ;564
0003b8  e65f              B        |L6.122|
                  |L6.954|
0003ba  f640111b          MOV      r1,#0x91b             ;569
0003be  4d0f              LDR      r5,|L6.1020|
0003c0  f7fffffe          BL       WM_GetDialogItem
0003c4  4606              MOV      r6,r0                 ;569
0003c6  f06f4170          MVN      r1,#0xf0000000        ;570
0003ca  4630              MOV      r0,r6                 ;570
0003cc  f7fffffe          BL       TEXT_SetBkColor
0003d0  4621              MOV      r1,r4                 ;571
0003d2  4630              MOV      r0,r6                 ;571
0003d4  f7fffffe          BL       TEXT_SetTextColor
0003d8  f640111c          MOV      r1,#0x91c             ;573
0003dc  69a8              LDR      r0,[r5,#0x18]         ;573  ; hWinsysinfo
0003de  f7fffffe          BL       WM_GetDialogItem
0003e2  4606              MOV      r6,r0                 ;573
0003e4  4621              MOV      r1,r4                 ;574
0003e6  4630              MOV      r0,r6                 ;574
0003e8  f7fffffe          BL       TEXT_SetBkColor
0003ec  2100              MOVS     r1,#0                 ;575
0003ee  4630              MOV      r0,r6                 ;575
0003f0  f7fffffe          BL       TEXT_SetTextColor
0003f4  203c              MOVS     r0,#0x3c              ;577
0003f6  7028              STRB     r0,[r5,#0]            ;577
0003f8  e63f              B        |L6.122|
0003fa  0000              DCW      0x0000
                  |L6.1020|
                          DCD      ||.data||
                  |L6.1024|
                          DCD      0x00bfffff
                  |L6.1028|
000404  f640111c          MOV      r1,#0x91c             ;582
000408  4d0e              LDR      r5,|L6.1092|
00040a  f7fffffe          BL       WM_GetDialogItem
00040e  4607              MOV      r7,r0                 ;582
000410  f06f4170          MVN      r1,#0xf0000000        ;583
000414  4638              MOV      r0,r7                 ;583
000416  f7fffffe          BL       TEXT_SetBkColor
00041a  4621              MOV      r1,r4                 ;584
00041c  4638              MOV      r0,r7                 ;584
00041e  f7fffffe          BL       TEXT_SetTextColor
000422  4631              MOV      r1,r6                 ;586
000424  69a8              LDR      r0,[r5,#0x18]         ;586  ; hWinsysinfo
000426  f7fffffe          BL       WM_GetDialogItem
00042a  4606              MOV      r6,r0                 ;586
00042c  4621              MOV      r1,r4                 ;587
00042e  4630              MOV      r0,r6                 ;587
000430  f7fffffe          BL       TEXT_SetBkColor
000434  2100              MOVS     r1,#0                 ;588
000436  4630              MOV      r0,r6                 ;588
000438  f7fffffe          BL       TEXT_SetTextColor
00043c  203d              MOVS     r0,#0x3d              ;590
00043e  7028              STRB     r0,[r5,#0]            ;590
000440  e61b              B        |L6.122|
;;;596    
                          ENDP

000442  0000              DCW      0x0000
                  |L6.1092|
                          DCD      ||.data||

                          AREA ||i.SYS_INFO_UP||, CODE, READONLY, ALIGN=2

                  SYS_INFO_UP PROC
;;;817    
;;;818    void SYS_INFO_UP(void)
000000  e92d47f0          PUSH     {r4-r10,lr}
;;;819    {
;;;820        WM_HWIN hItem;
;;;821        switch(info_set)
000004  4cf0              LDR      r4,|L7.968|
000006  7821              LDRB     r1,[r4,#0]  ; info_set
000008  4620              MOV      r0,r4
00000a  392f              SUBS     r1,r1,#0x2f
;;;822        {
;;;823            case set_48:
;;;824            {
;;;825                hItem = WM_GetDialogItem(hWinsysinfo, ID_TEXT_99);
;;;826                TEXT_SetBkColor(hItem,GUI_INVALID_COLOR);
;;;827                TEXT_SetTextColor(hItem, 0x00BFFFFF);
00000c  4def              LDR      r5,|L7.972|
;;;828                
;;;829                hItem = WM_GetDialogItem(hWinsysinfo, ID_TEXT_113);
;;;830                TEXT_SetBkColor(hItem,0x00BFFFFF);
;;;831                TEXT_SetTextColor(hItem, GUI_BLACK);
;;;832                
;;;833                info_set = set_62;
00000e  263d              MOVS     r6,#0x3d
;;;834                break;
;;;835            }
;;;836            case set_49:
;;;837            {
;;;838                hItem = WM_GetDialogItem(hWinsysinfo, ID_TEXT_100);
;;;839                TEXT_SetBkColor(hItem,GUI_INVALID_COLOR);
;;;840                TEXT_SetTextColor(hItem, 0x00BFFFFF);
;;;841                
;;;842                hItem = WM_GetDialogItem(hWinsysinfo, ID_TEXT_113);
;;;843                TEXT_SetBkColor(hItem,0x00BFFFFF);
;;;844                TEXT_SetTextColor(hItem, GUI_BLACK);
;;;845                
;;;846                info_set = set_62;
;;;847                break;
;;;848            }
;;;849            case set_50:
;;;850            {
;;;851                hItem = WM_GetDialogItem(hWinsysinfo, ID_TEXT_101);
;;;852                TEXT_SetBkColor(hItem,GUI_INVALID_COLOR);
;;;853                TEXT_SetTextColor(hItem, 0x00BFFFFF);
;;;854                
;;;855                hItem = WM_GetDialogItem(hWinsysinfo, ID_TEXT_113);
;;;856                TEXT_SetBkColor(hItem,0x00BFFFFF);
;;;857                TEXT_SetTextColor(hItem, GUI_BLACK);
;;;858                
;;;859                info_set = set_62;
;;;860                break;
;;;861            }
;;;862            case set_51:
;;;863            {
;;;864                hItem = WM_GetDialogItem(hWinsysinfo, ID_TEXT_102);
;;;865                TEXT_SetBkColor(hItem,GUI_INVALID_COLOR);
;;;866                TEXT_SetTextColor(hItem, 0x00BFFFFF);
;;;867                
;;;868                hItem = WM_GetDialogItem(hWinsysinfo, ID_TEXT_113);
;;;869                TEXT_SetBkColor(hItem,0x00BFFFFF);
;;;870                TEXT_SetTextColor(hItem, GUI_BLACK);
;;;871                
;;;872                info_set = set_62;
;;;873                break;
;;;874            }
;;;875            case set_52:
;;;876            {
;;;877                hItem = WM_GetDialogItem(hWinsysinfo, ID_TEXT_103);
;;;878                TEXT_SetBkColor(hItem,GUI_INVALID_COLOR);
;;;879                TEXT_SetTextColor(hItem, 0x00BFFFFF);
;;;880                
;;;881                hItem = WM_GetDialogItem(hWinsysinfo, ID_TEXT_113);
;;;882                TEXT_SetBkColor(hItem,0x00BFFFFF);
;;;883                TEXT_SetTextColor(hItem, GUI_BLACK);
;;;884                
;;;885                info_set = set_62;
;;;886                break;
;;;887            }
;;;888            case set_53:
;;;889            {
;;;890                hItem = WM_GetDialogItem(hWinsysinfo, ID_TEXT_104);
;;;891                TEXT_SetBkColor(hItem,GUI_INVALID_COLOR);
;;;892                TEXT_SetTextColor(hItem, 0x00BFFFFF);
;;;893                
;;;894                hItem = WM_GetDialogItem(hWinsysinfo, ID_TEXT_113);
;;;895                TEXT_SetBkColor(hItem,0x00BFFFFF);
;;;896                TEXT_SetTextColor(hItem, GUI_BLACK);
;;;897                
;;;898                info_set = set_62;
;;;899                break;
;;;900            }
;;;901            case set_54:
;;;902            {
;;;903                hItem = WM_GetDialogItem(hWinsysinfo, ID_TEXT_105);
;;;904                TEXT_SetBkColor(hItem,GUI_INVALID_COLOR);
;;;905                TEXT_SetTextColor(hItem, 0x00BFFFFF);
;;;906                
;;;907                hItem = WM_GetDialogItem(hWinsysinfo, ID_TEXT_113);
;;;908                TEXT_SetBkColor(hItem,0x00BFFFFF);
;;;909                TEXT_SetTextColor(hItem, GUI_BLACK);
;;;910                
;;;911                info_set = set_62;
;;;912                break;
;;;913            }
;;;914            case set_55:
;;;915            {
;;;916                hItem = WM_GetDialogItem(hWinsysinfo, ID_TEXT_106);
;;;917                TEXT_SetBkColor(hItem,GUI_INVALID_COLOR);
;;;918                TEXT_SetTextColor(hItem, 0x00BFFFFF);
;;;919                
;;;920                hItem = WM_GetDialogItem(hWinsysinfo, ID_TEXT_113);
;;;921                TEXT_SetBkColor(hItem,0x00BFFFFF);
;;;922                TEXT_SetTextColor(hItem, GUI_BLACK);
;;;923                
;;;924                info_set = set_62;
;;;925                break;
;;;926            }
;;;927            case set_56:
;;;928            {
;;;929                hItem = WM_GetDialogItem(hWinsysinfo, ID_TEXT_107);
;;;930                TEXT_SetBkColor(hItem,GUI_INVALID_COLOR);
;;;931                TEXT_SetTextColor(hItem, 0x00BFFFFF);
;;;932                
;;;933                hItem = WM_GetDialogItem(hWinsysinfo, ID_TEXT_99);
;;;934                TEXT_SetBkColor(hItem,0x00BFFFFF);
;;;935                TEXT_SetTextColor(hItem, GUI_BLACK);
;;;936                
;;;937                info_set = set_48;
000010  272f              MOVS     r7,#0x2f
000012  6980              LDR      r0,[r0,#0x18]         ;825
000014  f6400a99          MOV      r10,#0x899            ;825
000018  f06f4870          MVN      r8,#0xf0000000        ;826
00001c  f640191d          MOV      r9,#0x91d             ;829
000020  2910              CMP      r1,#0x10              ;821
000022  d223              BCS      |L7.108|
000024  e8dff001          TBB      [pc,r1]               ;821
000028  0824405c          DCB      0x08,0x24,0x40,0x5c
00002c  7894b0cc          DCB      0x78,0x94,0xb0,0xcc
000030  f0eeedec          DCB      0xf0,0xee,0xed,0xec
000034  ebeae9e8          DCB      0xeb,0xea,0xe9,0xe8
000038  4651              MOV      r1,r10                ;825
00003a  f7fffffe          BL       WM_GetDialogItem
00003e  4607              MOV      r7,r0                 ;825
000040  4641              MOV      r1,r8                 ;826
000042  4638              MOV      r0,r7                 ;826
000044  f7fffffe          BL       TEXT_SetBkColor
000048  4629              MOV      r1,r5                 ;827
00004a  4638              MOV      r0,r7                 ;827
00004c  f7fffffe          BL       TEXT_SetTextColor
000050  4649              MOV      r1,r9                 ;829
000052  69a0              LDR      r0,[r4,#0x18]         ;829  ; hWinsysinfo
000054  f7fffffe          BL       WM_GetDialogItem
000058  4607              MOV      r7,r0                 ;829
00005a  4629              MOV      r1,r5                 ;830
00005c  4638              MOV      r0,r7                 ;830
00005e  f7fffffe          BL       TEXT_SetBkColor
000062  2100              MOVS     r1,#0                 ;831
000064  4638              MOV      r0,r7                 ;831
000066  f7fffffe          BL       TEXT_SetTextColor
00006a  7026              STRB     r6,[r4,#0]            ;833
                  |L7.108|
;;;938                break;
;;;939            }
;;;940            case set_62:
;;;941            {
;;;942                hItem = WM_GetDialogItem(hWinsysinfo, ID_TEXT_113);
;;;943                TEXT_SetBkColor(hItem,GUI_INVALID_COLOR);
;;;944                TEXT_SetTextColor(hItem, 0x00BFFFFF);
;;;945                
;;;946                hItem = WM_GetDialogItem(hWinsysinfo, ID_TEXT_99);
;;;947                TEXT_SetBkColor(hItem,0x00BFFFFF);
;;;948                TEXT_SetTextColor(hItem, GUI_BLACK);
;;;949                
;;;950                info_set = set_48;
;;;951                break;
;;;952            }
;;;953            case set_63:
;;;954            {
;;;955                hItem = WM_GetDialogItem(hWinsysinfo, ID_TEXT_114);
;;;956                TEXT_SetBkColor(hItem,GUI_INVALID_COLOR);
;;;957                TEXT_SetTextColor(hItem, 0x00BFFFFF);
;;;958                
;;;959                hItem = WM_GetDialogItem(hWinsysinfo, ID_TEXT_99);
;;;960                TEXT_SetBkColor(hItem,0x00BFFFFF);
;;;961                TEXT_SetTextColor(hItem, GUI_BLACK);
;;;962                
;;;963                info_set = set_48;
;;;964                break;
;;;965            }
;;;966            case set_57:
;;;967            {
;;;968                hItem = WM_GetDialogItem(hWinsysinfo, ID_TEXT_108);
;;;969                TEXT_SetBkColor(hItem,GUI_INVALID_COLOR);
;;;970                TEXT_SetTextColor(hItem, 0x00BFFFFF);
;;;971                
;;;972                hItem = WM_GetDialogItem(hWinsysinfo, ID_TEXT_99);
;;;973                TEXT_SetBkColor(hItem,0x00BFFFFF);
;;;974                TEXT_SetTextColor(hItem, GUI_BLACK);
;;;975                
;;;976                info_set = set_48;
;;;977                break;
;;;978            }
;;;979            case set_58:
;;;980            {
;;;981                hItem = WM_GetDialogItem(hWinsysinfo, ID_TEXT_109);
;;;982                TEXT_SetBkColor(hItem,GUI_INVALID_COLOR);
;;;983                TEXT_SetTextColor(hItem, 0x00BFFFFF);
;;;984                
;;;985                hItem = WM_GetDialogItem(hWinsysinfo, ID_TEXT_99);
;;;986                TEXT_SetBkColor(hItem,0x00BFFFFF);
;;;987                TEXT_SetTextColor(hItem, GUI_BLACK);
;;;988                
;;;989                info_set = set_48;
;;;990                break;
;;;991            }
;;;992            case set_59:
;;;993            {
;;;994                hItem = WM_GetDialogItem(hWinsysinfo, ID_TEXT_110);
;;;995                TEXT_SetBkColor(hItem,GUI_INVALID_COLOR);
;;;996                TEXT_SetTextColor(hItem, 0x00BFFFFF);
;;;997                
;;;998                hItem = WM_GetDialogItem(hWinsysinfo, ID_TEXT_99);
;;;999                TEXT_SetBkColor(hItem,0x00BFFFFF);
;;;1000               TEXT_SetTextColor(hItem, GUI_BLACK);
;;;1001               
;;;1002               info_set = set_48;
;;;1003               break;
;;;1004           }
;;;1005           case set_60:
;;;1006           {
;;;1007               hItem = WM_GetDialogItem(hWinsysinfo, ID_TEXT_111);
;;;1008               TEXT_SetBkColor(hItem,GUI_INVALID_COLOR);
;;;1009               TEXT_SetTextColor(hItem, 0x00BFFFFF);
;;;1010               
;;;1011               hItem = WM_GetDialogItem(hWinsysinfo, ID_TEXT_99);
;;;1012               TEXT_SetBkColor(hItem,0x00BFFFFF);
;;;1013               TEXT_SetTextColor(hItem, GUI_BLACK);
;;;1014               
;;;1015               info_set = set_48;
;;;1016               break;
;;;1017           }
;;;1018           case set_61:
;;;1019           {
;;;1020               hItem = WM_GetDialogItem(hWinsysinfo, ID_TEXT_112);
;;;1021               TEXT_SetBkColor(hItem,GUI_INVALID_COLOR);
;;;1022               TEXT_SetTextColor(hItem, 0x00BFFFFF);
;;;1023               
;;;1024               hItem = WM_GetDialogItem(hWinsysinfo, ID_TEXT_99);
;;;1025               TEXT_SetBkColor(hItem,0x00BFFFFF);
;;;1026               TEXT_SetTextColor(hItem, GUI_BLACK);
;;;1027               
;;;1028               info_set = set_48;
;;;1029               break;
;;;1030           }
;;;1031       }
;;;1032       
;;;1033   }
00006c  e8bd87f0          POP      {r4-r10,pc}
000070  f640019a          MOV      r1,#0x89a             ;838
000074  f7fffffe          BL       WM_GetDialogItem
000078  4607              MOV      r7,r0                 ;838
00007a  4641              MOV      r1,r8                 ;839
00007c  4638              MOV      r0,r7                 ;839
00007e  f7fffffe          BL       TEXT_SetBkColor
000082  4629              MOV      r1,r5                 ;840
000084  4638              MOV      r0,r7                 ;840
000086  f7fffffe          BL       TEXT_SetTextColor
00008a  4649              MOV      r1,r9                 ;842
00008c  69a0              LDR      r0,[r4,#0x18]         ;842  ; hWinsysinfo
00008e  f7fffffe          BL       WM_GetDialogItem
000092  4607              MOV      r7,r0                 ;842
000094  4629              MOV      r1,r5                 ;843
000096  4638              MOV      r0,r7                 ;843
000098  f7fffffe          BL       TEXT_SetBkColor
00009c  2100              MOVS     r1,#0                 ;844
00009e  4638              MOV      r0,r7                 ;844
0000a0  f7fffffe          BL       TEXT_SetTextColor
0000a4  7026              STRB     r6,[r4,#0]            ;846
0000a6  e7e1              B        |L7.108|
0000a8  f640019b          MOV      r1,#0x89b             ;851
0000ac  f7fffffe          BL       WM_GetDialogItem
0000b0  4607              MOV      r7,r0                 ;851
0000b2  4641              MOV      r1,r8                 ;852
0000b4  4638              MOV      r0,r7                 ;852
0000b6  f7fffffe          BL       TEXT_SetBkColor
0000ba  4629              MOV      r1,r5                 ;853
0000bc  4638              MOV      r0,r7                 ;853
0000be  f7fffffe          BL       TEXT_SetTextColor
0000c2  4649              MOV      r1,r9                 ;855
0000c4  69a0              LDR      r0,[r4,#0x18]         ;855  ; hWinsysinfo
0000c6  f7fffffe          BL       WM_GetDialogItem
0000ca  4607              MOV      r7,r0                 ;855
0000cc  4629              MOV      r1,r5                 ;856
0000ce  4638              MOV      r0,r7                 ;856
0000d0  f7fffffe          BL       TEXT_SetBkColor
0000d4  2100              MOVS     r1,#0                 ;857
0000d6  4638              MOV      r0,r7                 ;857
0000d8  f7fffffe          BL       TEXT_SetTextColor
0000dc  7026              STRB     r6,[r4,#0]            ;859
0000de  e7c5              B        |L7.108|
0000e0  f640019c          MOV      r1,#0x89c             ;864
0000e4  f7fffffe          BL       WM_GetDialogItem
0000e8  4607              MOV      r7,r0                 ;864
0000ea  4641              MOV      r1,r8                 ;865
0000ec  4638              MOV      r0,r7                 ;865
0000ee  f7fffffe          BL       TEXT_SetBkColor
0000f2  4629              MOV      r1,r5                 ;866
0000f4  4638              MOV      r0,r7                 ;866
0000f6  f7fffffe          BL       TEXT_SetTextColor
0000fa  4649              MOV      r1,r9                 ;868
0000fc  69a0              LDR      r0,[r4,#0x18]         ;868  ; hWinsysinfo
0000fe  f7fffffe          BL       WM_GetDialogItem
000102  4607              MOV      r7,r0                 ;868
000104  4629              MOV      r1,r5                 ;869
000106  4638              MOV      r0,r7                 ;869
000108  f7fffffe          BL       TEXT_SetBkColor
00010c  2100              MOVS     r1,#0                 ;870
00010e  4638              MOV      r0,r7                 ;870
000110  f7fffffe          BL       TEXT_SetTextColor
000114  7026              STRB     r6,[r4,#0]            ;872
000116  e7a9              B        |L7.108|
000118  f640019d          MOV      r1,#0x89d             ;877
00011c  f7fffffe          BL       WM_GetDialogItem
000120  4607              MOV      r7,r0                 ;877
000122  4641              MOV      r1,r8                 ;878
000124  4638              MOV      r0,r7                 ;878
000126  f7fffffe          BL       TEXT_SetBkColor
00012a  4629              MOV      r1,r5                 ;879
00012c  4638              MOV      r0,r7                 ;879
00012e  f7fffffe          BL       TEXT_SetTextColor
000132  4649              MOV      r1,r9                 ;881
000134  69a0              LDR      r0,[r4,#0x18]         ;881  ; hWinsysinfo
000136  f7fffffe          BL       WM_GetDialogItem
00013a  4607              MOV      r7,r0                 ;881
00013c  4629              MOV      r1,r5                 ;882
00013e  4638              MOV      r0,r7                 ;882
000140  f7fffffe          BL       TEXT_SetBkColor
000144  2100              MOVS     r1,#0                 ;883
000146  4638              MOV      r0,r7                 ;883
000148  f7fffffe          BL       TEXT_SetTextColor
00014c  7026              STRB     r6,[r4,#0]            ;885
00014e  e78d              B        |L7.108|
000150  f640019e          MOV      r1,#0x89e             ;890
000154  f7fffffe          BL       WM_GetDialogItem
000158  4607              MOV      r7,r0                 ;890
00015a  4641              MOV      r1,r8                 ;891
00015c  4638              MOV      r0,r7                 ;891
00015e  f7fffffe          BL       TEXT_SetBkColor
000162  4629              MOV      r1,r5                 ;892
000164  4638              MOV      r0,r7                 ;892
000166  f7fffffe          BL       TEXT_SetTextColor
00016a  4649              MOV      r1,r9                 ;894
00016c  69a0              LDR      r0,[r4,#0x18]         ;894  ; hWinsysinfo
00016e  f7fffffe          BL       WM_GetDialogItem
000172  4607              MOV      r7,r0                 ;894
000174  4629              MOV      r1,r5                 ;895
000176  4638              MOV      r0,r7                 ;895
000178  f7fffffe          BL       TEXT_SetBkColor
00017c  2100              MOVS     r1,#0                 ;896
00017e  4638              MOV      r0,r7                 ;896
000180  f7fffffe          BL       TEXT_SetTextColor
000184  7026              STRB     r6,[r4,#0]            ;898
000186  e771              B        |L7.108|
000188  f6401115          MOV      r1,#0x915             ;903
00018c  f7fffffe          BL       WM_GetDialogItem
000190  4607              MOV      r7,r0                 ;903
000192  4641              MOV      r1,r8                 ;904
000194  4638              MOV      r0,r7                 ;904
000196  f7fffffe          BL       TEXT_SetBkColor
00019a  4629              MOV      r1,r5                 ;905
00019c  4638              MOV      r0,r7                 ;905
00019e  f7fffffe          BL       TEXT_SetTextColor
0001a2  4649              MOV      r1,r9                 ;907
0001a4  69a0              LDR      r0,[r4,#0x18]         ;907  ; hWinsysinfo
0001a6  f7fffffe          BL       WM_GetDialogItem
0001aa  4607              MOV      r7,r0                 ;907
0001ac  4629              MOV      r1,r5                 ;908
0001ae  4638              MOV      r0,r7                 ;908
0001b0  f7fffffe          BL       TEXT_SetBkColor
0001b4  2100              MOVS     r1,#0                 ;909
0001b6  4638              MOV      r0,r7                 ;909
0001b8  f7fffffe          BL       TEXT_SetTextColor
0001bc  7026              STRB     r6,[r4,#0]            ;911
0001be  e755              B        |L7.108|
0001c0  f6401116          MOV      r1,#0x916             ;916
0001c4  f7fffffe          BL       WM_GetDialogItem
0001c8  4607              MOV      r7,r0                 ;916
0001ca  4641              MOV      r1,r8                 ;917
0001cc  4638              MOV      r0,r7                 ;917
0001ce  f7fffffe          BL       TEXT_SetBkColor
0001d2  4629              MOV      r1,r5                 ;918
0001d4  4638              MOV      r0,r7                 ;918
0001d6  f7fffffe          BL       TEXT_SetTextColor
0001da  4649              MOV      r1,r9                 ;920
0001dc  69a0              LDR      r0,[r4,#0x18]         ;920  ; hWinsysinfo
0001de  f7fffffe          BL       WM_GetDialogItem
0001e2  4607              MOV      r7,r0                 ;920
0001e4  4629              MOV      r1,r5                 ;921
0001e6  4638              MOV      r0,r7                 ;921
0001e8  f7fffffe          BL       TEXT_SetBkColor
0001ec  2100              MOVS     r1,#0                 ;922
0001ee  4638              MOV      r0,r7                 ;922
0001f0  f7fffffe          BL       TEXT_SetTextColor
0001f4  7026              STRB     r6,[r4,#0]            ;924
0001f6  e739              B        |L7.108|
0001f8  e03d              B        |L7.630|
0001fa  e021              B        |L7.576|
0001fc  e0c7              B        |L7.910|
0001fe  e0aa              B        |L7.854|
000200  e08d              B        |L7.798|
000202  e070              B        |L7.742|
000204  e053              B        |L7.686|
000206  e7ff              B        |L7.520|
                  |L7.520|
000208  f6401117          MOV      r1,#0x917             ;929
00020c  f7fffffe          BL       WM_GetDialogItem
000210  4606              MOV      r6,r0                 ;929
000212  4641              MOV      r1,r8                 ;930
000214  4630              MOV      r0,r6                 ;930
000216  f7fffffe          BL       TEXT_SetBkColor
00021a  4629              MOV      r1,r5                 ;931
00021c  4630              MOV      r0,r6                 ;931
00021e  f7fffffe          BL       TEXT_SetTextColor
000222  4651              MOV      r1,r10                ;933
000224  69a0              LDR      r0,[r4,#0x18]         ;933  ; hWinsysinfo
000226  f7fffffe          BL       WM_GetDialogItem
00022a  4606              MOV      r6,r0                 ;933
00022c  4629              MOV      r1,r5                 ;934
00022e  4630              MOV      r0,r6                 ;934
000230  f7fffffe          BL       TEXT_SetBkColor
000234  2100              MOVS     r1,#0                 ;935
000236  4630              MOV      r0,r6                 ;935
000238  f7fffffe          BL       TEXT_SetTextColor
00023c  7027              STRB     r7,[r4,#0]            ;937
00023e  e715              B        |L7.108|
                  |L7.576|
000240  4649              MOV      r1,r9                 ;942
000242  f7fffffe          BL       WM_GetDialogItem
000246  4606              MOV      r6,r0                 ;942
000248  4641              MOV      r1,r8                 ;943
00024a  4630              MOV      r0,r6                 ;943
00024c  f7fffffe          BL       TEXT_SetBkColor
000250  4629              MOV      r1,r5                 ;944
000252  4630              MOV      r0,r6                 ;944
000254  f7fffffe          BL       TEXT_SetTextColor
000258  4651              MOV      r1,r10                ;946
00025a  69a0              LDR      r0,[r4,#0x18]         ;946  ; hWinsysinfo
00025c  f7fffffe          BL       WM_GetDialogItem
000260  4606              MOV      r6,r0                 ;946
000262  4629              MOV      r1,r5                 ;947
000264  4630              MOV      r0,r6                 ;947
000266  f7fffffe          BL       TEXT_SetBkColor
00026a  2100              MOVS     r1,#0                 ;948
00026c  4630              MOV      r0,r6                 ;948
00026e  f7fffffe          BL       TEXT_SetTextColor
000272  7027              STRB     r7,[r4,#0]            ;950
000274  e6fa              B        |L7.108|
                  |L7.630|
000276  f640111e          MOV      r1,#0x91e             ;955
00027a  f7fffffe          BL       WM_GetDialogItem
00027e  4606              MOV      r6,r0                 ;955
000280  4641              MOV      r1,r8                 ;956
000282  4630              MOV      r0,r6                 ;956
000284  f7fffffe          BL       TEXT_SetBkColor
000288  4629              MOV      r1,r5                 ;957
00028a  4630              MOV      r0,r6                 ;957
00028c  f7fffffe          BL       TEXT_SetTextColor
000290  4651              MOV      r1,r10                ;959
000292  69a0              LDR      r0,[r4,#0x18]         ;959  ; hWinsysinfo
000294  f7fffffe          BL       WM_GetDialogItem
000298  4606              MOV      r6,r0                 ;959
00029a  4629              MOV      r1,r5                 ;960
00029c  4630              MOV      r0,r6                 ;960
00029e  f7fffffe          BL       TEXT_SetBkColor
0002a2  2100              MOVS     r1,#0                 ;961
0002a4  4630              MOV      r0,r6                 ;961
0002a6  f7fffffe          BL       TEXT_SetTextColor
0002aa  7027              STRB     r7,[r4,#0]            ;963
0002ac  e6de              B        |L7.108|
                  |L7.686|
0002ae  f6401118          MOV      r1,#0x918             ;968
0002b2  f7fffffe          BL       WM_GetDialogItem
0002b6  4606              MOV      r6,r0                 ;968
0002b8  4641              MOV      r1,r8                 ;969
0002ba  4630              MOV      r0,r6                 ;969
0002bc  f7fffffe          BL       TEXT_SetBkColor
0002c0  4629              MOV      r1,r5                 ;970
0002c2  4630              MOV      r0,r6                 ;970
0002c4  f7fffffe          BL       TEXT_SetTextColor
0002c8  4651              MOV      r1,r10                ;972
0002ca  69a0              LDR      r0,[r4,#0x18]         ;972  ; hWinsysinfo
0002cc  f7fffffe          BL       WM_GetDialogItem
0002d0  4606              MOV      r6,r0                 ;972
0002d2  4629              MOV      r1,r5                 ;973
0002d4  4630              MOV      r0,r6                 ;973
0002d6  f7fffffe          BL       TEXT_SetBkColor
0002da  2100              MOVS     r1,#0                 ;974
0002dc  4630              MOV      r0,r6                 ;974
0002de  f7fffffe          BL       TEXT_SetTextColor
0002e2  7027              STRB     r7,[r4,#0]            ;976
0002e4  e6c2              B        |L7.108|
                  |L7.742|
0002e6  f6401119          MOV      r1,#0x919             ;981
0002ea  f7fffffe          BL       WM_GetDialogItem
0002ee  4606              MOV      r6,r0                 ;981
0002f0  4641              MOV      r1,r8                 ;982
0002f2  4630              MOV      r0,r6                 ;982
0002f4  f7fffffe          BL       TEXT_SetBkColor
0002f8  4629              MOV      r1,r5                 ;983
0002fa  4630              MOV      r0,r6                 ;983
0002fc  f7fffffe          BL       TEXT_SetTextColor
000300  4651              MOV      r1,r10                ;985
000302  69a0              LDR      r0,[r4,#0x18]         ;985  ; hWinsysinfo
000304  f7fffffe          BL       WM_GetDialogItem
000308  4606              MOV      r6,r0                 ;985
00030a  4629              MOV      r1,r5                 ;986
00030c  4630              MOV      r0,r6                 ;986
00030e  f7fffffe          BL       TEXT_SetBkColor
000312  2100              MOVS     r1,#0                 ;987
000314  4630              MOV      r0,r6                 ;987
000316  f7fffffe          BL       TEXT_SetTextColor
00031a  7027              STRB     r7,[r4,#0]            ;989
00031c  e6a6              B        |L7.108|
                  |L7.798|
00031e  f640111a          MOV      r1,#0x91a             ;994
000322  f7fffffe          BL       WM_GetDialogItem
000326  4606              MOV      r6,r0                 ;994
000328  4641              MOV      r1,r8                 ;995
00032a  4630              MOV      r0,r6                 ;995
00032c  f7fffffe          BL       TEXT_SetBkColor
000330  4629              MOV      r1,r5                 ;996
000332  4630              MOV      r0,r6                 ;996
000334  f7fffffe          BL       TEXT_SetTextColor
000338  4651              MOV      r1,r10                ;998
00033a  69a0              LDR      r0,[r4,#0x18]         ;998  ; hWinsysinfo
00033c  f7fffffe          BL       WM_GetDialogItem
000340  4606              MOV      r6,r0                 ;998
000342  4629              MOV      r1,r5                 ;999
000344  4630              MOV      r0,r6                 ;999
000346  f7fffffe          BL       TEXT_SetBkColor
00034a  2100              MOVS     r1,#0                 ;1000
00034c  4630              MOV      r0,r6                 ;1000
00034e  f7fffffe          BL       TEXT_SetTextColor
000352  7027              STRB     r7,[r4,#0]            ;1002
000354  e68a              B        |L7.108|
                  |L7.854|
000356  f640111b          MOV      r1,#0x91b             ;1007
00035a  f7fffffe          BL       WM_GetDialogItem
00035e  4606              MOV      r6,r0                 ;1007
000360  4641              MOV      r1,r8                 ;1008
000362  4630              MOV      r0,r6                 ;1008
000364  f7fffffe          BL       TEXT_SetBkColor
000368  4629              MOV      r1,r5                 ;1009
00036a  4630              MOV      r0,r6                 ;1009
00036c  f7fffffe          BL       TEXT_SetTextColor
000370  4651              MOV      r1,r10                ;1011
000372  69a0              LDR      r0,[r4,#0x18]         ;1011  ; hWinsysinfo
000374  f7fffffe          BL       WM_GetDialogItem
000378  4606              MOV      r6,r0                 ;1011
00037a  4629              MOV      r1,r5                 ;1012
00037c  4630              MOV      r0,r6                 ;1012
00037e  f7fffffe          BL       TEXT_SetBkColor
000382  2100              MOVS     r1,#0                 ;1013
000384  4630              MOV      r0,r6                 ;1013
000386  f7fffffe          BL       TEXT_SetTextColor
00038a  7027              STRB     r7,[r4,#0]            ;1015
00038c  e66e              B        |L7.108|
                  |L7.910|
00038e  f640111c          MOV      r1,#0x91c             ;1020
000392  f7fffffe          BL       WM_GetDialogItem
000396  4606              MOV      r6,r0                 ;1020
000398  4641              MOV      r1,r8                 ;1021
00039a  4630              MOV      r0,r6                 ;1021
00039c  f7fffffe          BL       TEXT_SetBkColor
0003a0  4629              MOV      r1,r5                 ;1022
0003a2  4630              MOV      r0,r6                 ;1022
0003a4  f7fffffe          BL       TEXT_SetTextColor
0003a8  4651              MOV      r1,r10                ;1024
0003aa  69a0              LDR      r0,[r4,#0x18]         ;1024  ; hWinsysinfo
0003ac  f7fffffe          BL       WM_GetDialogItem
0003b0  4606              MOV      r6,r0                 ;1024
0003b2  4629              MOV      r1,r5                 ;1025
0003b4  4630              MOV      r0,r6                 ;1025
0003b6  f7fffffe          BL       TEXT_SetBkColor
0003ba  2100              MOVS     r1,#0                 ;1026
0003bc  4630              MOV      r0,r6                 ;1026
0003be  f7fffffe          BL       TEXT_SetTextColor
0003c2  7027              STRB     r7,[r4,#0]            ;1028
0003c4  e652              B        |L7.108|
;;;1034   
                          ENDP

0003c6  0000              DCW      0x0000
                  |L7.968|
                          DCD      ||.data||
                  |L7.972|
                          DCD      0x00bfffff

                          AREA ||i._cbDialog||, CODE, READONLY, ALIGN=2

                          REQUIRE _printf_percent
                          REQUIRE _printf_d
                          REQUIRE _printf_int_dec
                  _cbDialog PROC
;;;138    */
;;;139    static void _cbDialog(WM_MESSAGE * pMsg) {
000000  e92d41f0          PUSH     {r4-r8,lr}
000004  4604              MOV      r4,r0
;;;140        WM_HWIN hItem;
;;;141        static char buf[5];
;;;142    
;;;143        
;;;144      
;;;145      // USER START (Optionally insert additional variables)
;;;146      // USER END
;;;147    
;;;148      switch (pMsg->MsgId) {
;;;149    		
;;;150    	case WM_PAINT:
;;;151            GUI_SetColor(GUI_WHITE);//
;;;152            GUI_FillRect(0,25,480,26);//
;;;153            GUI_SetColor(GUI_ORANGE);
;;;154            GUI_SetFont(&GUI_Fontsymbol);
;;;155            GUI_UC_SetEncodeUTF8();
;;;156            GUI_SetTextMode(GUI_TM_TRANS);//
;;;157            GUI_DispStringAt("Jinko", 5, 1);//SET
;;;158            GUI_SetColor(GUI_WHITE);
;;;159            GUI_SetFont(&GUI_FontHZ20S);
;;;160            GUI_UC_SetEncodeUTF8();
;;;161            GUI_SetTextMode(GUI_TM_TRANS);//
;;;162            GUI_DispStringAt("", 130, 3);//SET
;;;163            GUI_SetColor(GUI_LIGHTBLUE);
;;;164            GUI_SetFont(&GUI_Fontset_font);
;;;165            GUI_DispStringAt("", 30, 50);
;;;166            GUI_DispStringAt("", 30, 75);
;;;167            GUI_DispStringAt("", 30, 100);
;;;168            GUI_DispStringAt("", 30, 125);
;;;169            GUI_DispStringAt("", 30, 150);
;;;170            GUI_SetColor(0x00BFFFFF);
000006  4fff              LDR      r7,|L8.1028|
000008  6820              LDR      r0,[r4,#0]            ;148
00000a  f06f467f          MVN      r6,#0xff000000        ;151
00000e  280f              CMP      r0,#0xf               ;148
000010  d00b              BEQ      |L8.42|
;;;171            GUI_SetFont(&GUI_Font24_1);
;;;172            GUI_DispStringAt("JK5530B", 140, 50);
;;;173            GUI_DispStringAt("Ver:3.1", 140, 75);
;;;174    		//2.6bug
;;;175    		//2.7
;;;176    		//2.8
;;;177    		//2.9
;;;178    		//3.02bug
;;;179    		//3.1UIAP
;;;180            GUI_DispStringAt("Ver:1.3", 140, 100);
;;;181            GUI_DispStringAt("-", 191, 125);
;;;182            GUI_DispStringAt("-", 227, 125);
;;;183            GUI_DispStringAt("A", 164, 150);
;;;184    //        DrawLock();
;;;185    	break;
;;;186    	case WM_TIMER:
;;;187    	if(WM_GetTimerId(pMsg->Data.v) == ID_TimerTime7)
;;;188    	{
;;;189    //        lockstat2 = lockstat1;
;;;190    //        lockstat1 = lock;
;;;191    //        if(lockstat1 != lockstat2)
;;;192    //        {
;;;193    //            WM_InvalidateWindow(hWinsysinfo);
;;;194    //        }
;;;195            
;;;196            if(pass == 14)
;;;197            {
;;;198                admin = 1;
000012  4dfd              LDR      r5,|L8.1032|
000014  281d              CMP      r0,#0x1d              ;148
000016  d07d              BEQ      |L8.276|
000018  f5a07080          SUB      r0,r0,#0x100          ;148
00001c  3813              SUBS     r0,r0,#0x13           ;148
00001e  d074              BEQ      |L8.266|
;;;199            }else if(pass == 10){
;;;200                cal = 1;
;;;201            }else{
;;;202                admin = 0;
;;;203                cal = 0;
;;;204            }
;;;205            
;;;206            if(cal ==  1)
;;;207            {
;;;208                hItem = WM_GetDialogItem(pMsg->hWin, ID_TEXT_136);
;;;209                TEXT_SetTextColor(hItem, GUI_WHITE);//
;;;210                sprintf(buf,"%d",NTC_value);
;;;211                TEXT_SetFont(hItem,&GUI_Font24_1);//
;;;212                GUI_UC_SetEncodeUTF8();        
;;;213                TEXT_SetText(hItem,buf);
;;;214            }else{
;;;215                hItem = WM_GetDialogItem(pMsg->hWin, ID_TEXT_136);
;;;216                TEXT_SetText(hItem, "");
;;;217                TEXT_SetTextColor(hItem, GUI_INVALID_COLOR);
;;;218            }
;;;219    		WM_RestartTimer(pMsg->Data.v,500);//
;;;220            
;;;221            
;;;222    	}
;;;223    	break;
;;;224        
;;;225    		
;;;226      case WM_INIT_DIALOG:
;;;227          hItem = pMsg->hWin;
;;;228          WINDOW_SetBkColor(hItem, GUI_BLACK);
;;;229          WM_CreateTimer(hItem,ID_TimerTime7,20,0);
;;;230      
;;;231          hItem = WM_GetDialogItem(pMsg->hWin, ID_TEXT_99);
;;;232          GUI_UC_SetEncodeUTF8();
;;;233          sprintf(buf,"%d",year1);
;;;234          TEXT_SetText(hItem,buf);
;;;235          TEXT_SetTextColor(hItem, 0x00BFFFFF);
;;;236          TEXT_SetFont(hItem, &GUI_Font24_1);
;;;237    	
;;;238    	  hItem = WM_GetDialogItem(pMsg->hWin, ID_TEXT_100);
;;;239          GUI_UC_SetEncodeUTF8();
;;;240          sprintf(buf,"%d",year2);
;;;241          TEXT_SetText(hItem,buf);
;;;242          TEXT_SetTextColor(hItem, 0x00BFFFFF);
;;;243          TEXT_SetFont(hItem, &GUI_Font24_1);
;;;244    		
;;;245    	  hItem = WM_GetDialogItem(pMsg->hWin, ID_TEXT_101);
;;;246          GUI_UC_SetEncodeUTF8();
;;;247          sprintf(buf,"%d",year3);
;;;248          TEXT_SetText(hItem,buf);
;;;249          TEXT_SetTextColor(hItem, 0x00BFFFFF);
;;;250          TEXT_SetFont(hItem, &GUI_Font24_1);
;;;251    		
;;;252    	  hItem = WM_GetDialogItem(pMsg->hWin, ID_TEXT_102);
;;;253          GUI_UC_SetEncodeUTF8();
;;;254          sprintf(buf,"%d",year4);
;;;255          TEXT_SetText(hItem,buf);
;;;256          TEXT_SetTextColor(hItem, 0x00BFFFFF);
;;;257          TEXT_SetFont(hItem, &GUI_Font24_1);
;;;258          
;;;259          hItem = WM_GetDialogItem(pMsg->hWin, ID_TEXT_103);
;;;260          GUI_UC_SetEncodeUTF8();
;;;261          sprintf(buf,"%d",month1);
;;;262          TEXT_SetText(hItem,buf);
;;;263          TEXT_SetTextColor(hItem, 0x00BFFFFF);
;;;264          TEXT_SetFont(hItem, &GUI_Font24_1);
;;;265    	
;;;266    	  hItem = WM_GetDialogItem(pMsg->hWin, ID_TEXT_104);
;;;267          GUI_UC_SetEncodeUTF8();
;;;268          sprintf(buf,"%d",month2);
;;;269          TEXT_SetText(hItem,buf);
;;;270          TEXT_SetTextColor(hItem, 0x00BFFFFF);
;;;271          TEXT_SetFont(hItem, &GUI_Font24_1);
;;;272    		
;;;273    	  hItem = WM_GetDialogItem(pMsg->hWin, ID_TEXT_105);
;;;274          GUI_UC_SetEncodeUTF8();
;;;275          sprintf(buf,"%d",day1);
;;;276          TEXT_SetText(hItem,buf);
;;;277          TEXT_SetTextColor(hItem, 0x00BFFFFF);
;;;278          TEXT_SetFont(hItem, &GUI_Font24_1);
;;;279    		
;;;280    	  hItem = WM_GetDialogItem(pMsg->hWin, ID_TEXT_106);
;;;281          GUI_UC_SetEncodeUTF8();
;;;282          sprintf(buf,"%d",day2);
;;;283          TEXT_SetText(hItem,buf);
;;;284          TEXT_SetTextColor(hItem, 0x00BFFFFF);
;;;285          TEXT_SetFont(hItem, &GUI_Font24_1);
;;;286    	
;;;287          hItem = WM_GetDialogItem(pMsg->hWin, ID_TEXT_107);
;;;288          GUI_UC_SetEncodeUTF8();
;;;289          sprintf(buf,"%d",code3);
;;;290          TEXT_SetText(hItem,buf);
;;;291          TEXT_SetTextColor(hItem, 0x00BFFFFF);
;;;292          TEXT_SetFont(hItem, &GUI_Font24_1);
;;;293    		
;;;294    	  hItem = WM_GetDialogItem(pMsg->hWin, ID_TEXT_108);
;;;295          GUI_UC_SetEncodeUTF8();
;;;296          sprintf(buf,"%d",code4);
;;;297          TEXT_SetText(hItem,buf);
;;;298          TEXT_SetTextColor(hItem, 0x00BFFFFF);
;;;299          TEXT_SetFont(hItem, &GUI_Font24_1);
;;;300          
;;;301          hItem = WM_GetDialogItem(pMsg->hWin, ID_TEXT_109);
;;;302          GUI_UC_SetEncodeUTF8();
;;;303          sprintf(buf,"%d",code5);
;;;304          TEXT_SetText(hItem,buf);
;;;305          TEXT_SetTextColor(hItem, 0x00BFFFFF);
;;;306          TEXT_SetFont(hItem, &GUI_Font24_1);
;;;307    		
;;;308    	  hItem = WM_GetDialogItem(pMsg->hWin, ID_TEXT_110);
;;;309          GUI_UC_SetEncodeUTF8();
;;;310          sprintf(buf,"%d",code6);
;;;311          TEXT_SetText(hItem,buf);
;;;312          TEXT_SetTextColor(hItem, 0x00BFFFFF);
;;;313          TEXT_SetFont(hItem, &GUI_Font24_1);
;;;314          
;;;315          hItem = WM_GetDialogItem(pMsg->hWin, ID_TEXT_111);
;;;316          GUI_UC_SetEncodeUTF8();
;;;317          sprintf(buf,"%d",code7);
;;;318          TEXT_SetText(hItem,buf);
;;;319          TEXT_SetTextColor(hItem, 0x00BFFFFF);
;;;320          TEXT_SetFont(hItem, &GUI_Font24_1);
;;;321    		
;;;322    	  hItem = WM_GetDialogItem(pMsg->hWin, ID_TEXT_112);
;;;323          GUI_UC_SetEncodeUTF8();
;;;324          sprintf(buf,"%d",code8);
;;;325          TEXT_SetText(hItem,buf);
;;;326          TEXT_SetTextColor(hItem, 0x00BFFFFF);
;;;327          TEXT_SetFont(hItem, &GUI_Font24_1);
;;;328          
;;;329          hItem = WM_GetDialogItem(pMsg->hWin, ID_TEXT_113);
;;;330          GUI_UC_SetEncodeUTF8();
;;;331          sprintf(buf,"%d",code1);
;;;332          TEXT_SetText(hItem,buf);
;;;333          TEXT_SetTextColor(hItem, 0x00BFFFFF);
;;;334          TEXT_SetFont(hItem, &GUI_Font24_1);
;;;335    		
;;;336    	  hItem = WM_GetDialogItem(pMsg->hWin, ID_TEXT_114);
;;;337          GUI_UC_SetEncodeUTF8();
;;;338          sprintf(buf,"%d",code2);
;;;339          TEXT_SetText(hItem,buf);
;;;340          TEXT_SetTextColor(hItem, 0x00BFFFFF);
;;;341          TEXT_SetFont(hItem, &GUI_Font24_1);
;;;342          
;;;343    
;;;344    
;;;345        // USER START (Optionally insert additional code for further widget initialization)
;;;346        // USER END
;;;347            break;
;;;348      // USER START (Optionally insert additional message handling)
;;;349      // USER END
;;;350        default:
;;;351            WM_DefaultProc(pMsg);
000020  4620              MOV      r0,r4
000022  e8bd41f0          POP      {r4-r8,lr}
000026  f7ffbffe          B.W      WM_DefaultProc
                  |L8.42|
00002a  4630              MOV      r0,r6                 ;151
00002c  f7fffffe          BL       GUI_SetColor
000030  231a              MOVS     r3,#0x1a              ;152
000032  f44f72f0          MOV      r2,#0x1e0             ;152
000036  2119              MOVS     r1,#0x19              ;152
000038  2000              MOVS     r0,#0                 ;152
00003a  f7fffffe          BL       GUI_FillRect
00003e  f24a50ff          MOV      r0,#0xa5ff            ;153
000042  f7fffffe          BL       GUI_SetColor
000046  48f1              LDR      r0,|L8.1036|
000048  f7fffffe          BL       GUI_SetFont
00004c  f7fffffe          BL       GUI_UC_SetEncodeUTF8
000050  2002              MOVS     r0,#2                 ;156
000052  f7fffffe          BL       GUI_SetTextMode
000056  2201              MOVS     r2,#1                 ;157
000058  2105              MOVS     r1,#5                 ;157
00005a  a0ed              ADR      r0,|L8.1040|
00005c  f7fffffe          BL       GUI_DispStringAt
000060  4630              MOV      r0,r6                 ;158
000062  f7fffffe          BL       GUI_SetColor
000066  48ec              LDR      r0,|L8.1048|
000068  f7fffffe          BL       GUI_SetFont
00006c  f7fffffe          BL       GUI_UC_SetEncodeUTF8
000070  2002              MOVS     r0,#2                 ;161
000072  f7fffffe          BL       GUI_SetTextMode
000076  2203              MOVS     r2,#3                 ;162
000078  2182              MOVS     r1,#0x82              ;162
00007a  a0e8              ADR      r0,|L8.1052|
00007c  f7fffffe          BL       GUI_DispStringAt
000080  48ea              LDR      r0,|L8.1068|
000082  f7fffffe          BL       GUI_SetColor
000086  48ea              LDR      r0,|L8.1072|
000088  f7fffffe          BL       GUI_SetFont
00008c  2232              MOVS     r2,#0x32              ;165
00008e  211e              MOVS     r1,#0x1e              ;165
000090  a0e8              ADR      r0,|L8.1076|
000092  f7fffffe          BL       GUI_DispStringAt
000096  224b              MOVS     r2,#0x4b              ;166
000098  211e              MOVS     r1,#0x1e              ;166
00009a  a0ea              ADR      r0,|L8.1092|
00009c  f7fffffe          BL       GUI_DispStringAt
0000a0  2264              MOVS     r2,#0x64              ;167
0000a2  211e              MOVS     r1,#0x1e              ;167
0000a4  a0eb              ADR      r0,|L8.1108|
0000a6  f7fffffe          BL       GUI_DispStringAt
0000aa  227d              MOVS     r2,#0x7d              ;168
0000ac  211e              MOVS     r1,#0x1e              ;168
0000ae  a0ed              ADR      r0,|L8.1124|
0000b0  f7fffffe          BL       GUI_DispStringAt
0000b4  2296              MOVS     r2,#0x96              ;169
0000b6  211e              MOVS     r1,#0x1e              ;169
0000b8  a0ee              ADR      r0,|L8.1140|
0000ba  f7fffffe          BL       GUI_DispStringAt
0000be  4638              MOV      r0,r7                 ;170
0000c0  f7fffffe          BL       GUI_SetColor
0000c4  48ef              LDR      r0,|L8.1156|
0000c6  f7fffffe          BL       GUI_SetFont
0000ca  2232              MOVS     r2,#0x32              ;172
0000cc  218c              MOVS     r1,#0x8c              ;172
0000ce  a0ee              ADR      r0,|L8.1160|
0000d0  f7fffffe          BL       GUI_DispStringAt
0000d4  224b              MOVS     r2,#0x4b              ;173
0000d6  218c              MOVS     r1,#0x8c              ;173
0000d8  a0ed              ADR      r0,|L8.1168|
0000da  f7fffffe          BL       GUI_DispStringAt
0000de  2264              MOVS     r2,#0x64              ;180
0000e0  218c              MOVS     r1,#0x8c              ;180
0000e2  a0ed              ADR      r0,|L8.1176|
0000e4  f7fffffe          BL       GUI_DispStringAt
0000e8  227d              MOVS     r2,#0x7d              ;181
0000ea  21bf              MOVS     r1,#0xbf              ;181
0000ec  a0ec              ADR      r0,|L8.1184|
0000ee  f7fffffe          BL       GUI_DispStringAt
0000f2  227d              MOVS     r2,#0x7d              ;182
0000f4  21e3              MOVS     r1,#0xe3              ;182
0000f6  a0ea              ADR      r0,|L8.1184|
0000f8  f7fffffe          BL       GUI_DispStringAt
0000fc  e8bd41f0          POP      {r4-r8,lr}            ;183
000100  2296              MOVS     r2,#0x96              ;183
000102  21a4              MOVS     r1,#0xa4              ;183
000104  a0e7              ADR      r0,|L8.1188|
000106  f7ffbffe          B.W      GUI_DispStringAt
                  |L8.266|
00010a  68e0              LDR      r0,[r4,#0xc]          ;187
00010c  f7fffffe          BL       WM_GetTimerId
000110  2808              CMP      r0,#8                 ;187
000112  e000              B        |L8.278|
                  |L8.276|
000114  e043              B        |L8.414|
                  |L8.278|
000116  d17d              BNE      |L8.532|
000118  49e3              LDR      r1,|L8.1192|
00011a  780a              LDRB     r2,[r1,#0]            ;196  ; pass
00011c  2001              MOVS     r0,#1                 ;157
00011e  2a0e              CMP      r2,#0xe               ;196
000120  d01e              BEQ      |L8.352|
000122  7809              LDRB     r1,[r1,#0]            ;199  ; pass
000124  290a              CMP      r1,#0xa               ;199
000126  d01d              BEQ      |L8.356|
000128  2000              MOVS     r0,#0                 ;202
00012a  7168              STRB     r0,[r5,#5]            ;202
00012c  73a8              STRB     r0,[r5,#0xe]          ;203
                  |L8.302|
00012e  7ba8              LDRB     r0,[r5,#0xe]          ;206  ; cal
000130  f6401125          MOV      r1,#0x925             ;208
000134  2801              CMP      r0,#1                 ;206
000136  d017              BEQ      |L8.360|
000138  6860              LDR      r0,[r4,#4]            ;215
00013a  f7fffffe          BL       WM_GetDialogItem
00013e  4605              MOV      r5,r0                 ;215
000140  a1b9              ADR      r1,|L8.1064|
000142  4628              MOV      r0,r5                 ;216
000144  f7fffffe          BL       TEXT_SetText
000148  f06f4170          MVN      r1,#0xf0000000        ;217
00014c  4628              MOV      r0,r5                 ;217
00014e  f7fffffe          BL       TEXT_SetTextColor
                  |L8.338|
000152  68e0              LDR      r0,[r4,#0xc]          ;219
000154  e8bd41f0          POP      {r4-r8,lr}            ;219
000158  f44f71fa          MOV      r1,#0x1f4             ;219
00015c  f7ffbffe          B.W      WM_RestartTimer
                  |L8.352|
000160  7168              STRB     r0,[r5,#5]            ;198
000162  e7e4              B        |L8.302|
                  |L8.356|
000164  73a8              STRB     r0,[r5,#0xe]          ;200
000166  e7e2              B        |L8.302|
                  |L8.360|
000168  6860              LDR      r0,[r4,#4]            ;208
00016a  f7fffffe          BL       WM_GetDialogItem
00016e  4605              MOV      r5,r0                 ;208
000170  4631              MOV      r1,r6                 ;209
000172  4628              MOV      r0,r5                 ;209
000174  f7fffffe          BL       TEXT_SetTextColor
000178  48cc              LDR      r0,|L8.1196|
00017a  8802              LDRH     r2,[r0,#0]            ;210  ; NTC_value
00017c  48a2              LDR      r0,|L8.1032|
00017e  a1cc              ADR      r1,|L8.1200|
000180  301c              ADDS     r0,r0,#0x1c           ;210
000182  f7fffffe          BL       __2sprintf
000186  49bf              LDR      r1,|L8.1156|
000188  4628              MOV      r0,r5                 ;211
00018a  f7fffffe          BL       TEXT_SetFont
00018e  f7fffffe          BL       GUI_UC_SetEncodeUTF8
000192  499d              LDR      r1,|L8.1032|
000194  4628              MOV      r0,r5                 ;213
000196  311c              ADDS     r1,r1,#0x1c           ;213
000198  f7fffffe          BL       TEXT_SetText
00019c  e7d9              B        |L8.338|
                  |L8.414|
00019e  6866              LDR      r6,[r4,#4]            ;227
0001a0  2100              MOVS     r1,#0                 ;228
0001a2  4630              MOV      r0,r6                 ;228
0001a4  f7fffffe          BL       WINDOW_SetBkColor
0001a8  2300              MOVS     r3,#0                 ;229
0001aa  2214              MOVS     r2,#0x14              ;229
0001ac  2108              MOVS     r1,#8                 ;229
0001ae  4630              MOV      r0,r6                 ;229
0001b0  f7fffffe          BL       WM_CreateTimer
0001b4  f6400199          MOV      r1,#0x899             ;231
0001b8  6860              LDR      r0,[r4,#4]            ;231
0001ba  f7fffffe          BL       WM_GetDialogItem
0001be  4680              MOV      r8,r0                 ;231
0001c0  f7fffffe          BL       GUI_UC_SetEncodeUTF8
0001c4  8a2a              LDRH     r2,[r5,#0x10]         ;233  ; year1
0001c6  4890              LDR      r0,|L8.1032|
0001c8  a1b9              ADR      r1,|L8.1200|
0001ca  301c              ADDS     r0,r0,#0x1c           ;233
0001cc  f7fffffe          BL       __2sprintf
0001d0  498d              LDR      r1,|L8.1032|
0001d2  4640              MOV      r0,r8                 ;234
0001d4  311c              ADDS     r1,r1,#0x1c           ;234
0001d6  f7fffffe          BL       TEXT_SetText
0001da  463e              MOV      r6,r7                 ;235
0001dc  4631              MOV      r1,r6                 ;235
0001de  4640              MOV      r0,r8                 ;235
0001e0  f7fffffe          BL       TEXT_SetTextColor
0001e4  49a7              LDR      r1,|L8.1156|
0001e6  4640              MOV      r0,r8                 ;236
0001e8  f7fffffe          BL       TEXT_SetFont
0001ec  f640019a          MOV      r1,#0x89a             ;238
0001f0  6860              LDR      r0,[r4,#4]            ;238
0001f2  f7fffffe          BL       WM_GetDialogItem
0001f6  4607              MOV      r7,r0                 ;238
0001f8  f7fffffe          BL       GUI_UC_SetEncodeUTF8
0001fc  8a6a              LDRH     r2,[r5,#0x12]         ;240  ; year2
0001fe  4882              LDR      r0,|L8.1032|
000200  a1ab              ADR      r1,|L8.1200|
000202  301c              ADDS     r0,r0,#0x1c           ;240
000204  f7fffffe          BL       __2sprintf
000208  497f              LDR      r1,|L8.1032|
00020a  4638              MOV      r0,r7                 ;241
00020c  311c              ADDS     r1,r1,#0x1c           ;241
00020e  f7fffffe          BL       TEXT_SetText
000212  e000              B        |L8.534|
                  |L8.532|
000214  e1d8              B        |L8.1480|
                  |L8.534|
000216  4631              MOV      r1,r6                 ;242
000218  4638              MOV      r0,r7                 ;242
00021a  f7fffffe          BL       TEXT_SetTextColor
00021e  4999              LDR      r1,|L8.1156|
000220  4638              MOV      r0,r7                 ;243
000222  f7fffffe          BL       TEXT_SetFont
000226  f640019b          MOV      r1,#0x89b             ;245
00022a  6860              LDR      r0,[r4,#4]            ;245
00022c  f7fffffe          BL       WM_GetDialogItem
000230  4607              MOV      r7,r0                 ;245
000232  f7fffffe          BL       GUI_UC_SetEncodeUTF8
000236  8aaa              LDRH     r2,[r5,#0x14]         ;247  ; year3
000238  4873              LDR      r0,|L8.1032|
00023a  a19d              ADR      r1,|L8.1200|
00023c  301c              ADDS     r0,r0,#0x1c           ;247
00023e  f7fffffe          BL       __2sprintf
000242  4971              LDR      r1,|L8.1032|
000244  4638              MOV      r0,r7                 ;248
000246  311c              ADDS     r1,r1,#0x1c           ;248
000248  f7fffffe          BL       TEXT_SetText
00024c  4631              MOV      r1,r6                 ;249
00024e  4638              MOV      r0,r7                 ;249
000250  f7fffffe          BL       TEXT_SetTextColor
000254  498b              LDR      r1,|L8.1156|
000256  4638              MOV      r0,r7                 ;250
000258  f7fffffe          BL       TEXT_SetFont
00025c  f640019c          MOV      r1,#0x89c             ;252
000260  6860              LDR      r0,[r4,#4]            ;252
000262  f7fffffe          BL       WM_GetDialogItem
000266  4607              MOV      r7,r0                 ;252
000268  f7fffffe          BL       GUI_UC_SetEncodeUTF8
00026c  8aea              LDRH     r2,[r5,#0x16]         ;254  ; year4
00026e  4866              LDR      r0,|L8.1032|
000270  a18f              ADR      r1,|L8.1200|
000272  301c              ADDS     r0,r0,#0x1c           ;254
000274  f7fffffe          BL       __2sprintf
000278  4963              LDR      r1,|L8.1032|
00027a  4638              MOV      r0,r7                 ;255
00027c  311c              ADDS     r1,r1,#0x1c           ;255
00027e  f7fffffe          BL       TEXT_SetText
000282  4631              MOV      r1,r6                 ;256
000284  4638              MOV      r0,r7                 ;256
000286  f7fffffe          BL       TEXT_SetTextColor
00028a  497e              LDR      r1,|L8.1156|
00028c  4638              MOV      r0,r7                 ;257
00028e  f7fffffe          BL       TEXT_SetFont
000292  f640019d          MOV      r1,#0x89d             ;259
000296  6860              LDR      r0,[r4,#4]            ;259
000298  f7fffffe          BL       WM_GetDialogItem
00029c  4607              MOV      r7,r0                 ;259
00029e  f7fffffe          BL       GUI_UC_SetEncodeUTF8
0002a2  786a              LDRB     r2,[r5,#1]            ;261  ; month1
0002a4  4858              LDR      r0,|L8.1032|
0002a6  a182              ADR      r1,|L8.1200|
0002a8  301c              ADDS     r0,r0,#0x1c           ;261
0002aa  f7fffffe          BL       __2sprintf
0002ae  4956              LDR      r1,|L8.1032|
0002b0  4638              MOV      r0,r7                 ;262
0002b2  311c              ADDS     r1,r1,#0x1c           ;262
0002b4  f7fffffe          BL       TEXT_SetText
0002b8  4631              MOV      r1,r6                 ;263
0002ba  4638              MOV      r0,r7                 ;263
0002bc  f7fffffe          BL       TEXT_SetTextColor
0002c0  4970              LDR      r1,|L8.1156|
0002c2  4638              MOV      r0,r7                 ;264
0002c4  f7fffffe          BL       TEXT_SetFont
0002c8  f640019e          MOV      r1,#0x89e             ;266
0002cc  6860              LDR      r0,[r4,#4]            ;266
0002ce  f7fffffe          BL       WM_GetDialogItem
0002d2  4607              MOV      r7,r0                 ;266
0002d4  f7fffffe          BL       GUI_UC_SetEncodeUTF8
0002d8  78aa              LDRB     r2,[r5,#2]            ;268  ; month2
0002da  484b              LDR      r0,|L8.1032|
0002dc  a174              ADR      r1,|L8.1200|
0002de  301c              ADDS     r0,r0,#0x1c           ;268
0002e0  f7fffffe          BL       __2sprintf
0002e4  4948              LDR      r1,|L8.1032|
0002e6  4638              MOV      r0,r7                 ;269
0002e8  311c              ADDS     r1,r1,#0x1c           ;269
0002ea  f7fffffe          BL       TEXT_SetText
0002ee  4631              MOV      r1,r6                 ;270
0002f0  4638              MOV      r0,r7                 ;270
0002f2  f7fffffe          BL       TEXT_SetTextColor
0002f6  4963              LDR      r1,|L8.1156|
0002f8  4638              MOV      r0,r7                 ;271
0002fa  f7fffffe          BL       TEXT_SetFont
0002fe  f6401115          MOV      r1,#0x915             ;273
000302  6860              LDR      r0,[r4,#4]            ;273
000304  f7fffffe          BL       WM_GetDialogItem
000308  4607              MOV      r7,r0                 ;273
00030a  f7fffffe          BL       GUI_UC_SetEncodeUTF8
00030e  78ea              LDRB     r2,[r5,#3]            ;275  ; day1
000310  483d              LDR      r0,|L8.1032|
000312  a167              ADR      r1,|L8.1200|
000314  301c              ADDS     r0,r0,#0x1c           ;275
000316  f7fffffe          BL       __2sprintf
00031a  493b              LDR      r1,|L8.1032|
00031c  4638              MOV      r0,r7                 ;276
00031e  311c              ADDS     r1,r1,#0x1c           ;276
000320  f7fffffe          BL       TEXT_SetText
000324  4631              MOV      r1,r6                 ;277
000326  4638              MOV      r0,r7                 ;277
000328  f7fffffe          BL       TEXT_SetTextColor
00032c  4955              LDR      r1,|L8.1156|
00032e  4638              MOV      r0,r7                 ;278
000330  f7fffffe          BL       TEXT_SetFont
000334  f6401116          MOV      r1,#0x916             ;280
000338  6860              LDR      r0,[r4,#4]            ;280
00033a  f7fffffe          BL       WM_GetDialogItem
00033e  4607              MOV      r7,r0                 ;280
000340  f7fffffe          BL       GUI_UC_SetEncodeUTF8
000344  792a              LDRB     r2,[r5,#4]            ;282  ; day2
000346  4830              LDR      r0,|L8.1032|
000348  a159              ADR      r1,|L8.1200|
00034a  301c              ADDS     r0,r0,#0x1c           ;282
00034c  f7fffffe          BL       __2sprintf
000350  492d              LDR      r1,|L8.1032|
000352  4638              MOV      r0,r7                 ;283
000354  311c              ADDS     r1,r1,#0x1c           ;283
000356  f7fffffe          BL       TEXT_SetText
00035a  4631              MOV      r1,r6                 ;284
00035c  4638              MOV      r0,r7                 ;284
00035e  f7fffffe          BL       TEXT_SetTextColor
000362  4948              LDR      r1,|L8.1156|
000364  4638              MOV      r0,r7                 ;285
000366  f7fffffe          BL       TEXT_SetFont
00036a  f6401117          MOV      r1,#0x917             ;287
00036e  6860              LDR      r0,[r4,#4]            ;287
000370  f7fffffe          BL       WM_GetDialogItem
000374  4607              MOV      r7,r0                 ;287
000376  f7fffffe          BL       GUI_UC_SetEncodeUTF8
00037a  7a2a              LDRB     r2,[r5,#8]            ;289  ; code3
00037c  4822              LDR      r0,|L8.1032|
00037e  a14c              ADR      r1,|L8.1200|
000380  301c              ADDS     r0,r0,#0x1c           ;289
000382  f7fffffe          BL       __2sprintf
000386  4920              LDR      r1,|L8.1032|
000388  4638              MOV      r0,r7                 ;290
00038a  311c              ADDS     r1,r1,#0x1c           ;290
00038c  f7fffffe          BL       TEXT_SetText
000390  4631              MOV      r1,r6                 ;291
000392  4638              MOV      r0,r7                 ;291
000394  f7fffffe          BL       TEXT_SetTextColor
000398  493a              LDR      r1,|L8.1156|
00039a  4638              MOV      r0,r7                 ;292
00039c  f7fffffe          BL       TEXT_SetFont
0003a0  f6401118          MOV      r1,#0x918             ;294
0003a4  6860              LDR      r0,[r4,#4]            ;294
0003a6  f7fffffe          BL       WM_GetDialogItem
0003aa  4607              MOV      r7,r0                 ;294
0003ac  f7fffffe          BL       GUI_UC_SetEncodeUTF8
0003b0  7a6a              LDRB     r2,[r5,#9]            ;296  ; code4
0003b2  4815              LDR      r0,|L8.1032|
0003b4  a13e              ADR      r1,|L8.1200|
0003b6  301c              ADDS     r0,r0,#0x1c           ;296
0003b8  f7fffffe          BL       __2sprintf
0003bc  4912              LDR      r1,|L8.1032|
0003be  4638              MOV      r0,r7                 ;297
0003c0  311c              ADDS     r1,r1,#0x1c           ;297
0003c2  f7fffffe          BL       TEXT_SetText
0003c6  4631              MOV      r1,r6                 ;298
0003c8  4638              MOV      r0,r7                 ;298
0003ca  f7fffffe          BL       TEXT_SetTextColor
0003ce  492d              LDR      r1,|L8.1156|
0003d0  4638              MOV      r0,r7                 ;299
0003d2  f7fffffe          BL       TEXT_SetFont
0003d6  f6401119          MOV      r1,#0x919             ;301
0003da  6860              LDR      r0,[r4,#4]            ;301
0003dc  f7fffffe          BL       WM_GetDialogItem
0003e0  4607              MOV      r7,r0                 ;301
0003e2  f7fffffe          BL       GUI_UC_SetEncodeUTF8
0003e6  7aaa              LDRB     r2,[r5,#0xa]          ;303  ; code5
0003e8  4807              LDR      r0,|L8.1032|
0003ea  a131              ADR      r1,|L8.1200|
0003ec  301c              ADDS     r0,r0,#0x1c           ;303
0003ee  f7fffffe          BL       __2sprintf
0003f2  4905              LDR      r1,|L8.1032|
0003f4  4638              MOV      r0,r7                 ;304
0003f6  311c              ADDS     r1,r1,#0x1c           ;304
0003f8  f7fffffe          BL       TEXT_SetText
0003fc  4631              MOV      r1,r6                 ;305
0003fe  4638              MOV      r0,r7                 ;305
000400  e058              B        |L8.1204|
000402  0000              DCW      0x0000
                  |L8.1028|
                          DCD      0x00bfffff
                  |L8.1032|
                          DCD      ||.data||
                  |L8.1036|
                          DCD      GUI_Fontsymbol
                  |L8.1040|
000410  4a696e6b          DCB      "Jinko",0
000414  6f00    
000416  00                DCB      0
000417  00                DCB      0
                  |L8.1048|
                          DCD      GUI_FontHZ20S
                  |L8.1052|
00041c  e7b3bbe7          DCB      231,179,187,231,187,159,228,191,161,230,129,175
000420  bb9fe4bf
000424  a1e681af
                  |L8.1064|
000428  00                DCB      0
000429  00                DCB      0
00042a  00                DCB      0
00042b  00                DCB      0
                  |L8.1068|
                          DCD      0x00ff8080
                  |L8.1072|
                          DCD      GUI_Fontset_font
                  |L8.1076|
000434  e4bbaae5          DCB      228,187,170,229,153,168,229,158,139,229,143,183,0
000438  99a8e59e
00043c  8be58fb7
000440  00      
000441  00                DCB      0
000442  00                DCB      0
000443  00                DCB      0
                  |L8.1092|
000444  e8bdafe4          DCB      232,189,175,228,187,182,231,137,136,230,156,172,0
000448  bbb6e789
00044c  88e69cac
000450  00      
000451  00                DCB      0
000452  00                DCB      0
000453  00                DCB      0
                  |L8.1108|
000454  e7a1ace4          DCB      231,161,172,228,187,182,231,137,136,230,156,172,0
000458  bbb6e789
00045c  88e69cac
000460  00      
000461  00                DCB      0
000462  00                DCB      0
000463  00                DCB      0
                  |L8.1124|
000464  e7949fe4          DCB      231,148,159,228,186,167,230,151,165,230,156,159,0
000468  baa7e697
00046c  a5e69c9f
000470  00      
000471  00                DCB      0
000472  00                DCB      0
000473  00                DCB      0
                  |L8.1140|
000474  e4bbaae5          DCB      228,187,170,229,153,168,231,188,150,229,143,183,0
000478  99a8e7bc
00047c  96e58fb7
000480  00      
000481  00                DCB      0
000482  00                DCB      0
000483  00                DCB      0
                  |L8.1156|
                          DCD      GUI_Font24_1
                  |L8.1160|
000488  4a4b3535          DCB      "JK5530B",0
00048c  33304200
                  |L8.1168|
000490  5665723a          DCB      "Ver:3.1",0
000494  332e3100
                  |L8.1176|
000498  5665723a          DCB      "Ver:1.3",0
00049c  312e3300
                  |L8.1184|
0004a0  2d00              DCB      "-",0
0004a2  00                DCB      0
0004a3  00                DCB      0
                  |L8.1188|
0004a4  4100              DCB      "A",0
0004a6  00                DCB      0
0004a7  00                DCB      0
                  |L8.1192|
                          DCD      pass
                  |L8.1196|
                          DCD      NTC_value
                  |L8.1200|
0004b0  256400            DCB      "%d",0
0004b3  00                DCB      0
                  |L8.1204|
0004b4  f7fffffe          BL       TEXT_SetTextColor
0004b8  4944              LDR      r1,|L8.1484|
0004ba  4638              MOV      r0,r7                 ;306
0004bc  f7fffffe          BL       TEXT_SetFont
0004c0  f640111a          MOV      r1,#0x91a             ;308
0004c4  6860              LDR      r0,[r4,#4]            ;308
0004c6  f7fffffe          BL       WM_GetDialogItem
0004ca  4607              MOV      r7,r0                 ;308
0004cc  f7fffffe          BL       GUI_UC_SetEncodeUTF8
0004d0  7aea              LDRB     r2,[r5,#0xb]          ;310  ; code6
0004d2  f2af0124          ADR      r1,|L8.1200|
0004d6  483e              LDR      r0,|L8.1488|
0004d8  f7fffffe          BL       __2sprintf
0004dc  493c              LDR      r1,|L8.1488|
0004de  4638              MOV      r0,r7                 ;311
0004e0  f7fffffe          BL       TEXT_SetText
0004e4  4631              MOV      r1,r6                 ;312
0004e6  4638              MOV      r0,r7                 ;312
0004e8  f7fffffe          BL       TEXT_SetTextColor
0004ec  4937              LDR      r1,|L8.1484|
0004ee  4638              MOV      r0,r7                 ;313
0004f0  f7fffffe          BL       TEXT_SetFont
0004f4  f640111b          MOV      r1,#0x91b             ;315
0004f8  6860              LDR      r0,[r4,#4]            ;315
0004fa  f7fffffe          BL       WM_GetDialogItem
0004fe  4607              MOV      r7,r0                 ;315
000500  f7fffffe          BL       GUI_UC_SetEncodeUTF8
000504  7b2a              LDRB     r2,[r5,#0xc]          ;317  ; code7
000506  f2af0158          ADR      r1,|L8.1200|
00050a  4831              LDR      r0,|L8.1488|
00050c  f7fffffe          BL       __2sprintf
000510  492f              LDR      r1,|L8.1488|
000512  4638              MOV      r0,r7                 ;318
000514  f7fffffe          BL       TEXT_SetText
000518  4631              MOV      r1,r6                 ;319
00051a  4638              MOV      r0,r7                 ;319
00051c  f7fffffe          BL       TEXT_SetTextColor
000520  492a              LDR      r1,|L8.1484|
000522  4638              MOV      r0,r7                 ;320
000524  f7fffffe          BL       TEXT_SetFont
000528  f640111c          MOV      r1,#0x91c             ;322
00052c  6860              LDR      r0,[r4,#4]            ;322
00052e  f7fffffe          BL       WM_GetDialogItem
000532  4607              MOV      r7,r0                 ;322
000534  f7fffffe          BL       GUI_UC_SetEncodeUTF8
000538  7b6a              LDRB     r2,[r5,#0xd]          ;324  ; code8
00053a  f2af018c          ADR      r1,|L8.1200|
00053e  4824              LDR      r0,|L8.1488|
000540  f7fffffe          BL       __2sprintf
000544  4922              LDR      r1,|L8.1488|
000546  4638              MOV      r0,r7                 ;325
000548  f7fffffe          BL       TEXT_SetText
00054c  4631              MOV      r1,r6                 ;326
00054e  4638              MOV      r0,r7                 ;326
000550  f7fffffe          BL       TEXT_SetTextColor
000554  491d              LDR      r1,|L8.1484|
000556  4638              MOV      r0,r7                 ;327
000558  f7fffffe          BL       TEXT_SetFont
00055c  f640111d          MOV      r1,#0x91d             ;329
000560  6860              LDR      r0,[r4,#4]            ;329
000562  f7fffffe          BL       WM_GetDialogItem
000566  4607              MOV      r7,r0                 ;329
000568  f7fffffe          BL       GUI_UC_SetEncodeUTF8
00056c  79aa              LDRB     r2,[r5,#6]            ;331  ; code1
00056e  f2af01c0          ADR      r1,|L8.1200|
000572  4817              LDR      r0,|L8.1488|
000574  f7fffffe          BL       __2sprintf
000578  4915              LDR      r1,|L8.1488|
00057a  4638              MOV      r0,r7                 ;332
00057c  f7fffffe          BL       TEXT_SetText
000580  4631              MOV      r1,r6                 ;333
000582  4638              MOV      r0,r7                 ;333
000584  f7fffffe          BL       TEXT_SetTextColor
000588  4910              LDR      r1,|L8.1484|
00058a  4638              MOV      r0,r7                 ;334
00058c  f7fffffe          BL       TEXT_SetFont
000590  f640111e          MOV      r1,#0x91e             ;336
000594  6860              LDR      r0,[r4,#4]            ;336
000596  f7fffffe          BL       WM_GetDialogItem
00059a  4604              MOV      r4,r0                 ;336
00059c  f7fffffe          BL       GUI_UC_SetEncodeUTF8
0005a0  79ea              LDRB     r2,[r5,#7]            ;338  ; code2
0005a2  f2af01f4          ADR      r1,|L8.1200|
0005a6  480a              LDR      r0,|L8.1488|
0005a8  f7fffffe          BL       __2sprintf
0005ac  4908              LDR      r1,|L8.1488|
0005ae  4620              MOV      r0,r4                 ;339
0005b0  f7fffffe          BL       TEXT_SetText
0005b4  4631              MOV      r1,r6                 ;340
0005b6  4620              MOV      r0,r4                 ;340
0005b8  f7fffffe          BL       TEXT_SetTextColor
0005bc  4620              MOV      r0,r4                 ;341
0005be  e8bd41f0          POP      {r4-r8,lr}            ;341
0005c2  4902              LDR      r1,|L8.1484|
0005c4  f7ffbffe          B.W      TEXT_SetFont
                  |L8.1480|
;;;352            break;
;;;353      }
;;;354    }
0005c8  e8bd81f0          POP      {r4-r8,pc}
;;;355    
                          ENDP

                  |L8.1484|
                          DCD      GUI_Font24_1
                  |L8.1488|
                          DCD      ||.data||+0x1c

                          AREA ||.constdata||, DATA, READONLY, ALIGN=2

                  _aDialogCreate7
                          DCD      WINDOW_CreateIndirect
                          DCD      ||.conststring||
000008  08980000          DCW      0x0898,0x0000
00000c  000001e0          DCW      0x0000,0x01e0
000010  01100000          DCW      0x0110,0x0000
                          DCD      0x00000000
                          DCD      0x00000000
                          DCD      TEXT_CreateIndirect
                          DCD      ||.conststring||+0x8
000024  0899008c          DCW      0x0899,0x008c
000028  007d000c          DCW      0x007d,0x000c
00002c  00140000          DCW      0x0014,0x0000
                          DCD      0x00000000
                          DCD      0x00000000
                          DCD      TEXT_CreateIndirect
                          DCD      ||.conststring||+0x8
000040  089a0098          DCW      0x089a,0x0098
000044  007d000c          DCW      0x007d,0x000c
000048  00140000          DCW      0x0014,0x0000
                          DCD      0x00000000
                          DCD      0x00000000
                          DCD      TEXT_CreateIndirect
                          DCD      ||.conststring||+0x8
00005c  089b00a4          DCW      0x089b,0x00a4
000060  007d000c          DCW      0x007d,0x000c
000064  00140000          DCW      0x0014,0x0000
                          DCD      0x00000000
                          DCD      0x00000000
                          DCD      TEXT_CreateIndirect
                          DCD      ||.conststring||+0x8
000078  089c00b0          DCW      0x089c,0x00b0
00007c  007d000c          DCW      0x007d,0x000c
000080  00140000          DCW      0x0014,0x0000
                          DCD      0x00000000
                          DCD      0x00000000
                          DCD      TEXT_CreateIndirect
                          DCD      ||.conststring||+0x8
000094  089d00c8          DCW      0x089d,0x00c8
000098  007d000c          DCW      0x007d,0x000c
00009c  00140000          DCW      0x0014,0x0000
                          DCD      0x00000000
                          DCD      0x00000000
                          DCD      TEXT_CreateIndirect
                          DCD      ||.conststring||+0x8
0000b0  089e00d4          DCW      0x089e,0x00d4
0000b4  007d000c          DCW      0x007d,0x000c
0000b8  00140000          DCW      0x0014,0x0000
                          DCD      0x00000000
                          DCD      0x00000000
                          DCD      TEXT_CreateIndirect
                          DCD      ||.conststring||+0x8
0000cc  091500ec          DCW      0x0915,0x00ec
0000d0  007d000c          DCW      0x007d,0x000c
0000d4  00140000          DCW      0x0014,0x0000
                          DCD      0x00000000
                          DCD      0x00000000
                          DCD      TEXT_CreateIndirect
                          DCD      ||.conststring||+0x8
0000e8  091600f8          DCW      0x0916,0x00f8
0000ec  007d000c          DCW      0x007d,0x000c
0000f0  00140000          DCW      0x0014,0x0000
                          DCD      0x00000000
                          DCD      0x00000000
                          DCD      TEXT_CreateIndirect
                          DCD      ||.conststring||+0x8
000104  091700b0          DCW      0x0917,0x00b0
000108  0096000c          DCW      0x0096,0x000c
00010c  00140000          DCW      0x0014,0x0000
                          DCD      0x00000000
                          DCD      0x00000000
                          DCD      TEXT_CreateIndirect
                          DCD      ||.conststring||+0x8
000120  091800bc          DCW      0x0918,0x00bc
000124  0096000c          DCW      0x0096,0x000c
000128  00140000          DCW      0x0014,0x0000
                          DCD      0x00000000
                          DCD      0x00000000
                          DCD      TEXT_CreateIndirect
                          DCD      ||.conststring||+0x8
00013c  091900c8          DCW      0x0919,0x00c8
000140  0096000c          DCW      0x0096,0x000c
000144  00140000          DCW      0x0014,0x0000
                          DCD      0x00000000
                          DCD      0x00000000
                          DCD      TEXT_CreateIndirect
                          DCD      ||.conststring||+0x8
000158  091a00d4          DCW      0x091a,0x00d4
00015c  0096000c          DCW      0x0096,0x000c
000160  00140000          DCW      0x0014,0x0000
                          DCD      0x00000000
                          DCD      0x00000000
                          DCD      TEXT_CreateIndirect
                          DCD      ||.conststring||+0x8
000174  091b00e0          DCW      0x091b,0x00e0
000178  0096000c          DCW      0x0096,0x000c
00017c  00140000          DCW      0x0014,0x0000
                          DCD      0x00000000
                          DCD      0x00000000
                          DCD      TEXT_CreateIndirect
                          DCD      ||.conststring||+0x8
000190  091c00ec          DCW      0x091c,0x00ec
000194  0096000c          DCW      0x0096,0x000c
000198  00140000          DCW      0x0014,0x0000
                          DCD      0x00000000
                          DCD      0x00000000
                          DCD      TEXT_CreateIndirect
                          DCD      ||.conststring||+0x8
0001ac  091d008c          DCW      0x091d,0x008c
0001b0  0096000c          DCW      0x0096,0x000c
0001b4  00140000          DCW      0x0014,0x0000
                          DCD      0x00000000
                          DCD      0x00000000
                          DCD      TEXT_CreateIndirect
                          DCD      ||.conststring||+0x8
0001c8  091e0098          DCW      0x091e,0x0098
0001cc  0096000c          DCW      0x0096,0x000c
0001d0  00140000          DCW      0x0014,0x0000
                          DCD      0x00000000
                          DCD      0x00000000
                          DCD      TEXT_CreateIndirect
                          DCD      ||.conststring||+0x8
0001e4  092500c0          DCW      0x0925,0x00c0
0001e8  00c80050          DCW      0x00c8,0x0050
0001ec  00140000          DCW      0x0014,0x0000
                          DCD      0x00000000
                          DCD      0x00000000

                          AREA ||.conststring||, DATA, READONLY, MERGE=1, STRINGS, ALIGN=2

000000  53595349          DCB      "SYSINFO",0
000004  4e464f00
000008  54657874          DCB      "Text",0
00000c  00      

                          AREA ||.data||, DATA, ALIGN=2

                  info_set
000000  2f                DCB      0x2f
                  month1
000001  00                DCB      0x00
                  month2
000002  00                DCB      0x00
                  day1
000003  00                DCB      0x00
                  day2
000004  00                DCB      0x00
                  admin
000005  00                DCB      0x00
                  code1
000006  00                DCB      0x00
                  code2
000007  00                DCB      0x00
                  code3
000008  00                DCB      0x00
                  code4
000009  00                DCB      0x00
                  code5
00000a  00                DCB      0x00
                  code6
00000b  00                DCB      0x00
                  code7
00000c  00                DCB      0x00
                  code8
00000d  00                DCB      0x00
                  ||cal||
00000e  0000              DCB      0x00,0x00
                  year1
000010  0000              DCW      0x0000
                  year2
000012  0000              DCW      0x0000
                  year3
000014  0000              DCW      0x0000
                  year4
000016  0000              DCW      0x0000
                  hWinsysinfo
                          DCD      0x00000000
                  buf
                          DCD      0x00000000
000020  00                DCB      0x00
                  |symbol_number.48|
000021  000000            DCB      0x00,0x00,0x00
000024  0000              DCB      0x00,0x00

;*** Start embedded assembler ***

#line 1 "..\\APP\\sysinfo.c"
	AREA ||.rev16_text||, CODE
	THUMB
	EXPORT |__asm___9_sysinfo_c_info_set____REV16|
#line 129 "D:\\Keil_v5\\ARM\\CMSIS\\Include\\core_cmInstr.h"
|__asm___9_sysinfo_c_info_set____REV16| PROC
#line 130

 rev16 r0, r0
 bx lr
	ENDP
	AREA ||.revsh_text||, CODE
	THUMB
	EXPORT |__asm___9_sysinfo_c_info_set____REVSH|
#line 144
|__asm___9_sysinfo_c_info_set____REVSH| PROC
#line 145

 revsh r0, r0
 bx lr
	ENDP

;*** End   embedded assembler ***
